00000000 c7fe                 LGOTO 0x1; __nyc_ny8_startup=0x1
00000001                      __nyc_ny8_startup:
00000001 d11a                 LCALL 0x6e5; ___cinit_load__=0x6e5
00000002 c793                 LGOTO 0x6c; _main=0x6c
00000003                      main.o:_00961_DS_:
00000003 f56f                 BTRSS 0x10, 0x5
00000004 c7fc                 LGOTO 0x3; main.o:_00961_DS_=0x3
00000005 ffef                 RET
00000008 c7f6                 LGOTO 0x9; main.o:__sdcc_interrupt=0x9
00000009                      main.o:__sdcc_interrupt:
00000009 ff3d                 MOVAR 0x42
0000000a eafc                 SWAPR 0x3, 0x0
0000000b fd7c                 CLRR 0x3
0000000c ff3e                 MOVAR 0x41
0000000d fef5                 MOVR 0xa, 0x0
0000000e fd75                 CLRR 0xa
0000000f ff3f                 MOVAR 0x40
00000010 fefb                 MOVR 0x4, 0x0
00000011 e0fc                 BCR 0x3, 0x6
00000012 ff26                 MOVAR 0x59
00000013 feb8                 MOVR 0x47, 0x0
00000014 ff25                 MOVAR 0x5a
00000015 feb9                 MOVR 0x46, 0x0
00000016 ff24                 MOVAR 0x5b
00000017 f7f0                 BTRSS 0xf, 0x0
00000018 c7a7                 LGOTO 0x58; main.o:_00128_DS_=0x58
00000019 dec8                 MOVIA 0x37
0000001a fc7e                 ADDAR 0x1, 0x1
0000001b fa22                 INCR 0x5d, 0x1
0000001c de9b                 MOVIA 0x64
0000001d fba2                 SUBAR 0x5d, 0x0
0000001e f7fc                 BTRSS 0x3, 0x0
0000001f c7a7                 LGOTO 0x58; main.o:_00128_DS_=0x58
00000020 e7a3                 BSR 0x5c, 0x0
00000021 fd22                 CLRR 0x5d
00000022 fe9f                 MOVR 0x60, 0x0
00000023 f2fc                 BTRSC 0x3, 0x2
00000024 c7d7                 LGOTO 0x28; main.o:_00106_DS_=0x28
00000025 fa1d                 INCR 0x62, 0x1
00000026 f2fc                 BTRSC 0x3, 0x2
00000027 fa1c                 INCR 0x63, 0x1
00000028                      main.o:_00106_DS_:
00000028 e0fc                 BCR 0x3, 0x6
00000029 fa21                 INCR 0x5e, 0x1
0000002a ded7                 MOVIA 0x28
0000002b fba1                 SUBAR 0x5e, 0x0
0000002c f3fc                 BTRSC 0x3, 0x0
0000002d fd21                 CLRR 0x5e
0000002e fa13                 INCR 0x6c, 0x1
0000002f deeb                 MOVIA 0x14
00000030 fb93                 SUBAR 0x6c, 0x0
00000031 f7fc                 BTRSS 0x3, 0x0
00000032 c7c8                 LGOTO 0x37; main.o:_00112_DS_=0x37
00000033 fd13                 CLRR 0x6c
00000034 fe81                 MOVR 0x7e, 0x0
00000035 f6fc                 BTRSS 0x3, 0x2
00000036 f901                 DECR 0x7e, 0x1
00000037                      main.o:_00112_DS_:
00000037 e0fc                 BCR 0x3, 0x6
00000038 fa12                 INCR 0x6d, 0x1
00000039 de9b                 MOVIA 0x64
0000003a fb92                 SUBAR 0x6d, 0x0
0000003b f7fc                 BTRSS 0x3, 0x0
0000003c c7a7                 LGOTO 0x58; main.o:_00128_DS_=0x58
0000003d fd12                 CLRR 0x6d
0000003e f623                 BTRSS 0x5c, 0x3
0000003f c7b8                 LGOTO 0x47; main.o:_00114_DS_=0x47
00000040 fe98                 MOVR 0x67, 0x0
00000041 dbf9                 XORIA 0x6
00000042 f6fc                 BTRSS 0x3, 0x2
00000043 c7b8                 LGOTO 0x47; main.o:_00114_DS_=0x47
00000044 fa17                 INCR 0x68, 0x1
00000045 f2fc                 BTRSC 0x3, 0x2
00000046 fa16                 INCR 0x69, 0x1
00000047                      main.o:_00114_DS_:
00000047 e0fc                 BCR 0x3, 0x6
00000048 fe8d                 MOVR 0x72, 0x0
00000049 f6fc                 BTRSS 0x3, 0x2
0000004a f90d                 DECR 0x72, 0x1
0000004b fe89                 MOVR 0x76, 0x0
0000004c f6fc                 BTRSS 0x3, 0x2
0000004d f909                 DECR 0x76, 0x1
0000004e fe9f                 MOVR 0x60, 0x0
0000004f f2fc                 BTRSC 0x3, 0x2
00000050 c7aa                 LGOTO 0x55; main.o:_00121_DS_=0x55
00000051 fa11                 INCR 0x6e, 0x1
00000052 f2fc                 BTRSC 0x3, 0x2
00000053 fa10                 INCR 0x6f, 0x1
00000054 c7a7                 LGOTO 0x58; main.o:_00128_DS_=0x58
00000055                      main.o:_00121_DS_:
00000055 e0fc                 BCR 0x3, 0x6
00000056 fd11                 CLRR 0x6e
00000057 fd10                 CLRR 0x6f
00000058                      main.o:_00128_DS_:
00000058 f770                 BTRSS 0xf, 0x1
00000059 c7a3                 LGOTO 0x5c; main.o:_00130_DS_=0x5c
0000005a de02                 MOVIA 0xfd
0000005b ff70                 MOVAR 0xf
0000005c                      main.o:_00130_DS_:
0000005c fd70                 CLRR 0xf
0000005d e0fc                 BCR 0x3, 0x6
0000005e fea4                 MOVR 0x5b, 0x0
0000005f ff39                 MOVAR 0x46
00000060 fea5                 MOVR 0x5a, 0x0
00000061 ff38                 MOVAR 0x47
00000062 fea6                 MOVR 0x59, 0x0
00000063 ff7b                 MOVAR 0x4
00000064 febf                 MOVR 0x40, 0x0
00000065 ff75                 MOVAR 0xa
00000066 fd7c                 CLRR 0x3
00000067 eabe                 SWAPR 0x41, 0x0
00000068 ff7c                 MOVAR 0x3
00000069 ea3d                 SWAPR 0x42, 0x1
0000006a eabd                 SWAPR 0x42, 0x0
0000006b                      main.o:END_OF_INTERRUPT:
0000006b ffee                 RETIE
0000006c                      _main:
0000006c d1dc                 LCALL 0x623; _initSys=0x623
0000006d d3d3                 LCALL 0x42c; _initAD=0x42c
0000006e                      main.o:_00184_DS_:
0000006e fffd                 CLRWDT
0000006f d230                 LCALL 0x5cf; _ledShow=0x5cf
00000070 e0fc                 BCR 0x3, 0x6
00000071 fe9f                 MOVR 0x60, 0x0
00000072 f2fc                 BTRSC 0x3, 0x2
00000073 c777                 LGOTO 0x88; main.o:_00141_DS_=0x88
00000074 ded7                 MOVIA 0x28
00000075 fb87                 SUBAR 0x78, 0x0
00000076 f7fc                 BTRSS 0x3, 0x0
00000077 c777                 LGOTO 0x88; main.o:_00141_DS_=0x88
00000078 fe85                 MOVR 0x7a, 0x0
00000079 fb87                 SUBAR 0x78, 0x0
0000007a f3fc                 BTRSC 0x3, 0x0
0000007b c77f                 LGOTO 0x80; main.o:_00138_DS_=0x80
0000007c f905                 DECR 0x7a, 0x1
0000007d fe85                 MOVR 0x7a, 0x0
0000007e ffb3                 SFUN 0xc
0000007f c777                 LGOTO 0x88; main.o:_00141_DS_=0x88
00000080                      main.o:_00138_DS_:
00000080 e0fc                 BCR 0x3, 0x6
00000081 fe87                 MOVR 0x78, 0x0
00000082 fb85                 SUBAR 0x7a, 0x0
00000083 f3fc                 BTRSC 0x3, 0x0
00000084 c777                 LGOTO 0x88; main.o:_00141_DS_=0x88
00000085 fa05                 INCR 0x7a, 0x1
00000086 fe85                 MOVR 0x7a, 0x0
00000087 ffb3                 SFUN 0xc
00000088                      main.o:_00141_DS_:
00000088 e0fc                 BCR 0x3, 0x6
00000089 fe9f                 MOVR 0x60, 0x0
0000008a f2fc                 BTRSC 0x3, 0x2
0000008b c76a                 LGOTO 0x95; main.o:_00144_DS_=0x95
0000008c fe8c                 MOVR 0x73, 0x0
0000008d fb99                 SUBAR 0x66, 0x0
0000008e f3fc                 BTRSC 0x3, 0x0
0000008f c76a                 LGOTO 0x95; main.o:_00144_DS_=0x95
00000090 f90c                 DECR 0x73, 0x1
00000091 fe8c                 MOVR 0x73, 0x0
00000092 ffb3                 SFUN 0xc
00000093 fe8c                 MOVR 0x73, 0x0
00000094 ff05                 MOVAR 0x7a
00000095                      main.o:_00144_DS_:
00000095 e0fc                 BCR 0x3, 0x6
00000096 f7a3                 BTRSS 0x5c, 0x0
00000097 c791                 LGOTO 0x6e; main.o:_00184_DS_=0x6e
00000098 e3a3                 BCR 0x5c, 0x0
00000099 fe89                 MOVR 0x76, 0x0
0000009a f6fc                 BTRSS 0x3, 0x2
0000009b c749                 LGOTO 0xb6; main.o:_00151_DS_=0xb6
0000009c fe98                 MOVR 0x67, 0x0
0000009d f6fc                 BTRSS 0x3, 0x2
0000009e c749                 LGOTO 0xb6; main.o:_00151_DS_=0xb6
0000009f fe9f                 MOVR 0x60, 0x0
000000a0 f2fc                 BTRSC 0x3, 0x2
000000a1 c749                 LGOTO 0xb6; main.o:_00151_DS_=0xb6
000000a2 e4fc                 BSR 0x3, 0x6
000000a3 fa5f                 INCR 0x20, 0x1
000000a4 f2fc                 BTRSC 0x3, 0x2
000000a5 fa5e                 INCR 0x21, 0x1
000000a6 defc                 MOVIA 0x3
000000a7 fbde                 SUBAR 0x21, 0x0
000000a8 f6fc                 BTRSS 0x3, 0x2
000000a9 c753                 LGOTO 0xac; main.o:_00276_DS_=0xac
000000aa de17                 MOVIA 0xe8
000000ab fbdf                 SUBAR 0x20, 0x0
000000ac                      main.o:_00276_DS_:
000000ac f7fc                 BTRSS 0x3, 0x0
000000ad c746                 LGOTO 0xb9; main.o:_00152_DS_=0xb9
000000ae e4fc                 BSR 0x3, 0x6
000000af fd5f                 CLRR 0x20
000000b0 fd5e                 CLRR 0x21
000000b1 e0fc                 BCR 0x3, 0x6
000000b2 fd1f                 CLRR 0x60
000000b3 fd1e                 CLRR 0x61
000000b4 d2c6                 LCALL 0x539; _pwmStop=0x539
000000b5 c746                 LGOTO 0xb9; main.o:_00152_DS_=0xb9
000000b6                      main.o:_00151_DS_:
000000b6 e4fc                 BSR 0x3, 0x6
000000b7 fd5f                 CLRR 0x20
000000b8 fd5e                 CLRR 0x21
000000b9                      main.o:_00152_DS_:
000000b9 defa                 MOVIA 0x5
000000ba e0fc                 BCR 0x3, 0x6
000000bb fb8e                 SUBAR 0x71, 0x0
000000bc f7fc                 BTRSS 0x3, 0x0
000000bd c72b                 LGOTO 0xd4; main.o:_00158_DS_=0xd4
000000be fe9f                 MOVR 0x60, 0x0
000000bf f2fc                 BTRSC 0x3, 0x2
000000c0 c72b                 LGOTO 0xd4; main.o:_00158_DS_=0xd4
000000c1 fa03                 INCR 0x7c, 0x1
000000c2 f2fc                 BTRSC 0x3, 0x2
000000c3 fa02                 INCR 0x7d, 0x1
000000c4 defe                 MOVIA 0x1
000000c5 fb82                 SUBAR 0x7d, 0x0
000000c6 f6fc                 BTRSS 0x3, 0x2
000000c7 c735                 LGOTO 0xca; main.o:_00278_DS_=0xca
000000c8 de0a                 MOVIA 0xf5
000000c9 fb83                 SUBAR 0x7c, 0x0
000000ca                      main.o:_00278_DS_:
000000ca f7fc                 BTRSS 0x3, 0x0
000000cb c728                 LGOTO 0xd7; main.o:_00159_DS_=0xd7
000000cc e0fc                 BCR 0x3, 0x6
000000cd fd0e                 CLRR 0x71
000000ce fd03                 CLRR 0x7c
000000cf fd02                 CLRR 0x7d
000000d0 dee6                 MOVIA 0x19
000000d1 ff01                 MOVAR 0x7e
000000d2 d1bf                 LCALL 0x640; _powerOff=0x640
000000d3 c728                 LGOTO 0xd7; main.o:_00159_DS_=0xd7
000000d4                      main.o:_00158_DS_:
000000d4 e0fc                 BCR 0x3, 0x6
000000d5 fd03                 CLRR 0x7c
000000d6 fd02                 CLRR 0x7d
000000d7                      main.o:_00159_DS_:
000000d7 e0fc                 BCR 0x3, 0x6
000000d8 f623                 BTRSS 0x5c, 0x3
000000d9 d1bb                 LCALL 0x644; _keyCtr=0x644
000000da                      main.o:_00162_DS_:
000000da defa                 MOVIA 0x5
000000db e0fc                 BCR 0x3, 0x6
000000dc fb93                 SUBAR 0x6c, 0x0
000000dd f3fc                 BTRSC 0x3, 0x0
000000de c71e                 LGOTO 0xe1; main.o:_00171_DS_=0xe1
000000df d587                 LCALL 0x278; _checkBatAD=0x278
000000e0 c70a                 LGOTO 0xf5; main.o:_00172_DS_=0xf5
000000e1                      main.o:_00171_DS_:
000000e1 def6                 MOVIA 0x9
000000e2 e0fc                 BCR 0x3, 0x6
000000e3 fb93                 SUBAR 0x6c, 0x0
000000e4 f7fc                 BTRSS 0x3, 0x0
000000e5 c713                 LGOTO 0xec; main.o:_00167_DS_=0xec
000000e6 def4                 MOVIA 0xb
000000e7 fb93                 SUBAR 0x6c, 0x0
000000e8 f3fc                 BTRSC 0x3, 0x0
000000e9 c713                 LGOTO 0xec; main.o:_00167_DS_=0xec
000000ea d66d                 LCALL 0x192; _checkOutA=0x192
000000eb c70a                 LGOTO 0xf5; main.o:_00172_DS_=0xf5
000000ec                      main.o:_00167_DS_:
000000ec def1                 MOVIA 0xe
000000ed e0fc                 BCR 0x3, 0x6
000000ee fb93                 SUBAR 0x6c, 0x0
000000ef f7fc                 BTRSS 0x3, 0x0
000000f0 c70a                 LGOTO 0xf5; main.o:_00172_DS_=0xf5
000000f1 deef                 MOVIA 0x10
000000f2 fb93                 SUBAR 0x6c, 0x0
000000f3 f7fc                 BTRSS 0x3, 0x0
000000f4 d5af                 LCALL 0x250; _checkChrgV=0x250
000000f5                      main.o:_00172_DS_:
000000f5 d3bc                 LCALL 0x443; _chrgCtr=0x443
000000f6 e0fc                 BCR 0x3, 0x6
000000f7 fe9f                 MOVR 0x60, 0x0
000000f8 f6fc                 BTRSS 0x3, 0x2
000000f9 c6ee                 LGOTO 0x111; main.o:_00176_DS_=0x111
000000fa fea0                 MOVR 0x5f, 0x0
000000fb f6fc                 BTRSS 0x3, 0x2
000000fc c6ee                 LGOTO 0x111; main.o:_00176_DS_=0x111
000000fd f27a                 BTRSC 0x5, 0x3
000000fe c6ee                 LGOTO 0x111; main.o:_00176_DS_=0x111
000000ff fe8d                 MOVR 0x72, 0x0
00000100 f6fc                 BTRSS 0x3, 0x2
00000101 c6ee                 LGOTO 0x111; main.o:_00176_DS_=0x111
00000102 fe81                 MOVR 0x7e, 0x0
00000103 f6fc                 BTRSS 0x3, 0x2
00000104 c6ee                 LGOTO 0x111; main.o:_00176_DS_=0x111
00000105 fa15                 INCR 0x6a, 0x1
00000106 f2fc                 BTRSC 0x3, 0x2
00000107 fa14                 INCR 0x6b, 0x1
00000108 deff                 MOVIA 0x0
00000109 fb94                 SUBAR 0x6b, 0x0
0000010a f6fc                 BTRSS 0x3, 0x2
0000010b c6f1                 LGOTO 0x10e; main.o:_00284_DS_=0x10e
0000010c deea                 MOVIA 0x15
0000010d fb95                 SUBAR 0x6a, 0x0
0000010e                      main.o:_00284_DS_:
0000010e f7fc                 BTRSS 0x3, 0x0
0000010f c6ee                 LGOTO 0x111; main.o:_00176_DS_=0x111
00000110 d2f3                 LCALL 0x50c; _gotoSleep=0x50c
00000111                      main.o:_00176_DS_:
00000111 defc                 MOVIA 0x3
00000112 e0fc                 BCR 0x3, 0x6
00000113 fb90                 SUBAR 0x6f, 0x0
00000114 f6fc                 BTRSS 0x3, 0x2
00000115 c6e7                 LGOTO 0x118; main.o:_00285_DS_=0x118
00000116 de7b                 MOVIA 0x84
00000117 fb91                 SUBAR 0x6e, 0x0
00000118                      main.o:_00285_DS_:
00000118 f7fc                 BTRSS 0x3, 0x0
00000119 c791                 LGOTO 0x6e; main.o:_00184_DS_=0x6e
0000011a d1bf                 LCALL 0x640; _powerOff=0x640
0000011b c791                 LGOTO 0x6e; main.o:_00184_DS_=0x6e
0000011c ffef                 RET
0000011d                      _F_AIN2_Convert:
0000011d e0fc                 BCR 0x3, 0x6
0000011e ff2f                 MOVAR 0x50
0000011f fd57                 CLRR 0x28
00000120 fd59                 CLRR 0x26
00000121 fd58                 CLRR 0x27
00000122 de6d                 MOVIA 0x92
00000123 ff6f                 MOVAR 0x10
00000124 de37                 MOVIA 0xc8
00000125 d3c8                 LCALL 0x437; _delay=0x437
00000126 defe                 MOVIA 0x1
00000127 e0fc                 BCR 0x3, 0x6
00000128 ff2e                 MOVAR 0x51
00000129                      main.o:_00954_DS_:
00000129 e0fc                 BCR 0x3, 0x6
0000012a feae                 MOVR 0x51, 0x0
0000012b fbaf                 SUBAR 0x50, 0x0
0000012c f7fc                 BTRSS 0x3, 0x0
0000012d c6bc                 LGOTO 0x143; main.o:_00956_DS_=0x143
0000012e e4ef                 BSR 0x10, 0x6
0000012f d7fc                 LCALL 0x3; main.o:_00961_DS_=0x3
00000130 def0                 MOVIA 0xf
00000131 efee                 ANDAR 0x11, 0x0
00000132 e0fc                 BCR 0x3, 0x6
00000133 fc57                 ADDAR 0x28, 0x1
00000134 feed                 MOVR 0x12, 0x0
00000135 ff2d                 MOVAR 0x52
00000136 deff                 MOVIA 0x0
00000137 ff2c                 MOVAR 0x53
00000138 fead                 MOVR 0x52, 0x0
00000139 fc59                 ADDAR 0x26, 0x1
0000013a feac                 MOVR 0x53, 0x0
0000013b f3fc                 BTRSC 0x3, 0x0
0000013c faac                 INCR 0x53, 0x0
0000013d f2fc                 BTRSC 0x3, 0x2
0000013e c6bf                 LGOTO 0x140; main.o:_00001_DS_=0x140
0000013f fc58                 ADDAR 0x27, 0x1
00000140                      main.o:_00001_DS_:
00000140 e0fc                 BCR 0x3, 0x6
00000141 fa2e                 INCR 0x51, 0x1
00000142 c6d6                 LGOTO 0x129; main.o:_00954_DS_=0x129
00000143                      main.o:_00956_DS_:
00000143 ffef                 RET
00000144                      _F_AIN3_Convert:
00000144 e0fc                 BCR 0x3, 0x6
00000145 ff33                 MOVAR 0x4c
00000146 fd5a                 CLRR 0x25
00000147 fd5c                 CLRR 0x23
00000148 fd5b                 CLRR 0x24
00000149 de6c                 MOVIA 0x93
0000014a ff6f                 MOVAR 0x10
0000014b de37                 MOVIA 0xc8
0000014c d3c8                 LCALL 0x437; _delay=0x437
0000014d defe                 MOVIA 0x1
0000014e e0fc                 BCR 0x3, 0x6
0000014f ff32                 MOVAR 0x4d
00000150                      main.o:_00945_DS_:
00000150 e0fc                 BCR 0x3, 0x6
00000151 feb2                 MOVR 0x4d, 0x0
00000152 fbb3                 SUBAR 0x4c, 0x0
00000153 f7fc                 BTRSS 0x3, 0x0
00000154 c695                 LGOTO 0x16a; main.o:_00947_DS_=0x16a
00000155 e4ef                 BSR 0x10, 0x6
00000156 d7fc                 LCALL 0x3; main.o:_00961_DS_=0x3
00000157 def0                 MOVIA 0xf
00000158 efee                 ANDAR 0x11, 0x0
00000159 e0fc                 BCR 0x3, 0x6
0000015a fc5a                 ADDAR 0x25, 0x1
0000015b feed                 MOVR 0x12, 0x0
0000015c ff31                 MOVAR 0x4e
0000015d deff                 MOVIA 0x0
0000015e ff30                 MOVAR 0x4f
0000015f feb1                 MOVR 0x4e, 0x0
00000160 fc5c                 ADDAR 0x23, 0x1
00000161 feb0                 MOVR 0x4f, 0x0
00000162 f3fc                 BTRSC 0x3, 0x0
00000163 fab0                 INCR 0x4f, 0x0
00000164 f2fc                 BTRSC 0x3, 0x2
00000165 c698                 LGOTO 0x167; main.o:_00002_DS_=0x167
00000166 fc5b                 ADDAR 0x24, 0x1
00000167                      main.o:_00002_DS_:
00000167 e0fc                 BCR 0x3, 0x6
00000168 fa32                 INCR 0x4d, 0x1
00000169 c6af                 LGOTO 0x150; main.o:_00945_DS_=0x150
0000016a                      main.o:_00947_DS_:
0000016a ffef                 RET
0000016b                      _F_AIN4_Convert:
0000016b e0fc                 BCR 0x3, 0x6
0000016c ff37                 MOVAR 0x48
0000016d fd5d                 CLRR 0x22
0000016e fd5f                 CLRR 0x20
0000016f fd5e                 CLRR 0x21
00000170 de6b                 MOVIA 0x94
00000171 ff6f                 MOVAR 0x10
00000172 de37                 MOVIA 0xc8
00000173 d3c8                 LCALL 0x437; _delay=0x437
00000174 defe                 MOVIA 0x1
00000175 e0fc                 BCR 0x3, 0x6
00000176 ff36                 MOVAR 0x49
00000177                      main.o:_00936_DS_:
00000177 e0fc                 BCR 0x3, 0x6
00000178 feb6                 MOVR 0x49, 0x0
00000179 fbb7                 SUBAR 0x48, 0x0
0000017a f7fc                 BTRSS 0x3, 0x0
0000017b c66e                 LGOTO 0x191; main.o:_00938_DS_=0x191
0000017c e4ef                 BSR 0x10, 0x6
0000017d d7fc                 LCALL 0x3; main.o:_00961_DS_=0x3
0000017e def0                 MOVIA 0xf
0000017f efee                 ANDAR 0x11, 0x0
00000180 e0fc                 BCR 0x3, 0x6
00000181 fc5d                 ADDAR 0x22, 0x1
00000182 feed                 MOVR 0x12, 0x0
00000183 ff35                 MOVAR 0x4a
00000184 deff                 MOVIA 0x0
00000185 ff34                 MOVAR 0x4b
00000186 feb5                 MOVR 0x4a, 0x0
00000187 fc5f                 ADDAR 0x20, 0x1
00000188 feb4                 MOVR 0x4b, 0x0
00000189 f3fc                 BTRSC 0x3, 0x0
0000018a fab4                 INCR 0x4b, 0x0
0000018b f2fc                 BTRSC 0x3, 0x2
0000018c c671                 LGOTO 0x18e; main.o:_00003_DS_=0x18e
0000018d fc5e                 ADDAR 0x21, 0x1
0000018e                      main.o:_00003_DS_:
0000018e e0fc                 BCR 0x3, 0x6
0000018f fa36                 INCR 0x49, 0x1
00000190 c688                 LGOTO 0x177; main.o:_00936_DS_=0x177
00000191                      main.o:_00938_DS_:
00000191 ffef                 RET
00000192                      _checkOutA:
00000192 e0fc                 BCR 0x3, 0x6
00000193 fd5d                 CLRR 0x22
00000194 fd5f                 CLRR 0x20
00000195 fd5e                 CLRR 0x21
00000196 def7                 MOVIA 0x8
00000197 d694                 LCALL 0x16b; _F_AIN4_Convert=0x16b
00000198 e0fc                 BCR 0x3, 0x6
00000199 eade                 SWAPR 0x21, 0x0
0000019a dd0f                 ANDIA 0xf0
0000019b ff5e                 MOVAR 0x21
0000019c eadf                 SWAPR 0x20, 0x0
0000019d ff5f                 MOVAR 0x20
0000019e ddf0                 ANDIA 0xf
0000019f ee5e                 IORAR 0x21, 0x1
000001a0 ed5f                 XORAR 0x20, 0x1
000001a1 de0f                 MOVIA 0xf0
000001a2 ef5d                 ANDAR 0x22, 0x1
000001a3 fedd                 MOVR 0x22, 0x0
000001a4 ff41                 MOVAR 0x3e
000001a5 deff                 MOVIA 0x0
000001a6 ff40                 MOVAR 0x3f
000001a7 fec1                 MOVR 0x3e, 0x0
000001a8 fc5f                 ADDAR 0x20, 0x1
000001a9 fec0                 MOVR 0x3f, 0x0
000001aa f3fc                 BTRSC 0x3, 0x0
000001ab fac0                 INCR 0x3f, 0x0
000001ac f2fc                 BTRSC 0x3, 0x2
000001ad c650                 LGOTO 0x1af; main.o:_00004_DS_=0x1af
000001ae fc5e                 ADDAR 0x21, 0x1
000001af                      main.o:_00004_DS_:
000001af e3fc                 BCR 0x3, 0x0
000001b0 e0fc                 BCR 0x3, 0x6
000001b1 ec5e                 RRR 0x21, 0x1
000001b2 ec5f                 RRR 0x20, 0x1
000001b3 e3fc                 BCR 0x3, 0x0
000001b4 ec5e                 RRR 0x21, 0x1
000001b5 ec5f                 RRR 0x20, 0x1
000001b6 e3fc                 BCR 0x3, 0x0
000001b7 ec5e                 RRR 0x21, 0x1
000001b8 ec5f                 RRR 0x20, 0x1
000001b9 e4fc                 BSR 0x3, 0x6
000001ba fedb                 MOVR 0x24, 0x0
000001bb f2fc                 BTRSC 0x3, 0x2
000001bc c63d                 LGOTO 0x1c2; main.o:_00835_DS_=0x1c2
000001bd ded2                 MOVIA 0x2d
000001be e0fc                 BCR 0x3, 0x6
000001bf ff5f                 MOVAR 0x20
000001c0 defe                 MOVIA 0x1
000001c1 ff5e                 MOVAR 0x21
000001c2                      main.o:_00835_DS_:
000001c2 def9                 MOVIA 0x6
000001c3 e0fc                 BCR 0x3, 0x6
000001c4 fb9f                 SUBAR 0x60, 0x0
000001c5 f3fc                 BTRSC 0x3, 0x0
000001c6 c625                 LGOTO 0x1da; main.o:_00867_DS_=0x1da
000001c7 deff                 MOVIA 0x0
000001c8 fbde                 SUBAR 0x21, 0x0
000001c9 f6fc                 BTRSS 0x3, 0x2
000001ca c632                 LGOTO 0x1cd; main.o:_00921_DS_=0x1cd
000001cb de36                 MOVIA 0xc9
000001cc fbdf                 SUBAR 0x20, 0x0
000001cd                      main.o:_00921_DS_:
000001cd f7fc                 BTRSS 0x3, 0x0
000001ce c625                 LGOTO 0x1da; main.o:_00867_DS_=0x1da
000001cf e0fc                 BCR 0x3, 0x6
000001d0 fa0e                 INCR 0x71, 0x1
000001d1 def9                 MOVIA 0x6
000001d2 fb8e                 SUBAR 0x71, 0x0
000001d3 f7fc                 BTRSS 0x3, 0x0
000001d4 c5b0                 LGOTO 0x24f; main.o:_00870_DS_=0x24f
000001d5 defa                 MOVIA 0x5
000001d6 ff0e                 MOVAR 0x71
000001d7 fe9f                 MOVR 0x60, 0x0
000001d8 ff04                 MOVAR 0x7b
000001d9 c5b0                 LGOTO 0x24f; main.o:_00870_DS_=0x24f
000001da                      main.o:_00867_DS_:
000001da defe                 MOVIA 0x1
000001db e0fc                 BCR 0x3, 0x6
000001dc fbde                 SUBAR 0x21, 0x0
000001dd f6fc                 BTRSS 0x3, 0x2
000001de c61e                 LGOTO 0x1e1; main.o:_00923_DS_=0x1e1
000001df de6e                 MOVIA 0x91
000001e0 fbdf                 SUBAR 0x20, 0x0
000001e1                      main.o:_00923_DS_:
000001e1 f7fc                 BTRSS 0x3, 0x0
000001e2 c611                 LGOTO 0x1ee; main.o:_00864_DS_=0x1ee
000001e3 e0fc                 BCR 0x3, 0x6
000001e4 fa0e                 INCR 0x71, 0x1
000001e5 def9                 MOVIA 0x6
000001e6 fb8e                 SUBAR 0x71, 0x0
000001e7 f7fc                 BTRSS 0x3, 0x0
000001e8 c5b0                 LGOTO 0x24f; main.o:_00870_DS_=0x24f
000001e9 defa                 MOVIA 0x5
000001ea ff0e                 MOVAR 0x71
000001eb fe9f                 MOVR 0x60, 0x0
000001ec ff04                 MOVAR 0x7b
000001ed c5b0                 LGOTO 0x24f; main.o:_00870_DS_=0x24f
000001ee                      main.o:_00864_DS_:
000001ee deff                 MOVIA 0x0
000001ef e0fc                 BCR 0x3, 0x6
000001f0 fbde                 SUBAR 0x21, 0x0
000001f1 f6fc                 BTRSS 0x3, 0x2
000001f2 c60a                 LGOTO 0x1f5; main.o:_00925_DS_=0x1f5
000001f3 ded1                 MOVIA 0x2e
000001f4 fbdf                 SUBAR 0x20, 0x0
000001f5                      main.o:_00925_DS_:
000001f5 f7fc                 BTRSS 0x3, 0x0
000001f6 c5dd                 LGOTO 0x222; main.o:_00861_DS_=0x222
000001f7 e0fc                 BCR 0x3, 0x6
000001f8 fe8e                 MOVR 0x71, 0x0
000001f9 f6fc                 BTRSS 0x3, 0x2
000001fa f90e                 DECR 0x71, 0x1
000001fb defb                 MOVIA 0x4
000001fc fb9f                 SUBAR 0x60, 0x0
000001fd f3fc                 BTRSC 0x3, 0x0
000001fe c5f6                 LGOTO 0x209; main.o:_00843_DS_=0x209
000001ff defa                 MOVIA 0x5
00000200 ff38                 MOVAR 0x47
00000201 fe9f                 MOVR 0x60, 0x0
00000202 d133                 LCALL 0x6cc; __mulchar=0x6cc
00000203 e0fc                 BCR 0x3, 0x6
00000204 ff41                 MOVAR 0x3e
00000205 deb9                 MOVIA 0x46
00000206 fcc1                 ADDAR 0x3e, 0x0
00000207 ff07                 MOVAR 0x78
00000208 c5ec                 LGOTO 0x213; main.o:_00844_DS_=0x213
00000209                      main.o:_00843_DS_:
00000209 defa                 MOVIA 0x5
0000020a ff38                 MOVAR 0x47
0000020b e0fc                 BCR 0x3, 0x6
0000020c fe9f                 MOVR 0x60, 0x0
0000020d d133                 LCALL 0x6cc; __mulchar=0x6cc
0000020e e0fc                 BCR 0x3, 0x6
0000020f ff41                 MOVAR 0x3e
00000210 deb9                 MOVIA 0x46
00000211 fcc1                 ADDAR 0x3e, 0x0
00000212 ff07                 MOVAR 0x78
00000213                      main.o:_00844_DS_:
00000213 e0fc                 BCR 0x3, 0x6
00000214 fe9f                 MOVR 0x60, 0x0
00000215 dbfe                 XORIA 0x1
00000216 f6fc                 BTRSS 0x3, 0x2
00000217 c5e4                 LGOTO 0x21b; main.o:_00848_DS_=0x21b
00000218 fa07                 INCR 0x78, 0x1
00000219 fa07                 INCR 0x78, 0x1
0000021a c5b0                 LGOTO 0x24f; main.o:_00870_DS_=0x24f
0000021b                      main.o:_00848_DS_:
0000021b e0fc                 BCR 0x3, 0x6
0000021c fe9f                 MOVR 0x60, 0x0
0000021d dbfd                 XORIA 0x2
0000021e f6fc                 BTRSS 0x3, 0x2
0000021f c5b0                 LGOTO 0x24f; main.o:_00870_DS_=0x24f
00000220 fa07                 INCR 0x78, 0x1
00000221 c5b0                 LGOTO 0x24f; main.o:_00870_DS_=0x24f
00000222                      main.o:_00861_DS_:
00000222 e0fc                 BCR 0x3, 0x6
00000223 fe8e                 MOVR 0x71, 0x0
00000224 f6fc                 BTRSS 0x3, 0x2
00000225 f90e                 DECR 0x71, 0x1
00000226 deff                 MOVIA 0x0
00000227 fbde                 SUBAR 0x21, 0x0
00000228 f6fc                 BTRSS 0x3, 0x2
00000229 c5d3                 LGOTO 0x22c; main.o:_00927_DS_=0x22c
0000022a ded6                 MOVIA 0x29
0000022b fbdf                 SUBAR 0x20, 0x0
0000022c                      main.o:_00927_DS_:
0000022c f7fc                 BTRSS 0x3, 0x0
0000022d c5c2                 LGOTO 0x23d; main.o:_00855_DS_=0x23d
0000022e defb                 MOVIA 0x4
0000022f e0fc                 BCR 0x3, 0x6
00000230 fb9f                 SUBAR 0x60, 0x0
00000231 f3fc                 BTRSC 0x3, 0x0
00000232 c5c2                 LGOTO 0x23d; main.o:_00855_DS_=0x23d
00000233 defa                 MOVIA 0x5
00000234 ff38                 MOVAR 0x47
00000235 fe9f                 MOVR 0x60, 0x0
00000236 d133                 LCALL 0x6cc; __mulchar=0x6cc
00000237 e0fc                 BCR 0x3, 0x6
00000238 ff41                 MOVAR 0x3e
00000239 deb9                 MOVIA 0x46
0000023a fcc1                 ADDAR 0x3e, 0x0
0000023b ff07                 MOVAR 0x78
0000023c c5b6                 LGOTO 0x249; main.o:_00856_DS_=0x249
0000023d                      main.o:_00855_DS_:
0000023d deff                 MOVIA 0x0
0000023e e0fc                 BCR 0x3, 0x6
0000023f fbde                 SUBAR 0x21, 0x0
00000240 f6fc                 BTRSS 0x3, 0x2
00000241 c5bb                 LGOTO 0x244; main.o:_00929_DS_=0x244
00000242 debb                 MOVIA 0x44
00000243 fbdf                 SUBAR 0x20, 0x0
00000244                      main.o:_00929_DS_:
00000244 f3fc                 BTRSC 0x3, 0x0
00000245 c5b6                 LGOTO 0x249; main.o:_00856_DS_=0x249
00000246 e0fc                 BCR 0x3, 0x6
00000247 fe99                 MOVR 0x66, 0x0
00000248 ff07                 MOVAR 0x78
00000249                      main.o:_00856_DS_:
00000249 e0fc                 BCR 0x3, 0x6
0000024a fe9f                 MOVR 0x60, 0x0
0000024b f2fc                 BTRSC 0x3, 0x2
0000024c c5b0                 LGOTO 0x24f; main.o:_00870_DS_=0x24f
0000024d fe9f                 MOVR 0x60, 0x0
0000024e ff1e                 MOVAR 0x61
0000024f                      main.o:_00870_DS_:
0000024f ffef                 RET
00000250                      _checkChrgV:
00000250 e0fc                 BCR 0x3, 0x6
00000251 fd5a                 CLRR 0x25
00000252 fd5c                 CLRR 0x23
00000253 fd5b                 CLRR 0x24
00000254 def7                 MOVIA 0x8
00000255 d6bb                 LCALL 0x144; _F_AIN3_Convert=0x144
00000256 e0fc                 BCR 0x3, 0x6
00000257 eadb                 SWAPR 0x24, 0x0
00000258 dd0f                 ANDIA 0xf0
00000259 ff5b                 MOVAR 0x24
0000025a eadc                 SWAPR 0x23, 0x0
0000025b ff5c                 MOVAR 0x23
0000025c ddf0                 ANDIA 0xf
0000025d ee5b                 IORAR 0x24, 0x1
0000025e ed5c                 XORAR 0x23, 0x1
0000025f de0f                 MOVIA 0xf0
00000260 ef5a                 ANDAR 0x25, 0x1
00000261 feda                 MOVR 0x25, 0x0
00000262 ff43                 MOVAR 0x3c
00000263 deff                 MOVIA 0x0
00000264 ff42                 MOVAR 0x3d
00000265 fec3                 MOVR 0x3c, 0x0
00000266 fc5c                 ADDAR 0x23, 0x1
00000267 fec2                 MOVR 0x3d, 0x0
00000268 f3fc                 BTRSC 0x3, 0x0
00000269 fac2                 INCR 0x3d, 0x0
0000026a f2fc                 BTRSC 0x3, 0x2
0000026b c592                 LGOTO 0x26d; main.o:_00005_DS_=0x26d
0000026c fc5b                 ADDAR 0x24, 0x1
0000026d                      main.o:_00005_DS_:
0000026d e3fc                 BCR 0x3, 0x0
0000026e e0fc                 BCR 0x3, 0x6
0000026f ec5b                 RRR 0x24, 0x1
00000270 ec5c                 RRR 0x23, 0x1
00000271 e3fc                 BCR 0x3, 0x0
00000272 ec5b                 RRR 0x24, 0x1
00000273 ec5c                 RRR 0x23, 0x1
00000274 e3fc                 BCR 0x3, 0x0
00000275 ec5b                 RRR 0x24, 0x1
00000276 ec5c                 RRR 0x23, 0x1
00000277 ffef                 RET
00000278                      _checkBatAD:
00000278 e0fc                 BCR 0x3, 0x6
00000279 fd57                 CLRR 0x28
0000027a fd59                 CLRR 0x26
0000027b fd58                 CLRR 0x27
0000027c def7                 MOVIA 0x8
0000027d d6e2                 LCALL 0x11d; _F_AIN2_Convert=0x11d
0000027e e0fc                 BCR 0x3, 0x6
0000027f ead8                 SWAPR 0x27, 0x0
00000280 dd0f                 ANDIA 0xf0
00000281 ff58                 MOVAR 0x27
00000282 ead9                 SWAPR 0x26, 0x0
00000283 ff59                 MOVAR 0x26
00000284 ddf0                 ANDIA 0xf
00000285 ee58                 IORAR 0x27, 0x1
00000286 ed59                 XORAR 0x26, 0x1
00000287 de0f                 MOVIA 0xf0
00000288 ef57                 ANDAR 0x28, 0x1
00000289 fed7                 MOVR 0x28, 0x0
0000028a ff45                 MOVAR 0x3a
0000028b deff                 MOVIA 0x0
0000028c ff44                 MOVAR 0x3b
0000028d fec5                 MOVR 0x3a, 0x0
0000028e fc59                 ADDAR 0x26, 0x1
0000028f fec4                 MOVR 0x3b, 0x0
00000290 f3fc                 BTRSC 0x3, 0x0
00000291 fac4                 INCR 0x3b, 0x0
00000292 f2fc                 BTRSC 0x3, 0x2
00000293 c56a                 LGOTO 0x295; main.o:_00006_DS_=0x295
00000294 fc58                 ADDAR 0x27, 0x1
00000295                      main.o:_00006_DS_:
00000295 e3fc                 BCR 0x3, 0x0
00000296 e0fc                 BCR 0x3, 0x6
00000297 ec58                 RRR 0x27, 0x1
00000298 ec59                 RRR 0x26, 0x1
00000299 e3fc                 BCR 0x3, 0x0
0000029a ec58                 RRR 0x27, 0x1
0000029b ec59                 RRR 0x26, 0x1
0000029c e3fc                 BCR 0x3, 0x0
0000029d ec58                 RRR 0x27, 0x1
0000029e ec59                 RRR 0x26, 0x1
0000029f e4fc                 BSR 0x3, 0x6
000002a0 fedb                 MOVR 0x24, 0x0
000002a1 f2fc                 BTRSC 0x3, 0x2
000002a2 c557                 LGOTO 0x2a8; main.o:_00586_DS_=0x2a8
000002a3 def1                 MOVIA 0xe
000002a4 e0fc                 BCR 0x3, 0x6
000002a5 ff59                 MOVAR 0x26
000002a6 def9                 MOVIA 0x6
000002a7 ff58                 MOVAR 0x27
000002a8                      main.o:_00586_DS_:
000002a8 def9                 MOVIA 0x6
000002a9 e0fc                 BCR 0x3, 0x6
000002aa fbd8                 SUBAR 0x27, 0x0
000002ab f6fc                 BTRSS 0x3, 0x2
000002ac c550                 LGOTO 0x2af; main.o:_00797_DS_=0x2af
000002ad def0                 MOVIA 0xf
000002ae fbd9                 SUBAR 0x26, 0x0
000002af                      main.o:_00797_DS_:
000002af f7fc                 BTRSS 0x3, 0x0
000002b0 c54b                 LGOTO 0x2b4; main.o:_00593_DS_=0x2b4
000002b1 e0fc                 BCR 0x3, 0x6
000002b2 fd06                 CLRR 0x79
000002b3 c531                 LGOTO 0x2ce; main.o:_00594_DS_=0x2ce
000002b4                      main.o:_00593_DS_:
000002b4 defb                 MOVIA 0x4
000002b5 e0fc                 BCR 0x3, 0x6
000002b6 fbd8                 SUBAR 0x27, 0x0
000002b7 f6fc                 BTRSS 0x3, 0x2
000002b8 c544                 LGOTO 0x2bb; main.o:_00798_DS_=0x2bb
000002b9 de81                 MOVIA 0x7e
000002ba fbd9                 SUBAR 0x26, 0x0
000002bb                      main.o:_00798_DS_:
000002bb f3fc                 BTRSC 0x3, 0x0
000002bc c534                 LGOTO 0x2cb; main.o:_00590_DS_=0x2cb
000002bd e0fc                 BCR 0x3, 0x6
000002be fa06                 INCR 0x79, 0x1
000002bf def5                 MOVIA 0xa
000002c0 fb86                 SUBAR 0x79, 0x0
000002c1 f7fc                 BTRSS 0x3, 0x0
000002c2 c3d4                 LGOTO 0x42b; main.o:_00675_DS_=0x42b
000002c3 def5                 MOVIA 0xa
000002c4 ff06                 MOVAR 0x79
000002c5 fd18                 CLRR 0x67
000002c6 de81                 MOVIA 0x7e
000002c7 ff59                 MOVAR 0x26
000002c8 defb                 MOVIA 0x4
000002c9 ff58                 MOVAR 0x27
000002ca c531                 LGOTO 0x2ce; main.o:_00594_DS_=0x2ce
000002cb                      main.o:_00590_DS_:
000002cb e0fc                 BCR 0x3, 0x6
000002cc fd06                 CLRR 0x79
000002cd fd08                 CLRR 0x77
000002ce                      main.o:_00594_DS_:
000002ce e4fc                 BSR 0x3, 0x6
000002cf fedc                 MOVR 0x23, 0x0
000002d0 f6fc                 BTRSS 0x3, 0x2
000002d1 c529                 LGOTO 0x2d6; main.o:_00596_DS_=0x2d6
000002d2 e0fc                 BCR 0x3, 0x6
000002d3 fe98                 MOVR 0x67, 0x0
000002d4 e4fc                 BSR 0x3, 0x6
000002d5 ff5c                 MOVAR 0x23
000002d6                      main.o:_00596_DS_:
000002d6 de7d                 MOVIA 0x82
000002d7 e0fc                 BCR 0x3, 0x6
000002d8 fc59                 ADDAR 0x26, 0x1
000002d9 de04                 MOVIA 0xfb
000002da f3fc                 BTRSC 0x3, 0x0
000002db de03                 MOVIA 0xfc
000002dc fc58                 ADDAR 0x27, 0x1
000002dd defe                 MOVIA 0x1
000002de fbd8                 SUBAR 0x27, 0x0
000002df f6fc                 BTRSS 0x3, 0x2
000002e0 c51c                 LGOTO 0x2e3; main.o:_00800_DS_=0x2e3
000002e1 de6a                 MOVIA 0x95
000002e2 fbd9                 SUBAR 0x26, 0x0
000002e3                      main.o:_00800_DS_:
000002e3 f7fc                 BTRSS 0x3, 0x0
000002e4 c517                 LGOTO 0x2e8; main.o:_00598_DS_=0x2e8
000002e5 def8                 MOVIA 0x7
000002e6 e0fc                 BCR 0x3, 0x6
000002e7 ff18                 MOVAR 0x67
000002e8                      main.o:_00598_DS_:
000002e8 defe                 MOVIA 0x1
000002e9 e0fc                 BCR 0x3, 0x6
000002ea fbd8                 SUBAR 0x27, 0x0
000002eb f6fc                 BTRSS 0x3, 0x2
000002ec c510                 LGOTO 0x2ef; main.o:_00801_DS_=0x2ef
000002ed de60                 MOVIA 0x9f
000002ee fbd9                 SUBAR 0x26, 0x0
000002ef                      main.o:_00801_DS_:
000002ef f7fc                 BTRSS 0x3, 0x0
000002f0 c50a                 LGOTO 0x2f5; main.o:_00670_DS_=0x2f5
000002f1 def7                 MOVIA 0x8
000002f2 e0fc                 BCR 0x3, 0x6
000002f3 ff18                 MOVAR 0x67
000002f4 c3df                 LGOTO 0x420; main.o:_00671_DS_=0x420
000002f5                      main.o:_00670_DS_:
000002f5 defe                 MOVIA 0x1
000002f6 e0fc                 BCR 0x3, 0x6
000002f7 fbd8                 SUBAR 0x27, 0x0
000002f8 f6fc                 BTRSS 0x3, 0x2
000002f9 c503                 LGOTO 0x2fc; main.o:_00802_DS_=0x2fc
000002fa dea0                 MOVIA 0x5f
000002fb fbd9                 SUBAR 0x26, 0x0
000002fc                      main.o:_00802_DS_:
000002fc f7fc                 BTRSS 0x3, 0x0
000002fd c4be                 LGOTO 0x341; main.o:_00667_DS_=0x341
000002fe def9                 MOVIA 0x6
000002ff e0fc                 BCR 0x3, 0x6
00000300 fb98                 SUBAR 0x67, 0x0
00000301 f3fc                 BTRSC 0x3, 0x0
00000302 c4ee                 LGOTO 0x311; main.o:_00605_DS_=0x311
00000303 fd0b                 CLRR 0x74
00000304 fd0a                 CLRR 0x75
00000305 defe                 MOVIA 0x1
00000306 fbd8                 SUBAR 0x27, 0x0
00000307 f6fc                 BTRSS 0x3, 0x2
00000308 c4f4                 LGOTO 0x30b; main.o:_00804_DS_=0x30b
00000309 de9b                 MOVIA 0x64
0000030a fbd9                 SUBAR 0x26, 0x0
0000030b                      main.o:_00804_DS_:
0000030b f7fc                 BTRSS 0x3, 0x0
0000030c c4dc                 LGOTO 0x323; main.o:_00606_DS_=0x323
0000030d def9                 MOVIA 0x6
0000030e e0fc                 BCR 0x3, 0x6
0000030f ff18                 MOVAR 0x67
00000310 c4dc                 LGOTO 0x323; main.o:_00606_DS_=0x323
00000311                      main.o:_00605_DS_:
00000311 e0fc                 BCR 0x3, 0x6
00000312 fe97                 MOVR 0x68, 0x0
00000313 ee96                 IORAR 0x69, 0x0
00000314 f6fc                 BTRSS 0x3, 0x2
00000315 c4dc                 LGOTO 0x323; main.o:_00606_DS_=0x323
00000316 defe                 MOVIA 0x1
00000317 fbd8                 SUBAR 0x27, 0x0
00000318 f6fc                 BTRSS 0x3, 0x2
00000319 c4e3                 LGOTO 0x31c; main.o:_00805_DS_=0x31c
0000031a de73                 MOVIA 0x8c
0000031b fbd9                 SUBAR 0x26, 0x0
0000031c                      main.o:_00805_DS_:
0000031c f3fc                 BTRSC 0x3, 0x0
0000031d c4dc                 LGOTO 0x323; main.o:_00606_DS_=0x323
0000031e def9                 MOVIA 0x6
0000031f e0fc                 BCR 0x3, 0x6
00000320 ff18                 MOVAR 0x67
00000321 fd0b                 CLRR 0x74
00000322 fd0a                 CLRR 0x75
00000323                      main.o:_00606_DS_:
00000323 e0fc                 BCR 0x3, 0x6
00000324 fe97                 MOVR 0x68, 0x0
00000325 ee96                 IORAR 0x69, 0x0
00000326 f2fc                 BTRSC 0x3, 0x2
00000327 c3df                 LGOTO 0x420; main.o:_00671_DS_=0x420
00000328 defe                 MOVIA 0x1
00000329 fbd8                 SUBAR 0x27, 0x0
0000032a f6fc                 BTRSS 0x3, 0x2
0000032b c4d1                 LGOTO 0x32e; main.o:_00806_DS_=0x32e
0000032c de73                 MOVIA 0x8c
0000032d fbd9                 SUBAR 0x26, 0x0
0000032e                      main.o:_00806_DS_:
0000032e f7fc                 BTRSS 0x3, 0x0
0000032f c3df                 LGOTO 0x420; main.o:_00671_DS_=0x420
00000330 defd                 MOVIA 0x2
00000331 e0fc                 BCR 0x3, 0x6
00000332 fb96                 SUBAR 0x69, 0x0
00000333 f6fc                 BTRSS 0x3, 0x2
00000334 c4c8                 LGOTO 0x337; main.o:_00807_DS_=0x337
00000335 dea6                 MOVIA 0x59
00000336 fb97                 SUBAR 0x68, 0x0
00000337                      main.o:_00807_DS_:
00000337 f7fc                 BTRSS 0x3, 0x0
00000338 c3df                 LGOTO 0x420; main.o:_00671_DS_=0x420
00000339 dea7                 MOVIA 0x58
0000033a e0fc                 BCR 0x3, 0x6
0000033b ff17                 MOVAR 0x68
0000033c defd                 MOVIA 0x2
0000033d ff16                 MOVAR 0x69
0000033e def8                 MOVIA 0x7
0000033f ff18                 MOVAR 0x67
00000340 c3df                 LGOTO 0x420; main.o:_00671_DS_=0x420
00000341                      main.o:_00667_DS_:
00000341 defe                 MOVIA 0x1
00000342 e0fc                 BCR 0x3, 0x6
00000343 fbd8                 SUBAR 0x27, 0x0
00000344 f6fc                 BTRSS 0x3, 0x2
00000345 c4b7                 LGOTO 0x348; main.o:_00808_DS_=0x348
00000346 deb9                 MOVIA 0x46
00000347 fbd9                 SUBAR 0x26, 0x0
00000348                      main.o:_00808_DS_:
00000348 f7fc                 BTRSS 0x3, 0x0
00000349 c48d                 LGOTO 0x372; main.o:_00664_DS_=0x372
0000034a e0fc                 BCR 0x3, 0x6
0000034b fe98                 MOVR 0x67, 0x0
0000034c dbfb                 XORIA 0x4
0000034d f6fc                 BTRSS 0x3, 0x2
0000034e c4a5                 LGOTO 0x35a; main.o:_00614_DS_=0x35a
0000034f defe                 MOVIA 0x1
00000350 fbd8                 SUBAR 0x27, 0x0
00000351 f6fc                 BTRSS 0x3, 0x2
00000352 c4aa                 LGOTO 0x355; main.o:_00809_DS_=0x355
00000353 deb4                 MOVIA 0x4b
00000354 fbd9                 SUBAR 0x26, 0x0
00000355                      main.o:_00809_DS_:
00000355 f7fc                 BTRSS 0x3, 0x0
00000356 c4a5                 LGOTO 0x35a; main.o:_00614_DS_=0x35a
00000357 defa                 MOVIA 0x5
00000358 e0fc                 BCR 0x3, 0x6
00000359 ff18                 MOVAR 0x67
0000035a                      main.o:_00614_DS_:
0000035a def9                 MOVIA 0x6
0000035b e0fc                 BCR 0x3, 0x6
0000035c fb98                 SUBAR 0x67, 0x0
0000035d f7fc                 BTRSS 0x3, 0x0
0000035e c494                 LGOTO 0x36b; main.o:_00618_DS_=0x36b
0000035f defe                 MOVIA 0x1
00000360 fbd8                 SUBAR 0x27, 0x0
00000361 f6fc                 BTRSS 0x3, 0x2
00000362 c49a                 LGOTO 0x365; main.o:_00811_DS_=0x365
00000363 de92                 MOVIA 0x6d
00000364 fbd9                 SUBAR 0x26, 0x0
00000365                      main.o:_00811_DS_:
00000365 f3fc                 BTRSC 0x3, 0x0
00000366 c491                 LGOTO 0x36e; main.o:_00619_DS_=0x36e
00000367 defa                 MOVIA 0x5
00000368 e0fc                 BCR 0x3, 0x6
00000369 ff18                 MOVAR 0x67
0000036a c491                 LGOTO 0x36e; main.o:_00619_DS_=0x36e
0000036b                      main.o:_00618_DS_:
0000036b defa                 MOVIA 0x5
0000036c e0fc                 BCR 0x3, 0x6
0000036d ff18                 MOVAR 0x67
0000036e                      main.o:_00619_DS_:
0000036e e0fc                 BCR 0x3, 0x6
0000036f fd17                 CLRR 0x68
00000370 fd16                 CLRR 0x69
00000371 c3df                 LGOTO 0x420; main.o:_00671_DS_=0x420
00000372                      main.o:_00664_DS_:
00000372 defe                 MOVIA 0x1
00000373 e0fc                 BCR 0x3, 0x6
00000374 fbd8                 SUBAR 0x27, 0x0
00000375 f6fc                 BTRSS 0x3, 0x2
00000376 c486                 LGOTO 0x379; main.o:_00812_DS_=0x379
00000377 defa                 MOVIA 0x5
00000378 fbd9                 SUBAR 0x26, 0x0
00000379                      main.o:_00812_DS_:
00000379 f7fc                 BTRSS 0x3, 0x0
0000037a c45c                 LGOTO 0x3a3; main.o:_00661_DS_=0x3a3
0000037b e0fc                 BCR 0x3, 0x6
0000037c fe98                 MOVR 0x67, 0x0
0000037d dbfc                 XORIA 0x3
0000037e f6fc                 BTRSS 0x3, 0x2
0000037f c474                 LGOTO 0x38b; main.o:_00623_DS_=0x38b
00000380 defe                 MOVIA 0x1
00000381 fbd8                 SUBAR 0x27, 0x0
00000382 f6fc                 BTRSS 0x3, 0x2
00000383 c479                 LGOTO 0x386; main.o:_00813_DS_=0x386
00000384 def5                 MOVIA 0xa
00000385 fbd9                 SUBAR 0x26, 0x0
00000386                      main.o:_00813_DS_:
00000386 f7fc                 BTRSS 0x3, 0x0
00000387 c474                 LGOTO 0x38b; main.o:_00623_DS_=0x38b
00000388 defb                 MOVIA 0x4
00000389 e0fc                 BCR 0x3, 0x6
0000038a ff18                 MOVAR 0x67
0000038b                      main.o:_00623_DS_:
0000038b defa                 MOVIA 0x5
0000038c e0fc                 BCR 0x3, 0x6
0000038d fb98                 SUBAR 0x67, 0x0
0000038e f7fc                 BTRSS 0x3, 0x0
0000038f c463                 LGOTO 0x39c; main.o:_00627_DS_=0x39c
00000390 defe                 MOVIA 0x1
00000391 fbd8                 SUBAR 0x27, 0x0
00000392 f6fc                 BTRSS 0x3, 0x2
00000393 c469                 LGOTO 0x396; main.o:_00815_DS_=0x396
00000394 debf                 MOVIA 0x40
00000395 fbd9                 SUBAR 0x26, 0x0
00000396                      main.o:_00815_DS_:
00000396 f3fc                 BTRSC 0x3, 0x0
00000397 c460                 LGOTO 0x39f; main.o:_00628_DS_=0x39f
00000398 defb                 MOVIA 0x4
00000399 e0fc                 BCR 0x3, 0x6
0000039a ff18                 MOVAR 0x67
0000039b c460                 LGOTO 0x39f; main.o:_00628_DS_=0x39f
0000039c                      main.o:_00627_DS_:
0000039c defb                 MOVIA 0x4
0000039d e0fc                 BCR 0x3, 0x6
0000039e ff18                 MOVAR 0x67
0000039f                      main.o:_00628_DS_:
0000039f e0fc                 BCR 0x3, 0x6
000003a0 fd17                 CLRR 0x68
000003a1 fd16                 CLRR 0x69
000003a2 c3df                 LGOTO 0x420; main.o:_00671_DS_=0x420
000003a3                      main.o:_00661_DS_:
000003a3 deff                 MOVIA 0x0
000003a4 e0fc                 BCR 0x3, 0x6
000003a5 fbd8                 SUBAR 0x27, 0x0
000003a6 f6fc                 BTRSS 0x3, 0x2
000003a7 c455                 LGOTO 0x3aa; main.o:_00816_DS_=0x3aa
000003a8 de36                 MOVIA 0xc9
000003a9 fbd9                 SUBAR 0x26, 0x0
000003aa                      main.o:_00816_DS_:
000003aa f7fc                 BTRSS 0x3, 0x0
000003ab c42b                 LGOTO 0x3d4; main.o:_00658_DS_=0x3d4
000003ac e0fc                 BCR 0x3, 0x6
000003ad fe98                 MOVR 0x67, 0x0
000003ae dbfd                 XORIA 0x2
000003af f6fc                 BTRSS 0x3, 0x2
000003b0 c443                 LGOTO 0x3bc; main.o:_00632_DS_=0x3bc
000003b1 deff                 MOVIA 0x0
000003b2 fbd8                 SUBAR 0x27, 0x0
000003b3 f6fc                 BTRSS 0x3, 0x2
000003b4 c448                 LGOTO 0x3b7; main.o:_00817_DS_=0x3b7
000003b5 de2c                 MOVIA 0xd3
000003b6 fbd9                 SUBAR 0x26, 0x0
000003b7                      main.o:_00817_DS_:
000003b7 f7fc                 BTRSS 0x3, 0x0
000003b8 c443                 LGOTO 0x3bc; main.o:_00632_DS_=0x3bc
000003b9 defc                 MOVIA 0x3
000003ba e0fc                 BCR 0x3, 0x6
000003bb ff18                 MOVAR 0x67
000003bc                      main.o:_00632_DS_:
000003bc defb                 MOVIA 0x4
000003bd e0fc                 BCR 0x3, 0x6
000003be fb98                 SUBAR 0x67, 0x0
000003bf f7fc                 BTRSS 0x3, 0x0
000003c0 c432                 LGOTO 0x3cd; main.o:_00636_DS_=0x3cd
000003c1 defe                 MOVIA 0x1
000003c2 fbd8                 SUBAR 0x27, 0x0
000003c3 f6fc                 BTRSS 0x3, 0x2
000003c4 c438                 LGOTO 0x3c7; main.o:_00819_DS_=0x3c7
000003c5 defb                 MOVIA 0x4
000003c6 fbd9                 SUBAR 0x26, 0x0
000003c7                      main.o:_00819_DS_:
000003c7 f3fc                 BTRSC 0x3, 0x0
000003c8 c42f                 LGOTO 0x3d0; main.o:_00637_DS_=0x3d0
000003c9 defc                 MOVIA 0x3
000003ca e0fc                 BCR 0x3, 0x6
000003cb ff18                 MOVAR 0x67
000003cc c42f                 LGOTO 0x3d0; main.o:_00637_DS_=0x3d0
000003cd                      main.o:_00636_DS_:
000003cd defc                 MOVIA 0x3
000003ce e0fc                 BCR 0x3, 0x6
000003cf ff18                 MOVAR 0x67
000003d0                      main.o:_00637_DS_:
000003d0 e0fc                 BCR 0x3, 0x6
000003d1 fd17                 CLRR 0x68
000003d2 fd16                 CLRR 0x69
000003d3 c3df                 LGOTO 0x420; main.o:_00671_DS_=0x420
000003d4                      main.o:_00658_DS_:
000003d4 deff                 MOVIA 0x0
000003d5 e0fc                 BCR 0x3, 0x6
000003d6 fbd8                 SUBAR 0x27, 0x0
000003d7 f6fc                 BTRSS 0x3, 0x2
000003d8 c424                 LGOTO 0x3db; main.o:_00820_DS_=0x3db
000003d9 de9a                 MOVIA 0x65
000003da fbd9                 SUBAR 0x26, 0x0
000003db                      main.o:_00820_DS_:
000003db f7fc                 BTRSS 0x3, 0x0
000003dc c3fa                 LGOTO 0x405; main.o:_00655_DS_=0x405
000003dd e0fc                 BCR 0x3, 0x6
000003de fe98                 MOVR 0x67, 0x0
000003df dbfe                 XORIA 0x1
000003e0 f6fc                 BTRSS 0x3, 0x2
000003e1 c412                 LGOTO 0x3ed; main.o:_00641_DS_=0x3ed
000003e2 deff                 MOVIA 0x0
000003e3 fbd8                 SUBAR 0x27, 0x0
000003e4 f6fc                 BTRSS 0x3, 0x2
000003e5 c417                 LGOTO 0x3e8; main.o:_00821_DS_=0x3e8
000003e6 de90                 MOVIA 0x6f
000003e7 fbd9                 SUBAR 0x26, 0x0
000003e8                      main.o:_00821_DS_:
000003e8 f7fc                 BTRSS 0x3, 0x0
000003e9 c412                 LGOTO 0x3ed; main.o:_00641_DS_=0x3ed
000003ea defd                 MOVIA 0x2
000003eb e0fc                 BCR 0x3, 0x6
000003ec ff18                 MOVAR 0x67
000003ed                      main.o:_00641_DS_:
000003ed defc                 MOVIA 0x3
000003ee e0fc                 BCR 0x3, 0x6
000003ef fb98                 SUBAR 0x67, 0x0
000003f0 f7fc                 BTRSS 0x3, 0x0
000003f1 c401                 LGOTO 0x3fe; main.o:_00645_DS_=0x3fe
000003f2 deff                 MOVIA 0x0
000003f3 fbd8                 SUBAR 0x27, 0x0
000003f4 f6fc                 BTRSS 0x3, 0x2
000003f5 c407                 LGOTO 0x3f8; main.o:_00823_DS_=0x3f8
000003f6 de41                 MOVIA 0xbe
000003f7 fbd9                 SUBAR 0x26, 0x0
000003f8                      main.o:_00823_DS_:
000003f8 f3fc                 BTRSC 0x3, 0x0
000003f9 c3fe                 LGOTO 0x401; main.o:_00646_DS_=0x401
000003fa defd                 MOVIA 0x2
000003fb e0fc                 BCR 0x3, 0x6
000003fc ff18                 MOVAR 0x67
000003fd c3fe                 LGOTO 0x401; main.o:_00646_DS_=0x401
000003fe                      main.o:_00645_DS_:
000003fe defd                 MOVIA 0x2
000003ff e0fc                 BCR 0x3, 0x6
00000400 ff18                 MOVAR 0x67
00000401                      main.o:_00646_DS_:
00000401 e0fc                 BCR 0x3, 0x6
00000402 fd17                 CLRR 0x68
00000403 fd16                 CLRR 0x69
00000404 c3df                 LGOTO 0x420; main.o:_00671_DS_=0x420
00000405                      main.o:_00655_DS_:
00000405 e0fc                 BCR 0x3, 0x6
00000406 fed9                 MOVR 0x26, 0x0
00000407 eed8                 IORAR 0x27, 0x0
00000408 f2fc                 BTRSC 0x3, 0x2
00000409 c3df                 LGOTO 0x420; main.o:_00671_DS_=0x420
0000040a defd                 MOVIA 0x2
0000040b fb98                 SUBAR 0x67, 0x0
0000040c f7fc                 BTRSS 0x3, 0x0
0000040d c3e5                 LGOTO 0x41a; main.o:_00650_DS_=0x41a
0000040e deff                 MOVIA 0x0
0000040f fbd8                 SUBAR 0x27, 0x0
00000410 f6fc                 BTRSS 0x3, 0x2
00000411 c3eb                 LGOTO 0x414; main.o:_00825_DS_=0x414
00000412 dea5                 MOVIA 0x5a
00000413 fbd9                 SUBAR 0x26, 0x0
00000414                      main.o:_00825_DS_:
00000414 f3fc                 BTRSC 0x3, 0x0
00000415 c3e2                 LGOTO 0x41d; main.o:_00651_DS_=0x41d
00000416 defe                 MOVIA 0x1
00000417 e0fc                 BCR 0x3, 0x6
00000418 ff18                 MOVAR 0x67
00000419 c3e2                 LGOTO 0x41d; main.o:_00651_DS_=0x41d
0000041a                      main.o:_00650_DS_:
0000041a defe                 MOVIA 0x1
0000041b e0fc                 BCR 0x3, 0x6
0000041c ff18                 MOVAR 0x67
0000041d                      main.o:_00651_DS_:
0000041d e0fc                 BCR 0x3, 0x6
0000041e fd17                 CLRR 0x68
0000041f fd16                 CLRR 0x69
00000420                      main.o:_00671_DS_:
00000420 e0fc                 BCR 0x3, 0x6
00000421 fe8d                 MOVR 0x72, 0x0
00000422 f2fc                 BTRSC 0x3, 0x2
00000423 c3d4                 LGOTO 0x42b; main.o:_00675_DS_=0x42b
00000424 e4fc                 BSR 0x3, 0x6
00000425 fedc                 MOVR 0x23, 0x0
00000426 f2fc                 BTRSC 0x3, 0x2
00000427 c3d4                 LGOTO 0x42b; main.o:_00675_DS_=0x42b
00000428 fedc                 MOVR 0x23, 0x0
00000429 e0fc                 BCR 0x3, 0x6
0000042a ff18                 MOVAR 0x67
0000042b                      main.o:_00675_DS_:
0000042b ffef                 RET
0000042c                      _initAD:
0000042c de7b                 MOVIA 0x84
0000042d ff6f                 MOVAR 0x10
0000042e fd6c                 CLRR 0x13
0000042f deef                 MOVIA 0x10
00000430 ff6e                 MOVAR 0x11
00000431 defc                 MOVIA 0x3
00000432 ff6b                 MOVAR 0x14
00000433 e5ef                 BSR 0x10, 0x4
00000434 de9b                 MOVIA 0x64
00000435 d3c8                 LCALL 0x437; _delay=0x437
00000436 ffef                 RET
00000437                      _delay:
00000437 e0fc                 BCR 0x3, 0x6
00000438 ff47                 MOVAR 0x38
00000439 fd46                 CLRR 0x39
0000043a                      main.o:_00574_DS_:
0000043a e0fc                 BCR 0x3, 0x6
0000043b fec7                 MOVR 0x38, 0x0
0000043c fbc6                 SUBAR 0x39, 0x0
0000043d f3fc                 BTRSC 0x3, 0x0
0000043e c3bd                 LGOTO 0x442; main.o:_00576_DS_=0x442
0000043f ffff                 NOP
00000440 fa46                 INCR 0x39, 0x1
00000441 c3c5                 LGOTO 0x43a; main.o:_00574_DS_=0x43a
00000442                      main.o:_00576_DS_:
00000442 ffef                 RET
00000443                      _chrgCtr:
00000443 e0fc                 BCR 0x3, 0x6
00000444 f27a                 BTRSC 0x5, 0x3
00000445 c3b1                 LGOTO 0x44e; main.o:_00516_DS_=0x44e
00000446 deff                 MOVIA 0x0
00000447 fbdb                 SUBAR 0x24, 0x0
00000448 f6fc                 BTRSS 0x3, 0x2
00000449 c3b3                 LGOTO 0x44c; main.o:_00564_DS_=0x44c
0000044a de36                 MOVIA 0xc9
0000044b fbdc                 SUBAR 0x23, 0x0
0000044c                      main.o:_00564_DS_:
0000044c f7fc                 BTRSS 0x3, 0x0
0000044d c32a                 LGOTO 0x4d5; main.o:_00517_DS_=0x4d5
0000044e                      main.o:_00516_DS_:
0000044e e0fc                 BCR 0x3, 0x6
0000044f e623                 BSR 0x5c, 0x3
00000450 fd1f                 CLRR 0x60
00000451 fd0d                 CLRR 0x72
00000452 d2c6                 LCALL 0x539; _pwmStop=0x539
00000453 e0fc                 BCR 0x3, 0x6
00000454 fe98                 MOVR 0x67, 0x0
00000455 dbf7                 XORIA 0x8
00000456 f6fc                 BTRSS 0x3, 0x2
00000457 c389                 LGOTO 0x476; main.o:_00512_DS_=0x476
00000458 defb                 MOVIA 0x4
00000459 e4fc                 BSR 0x3, 0x6
0000045a ff5d                 MOVAR 0x22
0000045b def9                 MOVIA 0x6
0000045c e0fc                 BCR 0x3, 0x6
0000045d ff1e                 MOVAR 0x61
0000045e fa0b                 INCR 0x74, 0x1
0000045f f2fc                 BTRSC 0x3, 0x2
00000460 fa0a                 INCR 0x75, 0x1
00000461 deff                 MOVIA 0x0
00000462 fb8a                 SUBAR 0x75, 0x0
00000463 f6fc                 BTRSS 0x3, 0x2
00000464 c398                 LGOTO 0x467; main.o:_00565_DS_=0x467
00000465 de9b                 MOVIA 0x64
00000466 fb8b                 SUBAR 0x74, 0x0
00000467                      main.o:_00565_DS_:
00000467 f7fc                 BTRSS 0x3, 0x0
00000468 c391                 LGOTO 0x46e; main.o:_00489_DS_=0x46e
00000469 de9b                 MOVIA 0x64
0000046a e0fc                 BCR 0x3, 0x6
0000046b ff0b                 MOVAR 0x74
0000046c fd0a                 CLRR 0x75
0000046d d2b6                 LCALL 0x549; _pwm1Stop=0x549
0000046e                      main.o:_00489_DS_:
0000046e e279                 BCR 0x6, 0x3
0000046f ffe9                 IOSTR 0x6
00000470 e0fc                 BCR 0x3, 0x6
00000471 ff4b                 MOVAR 0x34
00000472 e64b                 BSR 0x34, 0x3
00000473 fecb                 MOVR 0x34, 0x0
00000474 fff9                 IOST 0x6
00000475 c31a                 LGOTO 0x4e5; main.o:_00520_DS_=0x4e5
00000476                      main.o:_00512_DS_:
00000476 ffe9                 IOSTR 0x6
00000477 e0fc                 BCR 0x3, 0x6
00000478 ff4b                 MOVAR 0x34
00000479 e24b                 BCR 0x34, 0x3
0000047a fecb                 MOVR 0x34, 0x0
0000047b fff9                 IOST 0x6
0000047c fea1                 MOVR 0x5e, 0x0
0000047d f6fc                 BTRSS 0x3, 0x2
0000047e c35a                 LGOTO 0x4a5; main.o:_00495_DS_=0x4a5
0000047f def8                 MOVIA 0x7
00000480 fb98                 SUBAR 0x67, 0x0
00000481 f3fc                 BTRSC 0x3, 0x0
00000482 c35a                 LGOTO 0x4a5; main.o:_00495_DS_=0x4a5
00000483 fe98                 MOVR 0x67, 0x0
00000484 ff4b                 MOVAR 0x34
00000485 fd4a                 CLRR 0x35
00000486 de00                 MOVIA 0xff
00000487 fc4b                 ADDAR 0x34, 0x1
00000488 f3fc                 BTRSC 0x3, 0x0
00000489 c374                 LGOTO 0x48b; main.o:_00007_DS_=0x48b
0000048a f94a                 DECR 0x35, 0x1
0000048b                      main.o:_00007_DS_:
0000048b e0fc                 BCR 0x3, 0x6
0000048c fe80                 MOVR 0x7f, 0x0
0000048d ff49                 MOVAR 0x36
0000048e deff                 MOVIA 0x0
0000048f da7f                 ADDIA 0x80
00000490 ff48                 MOVAR 0x37
00000491 feca                 MOVR 0x35, 0x0
00000492 da7f                 ADDIA 0x80
00000493 fbc8                 SUBAR 0x37, 0x0
00000494 f6fc                 BTRSS 0x3, 0x2
00000495 c367                 LGOTO 0x498; main.o:_00567_DS_=0x498
00000496 fecb                 MOVR 0x34, 0x0
00000497 fbc9                 SUBAR 0x36, 0x0
00000498                      main.o:_00567_DS_:
00000498 f3fc                 BTRSC 0x3, 0x0
00000499 c362                 LGOTO 0x49d; main.o:_00491_DS_=0x49d
0000049a e0fc                 BCR 0x3, 0x6
0000049b f998                 DECR 0x67, 0x0
0000049c ff00                 MOVAR 0x7f
0000049d                      main.o:_00491_DS_:
0000049d e0fc                 BCR 0x3, 0x6
0000049e fa1e                 INCR 0x61, 0x1
0000049f def8                 MOVIA 0x7
000004a0 fb9e                 SUBAR 0x61, 0x0
000004a1 f7fc                 BTRSS 0x3, 0x0
000004a2 c35a                 LGOTO 0x4a5; main.o:_00495_DS_=0x4a5
000004a3 fe80                 MOVR 0x7f, 0x0
000004a4 ff1e                 MOVAR 0x61
000004a5                      main.o:_00495_DS_:
000004a5 e0fc                 BCR 0x3, 0x6
000004a6 fe98                 MOVR 0x67, 0x0
000004a7 dbf8                 XORIA 0x7
000004a8 f6fc                 BTRSS 0x3, 0x2
000004a9 c353                 LGOTO 0x4ac; main.o:_00498_DS_=0x4ac
000004aa def9                 MOVIA 0x6
000004ab ff1e                 MOVAR 0x61
000004ac                      main.o:_00498_DS_:
000004ac defd                 MOVIA 0x2
000004ad e0fc                 BCR 0x3, 0x6
000004ae fb98                 SUBAR 0x67, 0x0
000004af f3fc                 BTRSC 0x3, 0x0
000004b0 c344                 LGOTO 0x4bb; main.o:_00509_DS_=0x4bb
000004b1 defd                 MOVIA 0x2
000004b2 e4fc                 BSR 0x3, 0x6
000004b3 fbdd                 SUBAR 0x22, 0x0
000004b4 f3fc                 BTRSC 0x3, 0x0
000004b5 c32c                 LGOTO 0x4d3; main.o:_00510_DS_=0x4d3
000004b6 def7                 MOVIA 0x8
000004b7 ffbc                 SFUN 0x3
000004b8 defe                 MOVIA 0x1
000004b9 ff5d                 MOVAR 0x22
000004ba c32c                 LGOTO 0x4d3; main.o:_00510_DS_=0x4d3
000004bb                      main.o:_00509_DS_:
000004bb def7                 MOVIA 0x8
000004bc e0fc                 BCR 0x3, 0x6
000004bd fb98                 SUBAR 0x67, 0x0
000004be f3fc                 BTRSC 0x3, 0x0
000004bf c335                 LGOTO 0x4ca; main.o:_00506_DS_=0x4ca
000004c0 defc                 MOVIA 0x3
000004c1 e4fc                 BSR 0x3, 0x6
000004c2 fbdd                 SUBAR 0x22, 0x0
000004c3 f3fc                 BTRSC 0x3, 0x0
000004c4 c32c                 LGOTO 0x4d3; main.o:_00510_DS_=0x4d3
000004c5 defd                 MOVIA 0x2
000004c6 ff5d                 MOVAR 0x22
000004c7 def3                 MOVIA 0xc
000004c8 ffbc                 SFUN 0x3
000004c9 c32c                 LGOTO 0x4d3; main.o:_00510_DS_=0x4d3
000004ca                      main.o:_00506_DS_:
000004ca defb                 MOVIA 0x4
000004cb e4fc                 BSR 0x3, 0x6
000004cc fbdd                 SUBAR 0x22, 0x0
000004cd f3fc                 BTRSC 0x3, 0x0
000004ce c32c                 LGOTO 0x4d3; main.o:_00510_DS_=0x4d3
000004cf def3                 MOVIA 0xc
000004d0 ffbc                 SFUN 0x3
000004d1 defc                 MOVIA 0x3
000004d2 ff5d                 MOVAR 0x22
000004d3                      main.o:_00510_DS_:
000004d3 d2b3                 LCALL 0x54c; _pwm1Init=0x54c
000004d4 c31a                 LGOTO 0x4e5; main.o:_00520_DS_=0x4e5
000004d5                      main.o:_00517_DS_:
000004d5 e4fc                 BSR 0x3, 0x6
000004d6 fd5d                 CLRR 0x22
000004d7 e0fc                 BCR 0x3, 0x6
000004d8 fd00                 CLRR 0x7f
000004d9 fd17                 CLRR 0x68
000004da fd16                 CLRR 0x69
000004db d2b6                 LCALL 0x549; _pwm1Stop=0x549
000004dc e0fc                 BCR 0x3, 0x6
000004dd fe9f                 MOVR 0x60, 0x0
000004de f6fc                 BTRSS 0x3, 0x2
000004df c31e                 LGOTO 0x4e1; main.o:_00008_DS_=0x4e1
000004e0 fd1e                 CLRR 0x61
000004e1                      main.o:_00008_DS_:
000004e1 e0fc                 BCR 0x3, 0x6
000004e2 e223                 BCR 0x5c, 0x3
000004e3 fd17                 CLRR 0x68
000004e4 fd16                 CLRR 0x69
000004e5                      main.o:_00520_DS_:
000004e5 ffef                 RET
000004e6                      _keyRead:
000004e6 e0fc                 BCR 0x3, 0x6
000004e7 ff4c                 MOVAR 0x33
000004e8 fecc                 MOVR 0x33, 0x0
000004e9 f2fc                 BTRSC 0x3, 0x2
000004ea c308                 LGOTO 0x4f7; main.o:_00481_DS_=0x4f7
000004eb fa20                 INCR 0x5f, 0x1
000004ec de9b                 MOVIA 0x64
000004ed fba0                 SUBAR 0x5f, 0x0
000004ee f7fc                 BTRSS 0x3, 0x0
000004ef c2f5                 LGOTO 0x50a; main.o:_00482_DS_=0x50a
000004f0 de9b                 MOVIA 0x64
000004f1 ff20                 MOVAR 0x5f
000004f2 f323                 BTRSC 0x5c, 0x1
000004f3 c2f5                 LGOTO 0x50a; main.o:_00482_DS_=0x50a
000004f4 e723                 BSR 0x5c, 0x1
000004f5 defd                 MOVIA 0x2
000004f6 c2f4                 LGOTO 0x50b; main.o:_00483_DS_=0x50b
000004f7                      main.o:_00481_DS_:
000004f7 de9b                 MOVIA 0x64
000004f8 e0fc                 BCR 0x3, 0x6
000004f9 fba0                 SUBAR 0x5f, 0x0
000004fa f7fc                 BTRSS 0x3, 0x0
000004fb c2ff                 LGOTO 0x500; main.o:_00478_DS_=0x500
000004fc fd20                 CLRR 0x5f
000004fd e323                 BCR 0x5c, 0x1
000004fe deff                 MOVIA 0x0
000004ff c2f4                 LGOTO 0x50b; main.o:_00483_DS_=0x50b
00000500                      main.o:_00478_DS_:
00000500 defb                 MOVIA 0x4
00000501 e0fc                 BCR 0x3, 0x6
00000502 fba0                 SUBAR 0x5f, 0x0
00000503 f7fc                 BTRSS 0x3, 0x0
00000504 c2f7                 LGOTO 0x508; main.o:_00479_DS_=0x508
00000505 fd20                 CLRR 0x5f
00000506 defe                 MOVIA 0x1
00000507 c2f4                 LGOTO 0x50b; main.o:_00483_DS_=0x50b
00000508                      main.o:_00479_DS_:
00000508 e0fc                 BCR 0x3, 0x6
00000509 fd20                 CLRR 0x5f
0000050a                      main.o:_00482_DS_:
0000050a deff                 MOVIA 0x0
0000050b                      main.o:_00483_DS_:
0000050b ffef                 RET
0000050c                      _gotoSleep:
0000050c d240                 LCALL 0x5bf; _LedInput=0x5bf
0000050d e0fc                 BCR 0x3, 0x6
0000050e fd15                 CLRR 0x6a
0000050f fd14                 CLRR 0x6b
00000510 d2c6                 LCALL 0x539; _pwmStop=0x539
00000511 d2b6                 LCALL 0x549; _pwm1Stop=0x549
00000512 de37                 MOVIA 0xc8
00000513 fffa                 IOST 0x5
00000514 deb9                 MOVIA 0x46
00000515 e0fc                 BCR 0x3, 0x6
00000516 ff7a                 MOVAR 0x5
00000517 dec0                 MOVIA 0x3f
00000518 fff6                 IOST 0x9
00000519 fd79                 CLRR 0x6
0000051a fd1f                 CLRR 0x60
0000051b de77                 MOVIA 0x88
0000051c ff6a                 MOVAR 0x15
0000051d fd76                 CLRR 0x9
0000051e fd1b                 CLRR 0x64
0000051f fd1a                 CLRR 0x65
00000520 fd1d                 CLRR 0x62
00000521 fd1c                 CLRR 0x63
00000522 e2a3                 BCR 0x5c, 0x2
00000523 defd                 MOVIA 0x2
00000524 ff71                 MOVAR 0xe
00000525 dee7                 MOVIA 0x18
00000526 ff77                 MOVAR 0x8
00000527 fd70                 CLRR 0xf
00000528 fffd                 CLRWDT
00000529 fffb                 ENI
0000052a fffe                 SLEEP
0000052b fd6a                 CLRR 0x15
0000052c de41                 MOVIA 0xbe
0000052d fffa                 IOST 0x5
0000052e fdff                 CLRA
0000052f fff9                 IOST 0x6
00000530 fd7a                 CLRR 0x5
00000531 de80                 MOVIA 0x7f
00000532 fff6                 IOST 0x9
00000533 defe                 MOVIA 0x1
00000534 ff71                 MOVAR 0xe
00000535 fd70                 CLRR 0xf
00000536 de47                 MOVIA 0xb8
00000537 ff77                 MOVAR 0x8
00000538 ffef                 RET
00000539                      _pwmStop:
00000539 fdff                 CLRA
0000053a ffb5                 SFUN 0xa
0000053b ffef                 RET
0000053c                      _pwmInit:
0000053c ff95                 SFUNR 0xa
0000053d e0fc                 BCR 0x3, 0x6
0000053e ff4d                 MOVAR 0x32
0000053f f04d                 BTRSC 0x32, 0x7
00000540 c2b7                 LGOTO 0x548; main.o:_00458_DS_=0x548
00000541 fd66                 CLRR 0x19
00000542 de9b                 MOVIA 0x64
00000543 ffb6                 SFUN 0x9
00000544 defe                 MOVIA 0x1
00000545 ffb4                 SFUN 0xb
00000546 de7c                 MOVIA 0x83
00000547 ffb5                 SFUN 0xa
00000548                      main.o:_00458_DS_:
00000548 ffef                 RET
00000549                      _pwm1Stop:
00000549 fdff                 CLRA
0000054a ffbe                 SFUN 0x1
0000054b ffef                 RET
0000054c                      _pwm1Init:
0000054c ff9e                 SFUNR 0x1
0000054d e0fc                 BCR 0x3, 0x6
0000054e ff4e                 MOVAR 0x31
0000054f f04e                 BTRSC 0x31, 0x7
00000550 c2a7                 LGOTO 0x558; main.o:_00447_DS_=0x558
00000551 fd66                 CLRR 0x19
00000552 dee7                 MOVIA 0x18
00000553 ffbf                 SFUN 0x0
00000554 fdff                 CLRA
00000555 ffbd                 SFUN 0x2
00000556 de7c                 MOVIA 0x83
00000557 ffbe                 SFUN 0x1
00000558                      main.o:_00447_DS_:
00000558 ffef                 RET
00000559                      _LED6ON:
00000559 ffea                 IOSTR 0x5
0000055a e0fc                 BCR 0x3, 0x6
0000055b ff4f                 MOVAR 0x30
0000055c e3cf                 BCR 0x30, 0x0
0000055d fecf                 MOVR 0x30, 0x0
0000055e fffa                 IOST 0x5
0000055f ffe9                 IOSTR 0x6
00000560 ff4f                 MOVAR 0x30
00000561 e34f                 BCR 0x30, 0x1
00000562 fecf                 MOVR 0x30, 0x0
00000563 fff9                 IOST 0x6
00000564 e779                 BSR 0x6, 0x1
00000565 e3fa                 BCR 0x5, 0x0
00000566 de9b                 MOVIA 0x64
00000567 d3c8                 LCALL 0x437; _delay=0x437
00000568 d240                 LCALL 0x5bf; _LedInput=0x5bf
00000569 ffef                 RET
0000056a                      _LED5ON:
0000056a ffea                 IOSTR 0x5
0000056b e0fc                 BCR 0x3, 0x6
0000056c ff50                 MOVAR 0x2f
0000056d e3d0                 BCR 0x2f, 0x0
0000056e fed0                 MOVR 0x2f, 0x0
0000056f fffa                 IOST 0x5
00000570 ffe9                 IOSTR 0x6
00000571 ff50                 MOVAR 0x2f
00000572 e350                 BCR 0x2f, 0x1
00000573 fed0                 MOVR 0x2f, 0x0
00000574 fff9                 IOST 0x6
00000575 e7fa                 BSR 0x5, 0x0
00000576 e379                 BCR 0x6, 0x1
00000577 de9b                 MOVIA 0x64
00000578 d3c8                 LCALL 0x437; _delay=0x437
00000579 d240                 LCALL 0x5bf; _LedInput=0x5bf
0000057a ffef                 RET
0000057b                      _LED4ON:
0000057b ffe9                 IOSTR 0x6
0000057c e0fc                 BCR 0x3, 0x6
0000057d ff51                 MOVAR 0x2e
0000057e e3d1                 BCR 0x2e, 0x0
0000057f fed1                 MOVR 0x2e, 0x0
00000580 fff9                 IOST 0x6
00000581 ffea                 IOSTR 0x5
00000582 ff51                 MOVAR 0x2e
00000583 e3d1                 BCR 0x2e, 0x0
00000584 fed1                 MOVR 0x2e, 0x0
00000585 fffa                 IOST 0x5
00000586 e7f9                 BSR 0x6, 0x0
00000587 e3fa                 BCR 0x5, 0x0
00000588 de9b                 MOVIA 0x64
00000589 d3c8                 LCALL 0x437; _delay=0x437
0000058a d240                 LCALL 0x5bf; _LedInput=0x5bf
0000058b ffef                 RET
0000058c                      _LED3ON:
0000058c ffe9                 IOSTR 0x6
0000058d e0fc                 BCR 0x3, 0x6
0000058e ff52                 MOVAR 0x2d
0000058f e3d2                 BCR 0x2d, 0x0
00000590 fed2                 MOVR 0x2d, 0x0
00000591 fff9                 IOST 0x6
00000592 ffe9                 IOSTR 0x6
00000593 ff52                 MOVAR 0x2d
00000594 e352                 BCR 0x2d, 0x1
00000595 fed2                 MOVR 0x2d, 0x0
00000596 fff9                 IOST 0x6
00000597 e779                 BSR 0x6, 0x1
00000598 e3f9                 BCR 0x6, 0x0
00000599 de9b                 MOVIA 0x64
0000059a d3c8                 LCALL 0x437; _delay=0x437
0000059b d240                 LCALL 0x5bf; _LedInput=0x5bf
0000059c ffef                 RET
0000059d                      _LED2ON:
0000059d ffea                 IOSTR 0x5
0000059e e0fc                 BCR 0x3, 0x6
0000059f ff53                 MOVAR 0x2c
000005a0 e3d3                 BCR 0x2c, 0x0
000005a1 fed3                 MOVR 0x2c, 0x0
000005a2 fffa                 IOST 0x5
000005a3 ffe9                 IOSTR 0x6
000005a4 ff53                 MOVAR 0x2c
000005a5 e3d3                 BCR 0x2c, 0x0
000005a6 fed3                 MOVR 0x2c, 0x0
000005a7 fff9                 IOST 0x6
000005a8 e7fa                 BSR 0x5, 0x0
000005a9 e3f9                 BCR 0x6, 0x0
000005aa de9b                 MOVIA 0x64
000005ab d3c8                 LCALL 0x437; _delay=0x437
000005ac d240                 LCALL 0x5bf; _LedInput=0x5bf
000005ad ffef                 RET
000005ae                      _LED1ON:
000005ae ffe9                 IOSTR 0x6
000005af e0fc                 BCR 0x3, 0x6
000005b0 ff54                 MOVAR 0x2b
000005b1 e3d4                 BCR 0x2b, 0x0
000005b2 fed4                 MOVR 0x2b, 0x0
000005b3 fff9                 IOST 0x6
000005b4 ffe9                 IOSTR 0x6
000005b5 ff54                 MOVAR 0x2b
000005b6 e354                 BCR 0x2b, 0x1
000005b7 fed4                 MOVR 0x2b, 0x0
000005b8 fff9                 IOST 0x6
000005b9 e7f9                 BSR 0x6, 0x0
000005ba e379                 BCR 0x6, 0x1
000005bb de9b                 MOVIA 0x64
000005bc d3c8                 LCALL 0x437; _delay=0x437
000005bd d240                 LCALL 0x5bf; _LedInput=0x5bf
000005be ffef                 RET
000005bf                      _LedInput:
000005bf ffea                 IOSTR 0x5
000005c0 e0fc                 BCR 0x3, 0x6
000005c1 ff55                 MOVAR 0x2a
000005c2 e7d5                 BSR 0x2a, 0x0
000005c3 fed5                 MOVR 0x2a, 0x0
000005c4 fffa                 IOST 0x5
000005c5 ffe9                 IOSTR 0x6
000005c6 ff55                 MOVAR 0x2a
000005c7 defc                 MOVIA 0x3
000005c8 ee55                 IORAR 0x2a, 0x1
000005c9 fed5                 MOVR 0x2a, 0x0
000005ca fff9                 IOST 0x6
000005cb e3fa                 BCR 0x5, 0x0
000005cc de03                 MOVIA 0xfc
000005cd ef79                 ANDAR 0x6, 0x1
000005ce ffef                 RET
000005cf                      _ledShow:
000005cf e0fc                 BCR 0x3, 0x6
000005d0 fe81                 MOVR 0x7e, 0x0
000005d1 f2fc                 BTRSC 0x3, 0x2
000005d2 c222                 LGOTO 0x5dd; main.o:_00344_DS_=0x5dd
000005d3 fe9f                 MOVR 0x60, 0x0
000005d4 f6fc                 BTRSS 0x3, 0x2
000005d5 c222                 LGOTO 0x5dd; main.o:_00344_DS_=0x5dd
000005d6 f381                 BTRSC 0x7e, 0x0
000005d7 c225                 LGOTO 0x5da; main.o:_00341_DS_=0x5da
000005d8 fd1e                 CLRR 0x61
000005d9 c222                 LGOTO 0x5dd; main.o:_00344_DS_=0x5dd
000005da                      main.o:_00341_DS_:
000005da e0fc                 BCR 0x3, 0x6
000005db fe84                 MOVR 0x7b, 0x0
000005dc ff1e                 MOVAR 0x61
000005dd                      main.o:_00344_DS_:
000005dd e0fc                 BCR 0x3, 0x6
000005de fe8d                 MOVR 0x72, 0x0
000005df f2fc                 BTRSC 0x3, 0x2
000005e0 c20e                 LGOTO 0x5f1; main.o:_00352_DS_=0x5f1
000005e1 fe98                 MOVR 0x67, 0x0
000005e2 f2fc                 BTRSC 0x3, 0x2
000005e3 c20e                 LGOTO 0x5f1; main.o:_00352_DS_=0x5f1
000005e4 fe8d                 MOVR 0x72, 0x0
000005e5 f2fc                 BTRSC 0x3, 0x2
000005e6 c20e                 LGOTO 0x5f1; main.o:_00352_DS_=0x5f1
000005e7 def8                 MOVIA 0x7
000005e8 fb98                 SUBAR 0x67, 0x0
000005e9 f7fc                 BTRSS 0x3, 0x0
000005ea c211                 LGOTO 0x5ee; main.o:_00347_DS_=0x5ee
000005eb def9                 MOVIA 0x6
000005ec ff1e                 MOVAR 0x61
000005ed c20e                 LGOTO 0x5f1; main.o:_00352_DS_=0x5f1
000005ee                      main.o:_00347_DS_:
000005ee e0fc                 BCR 0x3, 0x6
000005ef fe98                 MOVR 0x67, 0x0
000005f0 ff1e                 MOVAR 0x61
000005f1                      main.o:_00352_DS_:
000005f1 e0fc                 BCR 0x3, 0x6
000005f2 fe89                 MOVR 0x76, 0x0
000005f3 f2fc                 BTRSC 0x3, 0x2
000005f4 c1fb                 LGOTO 0x604; main.o:_00358_DS_=0x604
000005f5 fe9f                 MOVR 0x60, 0x0
000005f6 f2fc                 BTRSC 0x3, 0x2
000005f7 c1fb                 LGOTO 0x604; main.o:_00358_DS_=0x604
000005f8 fe98                 MOVR 0x67, 0x0
000005f9 f6fc                 BTRSS 0x3, 0x2
000005fa c1fb                 LGOTO 0x604; main.o:_00358_DS_=0x604
000005fb decd                 MOVIA 0x32
000005fc fb92                 SUBAR 0x6d, 0x0
000005fd f3fc                 BTRSC 0x3, 0x0
000005fe c1fd                 LGOTO 0x602; main.o:_00355_DS_=0x602
000005ff fe9f                 MOVR 0x60, 0x0
00000600 ff1e                 MOVAR 0x61
00000601 c1fb                 LGOTO 0x604; main.o:_00358_DS_=0x604
00000602                      main.o:_00355_DS_:
00000602 e0fc                 BCR 0x3, 0x6
00000603 fd1e                 CLRR 0x61
00000604                      main.o:_00358_DS_:
00000604 d240                 LCALL 0x5bf; _LedInput=0x5bf
00000605 def6                 MOVIA 0x9
00000606 e0fc                 BCR 0x3, 0x6
00000607 fb9e                 SUBAR 0x61, 0x0
00000608 f3fc                 BTRSC 0x3, 0x0
00000609 c1dd                 LGOTO 0x622; main.o:_00371_DS_=0x622
0000060a def9                 MOVIA 0x6
0000060b ff75                 MOVAR 0xa
0000060c fe9e                 MOVR 0x61, 0x0
0000060d daee                 ADDIA 0x11
0000060e f3fc                 BTRSC 0x3, 0x0
0000060f fa75                 INCR 0xa, 0x1
00000610 ff7d                 MOVAR 0x2
00000611                      main.o:_00412_DS_:
00000611 c1e5                 LGOTO 0x61a; main.o:_00361_DS_=0x61a
00000612 c1de                 LGOTO 0x621; main.o:_00369_DS_=0x621
00000613 c1df                 LGOTO 0x620; main.o:_00368_DS_=0x620
00000614 c1e0                 LGOTO 0x61f; main.o:_00367_DS_=0x61f
00000615 c1e1                 LGOTO 0x61e; main.o:_00366_DS_=0x61e
00000616 c1e2                 LGOTO 0x61d; main.o:_00365_DS_=0x61d
00000617 c1e3                 LGOTO 0x61c; main.o:_00364_DS_=0x61c
00000618 c1e3                 LGOTO 0x61c; main.o:_00364_DS_=0x61c
00000619 c1e3                 LGOTO 0x61c; main.o:_00364_DS_=0x61c
0000061a                      main.o:_00361_DS_:
0000061a d240                 LCALL 0x5bf; _LedInput=0x5bf
0000061b c1dd                 LGOTO 0x622; main.o:_00371_DS_=0x622
0000061c                      main.o:_00364_DS_:
0000061c d2a6                 LCALL 0x559; _LED6ON=0x559
0000061d                      main.o:_00365_DS_:
0000061d d295                 LCALL 0x56a; _LED5ON=0x56a
0000061e                      main.o:_00366_DS_:
0000061e d284                 LCALL 0x57b; _LED4ON=0x57b
0000061f                      main.o:_00367_DS_:
0000061f d273                 LCALL 0x58c; _LED3ON=0x58c
00000620                      main.o:_00368_DS_:
00000620 d262                 LCALL 0x59d; _LED2ON=0x59d
00000621                      main.o:_00369_DS_:
00000621 d251                 LCALL 0x5ae; _LED1ON=0x5ae
00000622                      main.o:_00371_DS_:
00000622 ffef                 RET
00000623                      _initSys:
00000623 ffec                 DISI
00000624 de41                 MOVIA 0xbe
00000625 fffa                 IOST 0x5
00000626 def7                 MOVIA 0x8
00000627 fff9                 IOST 0x6
00000628 fd79                 CLRR 0x6
00000629 e0fc                 BCR 0x3, 0x6
0000062a fd7a                 CLRR 0x5
0000062b d240                 LCALL 0x5bf; _LedInput=0x5bf
0000062c de80                 MOVIA 0x7f
0000062d fff6                 IOST 0x9
0000062e de00                 MOVIA 0xff
0000062f ff73                 MOVAR 0xc
00000630 ff74                 MOVAR 0xb
00000631 defe                 MOVIA 0x1
00000632 ff71                 MOVAR 0xe
00000633 fdff                 CLRA
00000634 fff0                 IOST 0xf
00000635 dec8                 MOVIA 0x37
00000636 ff7e                 MOVAR 0x1
00000637 defe                 MOVIA 0x1
00000638 fffc                 T0MD
00000639 fff0                 IOST 0xf
0000063a de67                 MOVIA 0x98
0000063b ff77                 MOVAR 0x8
0000063c defe                 MOVIA 0x1
0000063d fff0                 IOST 0xf
0000063e fffb                 ENI
0000063f ffef                 RET
00000640                      _powerOff:
00000640 e0fc                 BCR 0x3, 0x6
00000641 fd1f                 CLRR 0x60
00000642 d2c6                 LCALL 0x539; _pwmStop=0x539
00000643 ffef                 RET
00000644                      _keyCtr:
00000644 e0fc                 BCR 0x3, 0x6
00000645 f8fa                 COMR 0x5, 0x0
00000646 ff56                 MOVAR 0x29
00000647 de7f                 MOVIA 0x80
00000648 ef56                 ANDAR 0x29, 0x1
00000649 fed6                 MOVR 0x29, 0x0
0000064a d319                 LCALL 0x4e6; _keyRead=0x4e6
0000064b e0fc                 BCR 0x3, 0x6
0000064c ff56                 MOVAR 0x29
0000064d dbfe                 XORIA 0x1
0000064e f6fc                 BTRSS 0x3, 0x2
0000064f c15a                 LGOTO 0x6a5; main.o:_00325_DS_=0x6a5
00000650 fd21                 CLRR 0x5e
00000651 fd0d                 CLRR 0x72
00000652 fe9f                 MOVR 0x60, 0x0
00000653 f6fc                 BTRSS 0x3, 0x2
00000654 c1a4                 LGOTO 0x65b; main.o:_00291_DS_=0x65b
00000655 fd12                 CLRR 0x6d
00000656 defc                 MOVIA 0x3
00000657 ff0d                 MOVAR 0x72
00000658 e4fc                 BSR 0x3, 0x6
00000659 fd5c                 CLRR 0x23
0000065a c134                 LGOTO 0x6cb; main.o:_00327_DS_=0x6cb
0000065b                      main.o:_00291_DS_:
0000065b e0fc                 BCR 0x3, 0x6
0000065c fd0f                 CLRR 0x70
0000065d fa1f                 INCR 0x60, 0x1
0000065e def8                 MOVIA 0x7
0000065f fb9f                 SUBAR 0x60, 0x0
00000660 f7fc                 BTRSS 0x3, 0x0
00000661 c19b                 LGOTO 0x664; main.o:_00293_DS_=0x664
00000662 defe                 MOVIA 0x1
00000663 ff1f                 MOVAR 0x60
00000664                      main.o:_00293_DS_:
00000664 e0fc                 BCR 0x3, 0x6
00000665 fe98                 MOVR 0x67, 0x0
00000666 f6fc                 BTRSS 0x3, 0x2
00000667 c195                 LGOTO 0x66a; main.o:_00295_DS_=0x66a
00000668 def5                 MOVIA 0xa
00000669 ff09                 MOVAR 0x76
0000066a                      main.o:_00295_DS_:
0000066a e0fc                 BCR 0x3, 0x6
0000066b fe9f                 MOVR 0x60, 0x0
0000066c dbfe                 XORIA 0x1
0000066d f6fc                 BTRSS 0x3, 0x2
0000066e c18c                 LGOTO 0x673; main.o:_00311_DS_=0x673
0000066f ded7                 MOVIA 0x28
00000670 ff19                 MOVAR 0x66
00000671 fd0d                 CLRR 0x72
00000672 c165                 LGOTO 0x69a; main.o:_00312_DS_=0x69a
00000673                      main.o:_00311_DS_:
00000673 e0fc                 BCR 0x3, 0x6
00000674 fe9f                 MOVR 0x60, 0x0
00000675 dbfd                 XORIA 0x2
00000676 f6fc                 BTRSS 0x3, 0x2
00000677 c184                 LGOTO 0x67b; main.o:_00308_DS_=0x67b
00000678 ded5                 MOVIA 0x2a
00000679 ff19                 MOVAR 0x66
0000067a c165                 LGOTO 0x69a; main.o:_00312_DS_=0x69a
0000067b                      main.o:_00308_DS_:
0000067b e0fc                 BCR 0x3, 0x6
0000067c fe9f                 MOVR 0x60, 0x0
0000067d dbfc                 XORIA 0x3
0000067e f6fc                 BTRSS 0x3, 0x2
0000067f c17c                 LGOTO 0x683; main.o:_00305_DS_=0x683
00000680 ded3                 MOVIA 0x2c
00000681 ff19                 MOVAR 0x66
00000682 c165                 LGOTO 0x69a; main.o:_00312_DS_=0x69a
00000683                      main.o:_00305_DS_:
00000683 e0fc                 BCR 0x3, 0x6
00000684 fe9f                 MOVR 0x60, 0x0
00000685 dbfb                 XORIA 0x4
00000686 f6fc                 BTRSS 0x3, 0x2
00000687 c174                 LGOTO 0x68b; main.o:_00302_DS_=0x68b
00000688 ded1                 MOVIA 0x2e
00000689 ff19                 MOVAR 0x66
0000068a c165                 LGOTO 0x69a; main.o:_00312_DS_=0x69a
0000068b                      main.o:_00302_DS_:
0000068b e0fc                 BCR 0x3, 0x6
0000068c fe9f                 MOVR 0x60, 0x0
0000068d dbfa                 XORIA 0x5
0000068e f6fc                 BTRSS 0x3, 0x2
0000068f c16c                 LGOTO 0x693; main.o:_00299_DS_=0x693
00000690 decf                 MOVIA 0x30
00000691 ff19                 MOVAR 0x66
00000692 c165                 LGOTO 0x69a; main.o:_00312_DS_=0x69a
00000693                      main.o:_00299_DS_:
00000693 e0fc                 BCR 0x3, 0x6
00000694 fe9f                 MOVR 0x60, 0x0
00000695 dbf9                 XORIA 0x6
00000696 f6fc                 BTRSS 0x3, 0x2
00000697 c165                 LGOTO 0x69a; main.o:_00312_DS_=0x69a
00000698 decd                 MOVIA 0x32
00000699 ff19                 MOVAR 0x66
0000069a                      main.o:_00312_DS_:
0000069a e0fc                 BCR 0x3, 0x6
0000069b fe9f                 MOVR 0x60, 0x0
0000069c f2fc                 BTRSC 0x3, 0x2
0000069d c15e                 LGOTO 0x6a1; main.o:_00314_DS_=0x6a1
0000069e fe99                 MOVR 0x66, 0x0
0000069f ffb3                 SFUN 0xc
000006a0 d2c3                 LCALL 0x53c; _pwmInit=0x53c
000006a1                      main.o:_00314_DS_:
000006a1 e0fc                 BCR 0x3, 0x6
000006a2 fe9f                 MOVR 0x60, 0x0
000006a3 ff1e                 MOVAR 0x61
000006a4 c134                 LGOTO 0x6cb; main.o:_00327_DS_=0x6cb
000006a5                      main.o:_00325_DS_:
000006a5 e0fc                 BCR 0x3, 0x6
000006a6 fed6                 MOVR 0x29, 0x0
000006a7 dbfd                 XORIA 0x2
000006a8 f6fc                 BTRSS 0x3, 0x2
000006a9 c134                 LGOTO 0x6cb; main.o:_00327_DS_=0x6cb
000006aa fe9f                 MOVR 0x60, 0x0
000006ab f2fc                 BTRSC 0x3, 0x2
000006ac c150                 LGOTO 0x6af; main.o:_00320_DS_=0x6af
000006ad d1bf                 LCALL 0x640; _powerOff=0x640
000006ae c137                 LGOTO 0x6c8; main.o:_00321_DS_=0x6c8
000006af                      main.o:_00320_DS_:
000006af e0fc                 BCR 0x3, 0x6
000006b0 fe98                 MOVR 0x67, 0x0
000006b1 dbf5                 XORIA 0xa
000006b2 f6fc                 BTRSS 0x3, 0x2
000006b3 c148                 LGOTO 0x6b7; main.o:_00316_DS_=0x6b7
000006b4 fd15                 CLRR 0x6a
000006b5 fd14                 CLRR 0x6b
000006b6 c134                 LGOTO 0x6cb; main.o:_00327_DS_=0x6cb
000006b7                      main.o:_00316_DS_:
000006b7 e0fc                 BCR 0x3, 0x6
000006b8 fd0d                 CLRR 0x72
000006b9 defe                 MOVIA 0x1
000006ba ff1e                 MOVAR 0x61
000006bb ff1f                 MOVAR 0x60
000006bc deb9                 MOVIA 0x46
000006bd ffb3                 SFUN 0xc
000006be ff0c                 MOVAR 0x73
000006bf ded7                 MOVIA 0x28
000006c0 ff19                 MOVAR 0x66
000006c1 d2c3                 LCALL 0x53c; _pwmInit=0x53c
000006c2 e0fc                 BCR 0x3, 0x6
000006c3 fe98                 MOVR 0x67, 0x0
000006c4 f6fc                 BTRSS 0x3, 0x2
000006c5 c137                 LGOTO 0x6c8; main.o:_00321_DS_=0x6c8
000006c6 def5                 MOVIA 0xa
000006c7 ff09                 MOVAR 0x76
000006c8                      main.o:_00321_DS_:
000006c8 e0fc                 BCR 0x3, 0x6
000006c9 fe9f                 MOVR 0x60, 0x0
000006ca ff1e                 MOVAR 0x61
000006cb                      main.o:_00327_DS_:
000006cb ffef                 RET
000006cc                      __mulchar:
000006cc e0fc                 BCR 0x3, 0x6
000006cd ff2b                 MOVAR 0x54
000006ce feb8                 MOVR 0x47, 0x0
000006cf ff2a                 MOVAR 0x55
000006d0 fd29                 CLRR 0x56
000006d1 def7                 MOVIA 0x8
000006d2 ff28                 MOVAR 0x57
000006d3                      _mulchar.o:_00119_DS_:
000006d3 e0fc                 BCR 0x3, 0x6
000006d4 f7ab                 BTRSS 0x54, 0x0
000006d5 c127                 LGOTO 0x6d8; _mulchar.o:_00114_DS_=0x6d8
000006d6 feaa                 MOVR 0x55, 0x0
000006d7 fc29                 ADDAR 0x56, 0x1
000006d8                      _mulchar.o:_00114_DS_:
000006d8 e3fc                 BCR 0x3, 0x0
000006d9 e0fc                 BCR 0x3, 0x6
000006da ec2b                 RRR 0x54, 0x1
000006db e3fc                 BCR 0x3, 0x0
000006dc eb2a                 RLR 0x55, 0x1
000006dd f9a8                 DECR 0x57, 0x0
000006de ff27                 MOVAR 0x58
000006df ff28                 MOVAR 0x57
000006e0 fea7                 MOVR 0x58, 0x0
000006e1 f6fc                 BTRSS 0x3, 0x2
000006e2 c12c                 LGOTO 0x6d3; _mulchar.o:_00119_DS_=0x6d3
000006e3 fea9                 MOVR 0x56, 0x0
000006e4 ffef                 RET
000006e5                      ___cinit_load__:
