00000000 c7fe                 LGOTO 0x1; __nyc_ny8_startup=0x1
00000001                      __nyc_ny8_startup:
00000001 d397                 LCALL 0x468; ___cinit_load__=0x468
00000002 c7c8                 LGOTO 0x37; _main=0x37
00000003                      crt0.o:crt0_end:
00000003 fdff                 CLRA
00000004 ffb5                 SFUN 0xa
00000005 ffef                 RET
00000008 c7f6                 LGOTO 0x9; main.o:__sdcc_interrupt=0x9
00000009                      main.o:__sdcc_interrupt:
00000009 ff3d                 MOVAR 0x42
0000000a eafc                 SWAPR 0x3, 0x0
0000000b fd7c                 CLRR 0x3
0000000c ff3e                 MOVAR 0x41
0000000d fef5                 MOVR 0xa, 0x0
0000000e fd75                 CLRR 0xa
0000000f ff3f                 MOVAR 0x40
00000010 fefb                 MOVR 0x4, 0x0
00000011 e0fc                 BCR 0x3, 0x6
00000012 ff22                 MOVAR 0x5d
00000013 feba                 MOVR 0x45, 0x0
00000014 ff21                 MOVAR 0x5e
00000015 febb                 MOVR 0x44, 0x0
00000016 ff20                 MOVAR 0x5f
00000017 f7f0                 BTRSS 0xf, 0x0
00000018 c7dc                 LGOTO 0x23; main.o:_00108_DS_=0x23
00000019 dec7                 MOVIA 0x38
0000001a fc7e                 ADDAR 0x1, 0x1
0000001b fa13                 INCR 0x6c, 0x1
0000001c fe93                 MOVR 0x6c, 0x0
0000001d db9b                 XORIA 0x64
0000001e f6fc                 BTRSS 0x3, 0x2
0000001f c7dc                 LGOTO 0x23; main.o:_00108_DS_=0x23
00000020 fd13                 CLRR 0x6c
00000021 defe                 MOVIA 0x1
00000022 ff12                 MOVAR 0x6d
00000023                      main.o:_00108_DS_:
00000023 f770                 BTRSS 0xf, 0x1
00000024 c7d8                 LGOTO 0x27; main.o:_00110_DS_=0x27
00000025 de02                 MOVIA 0xfd
00000026 ff70                 MOVAR 0xf
00000027                      main.o:_00110_DS_:
00000027 fd70                 CLRR 0xf
00000028 e0fc                 BCR 0x3, 0x6
00000029 fea0                 MOVR 0x5f, 0x0
0000002a ff3b                 MOVAR 0x44
0000002b fea1                 MOVR 0x5e, 0x0
0000002c ff3a                 MOVAR 0x45
0000002d fea2                 MOVR 0x5d, 0x0
0000002e ff7b                 MOVAR 0x4
0000002f febf                 MOVR 0x40, 0x0
00000030 ff75                 MOVAR 0xa
00000031 fd7c                 CLRR 0x3
00000032 eabe                 SWAPR 0x41, 0x0
00000033 ff7c                 MOVAR 0x3
00000034 ea3d                 SWAPR 0x42, 0x1
00000035 eabd                 SWAPR 0x42, 0x0
00000036                      main.o:END_OF_INTERRUPT:
00000036 ffee                 RETIE
00000037                      _main:
00000037 fd79                 CLRR 0x6
00000038 fd7a                 CLRR 0x5
00000039                      ___cinit_size__:
00000039 ded1                 MOVIA 0x2e
0000003a fffa                 IOST 0x5
0000003b deec                 MOVIA 0x13
0000003c fff9                 IOST 0x6
0000003d de20                 MOVIA 0xdf
0000003e ff74                 MOVAR 0xb
0000003f de01                 MOVIA 0xfe
00000040 ff73                 MOVAR 0xc
00000041 de08                 MOVIA 0xf7
00000042 fff6                 IOST 0x9
00000043 fd79                 CLRR 0x6
00000044 fd7a                 CLRR 0x5
00000045 de57                 MOVIA 0xa8
00000046 ff77                 MOVAR 0x8
00000047 e1f7                 BCR 0x8, 0x4
00000048 fdff                 CLRA
00000049 fff0                 IOST 0xf
0000004a dec8                 MOVIA 0x37
0000004b ff7e                 MOVAR 0x1
0000004c fdff                 CLRA
0000004d fffc                 T0MD
0000004e defc                 MOVIA 0x3
0000004f ff71                 MOVAR 0xe
00000050 defe                 MOVIA 0x1
00000051 fff0                 IOST 0xf
00000052 fffb                 ENI
00000053 d591                 LCALL 0x26e; _initAD=0x26e
00000054                      main.o:_00151_DS_:
00000054 fffd                 CLRWDT
00000055 e0fc                 BCR 0x3, 0x6
00000056 fe8f                 MOVR 0x70, 0x0
00000057 f2fc                 BTRSC 0x3, 0x2
00000058 c77c                 LGOTO 0x83; main.o:_00127_DS_=0x83
00000059 deea                 MOVIA 0x15
0000005a fb88                 SUBAR 0x77, 0x0
0000005b f7fc                 BTRSS 0x3, 0x0
0000005c c77e                 LGOTO 0x81; main.o:_00119_DS_=0x81
0000005d deff                 MOVIA 0x0
0000005e fb89                 SUBAR 0x76, 0x0
0000005f f6fc                 BTRSS 0x3, 0x2
00000060 c79c                 LGOTO 0x63; main.o:_00204_DS_=0x63
00000061 de9b                 MOVIA 0x64
00000062 fb8a                 SUBAR 0x75, 0x0
00000063                      main.o:_00204_DS_:
00000063 f3fc                 BTRSC 0x3, 0x0
00000064 c782                 LGOTO 0x7d; main.o:_00116_DS_=0x7d
00000065 def5                 MOVIA 0xa
00000066 ff3c                 MOVAR 0x43
00000067 deff                 MOVIA 0x0
00000068 ff3b                 MOVAR 0x44
00000069 e0fc                 BCR 0x3, 0x6
0000006a fe8a                 MOVR 0x75, 0x0
0000006b ff3a                 MOVAR 0x45
0000006c fe89                 MOVR 0x76, 0x0
0000006d d439                 LCALL 0x3c6; __divuint=0x3c6
0000006e feba                 MOVR 0x45, 0x0
0000006f e0fc                 BCR 0x3, 0x6
00000070 ff5f                 MOVAR 0x20
00000071 def5                 MOVIA 0xa
00000072 ff3c                 MOVAR 0x43
00000073 deff                 MOVIA 0x0
00000074 ff3b                 MOVAR 0x44
00000075 fe8a                 MOVR 0x75, 0x0
00000076 ff3a                 MOVAR 0x45
00000077 fe89                 MOVR 0x76, 0x0
00000078 d3ef                 LCALL 0x410; __moduint=0x410
00000079 feba                 MOVR 0x45, 0x0
0000007a e0fc                 BCR 0x3, 0x6
0000007b ff5e                 MOVAR 0x21
0000007c c77e                 LGOTO 0x81; main.o:_00119_DS_=0x81
0000007d                      main.o:_00116_DS_:
0000007d def5                 MOVIA 0xa
0000007e e0fc                 BCR 0x3, 0x6
0000007f ff5e                 MOVAR 0x21
00000080 ff5f                 MOVAR 0x20
00000081                      main.o:_00119_DS_:
00000081 d4f1                 LCALL 0x30e; _refresh=0x30e
00000082 c768                 LGOTO 0x97; main.o:_00128_DS_=0x97
00000083                      main.o:_00127_DS_:
00000083 e0fc                 BCR 0x3, 0x6
00000084 fe90                 MOVR 0x6f, 0x0
00000085 f2fc                 BTRSC 0x3, 0x2
00000086 c773                 LGOTO 0x8c; main.o:_00124_DS_=0x8c
00000087 fd5f                 CLRR 0x20
00000088 fe90                 MOVR 0x6f, 0x0
00000089 ff5e                 MOVAR 0x21
0000008a d4f1                 LCALL 0x30e; _refresh=0x30e
0000008b c768                 LGOTO 0x97; main.o:_00128_DS_=0x97
0000008c                      main.o:_00124_DS_:
0000008c e0fc                 BCR 0x3, 0x6
0000008d fe85                 MOVR 0x7a, 0x0
0000008e f6fc                 BTRSS 0x3, 0x2
0000008f c76a                 LGOTO 0x95; main.o:_00121_DS_=0x95
00000090 def7                 MOVIA 0x8
00000091 ff5e                 MOVAR 0x21
00000092 ff5f                 MOVAR 0x20
00000093 d4f1                 LCALL 0x30e; _refresh=0x30e
00000094 c768                 LGOTO 0x97; main.o:_00128_DS_=0x97
00000095                      main.o:_00121_DS_:
00000095 e579                 BSR 0x6, 0x5
00000096 e679                 BSR 0x6, 0x3
00000097                      main.o:_00128_DS_:
00000097 e0fc                 BCR 0x3, 0x6
00000098 fe92                 MOVR 0x6d, 0x0
00000099 f2fc                 BTRSC 0x3, 0x2
0000009a c7ab                 LGOTO 0x54; main.o:_00151_DS_=0x54
0000009b fa08                 INCR 0x77, 0x1
0000009c ded7                 MOVIA 0x28
0000009d fb88                 SUBAR 0x77, 0x0
0000009e f3fc                 BTRSC 0x3, 0x0
0000009f fd08                 CLRR 0x77
000000a0 deeb                 MOVIA 0x14
000000a1 fb88                 SUBAR 0x77, 0x0
000000a2 f3fc                 BTRSC 0x3, 0x0
000000a3 c759                 LGOTO 0xa6; main.o:_00134_DS_=0xa6
000000a4 d5ee                 LCALL 0x211; _checkBatAD=0x211
000000a5 c758                 LGOTO 0xa7; main.o:_00135_DS_=0xa7
000000a6                      main.o:_00134_DS_:
000000a6 d616                 LCALL 0x1e9; _checkPWAAD=0x1e9
000000a7                      main.o:_00135_DS_:
000000a7 e0fc                 BCR 0x3, 0x6
000000a8 fd12                 CLRR 0x6d
000000a9 d472                 LCALL 0x38d; _chrgCtr=0x38d
000000aa d4c1                 LCALL 0x33e; _keyCtr=0x33e
000000ab e0fc                 BCR 0x3, 0x6
000000ac fe90                 MOVR 0x6f, 0x0
000000ad f2fc                 BTRSC 0x3, 0x2
000000ae c74e                 LGOTO 0xb1; main.o:_00148_DS_=0xb1
000000af d72e                 LCALL 0xd1; _workCtr=0xd1
000000b0 c7ab                 LGOTO 0x54; main.o:_00151_DS_=0x54
000000b1                      main.o:_00148_DS_:
000000b1 e0fc                 BCR 0x3, 0x6
000000b2 fe8d                 MOVR 0x72, 0x0
000000b3 f2fc                 BTRSC 0x3, 0x2
000000b4 d7fc                 LCALL 0x3; crt0.o:crt0_end=0x3
000000b5 e0fc                 BCR 0x3, 0x6
000000b6 fe8f                 MOVR 0x70, 0x0
000000b7 f6fc                 BTRSS 0x3, 0x2
000000b8 c73c                 LGOTO 0xc3; main.o:_00143_DS_=0xc3
000000b9 fe8d                 MOVR 0x72, 0x0
000000ba f6fc                 BTRSS 0x3, 0x2
000000bb c73c                 LGOTO 0xc3; main.o:_00143_DS_=0xc3
000000bc fa0e                 INCR 0x71, 0x1
000000bd de9b                 MOVIA 0x64
000000be fb8e                 SUBAR 0x71, 0x0
000000bf f7fc                 BTRSS 0x3, 0x0
000000c0 c73c                 LGOTO 0xc3; main.o:_00143_DS_=0xc3
000000c1 d686                 LCALL 0x179; _gotoSleep=0x179
000000c2 c7ab                 LGOTO 0x54; main.o:_00151_DS_=0x54
000000c3                      main.o:_00143_DS_:
000000c3 e0fc                 BCR 0x3, 0x6
000000c4 fe8f                 MOVR 0x70, 0x0
000000c5 f6fc                 BTRSS 0x3, 0x2
000000c6 c732                 LGOTO 0xcd; main.o:_00139_DS_=0xcd
000000c7 fe85                 MOVR 0x7a, 0x0
000000c8 f6fc                 BTRSS 0x3, 0x2
000000c9 c732                 LGOTO 0xcd; main.o:_00139_DS_=0xcd
000000ca e5fa                 BSR 0x5, 0x4
000000cb e7fa                 BSR 0x5, 0x0
000000cc c7ab                 LGOTO 0x54; main.o:_00151_DS_=0x54
000000cd                      main.o:_00139_DS_:
000000cd e1fa                 BCR 0x5, 0x4
000000ce e3fa                 BCR 0x5, 0x0
000000cf c7ab                 LGOTO 0x54; main.o:_00151_DS_=0x54
000000d0 ffef                 RET
000000d1                      _workCtr:
000000d1 d6a4                 LCALL 0x15b; _pwmInit=0x15b
000000d2 deff                 MOVIA 0x0
000000d3 e0fc                 BCR 0x3, 0x6
000000d4 fbd9                 SUBAR 0x26, 0x0
000000d5 f6fc                 BTRSS 0x3, 0x2
000000d6 c726                 LGOTO 0xd9; main.o:_00443_DS_=0xd9
000000d7 def5                 MOVIA 0xa
000000d8 fbda                 SUBAR 0x25, 0x0
000000d9                      main.o:_00443_DS_:
000000d9 f7fc                 BTRSS 0x3, 0x0
000000da c6c2                 LGOTO 0x13d; main.o:_00398_DS_=0x13d
000000db def6                 MOVIA 0x9
000000dc e0fc                 BCR 0x3, 0x6
000000dd fb90                 SUBAR 0x6f, 0x0
000000de f3fc                 BTRSC 0x3, 0x0
000000df c6fd                 LGOTO 0x102; main.o:_00395_DS_=0x102
000000e0 defd                 MOVIA 0x2
000000e1 ff3a                 MOVAR 0x45
000000e2 fe90                 MOVR 0x6f, 0x0
000000e3 d452                 LCALL 0x3ad; __mulchar=0x3ad
000000e4 e0fc                 BCR 0x3, 0x6
000000e5 ff36                 MOVAR 0x49
000000e6 deb9                 MOVIA 0x46
000000e7 fcb6                 ADDAR 0x49, 0x0
000000e8 ff57                 MOVAR 0x28
000000e9 fe90                 MOVR 0x6f, 0x0
000000ea dbfe                 XORIA 0x1
000000eb f6fc                 BTRSS 0x3, 0x2
000000ec c70f                 LGOTO 0xf0; main.o:_00378_DS_=0xf0
000000ed deb9                 MOVIA 0x46
000000ee ff57                 MOVAR 0x28
000000ef c708                 LGOTO 0xf7; main.o:_00379_DS_=0xf7
000000f0                      main.o:_00378_DS_:
000000f0 e0fc                 BCR 0x3, 0x6
000000f1 fe90                 MOVR 0x6f, 0x0
000000f2 dbf7                 XORIA 0x8
000000f3 f6fc                 BTRSS 0x3, 0x2
000000f4 c708                 LGOTO 0xf7; main.o:_00379_DS_=0xf7
000000f5 dea8                 MOVIA 0x57
000000f6 ff57                 MOVAR 0x28
000000f7                      main.o:_00379_DS_:
000000f7 e0fc                 BCR 0x3, 0x6
000000f8 fed7                 MOVR 0x28, 0x0
000000f9 fbd6                 SUBAR 0x29, 0x0
000000fa f3fc                 BTRSC 0x3, 0x0
000000fb c701                 LGOTO 0xfe; main.o:_00381_DS_=0xfe
000000fc fa56                 INCR 0x29, 0x1
000000fd c6bf                 LGOTO 0x140; main.o:_00399_DS_=0x140
000000fe                      main.o:_00381_DS_:
000000fe e0fc                 BCR 0x3, 0x6
000000ff fed7                 MOVR 0x28, 0x0
00000100 ff56                 MOVAR 0x29
00000101 c6bf                 LGOTO 0x140; main.o:_00399_DS_=0x140
00000102                      main.o:_00395_DS_:
00000102 e0fc                 BCR 0x3, 0x6
00000103 fa07                 INCR 0x78, 0x1
00000104 f2fc                 BTRSC 0x3, 0x2
00000105 fa06                 INCR 0x79, 0x1
00000106 defe                 MOVIA 0x1
00000107 fb86                 SUBAR 0x79, 0x0
00000108 f6fc                 BTRSS 0x3, 0x2
00000109 c6f3                 LGOTO 0x10c; main.o:_00446_DS_=0x10c
0000010a ded3                 MOVIA 0x2c
0000010b fb87                 SUBAR 0x78, 0x0
0000010c                      main.o:_00446_DS_:
0000010c f7fc                 BTRSS 0x3, 0x0
0000010d c6ec                 LGOTO 0x113; main.o:_00384_DS_=0x113
0000010e e0fc                 BCR 0x3, 0x6
0000010f fd07                 CLRR 0x78
00000110 fd06                 CLRR 0x79
00000111 deb9                 MOVIA 0x46
00000112 ff56                 MOVAR 0x29
00000113                      main.o:_00384_DS_:
00000113 def6                 MOVIA 0x9
00000114 ff3c                 MOVAR 0x43
00000115 deff                 MOVIA 0x0
00000116 ff3b                 MOVAR 0x44
00000117 e0fc                 BCR 0x3, 0x6
00000118 fe87                 MOVR 0x78, 0x0
00000119 ff3a                 MOVAR 0x45
0000011a fe86                 MOVR 0x79, 0x0
0000011b d3ef                 LCALL 0x410; __moduint=0x410
0000011c e0fc                 BCR 0x3, 0x6
0000011d ff35                 MOVAR 0x4a
0000011e feba                 MOVR 0x45, 0x0
0000011f ff36                 MOVAR 0x49
00000120 eeb5                 IORAR 0x4a, 0x0
00000121 f6fc                 BTRSS 0x3, 0x2
00000122 c6bf                 LGOTO 0x140; main.o:_00399_DS_=0x140
00000123 deff                 MOVIA 0x0
00000124 fb86                 SUBAR 0x79, 0x0
00000125 f6fc                 BTRSS 0x3, 0x2
00000126 c6d6                 LGOTO 0x129; main.o:_00447_DS_=0x129
00000127 de69                 MOVIA 0x96
00000128 fb87                 SUBAR 0x78, 0x0
00000129                      main.o:_00447_DS_:
00000129 f3fc                 BTRSC 0x3, 0x0
0000012a c6cb                 LGOTO 0x134; main.o:_00390_DS_=0x134
0000012b e0fc                 BCR 0x3, 0x6
0000012c fa56                 INCR 0x29, 0x1
0000012d dea8                 MOVIA 0x57
0000012e fbd6                 SUBAR 0x29, 0x0
0000012f f7fc                 BTRSS 0x3, 0x0
00000130 c6bf                 LGOTO 0x140; main.o:_00399_DS_=0x140
00000131 dea8                 MOVIA 0x57
00000132 ff56                 MOVAR 0x29
00000133 c6bf                 LGOTO 0x140; main.o:_00399_DS_=0x140
00000134                      main.o:_00390_DS_:
00000134 e0fc                 BCR 0x3, 0x6
00000135 f956                 DECR 0x29, 0x1
00000136 deb9                 MOVIA 0x46
00000137 fbd6                 SUBAR 0x29, 0x0
00000138 f3fc                 BTRSC 0x3, 0x0
00000139 c6bf                 LGOTO 0x140; main.o:_00399_DS_=0x140
0000013a deb9                 MOVIA 0x46
0000013b ff56                 MOVAR 0x29
0000013c c6bf                 LGOTO 0x140; main.o:_00399_DS_=0x140
0000013d                      main.o:_00398_DS_:
0000013d deb9                 MOVIA 0x46
0000013e e0fc                 BCR 0x3, 0x6
0000013f ff56                 MOVAR 0x29
00000140                      main.o:_00399_DS_:
00000140 fd66                 CLRR 0x19
00000141 e0fc                 BCR 0x3, 0x6
00000142 fed6                 MOVR 0x29, 0x0
00000143 ffb3                 SFUN 0xc
00000144 deff                 MOVIA 0x0
00000145 fb89                 SUBAR 0x76, 0x0
00000146 f6fc                 BTRSS 0x3, 0x2
00000147 c6b5                 LGOTO 0x14a; main.o:_00450_DS_=0x14a
00000148 def3                 MOVIA 0xc
00000149 fb8a                 SUBAR 0x75, 0x0
0000014a                      main.o:_00450_DS_:
0000014a f7fc                 BTRSS 0x3, 0x0
0000014b c6b0                 LGOTO 0x14f; main.o:_00403_DS_=0x14f
0000014c e5fa                 BSR 0x5, 0x4
0000014d e3fa                 BCR 0x5, 0x0
0000014e c6a5                 LGOTO 0x15a; main.o:_00405_DS_=0x15a
0000014f                      main.o:_00403_DS_:
0000014f deff                 MOVIA 0x0
00000150 e0fc                 BCR 0x3, 0x6
00000151 fb89                 SUBAR 0x76, 0x0
00000152 f6fc                 BTRSS 0x3, 0x2
00000153 c6a9                 LGOTO 0x156; main.o:_00451_DS_=0x156
00000154 def4                 MOVIA 0xb
00000155 fb8a                 SUBAR 0x75, 0x0
00000156                      main.o:_00451_DS_:
00000156 f3fc                 BTRSC 0x3, 0x0
00000157 c6a5                 LGOTO 0x15a; main.o:_00405_DS_=0x15a
00000158 e1fa                 BCR 0x5, 0x4
00000159 e7fa                 BSR 0x5, 0x0
0000015a                      main.o:_00405_DS_:
0000015a ffef                 RET
0000015b                      _pwmInit:
0000015b ff95                 SFUNR 0xa
0000015c e0fc                 BCR 0x3, 0x6
0000015d ff37                 MOVAR 0x48
0000015e f037                 BTRSC 0x48, 0x7
0000015f c698                 LGOTO 0x167; main.o:_00366_DS_=0x167
00000160 fd66                 CLRR 0x19
00000161 dea7                 MOVIA 0x58
00000162 ffb6                 SFUN 0x9
00000163 fdff                 CLRA
00000164 ffb4                 SFUN 0xb
00000165 de7c                 MOVIA 0x83
00000166 ffb5                 SFUN 0xa
00000167                      main.o:_00366_DS_:
00000167 ffef                 RET
00000168                      _delay_us:
00000168 e0fc                 BCR 0x3, 0x6
00000169 ff38                 MOVAR 0x47
0000016a                      main.o:_00356_DS_:
0000016a e0fc                 BCR 0x3, 0x6
0000016b feb8                 MOVR 0x47, 0x0
0000016c f2fc                 BTRSC 0x3, 0x2
0000016d c68e                 LGOTO 0x171; main.o:_00359_DS_=0x171
0000016e f938                 DECR 0x47, 0x1
0000016f ffff                 NOP
00000170 c695                 LGOTO 0x16a; main.o:_00356_DS_=0x16a
00000171                      main.o:_00359_DS_:
00000171 ffef                 RET
00000172                      _Delay10Us:
00000172 ffff                 NOP
00000173 ffff                 NOP
00000174 ffff                 NOP
00000175 ffff                 NOP
00000176 ffff                 NOP
00000177 ffff                 NOP
00000178 ffef                 RET
00000179                      _gotoSleep:
00000179 e579                 BSR 0x6, 0x5
0000017a e679                 BSR 0x6, 0x3
0000017b def7                 MOVIA 0x8
0000017c e0fc                 BCR 0x3, 0x6
0000017d ff5e                 MOVAR 0x21
0000017e ff5f                 MOVAR 0x20
0000017f fd10                 CLRR 0x6f
00000180 defe                 MOVIA 0x1
00000181 ff05                 MOVAR 0x7a
00000182 dedf                 MOVIA 0x20
00000183 ff6a                 MOVAR 0x15
00000184 defd                 MOVIA 0x2
00000185 ff76                 MOVAR 0x9
00000186 e1fa                 BCR 0x5, 0x4
00000187 e3fa                 BCR 0x5, 0x0
00000188 fd0e                 CLRR 0x71
00000189 defc                 MOVIA 0x3
0000018a ff71                 MOVAR 0xe
0000018b def7                 MOVIA 0x8
0000018c ff77                 MOVAR 0x8
0000018d fd70                 CLRR 0xf
0000018e fffd                 CLRWDT
0000018f fffb                 ENI
00000190 fffe                 SLEEP
00000191 fd6a                 CLRR 0x15
00000192 fd76                 CLRR 0x9
00000193 defc                 MOVIA 0x3
00000194 ff71                 MOVAR 0xe
00000195 fd70                 CLRR 0xf
00000196 e1f7                 BCR 0x8, 0x4
00000197 ffef                 RET
00000198                      main.o:_00343_DS_:
00000198 f56f                 BTRSS 0x10, 0x5
00000199 c667                 LGOTO 0x198; main.o:_00343_DS_=0x198
0000019a ffef                 RET
0000019b                      _F_AIN2_Convert:
0000019b e0fc                 BCR 0x3, 0x6
0000019c ff42                 MOVAR 0x3d
0000019d fd58                 CLRR 0x27
0000019e fd5a                 CLRR 0x25
0000019f fd59                 CLRR 0x26
000001a0 de6d                 MOVIA 0x92
000001a1 ff6f                 MOVAR 0x10
000001a2 de37                 MOVIA 0xc8
000001a3 d697                 LCALL 0x168; _delay_us=0x168
000001a4 defe                 MOVIA 0x1
000001a5 e0fc                 BCR 0x3, 0x6
000001a6 ff41                 MOVAR 0x3e
000001a7                      main.o:_00336_DS_:
000001a7 e0fc                 BCR 0x3, 0x6
000001a8 fec1                 MOVR 0x3e, 0x0
000001a9 fbc2                 SUBAR 0x3d, 0x0
000001aa f7fc                 BTRSS 0x3, 0x0
000001ab c63e                 LGOTO 0x1c1; main.o:_00338_DS_=0x1c1
000001ac e4ef                 BSR 0x10, 0x6
000001ad d667                 LCALL 0x198; main.o:_00343_DS_=0x198
000001ae def0                 MOVIA 0xf
000001af efee                 ANDAR 0x11, 0x0
000001b0 e0fc                 BCR 0x3, 0x6
000001b1 fc58                 ADDAR 0x27, 0x1
000001b2 feed                 MOVR 0x12, 0x0
000001b3 ff40                 MOVAR 0x3f
000001b4 deff                 MOVIA 0x0
000001b5 ff39                 MOVAR 0x46
000001b6 fec0                 MOVR 0x3f, 0x0
000001b7 fc5a                 ADDAR 0x25, 0x1
000001b8 feb9                 MOVR 0x46, 0x0
000001b9 f3fc                 BTRSC 0x3, 0x0
000001ba fab9                 INCR 0x46, 0x0
000001bb f2fc                 BTRSC 0x3, 0x2
000001bc c641                 LGOTO 0x1be; main.o:_00001_DS_=0x1be
000001bd fc59                 ADDAR 0x26, 0x1
000001be                      main.o:_00001_DS_:
000001be e0fc                 BCR 0x3, 0x6
000001bf fa41                 INCR 0x3e, 0x1
000001c0 c658                 LGOTO 0x1a7; main.o:_00336_DS_=0x1a7
000001c1                      main.o:_00338_DS_:
000001c1 ffef                 RET
000001c2                      _F_AIN9_Convert:
000001c2 e0fc                 BCR 0x3, 0x6
000001c3 ff46                 MOVAR 0x39
000001c4 fd5b                 CLRR 0x24
000001c5 fd5d                 CLRR 0x22
000001c6 fd5c                 CLRR 0x23
000001c7 de66                 MOVIA 0x99
000001c8 ff6f                 MOVAR 0x10
000001c9 de37                 MOVIA 0xc8
000001ca d697                 LCALL 0x168; _delay_us=0x168
000001cb defe                 MOVIA 0x1
000001cc e0fc                 BCR 0x3, 0x6
000001cd ff45                 MOVAR 0x3a
000001ce                      main.o:_00327_DS_:
000001ce e0fc                 BCR 0x3, 0x6
000001cf fec5                 MOVR 0x3a, 0x0
000001d0 fbc6                 SUBAR 0x39, 0x0
000001d1 f7fc                 BTRSS 0x3, 0x0
000001d2 c617                 LGOTO 0x1e8; main.o:_00329_DS_=0x1e8
000001d3 e4ef                 BSR 0x10, 0x6
000001d4 d667                 LCALL 0x198; main.o:_00343_DS_=0x198
000001d5 def0                 MOVIA 0xf
000001d6 efee                 ANDAR 0x11, 0x0
000001d7 e0fc                 BCR 0x3, 0x6
000001d8 fc5b                 ADDAR 0x24, 0x1
000001d9 feed                 MOVR 0x12, 0x0
000001da ff44                 MOVAR 0x3b
000001db deff                 MOVIA 0x0
000001dc ff43                 MOVAR 0x3c
000001dd fec4                 MOVR 0x3b, 0x0
000001de fc5d                 ADDAR 0x22, 0x1
000001df fec3                 MOVR 0x3c, 0x0
000001e0 f3fc                 BTRSC 0x3, 0x0
000001e1 fac3                 INCR 0x3c, 0x0
000001e2 f2fc                 BTRSC 0x3, 0x2
000001e3 c61a                 LGOTO 0x1e5; main.o:_00002_DS_=0x1e5
000001e4 fc5c                 ADDAR 0x23, 0x1
000001e5                      main.o:_00002_DS_:
000001e5 e0fc                 BCR 0x3, 0x6
000001e6 fa45                 INCR 0x3a, 0x1
000001e7 c631                 LGOTO 0x1ce; main.o:_00327_DS_=0x1ce
000001e8                      main.o:_00329_DS_:
000001e8 ffef                 RET
000001e9                      _checkPWAAD:
000001e9 e0fc                 BCR 0x3, 0x6
000001ea fd58                 CLRR 0x27
000001eb fd5a                 CLRR 0x25
000001ec fd59                 CLRR 0x26
000001ed def7                 MOVIA 0x8
000001ee d664                 LCALL 0x19b; _F_AIN2_Convert=0x19b
000001ef e0fc                 BCR 0x3, 0x6
000001f0 ead9                 SWAPR 0x26, 0x0
000001f1 dd0f                 ANDIA 0xf0
000001f2 ff59                 MOVAR 0x26
000001f3 eada                 SWAPR 0x25, 0x0
000001f4 ff5a                 MOVAR 0x25
000001f5 ddf0                 ANDIA 0xf
000001f6 ee59                 IORAR 0x26, 0x1
000001f7 ed5a                 XORAR 0x25, 0x1
000001f8 de0f                 MOVIA 0xf0
000001f9 ef58                 ANDAR 0x27, 0x1
000001fa fed8                 MOVR 0x27, 0x0
000001fb ff48                 MOVAR 0x37
000001fc deff                 MOVIA 0x0
000001fd ff47                 MOVAR 0x38
000001fe fec8                 MOVR 0x37, 0x0
000001ff fc5a                 ADDAR 0x25, 0x1
00000200 fec7                 MOVR 0x38, 0x0
00000201 f3fc                 BTRSC 0x3, 0x0
00000202 fac7                 INCR 0x38, 0x0
00000203 f2fc                 BTRSC 0x3, 0x2
00000204 c5f9                 LGOTO 0x206; main.o:_00003_DS_=0x206
00000205 fc59                 ADDAR 0x26, 0x1
00000206                      main.o:_00003_DS_:
00000206 e3fc                 BCR 0x3, 0x0
00000207 e0fc                 BCR 0x3, 0x6
00000208 ec59                 RRR 0x26, 0x1
00000209 ec5a                 RRR 0x25, 0x1
0000020a e3fc                 BCR 0x3, 0x0
0000020b ec59                 RRR 0x26, 0x1
0000020c ec5a                 RRR 0x25, 0x1
0000020d e3fc                 BCR 0x3, 0x0
0000020e ec59                 RRR 0x26, 0x1
0000020f ec5a                 RRR 0x25, 0x1
00000210 ffef                 RET
00000211                      _checkBatAD:
00000211 e0fc                 BCR 0x3, 0x6
00000212 fd5b                 CLRR 0x24
00000213 fd5d                 CLRR 0x22
00000214 fd5c                 CLRR 0x23
00000215 def7                 MOVIA 0x8
00000216 d63d                 LCALL 0x1c2; _F_AIN9_Convert=0x1c2
00000217 e0fc                 BCR 0x3, 0x6
00000218 eadc                 SWAPR 0x23, 0x0
00000219 dd0f                 ANDIA 0xf0
0000021a ff5c                 MOVAR 0x23
0000021b eadd                 SWAPR 0x22, 0x0
0000021c ff5d                 MOVAR 0x22
0000021d ddf0                 ANDIA 0xf
0000021e ee5c                 IORAR 0x23, 0x1
0000021f ed5d                 XORAR 0x22, 0x1
00000220 de0f                 MOVIA 0xf0
00000221 ef5b                 ANDAR 0x24, 0x1
00000222 fedb                 MOVR 0x24, 0x0
00000223 ff4a                 MOVAR 0x35
00000224 deff                 MOVIA 0x0
00000225 ff49                 MOVAR 0x36
00000226 feca                 MOVR 0x35, 0x0
00000227 fc5d                 ADDAR 0x22, 0x1
00000228 fec9                 MOVR 0x36, 0x0
00000229 f3fc                 BTRSC 0x3, 0x0
0000022a fac9                 INCR 0x36, 0x0
0000022b f2fc                 BTRSC 0x3, 0x2
0000022c c5d1                 LGOTO 0x22e; main.o:_00004_DS_=0x22e
0000022d fc5c                 ADDAR 0x23, 0x1
0000022e                      main.o:_00004_DS_:
0000022e e3fc                 BCR 0x3, 0x0
0000022f e0fc                 BCR 0x3, 0x6
00000230 ec5c                 RRR 0x23, 0x1
00000231 ec5d                 RRR 0x22, 0x1
00000232 e3fc                 BCR 0x3, 0x0
00000233 ec5c                 RRR 0x23, 0x1
00000234 ec5d                 RRR 0x22, 0x1
00000235 e3fc                 BCR 0x3, 0x0
00000236 ec5c                 RRR 0x23, 0x1
00000237 ec5d                 RRR 0x22, 0x1
00000238 def5                 MOVIA 0xa
00000239 fbdc                 SUBAR 0x23, 0x0
0000023a f6fc                 BTRSS 0x3, 0x2
0000023b c5c1                 LGOTO 0x23e; main.o:_00315_DS_=0x23e
0000023c de0e                 MOVIA 0xf1
0000023d fbdd                 SUBAR 0x22, 0x0
0000023e                      main.o:_00315_DS_:
0000023e f7fc                 BTRSS 0x3, 0x0
0000023f c5b9                 LGOTO 0x246; main.o:_00305_DS_=0x246
00000240 de0f                 MOVIA 0xf0
00000241 e0fc                 BCR 0x3, 0x6
00000242 ff5d                 MOVAR 0x22
00000243 def5                 MOVIA 0xa
00000244 ff5c                 MOVAR 0x23
00000245 c5ab                 LGOTO 0x254; main.o:_00306_DS_=0x254
00000246                      main.o:_00305_DS_:
00000246 def7                 MOVIA 0x8
00000247 e0fc                 BCR 0x3, 0x6
00000248 fbdc                 SUBAR 0x23, 0x0
00000249 f6fc                 BTRSS 0x3, 0x2
0000024a c5b2                 LGOTO 0x24d; main.o:_00316_DS_=0x24d
0000024b de67                 MOVIA 0x98
0000024c fbdd                 SUBAR 0x22, 0x0
0000024d                      main.o:_00316_DS_:
0000024d f3fc                 BTRSC 0x3, 0x0
0000024e c5ab                 LGOTO 0x254; main.o:_00306_DS_=0x254
0000024f de67                 MOVIA 0x98
00000250 e0fc                 BCR 0x3, 0x6
00000251 ff5d                 MOVAR 0x22
00000252 def7                 MOVIA 0x8
00000253 ff5c                 MOVAR 0x23
00000254                      main.o:_00306_DS_:
00000254 de97                 MOVIA 0x68
00000255 e0fc                 BCR 0x3, 0x6
00000256 fcdd                 ADDAR 0x22, 0x0
00000257 ff0a                 MOVAR 0x75
00000258 de08                 MOVIA 0xf7
00000259 ff09                 MOVAR 0x76
0000025a fedc                 MOVR 0x23, 0x0
0000025b f3fc                 BTRSC 0x3, 0x0
0000025c fadc                 INCR 0x23, 0x0
0000025d f2fc                 BTRSC 0x3, 0x2
0000025e c59f                 LGOTO 0x260; main.o:_00005_DS_=0x260
0000025f fc09                 ADDAR 0x76, 0x1
00000260                      main.o:_00005_DS_:
00000260 def9                 MOVIA 0x6
00000261 ff3c                 MOVAR 0x43
00000262 deff                 MOVIA 0x0
00000263 ff3b                 MOVAR 0x44
00000264 e0fc                 BCR 0x3, 0x6
00000265 fe8a                 MOVR 0x75, 0x0
00000266 ff3a                 MOVAR 0x45
00000267 fe89                 MOVR 0x76, 0x0
00000268 d439                 LCALL 0x3c6; __divuint=0x3c6
00000269 e0fc                 BCR 0x3, 0x6
0000026a ff09                 MOVAR 0x76
0000026b feba                 MOVR 0x45, 0x0
0000026c ff0a                 MOVAR 0x75
0000026d ffef                 RET
0000026e                      _initAD:
0000026e de7b                 MOVIA 0x84
0000026f ff6f                 MOVAR 0x10
00000270 fd6c                 CLRR 0x13
00000271 deef                 MOVIA 0x10
00000272 ff6e                 MOVAR 0x11
00000273 defc                 MOVIA 0x3
00000274 ff6b                 MOVAR 0x14
00000275 e5ef                 BSR 0x10, 0x4
00000276 de9b                 MOVIA 0x64
00000277 d697                 LCALL 0x168; _delay_us=0x168
00000278 e0fc                 BCR 0x3, 0x6
00000279 fd5b                 CLRR 0x24
0000027a fd5d                 CLRR 0x22
0000027b fd5c                 CLRR 0x23
0000027c fd58                 CLRR 0x27
0000027d fd5a                 CLRR 0x25
0000027e fd59                 CLRR 0x26
0000027f ffef                 RET
00000280                      _keyRead2:
00000280 e0fc                 BCR 0x3, 0x6
00000281 ff4e                 MOVAR 0x31
00000282 feba                 MOVR 0x45, 0x0
00000283 ff4b                 MOVAR 0x34
00000284 febb                 MOVR 0x44, 0x0
00000285 ff4c                 MOVAR 0x33
00000286 febc                 MOVR 0x43, 0x0
00000287 ff4d                 MOVAR 0x32
00000288 fece                 MOVR 0x31, 0x0
00000289 f2fc                 BTRSC 0x3, 0x2
0000028a c555                 LGOTO 0x2aa; main.o:_00291_DS_=0x2aa
0000028b fecd                 MOVR 0x32, 0x0
0000028c ff3b                 MOVAR 0x44
0000028d fecc                 MOVR 0x33, 0x0
0000028e ff3a                 MOVAR 0x45
0000028f fecb                 MOVR 0x34, 0x0
00000290 d3b6                 LCALL 0x449; __gptrget=0x449
00000291 e0fc                 BCR 0x3, 0x6
00000292 ff4e                 MOVAR 0x31
00000293 fa4e                 INCR 0x31, 0x1
00000294 fece                 MOVR 0x31, 0x0
00000295 ff3c                 MOVAR 0x43
00000296 fecd                 MOVR 0x32, 0x0
00000297 ff3b                 MOVAR 0x44
00000298 fecc                 MOVR 0x33, 0x0
00000299 ff3a                 MOVAR 0x45
0000029a fecb                 MOVR 0x34, 0x0
0000029b d3a3                 LCALL 0x45c; __gptrput=0x45c
0000029c de37                 MOVIA 0xc8
0000029d e0fc                 BCR 0x3, 0x6
0000029e fbce                 SUBAR 0x31, 0x0
0000029f f7fc                 BTRSS 0x3, 0x0
000002a0 c535                 LGOTO 0x2ca; main.o:_00292_DS_=0x2ca
000002a1 de37                 MOVIA 0xc8
000002a2 ff3c                 MOVAR 0x43
000002a3 fecd                 MOVR 0x32, 0x0
000002a4 ff3b                 MOVAR 0x44
000002a5 fecc                 MOVR 0x33, 0x0
000002a6 ff3a                 MOVAR 0x45
000002a7 fecb                 MOVR 0x34, 0x0
000002a8 d3a3                 LCALL 0x45c; __gptrput=0x45c
000002a9 c535                 LGOTO 0x2ca; main.o:_00292_DS_=0x2ca
000002aa                      main.o:_00291_DS_:
000002aa e0fc                 BCR 0x3, 0x6
000002ab fecd                 MOVR 0x32, 0x0
000002ac ff3b                 MOVAR 0x44
000002ad fecc                 MOVR 0x33, 0x0
000002ae ff3a                 MOVAR 0x45
000002af fecb                 MOVR 0x34, 0x0
000002b0 d3b6                 LCALL 0x449; __gptrget=0x449
000002b1 e0fc                 BCR 0x3, 0x6
000002b2 ff4e                 MOVAR 0x31
000002b3 def7                 MOVIA 0x8
000002b4 fbce                 SUBAR 0x31, 0x0
000002b5 f7fc                 BTRSS 0x3, 0x0
000002b6 c53e                 LGOTO 0x2c1; main.o:_00289_DS_=0x2c1
000002b7 deff                 MOVIA 0x0
000002b8 ff3c                 MOVAR 0x43
000002b9 fecd                 MOVR 0x32, 0x0
000002ba ff3b                 MOVAR 0x44
000002bb fecc                 MOVR 0x33, 0x0
000002bc ff3a                 MOVAR 0x45
000002bd fecb                 MOVR 0x34, 0x0
000002be d3a3                 LCALL 0x45c; __gptrput=0x45c
000002bf defe                 MOVIA 0x1
000002c0 c534                 LGOTO 0x2cb; main.o:_00293_DS_=0x2cb
000002c1                      main.o:_00289_DS_:
000002c1 deff                 MOVIA 0x0
000002c2 ff3c                 MOVAR 0x43
000002c3 e0fc                 BCR 0x3, 0x6
000002c4 fecd                 MOVR 0x32, 0x0
000002c5 ff3b                 MOVAR 0x44
000002c6 fecc                 MOVR 0x33, 0x0
000002c7 ff3a                 MOVAR 0x45
000002c8 fecb                 MOVR 0x34, 0x0
000002c9 d3a3                 LCALL 0x45c; __gptrput=0x45c
000002ca                      main.o:_00292_DS_:
000002ca deff                 MOVIA 0x0
000002cb                      main.o:_00293_DS_:
000002cb ffef                 RET
000002cc                      _keyRead:
000002cc e0fc                 BCR 0x3, 0x6
000002cd ff4f                 MOVAR 0x30
000002ce fecf                 MOVR 0x30, 0x0
000002cf f2fc                 BTRSC 0x3, 0x2
000002d0 c520                 LGOTO 0x2df; main.o:_00279_DS_=0x2df
000002d1 fa0d                 INCR 0x72, 0x1
000002d2 de37                 MOVIA 0xc8
000002d3 fb8d                 SUBAR 0x72, 0x0
000002d4 f7fc                 BTRSS 0x3, 0x0
000002d5 c50d                 LGOTO 0x2f2; main.o:_00280_DS_=0x2f2
000002d6 de37                 MOVIA 0xc8
000002d7 ff0d                 MOVAR 0x72
000002d8 fe91                 MOVR 0x6e, 0x0
000002d9 f6fc                 BTRSS 0x3, 0x2
000002da c50d                 LGOTO 0x2f2; main.o:_00280_DS_=0x2f2
000002db defe                 MOVIA 0x1
000002dc ff11                 MOVAR 0x6e
000002dd defd                 MOVIA 0x2
000002de c50c                 LGOTO 0x2f3; main.o:_00281_DS_=0x2f3
000002df                      main.o:_00279_DS_:
000002df de37                 MOVIA 0xc8
000002e0 e0fc                 BCR 0x3, 0x6
000002e1 fb8d                 SUBAR 0x72, 0x0
000002e2 f7fc                 BTRSS 0x3, 0x0
000002e3 c517                 LGOTO 0x2e8; main.o:_00276_DS_=0x2e8
000002e4 fd0d                 CLRR 0x72
000002e5 fd11                 CLRR 0x6e
000002e6 deff                 MOVIA 0x0
000002e7 c50c                 LGOTO 0x2f3; main.o:_00281_DS_=0x2f3
000002e8                      main.o:_00276_DS_:
000002e8 def7                 MOVIA 0x8
000002e9 e0fc                 BCR 0x3, 0x6
000002ea fb8d                 SUBAR 0x72, 0x0
000002eb f7fc                 BTRSS 0x3, 0x0
000002ec c50f                 LGOTO 0x2f0; main.o:_00277_DS_=0x2f0
000002ed fd0d                 CLRR 0x72
000002ee defe                 MOVIA 0x1
000002ef c50c                 LGOTO 0x2f3; main.o:_00281_DS_=0x2f3
000002f0                      main.o:_00277_DS_:
000002f0 e0fc                 BCR 0x3, 0x6
000002f1 fd0d                 CLRR 0x72
000002f2                      main.o:_00280_DS_:
000002f2 deff                 MOVIA 0x0
000002f3                      main.o:_00281_DS_:
000002f3 ffef                 RET
000002f4                      _ind_light_disp:
000002f4 e0fc                 BCR 0x3, 0x6
000002f5 ff51                 MOVAR 0x2e
000002f6 fd50                 CLRR 0x2f
000002f7                      main.o:_00264_DS_:
000002f7 e07a                 BCR 0x5, 0x7
000002f8 d68d                 LCALL 0x172; _Delay10Us=0x172
000002f9 e0fc                 BCR 0x3, 0x6
000002fa f451                 BTRSS 0x2e, 0x7
000002fb c500                 LGOTO 0x2ff; main.o:_00261_DS_=0x2ff
000002fc e4fa                 BSR 0x5, 0x6
000002fd d68d                 LCALL 0x172; _Delay10Us=0x172
000002fe c4fe                 LGOTO 0x301; main.o:_00262_DS_=0x301
000002ff                      main.o:_00261_DS_:
000002ff e0fa                 BCR 0x5, 0x6
00000300 d68d                 LCALL 0x172; _Delay10Us=0x172
00000301                      main.o:_00262_DS_:
00000301 e47a                 BSR 0x5, 0x7
00000302 d68d                 LCALL 0x172; _Delay10Us=0x172
00000303 e3fc                 BCR 0x3, 0x0
00000304 e0fc                 BCR 0x3, 0x6
00000305 eb51                 RLR 0x2e, 0x1
00000306 fa50                 INCR 0x2f, 0x1
00000307 def7                 MOVIA 0x8
00000308 fbd0                 SUBAR 0x2f, 0x0
00000309 f7fc                 BTRSS 0x3, 0x0
0000030a c508                 LGOTO 0x2f7; main.o:_00264_DS_=0x2f7
0000030b e07a                 BCR 0x5, 0x7
0000030c e0fa                 BCR 0x5, 0x6
0000030d ffef                 RET
0000030e                      _refresh:
0000030e e579                 BSR 0x6, 0x5
0000030f e679                 BSR 0x6, 0x3
00000310 e0fc                 BCR 0x3, 0x6
00000311 fedf                 MOVR 0x20, 0x0
00000312 f2fc                 BTRSC 0x3, 0x2
00000313 c4d7                 LGOTO 0x328; main.o:_00255_DS_=0x328
00000314 fedf                 MOVR 0x20, 0x0
00000315 da9f                 ADDIA 0x60
00000316 ff53                 MOVAR 0x2c
00000317 deff                 MOVIA 0x0
00000318 f3fc                 BTRSC 0x3, 0x0
00000319 dafe                 ADDIA 0x1
0000031a ff52                 MOVAR 0x2d
0000031b fed3                 MOVR 0x2c, 0x0
0000031c ff3b                 MOVAR 0x44
0000031d fed2                 MOVR 0x2d, 0x0
0000031e ff3a                 MOVAR 0x45
0000031f deff                 MOVIA 0x0
00000320 d3b6                 LCALL 0x449; __gptrget=0x449
00000321 d50b                 LCALL 0x2f4; _ind_light_disp=0x2f4
00000322 e579                 BSR 0x6, 0x5
00000323 e279                 BCR 0x6, 0x3
00000324 de9b                 MOVIA 0x64
00000325 d697                 LCALL 0x168; _delay_us=0x168
00000326 e579                 BSR 0x6, 0x5
00000327 e679                 BSR 0x6, 0x3
00000328                      main.o:_00255_DS_:
00000328 e0fc                 BCR 0x3, 0x6
00000329 fede                 MOVR 0x21, 0x0
0000032a da9f                 ADDIA 0x60
0000032b ff53                 MOVAR 0x2c
0000032c deff                 MOVIA 0x0
0000032d f3fc                 BTRSC 0x3, 0x0
0000032e dafe                 ADDIA 0x1
0000032f ff52                 MOVAR 0x2d
00000330 fed3                 MOVR 0x2c, 0x0
00000331 ff3b                 MOVAR 0x44
00000332 fed2                 MOVR 0x2d, 0x0
00000333 ff3a                 MOVAR 0x45
00000334 deff                 MOVIA 0x0
00000335 d3b6                 LCALL 0x449; __gptrget=0x449
00000336 d50b                 LCALL 0x2f4; _ind_light_disp=0x2f4
00000337 e179                 BCR 0x6, 0x5
00000338 e679                 BSR 0x6, 0x3
00000339 de9b                 MOVIA 0x64
0000033a d697                 LCALL 0x168; _delay_us=0x168
0000033b e579                 BSR 0x6, 0x5
0000033c e679                 BSR 0x6, 0x3
0000033d ffef                 RET
0000033e                      _keyCtr:
0000033e f8fa                 COMR 0x5, 0x0
0000033f e0fc                 BCR 0x3, 0x6
00000340 ff55                 MOVAR 0x2a
00000341 dedf                 MOVIA 0x20
00000342 ef55                 ANDAR 0x2a, 0x1
00000343 fed5                 MOVR 0x2a, 0x0
00000344 d533                 LCALL 0x2cc; _keyRead=0x2cc
00000345 e0fc                 BCR 0x3, 0x6
00000346 ff55                 MOVAR 0x2a
00000347 dbfe                 XORIA 0x1
00000348 f6fc                 BTRSS 0x3, 0x2
00000349 c4b3                 LGOTO 0x34c; main.o:_00237_DS_=0x34c
0000034a fd10                 CLRR 0x6f
0000034b c4ac                 LGOTO 0x353; main.o:_00238_DS_=0x353
0000034c                      main.o:_00237_DS_:
0000034c e0fc                 BCR 0x3, 0x6
0000034d fed5                 MOVR 0x2a, 0x0
0000034e dbfd                 XORIA 0x2
0000034f f6fc                 BTRSS 0x3, 0x2
00000350 c4ac                 LGOTO 0x353; main.o:_00238_DS_=0x353
00000351 defe                 MOVIA 0x1
00000352 ff10                 MOVAR 0x6f
00000353                      main.o:_00238_DS_:
00000353 e0fc                 BCR 0x3, 0x6
00000354 fe90                 MOVR 0x6f, 0x0
00000355 f2fc                 BTRSC 0x3, 0x2
00000356 c473                 LGOTO 0x38c; main.o:_00249_DS_=0x38c
00000357 f8fa                 COMR 0x5, 0x0
00000358 ff55                 MOVAR 0x2a
00000359 def7                 MOVIA 0x8
0000035a ef55                 ANDAR 0x2a, 0x1
0000035b deff                 MOVIA 0x0
0000035c ff54                 MOVAR 0x2b
0000035d de8c                 MOVIA 0x73
0000035e ff3c                 MOVAR 0x43
0000035f fed4                 MOVR 0x2b, 0x0
00000360 ff3b                 MOVAR 0x44
00000361 deff                 MOVIA 0x0
00000362 ff3a                 MOVAR 0x45
00000363 fed5                 MOVR 0x2a, 0x0
00000364 d57f                 LCALL 0x280; _keyRead2=0x280
00000365 e0fc                 BCR 0x3, 0x6
00000366 ff55                 MOVAR 0x2a
00000367 fed5                 MOVR 0x2a, 0x0
00000368 f2fc                 BTRSC 0x3, 0x2
00000369 c48e                 LGOTO 0x371; main.o:_00242_DS_=0x371
0000036a fa10                 INCR 0x6f, 0x1
0000036b def6                 MOVIA 0x9
0000036c fb90                 SUBAR 0x6f, 0x0
0000036d f7fc                 BTRSS 0x3, 0x0
0000036e c48e                 LGOTO 0x371; main.o:_00242_DS_=0x371
0000036f def6                 MOVIA 0x9
00000370 ff10                 MOVAR 0x6f
00000371                      main.o:_00242_DS_:
00000371 f8f9                 COMR 0x6, 0x0
00000372 e0fc                 BCR 0x3, 0x6
00000373 ff55                 MOVAR 0x2a
00000374 defe                 MOVIA 0x1
00000375 ef55                 ANDAR 0x2a, 0x1
00000376 deff                 MOVIA 0x0
00000377 ff54                 MOVAR 0x2b
00000378 de8b                 MOVIA 0x74
00000379 ff3c                 MOVAR 0x43
0000037a fed4                 MOVR 0x2b, 0x0
0000037b ff3b                 MOVAR 0x44
0000037c deff                 MOVIA 0x0
0000037d ff3a                 MOVAR 0x45
0000037e fed5                 MOVR 0x2a, 0x0
0000037f d57f                 LCALL 0x280; _keyRead2=0x280
00000380 e0fc                 BCR 0x3, 0x6
00000381 ff55                 MOVAR 0x2a
00000382 fed5                 MOVR 0x2a, 0x0
00000383 f2fc                 BTRSC 0x3, 0x2
00000384 c473                 LGOTO 0x38c; main.o:_00249_DS_=0x38c
00000385 f910                 DECR 0x6f, 0x1
00000386 defd                 MOVIA 0x2
00000387 fb90                 SUBAR 0x6f, 0x0
00000388 f3fc                 BTRSC 0x3, 0x0
00000389 c473                 LGOTO 0x38c; main.o:_00249_DS_=0x38c
0000038a defe                 MOVIA 0x1
0000038b ff10                 MOVAR 0x6f
0000038c                      main.o:_00249_DS_:
0000038c ffef                 RET
0000038d                      _chrgCtr:
0000038d f779                 BTRSS 0x6, 0x1
0000038e c455                 LGOTO 0x3aa; main.o:_00215_DS_=0x3aa
0000038f defe                 MOVIA 0x1
00000390 e0fc                 BCR 0x3, 0x6
00000391 ff0f                 MOVAR 0x70
00000392 fd10                 CLRR 0x6f
00000393 deff                 MOVIA 0x0
00000394 fb89                 SUBAR 0x76, 0x0
00000395 f6fc                 BTRSS 0x3, 0x2
00000396 c466                 LGOTO 0x399; main.o:_00228_DS_=0x399
00000397 decc                 MOVIA 0x33
00000398 fb8a                 SUBAR 0x75, 0x0
00000399                      main.o:_00228_DS_:
00000399 f7fc                 BTRSS 0x3, 0x0
0000039a c461                 LGOTO 0x39e; main.o:_00212_DS_=0x39e
0000039b e5fa                 BSR 0x5, 0x4
0000039c e3fa                 BCR 0x5, 0x0
0000039d c453                 LGOTO 0x3ac; main.o:_00217_DS_=0x3ac
0000039e                      main.o:_00212_DS_:
0000039e deff                 MOVIA 0x0
0000039f e0fc                 BCR 0x3, 0x6
000003a0 fb89                 SUBAR 0x76, 0x0
000003a1 f6fc                 BTRSS 0x3, 0x2
000003a2 c45a                 LGOTO 0x3a5; main.o:_00229_DS_=0x3a5
000003a3 decc                 MOVIA 0x33
000003a4 fb8a                 SUBAR 0x75, 0x0
000003a5                      main.o:_00229_DS_:
000003a5 f3fc                 BTRSC 0x3, 0x0
000003a6 c453                 LGOTO 0x3ac; main.o:_00217_DS_=0x3ac
000003a7 e1fa                 BCR 0x5, 0x4
000003a8 e7fa                 BSR 0x5, 0x0
000003a9 c453                 LGOTO 0x3ac; main.o:_00217_DS_=0x3ac
000003aa                      main.o:_00215_DS_:
000003aa e0fc                 BCR 0x3, 0x6
000003ab fd0f                 CLRR 0x70
000003ac                      main.o:_00217_DS_:
000003ac ffef                 RET
000003ad                      __mulchar:
000003ad e0fc                 BCR 0x3, 0x6
000003ae ff34                 MOVAR 0x4b
000003af feba                 MOVR 0x45, 0x0
000003b0 ff33                 MOVAR 0x4c
000003b1 fd32                 CLRR 0x4d
000003b2 def7                 MOVIA 0x8
000003b3 ff31                 MOVAR 0x4e
000003b4                      _mulchar.o:_00119_DS_:
000003b4 e0fc                 BCR 0x3, 0x6
000003b5 f7b4                 BTRSS 0x4b, 0x0
000003b6 c446                 LGOTO 0x3b9; _mulchar.o:_00114_DS_=0x3b9
000003b7 feb3                 MOVR 0x4c, 0x0
000003b8 fc32                 ADDAR 0x4d, 0x1
000003b9                      _mulchar.o:_00114_DS_:
000003b9 e3fc                 BCR 0x3, 0x0
000003ba e0fc                 BCR 0x3, 0x6
000003bb ec34                 RRR 0x4b, 0x1
000003bc e3fc                 BCR 0x3, 0x0
000003bd eb33                 RLR 0x4c, 0x1
000003be f9b1                 DECR 0x4e, 0x0
000003bf ff30                 MOVAR 0x4f
000003c0 ff31                 MOVAR 0x4e
000003c1 feb0                 MOVR 0x4f, 0x0
000003c2 f6fc                 BTRSS 0x3, 0x2
000003c3 c44b                 LGOTO 0x3b4; _mulchar.o:_00119_DS_=0x3b4
000003c4 feb2                 MOVR 0x4d, 0x0
000003c5 ffef                 RET
000003c6                      __divuint:
000003c6 e0fc                 BCR 0x3, 0x6
000003c7 ff2e                 MOVAR 0x51
000003c8 feba                 MOVR 0x45, 0x0
000003c9 ff2f                 MOVAR 0x50
000003ca febb                 MOVR 0x44, 0x0
000003cb ff2c                 MOVAR 0x53
000003cc febc                 MOVR 0x43, 0x0
000003cd ff2d                 MOVAR 0x52
000003ce fd2b                 CLRR 0x54
000003cf fd2a                 CLRR 0x55
000003d0 defe                 MOVIA 0x1
000003d1 ff29                 MOVAR 0x56
000003d2 fd28                 CLRR 0x57
000003d3 fead                 MOVR 0x52, 0x0
000003d4 eeac                 IORAR 0x53, 0x0
000003d5 f6fc                 BTRSS 0x3, 0x2
000003d6 c425                 LGOTO 0x3da; _divuint.o:_00107_DS_=0x3da
000003d7 de00                 MOVIA 0xff
000003d8 ff3a                 MOVAR 0x45
000003d9 c3f0                 LGOTO 0x40f; _divuint.o:_00115_DS_=0x40f
000003da                      _divuint.o:_00107_DS_:
000003da e0fc                 BCR 0x3, 0x6
000003db f02c                 BTRSC 0x53, 0x7
000003dc c41b                 LGOTO 0x3e4; _divuint.o:_00112_DS_=0x3e4
000003dd e3fc                 BCR 0x3, 0x0
000003de eb2d                 RLR 0x52, 0x1
000003df eb2c                 RLR 0x53, 0x1
000003e0 e3fc                 BCR 0x3, 0x0
000003e1 eb29                 RLR 0x56, 0x1
000003e2 eb28                 RLR 0x57, 0x1
000003e3 c425                 LGOTO 0x3da; _divuint.o:_00107_DS_=0x3da
000003e4                      _divuint.o:_00112_DS_:
000003e4 e0fc                 BCR 0x3, 0x6
000003e5 fea9                 MOVR 0x56, 0x0
000003e6 eea8                 IORAR 0x57, 0x0
000003e7 f2fc                 BTRSC 0x3, 0x2
000003e8 c3f4                 LGOTO 0x40b; _divuint.o:_00114_DS_=0x40b
000003e9 feac                 MOVR 0x53, 0x0
000003ea fbae                 SUBAR 0x51, 0x0
000003eb f6fc                 BTRSS 0x3, 0x2
000003ec c410                 LGOTO 0x3ef; _divuint.o:_00135_DS_=0x3ef
000003ed fead                 MOVR 0x52, 0x0
000003ee fbaf                 SUBAR 0x50, 0x0
000003ef                      _divuint.o:_00135_DS_:
000003ef f7fc                 BTRSS 0x3, 0x0
000003f0 c3fc                 LGOTO 0x403; _divuint.o:_00002_DS_=0x403
000003f1 e0fc                 BCR 0x3, 0x6
000003f2 fea9                 MOVR 0x56, 0x0
000003f3 fc2b                 ADDAR 0x54, 0x1
000003f4 fea8                 MOVR 0x57, 0x0
000003f5 f3fc                 BTRSC 0x3, 0x0
000003f6 faa8                 INCR 0x57, 0x0
000003f7 f2fc                 BTRSC 0x3, 0x2
000003f8 c405                 LGOTO 0x3fa; _divuint.o:_00001_DS_=0x3fa
000003f9 fc2a                 ADDAR 0x55, 0x1
000003fa                      _divuint.o:_00001_DS_:
000003fa e0fc                 BCR 0x3, 0x6
000003fb fead                 MOVR 0x52, 0x0
000003fc fb2f                 SUBAR 0x50, 0x1
000003fd feac                 MOVR 0x53, 0x0
000003fe f7fc                 BTRSS 0x3, 0x0
000003ff faac                 INCR 0x53, 0x0
00000400 f2fc                 BTRSC 0x3, 0x2
00000401 c3fc                 LGOTO 0x403; _divuint.o:_00002_DS_=0x403
00000402 fb2e                 SUBAR 0x51, 0x1
00000403                      _divuint.o:_00002_DS_:
00000403 e3fc                 BCR 0x3, 0x0
00000404 e0fc                 BCR 0x3, 0x6
00000405 ec2c                 RRR 0x53, 0x1
00000406 ec2d                 RRR 0x52, 0x1
00000407 e3fc                 BCR 0x3, 0x0
00000408 ec28                 RRR 0x57, 0x1
00000409 ec29                 RRR 0x56, 0x1
0000040a c41b                 LGOTO 0x3e4; _divuint.o:_00112_DS_=0x3e4
0000040b                      _divuint.o:_00114_DS_:
0000040b e0fc                 BCR 0x3, 0x6
0000040c feab                 MOVR 0x54, 0x0
0000040d ff3a                 MOVAR 0x45
0000040e feaa                 MOVR 0x55, 0x0
0000040f                      _divuint.o:_00115_DS_:
0000040f ffef                 RET
00000410                      __moduint:
00000410 e0fc                 BCR 0x3, 0x6
00000411 ff26                 MOVAR 0x59
00000412 feba                 MOVR 0x45, 0x0
00000413 ff27                 MOVAR 0x58
00000414 febb                 MOVR 0x44, 0x0
00000415 ff24                 MOVAR 0x5b
00000416 febc                 MOVR 0x43, 0x0
00000417 ff25                 MOVAR 0x5a
00000418 eea4                 IORAR 0x5b, 0x0
00000419 f6fc                 BTRSS 0x3, 0x2
0000041a c3e1                 LGOTO 0x41e; _moduint.o:_00119_DS_=0x41e
0000041b de00                 MOVIA 0xff
0000041c ff3a                 MOVAR 0x45
0000041d c3b7                 LGOTO 0x448; _moduint.o:_00115_DS_=0x448
0000041e                      _moduint.o:_00119_DS_:
0000041e defe                 MOVIA 0x1
0000041f e0fc                 BCR 0x3, 0x6
00000420 ff23                 MOVAR 0x5c
00000421                      _moduint.o:_00107_DS_:
00000421 e0fc                 BCR 0x3, 0x6
00000422 f024                 BTRSC 0x5b, 0x7
00000423 c3d6                 LGOTO 0x429; _moduint.o:_00112_DS_=0x429
00000424 e3fc                 BCR 0x3, 0x0
00000425 eb25                 RLR 0x5a, 0x1
00000426 eb24                 RLR 0x5b, 0x1
00000427 fa23                 INCR 0x5c, 0x1
00000428 c3de                 LGOTO 0x421; _moduint.o:_00107_DS_=0x421
00000429                      _moduint.o:_00112_DS_:
00000429 e0fc                 BCR 0x3, 0x6
0000042a fea3                 MOVR 0x5c, 0x0
0000042b f2fc                 BTRSC 0x3, 0x2
0000042c c3bb                 LGOTO 0x444; _moduint.o:_00114_DS_=0x444
0000042d fea4                 MOVR 0x5b, 0x0
0000042e fba6                 SUBAR 0x59, 0x0
0000042f f6fc                 BTRSS 0x3, 0x2
00000430 c3cc                 LGOTO 0x433; _moduint.o:_00137_DS_=0x433
00000431 fea5                 MOVR 0x5a, 0x0
00000432 fba7                 SUBAR 0x58, 0x0
00000433                      _moduint.o:_00137_DS_:
00000433 f7fc                 BTRSS 0x3, 0x0
00000434 c3c1                 LGOTO 0x43e; _moduint.o:_00001_DS_=0x43e
00000435 e0fc                 BCR 0x3, 0x6
00000436 fea5                 MOVR 0x5a, 0x0
00000437 fb27                 SUBAR 0x58, 0x1
00000438 fea4                 MOVR 0x5b, 0x0
00000439 f7fc                 BTRSS 0x3, 0x0
0000043a faa4                 INCR 0x5b, 0x0
0000043b f2fc                 BTRSC 0x3, 0x2
0000043c c3c1                 LGOTO 0x43e; _moduint.o:_00001_DS_=0x43e
0000043d fb26                 SUBAR 0x59, 0x1
0000043e                      _moduint.o:_00001_DS_:
0000043e e3fc                 BCR 0x3, 0x0
0000043f e0fc                 BCR 0x3, 0x6
00000440 ec24                 RRR 0x5b, 0x1
00000441 ec25                 RRR 0x5a, 0x1
00000442 f923                 DECR 0x5c, 0x1
00000443 c3d6                 LGOTO 0x429; _moduint.o:_00112_DS_=0x429
00000444                      _moduint.o:_00114_DS_:
00000444 e0fc                 BCR 0x3, 0x6
00000445 fea7                 MOVR 0x58, 0x0
00000446 ff3a                 MOVAR 0x45
00000447 fea6                 MOVR 0x59, 0x0
00000448                      _moduint.o:_00115_DS_:
00000448 ffef                 RET
00000449                      __gptrget:
00000449 dbff                 XORIA 0x0
0000044a f2fc                 BTRSC 0x3, 0x2
0000044b c3af                 LGOTO 0x450; _gptrget1.o:__dataptrget1=0x450
0000044c db7f                 XORIA 0x80
0000044d f2fc                 BTRSC 0x3, 0x2
0000044e c3a8                 LGOTO 0x457; __codeptrget1=0x457
0000044f dfff                 RETIA 0x0
00000450                      _gptrget1.o:__dataptrget1:
00000450 febb                 MOVR 0x44, 0x0
00000451 ff7b                 MOVAR 0x4
00000452 e0fc                 BCR 0x3, 0x6
00000453 f03b                 BTRSC 0x44, 0x7
00000454 e4fc                 BSR 0x3, 0x6
00000455 feff                 MOVR 0x0, 0x0
00000456 ffef                 RET
00000457                      __codeptrget1:
00000457 feba                 MOVR 0x45, 0x0
00000458 ffb8                 SFUN 0x7
00000459 febb                 MOVR 0x44, 0x0
0000045a fdee                 TABLEA
0000045b ffef                 RET
0000045c                      __gptrput:
0000045c dbff                 XORIA 0x0
0000045d f2fc                 BTRSC 0x3, 0x2
0000045e c39f                 LGOTO 0x460; _gptrput1.o:__dataptrput1=0x460
0000045f ffef                 RET
00000460                      _gptrput1.o:__dataptrput1:
00000460 febb                 MOVR 0x44, 0x0
00000461 ff7b                 MOVAR 0x4
00000462 e0fc                 BCR 0x3, 0x6
00000463 f03b                 BTRSC 0x44, 0x7
00000464 e4fc                 BSR 0x3, 0x6
00000465 febc                 MOVR 0x43, 0x0
00000466 ff7f                 MOVAR 0x0
00000467 ffef                 RET
00000468                      ___cinit_load__:
