00000000 c7f6                 LGOTO 0x9; crt0.o:initial_ram_bss=0x9
00000001                      _work10:
00000001 e0fc                 BCR 0x3, 0x6
00000002 fe80                 MOVR 0x7f, 0x0
00000003 d4b7                 LCALL 0x348; _setColor=0x348
00000004 ffef                 RET
00000008 c7e2                 LGOTO 0x1d; main.o:__sdcc_interrupt=0x1d
00000009                      crt0.o:initial_ram_bss:
00000009 e0fc                 BCR 0x3, 0x6
0000000a e07c                 BCR 0x3, 0x7
0000000b dedf                 MOVIA 0x20
0000000c ff7b                 MOVAR 0x4
0000000d de7f                 MOVIA 0x80
0000000e d7e8                 LCALL 0x17; crt0.o:startup_exit=0x17
0000000f e4fc                 BSR 0x3, 0x6
00000010 e07c                 BCR 0x3, 0x7
00000011 dedf                 MOVIA 0x20
00000012 ff7b                 MOVAR 0x4
00000013 de7f                 MOVIA 0x80
00000014 d7e8                 LCALL 0x17; crt0.o:startup_exit=0x17
00000015                      crt0.o:initial_ram_cinit:
00000015 d2d4                 LCALL 0x52b; ___cinit_load__=0x52b
00000016 c6f2                 LGOTO 0x10d; _main=0x10d
00000017                      crt0.o:startup_exit:
00000017 fd7f                 CLRR 0x0
00000018 fa7b                 INCR 0x4, 0x1
00000019 c97b                 CMPAR 0x4
0000001a f6fc                 BTRSS 0x3, 0x2
0000001b c7e8                 LGOTO 0x17; crt0.o:startup_exit=0x17
0000001c ffef                 RET
0000001d                      main.o:__sdcc_interrupt:
0000001d ff3d                 MOVAR 0x42
0000001e eafc                 SWAPR 0x3, 0x0
0000001f fd7c                 CLRR 0x3
00000020 ff3e                 MOVAR 0x41
00000021 fef5                 MOVR 0xa, 0x0
00000022 fd75                 CLRR 0xa
00000023 ff3f                 MOVAR 0x40
00000024 fefb                 MOVR 0x4, 0x0
00000025 e0fc                 BCR 0x3, 0x6
00000026 ff0d                 MOVAR 0x72
00000027 feb0                 MOVR 0x4f, 0x0
00000028 ff0c                 MOVAR 0x73
00000029 feb1                 MOVR 0x4e, 0x0
0000002a ff0b                 MOVAR 0x74
0000002b f7f0                 BTRSS 0xf, 0x0
0000002c c715                 LGOTO 0xea; main.o:_00134_DS_=0xea
0000002d debe                 MOVIA 0x41
0000002e fc7e                 ADDAR 0x1, 0x1
0000002f fa07                 INCR 0x78, 0x1
00000030 fe87                 MOVR 0x78, 0x0
00000031 dbcd                 XORIA 0x32
00000032 f6fc                 BTRSS 0x3, 0x2
00000033 c715                 LGOTO 0xea; main.o:_00134_DS_=0xea
00000034 fd07                 CLRR 0x78
00000035                      ___cinit_size__:
00000035 defe                 MOVIA 0x1
00000036 ff06                 MOVAR 0x79
00000037 deeb                 MOVIA 0x14
00000038 fb82                 SUBAR 0x7d, 0x0
00000039 f3fc                 BTRSC 0x3, 0x0
0000003a c76f                 LGOTO 0x90; main.o:_00119_DS_=0x90
0000003b fa02                 INCR 0x7d, 0x1
0000003c fe82                 MOVR 0x7d, 0x0
0000003d dbeb                 XORIA 0x14
0000003e f6fc                 BTRSS 0x3, 0x2
0000003f c76f                 LGOTO 0x90; main.o:_00119_DS_=0x90
00000040 fd03                 CLRR 0x7c
00000041 fede                 MOVR 0x21, 0x0
00000042 ff5a                 MOVAR 0x25
00000043 dbfc                 XORIA 0x3
00000044 f6fc                 BTRSS 0x3, 0x2
00000045 c78e                 LGOTO 0x71; main.o:_00108_DS_=0x71
00000046 feda                 MOVR 0x25, 0x0
00000047 ff59                 MOVAR 0x26
00000048 fd58                 CLRR 0x27
00000049 fedd                 MOVR 0x22, 0x0
0000004a ff5a                 MOVAR 0x25
0000004b ff57                 MOVAR 0x28
0000004c fd56                 CLRR 0x29
0000004d fed7                 MOVR 0x28, 0x0
0000004e fc59                 ADDAR 0x26, 0x1
0000004f deff                 MOVIA 0x0
00000050 f7fc                 BTRSS 0x3, 0x0
00000051 c7aa                 LGOTO 0x55; main.o:_00008_DS_=0x55
00000052 fad6                 INCR 0x29, 0x0
00000053 f2fc                 BTRSC 0x3, 0x2
00000054 c7a8                 LGOTO 0x57; main.o:_00009_DS_=0x57
00000055                      main.o:_00008_DS_:
00000055 e0fc                 BCR 0x3, 0x6
00000056 fc58                 ADDAR 0x27, 0x1
00000057                      main.o:_00009_DS_:
00000057 e0fc                 BCR 0x3, 0x6
00000058 fedc                 MOVR 0x23, 0x0
00000059 ff57                 MOVAR 0x28
0000005a ff56                 MOVAR 0x29
0000005b fd55                 CLRR 0x2a
0000005c fed6                 MOVR 0x29, 0x0
0000005d edd9                 XORAR 0x26, 0x0
0000005e f6fc                 BTRSS 0x3, 0x2
0000005f c78e                 LGOTO 0x71; main.o:_00108_DS_=0x71
00000060 fed5                 MOVR 0x2a, 0x0
00000061 edd8                 XORAR 0x27, 0x0
00000062 f6fc                 BTRSS 0x3, 0x2
00000063 c78e                 LGOTO 0x71; main.o:_00108_DS_=0x71
00000064 feda                 MOVR 0x25, 0x0
00000065 ff01                 MOVAR 0x7e
00000066 defe                 MOVIA 0x1
00000067 ff00                 MOVAR 0x7f
00000068 fe81                 MOVR 0x7e, 0x0
00000069 dbf6                 XORIA 0x9
0000006a f6fc                 BTRSS 0x3, 0x2
0000006b c791                 LGOTO 0x6e; main.o:_00106_DS_=0x6e
0000006c defe                 MOVIA 0x1
0000006d d4b7                 LCALL 0x348; _setColor=0x348
0000006e                      main.o:_00106_DS_:
0000006e e4fc                 BSR 0x3, 0x6
0000006f fd5f                 CLRR 0x20
00000070 fd5e                 CLRR 0x21
00000071                      main.o:_00108_DS_:
00000071 e4fc                 BSR 0x3, 0x6
00000072 fedd                 MOVR 0x22, 0x0
00000073 f2fc                 BTRSC 0x3, 0x2
00000074 c76f                 LGOTO 0x90; main.o:_00119_DS_=0x90
00000075 defe                 MOVIA 0x1
00000076 e0fc                 BCR 0x3, 0x6
00000077 ff0a                 MOVAR 0x75
00000078 fd09                 CLRR 0x76
00000079 fd04                 CLRR 0x7b
0000007a defe                 MOVIA 0x1
0000007b ff00                 MOVAR 0x7f
0000007c e4fc                 BSR 0x3, 0x6
0000007d fd5f                 CLRR 0x20
0000007e fd5e                 CLRR 0x21
0000007f e85d                 DECRSZ 0x22, 0x1
00000080 c77b                 LGOTO 0x84; main.o:_00111_DS_=0x84
00000081 e0fc                 BCR 0x3, 0x6
00000082 fedd                 MOVR 0x22, 0x0
00000083 ff01                 MOVAR 0x7e
00000084                      main.o:_00111_DS_:
00000084 e0fc                 BCR 0x3, 0x6
00000085 fd5b                 CLRR 0x24
00000086 fd5c                 CLRR 0x23
00000087 fd5d                 CLRR 0x22
00000088 fd5e                 CLRR 0x21
00000089 fd5f                 CLRR 0x20
0000008a fe81                 MOVR 0x7e, 0x0
0000008b dbf6                 XORIA 0x9
0000008c f6fc                 BTRSS 0x3, 0x2
0000008d c76f                 LGOTO 0x90; main.o:_00119_DS_=0x90
0000008e fe80                 MOVR 0x7f, 0x0
0000008f d4b7                 LCALL 0x348; _setColor=0x348
00000090                      main.o:_00119_DS_:
00000090 e4fc                 BSR 0x3, 0x6
00000091 fa5f                 INCR 0x20, 0x1
00000092 f2fc                 BTRSC 0x3, 0x2
00000093 fa5e                 INCR 0x21, 0x1
00000094 defc                 MOVIA 0x3
00000095 fbde                 SUBAR 0x21, 0x0
00000096 f6fc                 BTRSS 0x3, 0x2
00000097 c765                 LGOTO 0x9a; main.o:_00208_DS_=0x9a
00000098 de17                 MOVIA 0xe8
00000099 fbdf                 SUBAR 0x20, 0x0
0000009a                      main.o:_00208_DS_:
0000009a f7fc                 BTRSS 0x3, 0x0
0000009b c751                 LGOTO 0xae; main.o:_00124_DS_=0xae
0000009c e4fc                 BSR 0x3, 0x6
0000009d fd5f                 CLRR 0x20
0000009e fd5e                 CLRR 0x21
0000009f e0fc                 BCR 0x3, 0x6
000000a0 fe81                 MOVR 0x7e, 0x0
000000a1 dbf6                 XORIA 0x9
000000a2 f6fc                 BTRSS 0x3, 0x2
000000a3 c754                 LGOTO 0xab; main.o:_00121_DS_=0xab
000000a4 fa00                 INCR 0x7f, 0x1
000000a5 def6                 MOVIA 0x9
000000a6 fb80                 SUBAR 0x7f, 0x0
000000a7 f7fc                 BTRSS 0x3, 0x0
000000a8 c754                 LGOTO 0xab; main.o:_00121_DS_=0xab
000000a9 defe                 MOVIA 0x1
000000aa ff00                 MOVAR 0x7f
000000ab                      main.o:_00121_DS_:
000000ab e0fc                 BCR 0x3, 0x6
000000ac fe80                 MOVR 0x7f, 0x0
000000ad d4b7                 LCALL 0x348; _setColor=0x348
000000ae                      main.o:_00124_DS_:
000000ae e0fc                 BCR 0x3, 0x6
000000af fe81                 MOVR 0x7e, 0x0
000000b0 dbf5                 XORIA 0xa
000000b1 f6fc                 BTRSS 0x3, 0x2
000000b2 c715                 LGOTO 0xea; main.o:_00134_DS_=0xea
000000b3 de37                 MOVIA 0xc8
000000b4 ff32                 MOVAR 0x4d
000000b5 deff                 MOVIA 0x0
000000b6 ff31                 MOVAR 0x4e
000000b7 e4fc                 BSR 0x3, 0x6
000000b8 fedf                 MOVR 0x20, 0x0
000000b9 ff30                 MOVAR 0x4f
000000ba fede                 MOVR 0x21, 0x0
000000bb d32c                 LCALL 0x4d3; __moduint=0x4d3
000000bc e0fc                 BCR 0x3, 0x6
000000bd ff59                 MOVAR 0x26
000000be feb0                 MOVR 0x4f, 0x0
000000bf ff5a                 MOVAR 0x25
000000c0 eed9                 IORAR 0x26, 0x0
000000c1 f6fc                 BTRSS 0x3, 0x2
000000c2 c715                 LGOTO 0xea; main.o:_00134_DS_=0xea
000000c3 defc                 MOVIA 0x3
000000c4 e4fc                 BSR 0x3, 0x6
000000c5 fcdc                 ADDAR 0x23, 0x0
000000c6 e0fc                 BCR 0x3, 0x6
000000c7 ff5a                 MOVAR 0x25
000000c8 d419                 LCALL 0x3e6; _rankNub=0x3e6
000000c9 e0fc                 BCR 0x3, 0x6
000000ca fe80                 MOVR 0x7f, 0x0
000000cb e4fc                 BSR 0x3, 0x6
000000cc ff5a                 MOVAR 0x25
000000cd                      main.o:_00125_DS_:
000000cd def8                 MOVIA 0x7
000000ce e4fc                 BSR 0x3, 0x6
000000cf efdc                 ANDAR 0x23, 0x0
000000d0 e0fc                 BCR 0x3, 0x6
000000d1 ff5a                 MOVAR 0x25
000000d2 fada                 INCR 0x25, 0x0
000000d3 ff00                 MOVAR 0x7f
000000d4 defc                 MOVIA 0x3
000000d5 e4fc                 BSR 0x3, 0x6
000000d6 fcdc                 ADDAR 0x23, 0x0
000000d7 e0fc                 BCR 0x3, 0x6
000000d8 ff5a                 MOVAR 0x25
000000d9 d419                 LCALL 0x3e6; _rankNub=0x3e6
000000da defc                 MOVIA 0x3
000000db e4fc                 BSR 0x3, 0x6
000000dc fc5b                 ADDAR 0x24, 0x1
000000dd fffd                 CLRWDT
000000de e0fc                 BCR 0x3, 0x6
000000df fe80                 MOVR 0x7f, 0x0
000000e0 e4fc                 BSR 0x3, 0x6
000000e1 edda                 XORAR 0x25, 0x0
000000e2 f2fc                 BTRSC 0x3, 0x2
000000e3 c732                 LGOTO 0xcd; main.o:_00125_DS_=0xcd
000000e4 defc                 MOVIA 0x3
000000e5 ff30                 MOVAR 0x4f
000000e6 fedc                 MOVR 0x23, 0x0
000000e7 d391                 LCALL 0x46e; __divuchar=0x46e
000000e8 e4fc                 BSR 0x3, 0x6
000000e9 ff5c                 MOVAR 0x23
000000ea                      main.o:_00134_DS_:
000000ea f670                 BTRSS 0xf, 0x3
000000eb c70e                 LGOTO 0xf1; main.o:_00136_DS_=0xf1
000000ec de08                 MOVIA 0xf7
000000ed ff70                 MOVAR 0xf
000000ee defe                 MOVIA 0x1
000000ef e0fc                 BCR 0x3, 0x6
000000f0 ff0a                 MOVAR 0x75
000000f1                      main.o:_00136_DS_:
000000f1 f770                 BTRSS 0xf, 0x1
000000f2 c702                 LGOTO 0xfd; main.o:_00141_DS_=0xfd
000000f3 de02                 MOVIA 0xfd
000000f4 ff70                 MOVAR 0xf
000000f5 e0fc                 BCR 0x3, 0x6
000000f6 fe89                 MOVR 0x76, 0x0
000000f7 f6fc                 BTRSS 0x3, 0x2
000000f8 c702                 LGOTO 0xfd; main.o:_00141_DS_=0xfd
000000f9 f2fa                 BTRSC 0x5, 0x2
000000fa c702                 LGOTO 0xfd; main.o:_00141_DS_=0xfd
000000fb defe                 MOVIA 0x1
000000fc ff05                 MOVAR 0x7a
000000fd                      main.o:_00141_DS_:
000000fd fd70                 CLRR 0xf
000000fe e0fc                 BCR 0x3, 0x6
000000ff fe8b                 MOVR 0x74, 0x0
00000100 ff31                 MOVAR 0x4e
00000101 fe8c                 MOVR 0x73, 0x0
00000102 ff30                 MOVAR 0x4f
00000103 fe8d                 MOVR 0x72, 0x0
00000104 ff7b                 MOVAR 0x4
00000105 febf                 MOVR 0x40, 0x0
00000106 ff75                 MOVAR 0xa
00000107 fd7c                 CLRR 0x3
00000108 eabe                 SWAPR 0x41, 0x0
00000109 ff7c                 MOVAR 0x3
0000010a ea3d                 SWAPR 0x42, 0x1
0000010b eabd                 SWAPR 0x42, 0x0
0000010c                      main.o:END_OF_INTERRUPT:
0000010c ffee                 RETIE
0000010d                      _main:
0000010d e0fc                 BCR 0x3, 0x6
0000010e fd7a                 CLRR 0x5
0000010f de24                 MOVIA 0xdb
00000110 fff6                 IOST 0x9
00000111 dedb                 MOVIA 0x24
00000112 fffa                 IOST 0x5
00000113 defe                 MOVIA 0x1
00000114 fff9                 IOST 0x6
00000115 fd7a                 CLRR 0x5
00000116 de57                 MOVIA 0xa8
00000117 ff77                 MOVAR 0x8
00000118 de00                 MOVIA 0xff
00000119 ff74                 MOVAR 0xb
0000011a fdff                 CLRA
0000011b fff0                 IOST 0xf
0000011c dec8                 MOVIA 0x37
0000011d ff7e                 MOVAR 0x1
0000011e defe                 MOVIA 0x1
0000011f fffc                 T0MD
00000120 def4                 MOVIA 0xb
00000121 ff71                 MOVAR 0xe
00000122 deee                 MOVIA 0x11
00000123 fff0                 IOST 0xf
00000124 fd66                 CLRR 0x19
00000125 de97                 MOVIA 0x68
00000126 ffbf                 SFUN 0x0
00000127 defd                 MOVIA 0x2
00000128 ffbd                 SFUN 0x2
00000129 defc                 MOVIA 0x3
0000012a ffbe                 SFUN 0x1
0000012b fffb                 ENI
0000012c                      main.o:_00231_DS_:
0000012c fffd                 CLRWDT
0000012d d3d8                 LCALL 0x427; _revData=0x427
0000012e e4fc                 BSR 0x3, 0x6
0000012f fa5b                 INCR 0x24, 0x1
00000130 e0fc                 BCR 0x3, 0x6
00000131 fe86                 MOVR 0x79, 0x0
00000132 f2fc                 BTRSC 0x3, 0x2
00000133 c6d3                 LGOTO 0x12c; main.o:_00231_DS_=0x12c
00000134 fd06                 CLRR 0x79
00000135 fe85                 MOVR 0x7a, 0x0
00000136 f6fc                 BTRSS 0x3, 0x2
00000137 c6d3                 LGOTO 0x12c; main.o:_00231_DS_=0x12c
00000138 d460                 LCALL 0x39f; _workCtr=0x39f
00000139 c6d3                 LGOTO 0x12c; main.o:_00231_DS_=0x12c
0000013a ffef                 RET
0000013b                      _sendtoLast:
0000013b e4fc                 BSR 0x3, 0x6
0000013c ff55                 MOVAR 0x2a
0000013d e0fc                 BCR 0x3, 0x6
0000013e ff29                 MOVAR 0x56
0000013f feb0                 MOVR 0x4f, 0x0
00000140 e4fc                 BSR 0x3, 0x6
00000141 ff54                 MOVAR 0x2b
00000142 e0fc                 BCR 0x3, 0x6
00000143 ff28                 MOVAR 0x57
00000144 feb1                 MOVR 0x4e, 0x0
00000145 e4fc                 BSR 0x3, 0x6
00000146 ff53                 MOVAR 0x2c
00000147 e0fc                 BCR 0x3, 0x6
00000148 ff27                 MOVAR 0x58
00000149 fd26                 CLRR 0x59
0000014a fd25                 CLRR 0x5a
0000014b                      main.o:_00586_DS_:
0000014b e0fc                 BCR 0x3, 0x6
0000014c fea5                 MOVR 0x5a, 0x0
0000014d da7f                 ADDIA 0x80
0000014e da7f                 ADDIA 0x80
0000014f f6fc                 BTRSS 0x3, 0x2
00000150 c6ac                 LGOTO 0x153; main.o:_00599_DS_=0x153
00000151 defb                 MOVIA 0x4
00000152 fba6                 SUBAR 0x59, 0x0
00000153                      main.o:_00599_DS_:
00000153 f3fc                 BTRSC 0x3, 0x0
00000154 c69a                 LGOTO 0x165; main.o:_00584_DS_=0x165
00000155 e0fc                 BCR 0x3, 0x6
00000156 fea7                 MOVR 0x58, 0x0
00000157 ff31                 MOVAR 0x4e
00000158 fea8                 MOVR 0x57, 0x0
00000159 ff30                 MOVAR 0x4f
0000015a fea9                 MOVR 0x56, 0x0
0000015b d698                 LCALL 0x167; _sendRGB=0x167
0000015c e0fc                 BCR 0x3, 0x6
0000015d fe85                 MOVR 0x7a, 0x0
0000015e f6fc                 BTRSS 0x3, 0x2
0000015f c699                 LGOTO 0x166; main.o:_00588_DS_=0x166
00000160 fa26                 INCR 0x59, 0x1
00000161 f6fc                 BTRSS 0x3, 0x2
00000162 c69b                 LGOTO 0x164; main.o:_00001_DS_=0x164
00000163 fa25                 INCR 0x5a, 0x1
00000164                      main.o:_00001_DS_:
00000164 c6b4                 LGOTO 0x14b; main.o:_00586_DS_=0x14b
00000165                      main.o:_00584_DS_:
00000165 d56f                 LCALL 0x290; _Delay80us=0x290
00000166                      main.o:_00588_DS_:
00000166 ffef                 RET
00000167                      _sendRGB:
00000167 e4fc                 BSR 0x3, 0x6
00000168 ff58                 MOVAR 0x27
00000169 feb0                 MOVR 0x4f, 0x0
0000016a ff57                 MOVAR 0x28
0000016b feb1                 MOVR 0x4e, 0x0
0000016c ff56                 MOVAR 0x29
0000016d ffec                 DISI
0000016e f458                 BTRSS 0x27, 0x7
0000016f c68b                 LGOTO 0x174; main.o:_00365_DS_=0x174
00000170 e27a                 BCR 0x5, 0x3
00000171 e27a                 BCR 0x5, 0x3
00000172 e67a                 BSR 0x5, 0x3
00000173 c686                 LGOTO 0x179; main.o:_00370_DS_=0x179
00000174                      main.o:_00365_DS_:
00000174 e27a                 BCR 0x5, 0x3
00000175 e67a                 BSR 0x5, 0x3
00000176 e67a                 BSR 0x5, 0x3
00000177 ffff                 NOP
00000178 e27a                 BCR 0x5, 0x3
00000179                      main.o:_00370_DS_:
00000179 e4fc                 BSR 0x3, 0x6
0000017a f4d8                 BTRSS 0x27, 0x6
0000017b c67f                 LGOTO 0x180; main.o:_00374_DS_=0x180
0000017c e27a                 BCR 0x5, 0x3
0000017d e27a                 BCR 0x5, 0x3
0000017e e67a                 BSR 0x5, 0x3
0000017f c67a                 LGOTO 0x185; main.o:_00379_DS_=0x185
00000180                      main.o:_00374_DS_:
00000180 e27a                 BCR 0x5, 0x3
00000181 e67a                 BSR 0x5, 0x3
00000182 e67a                 BSR 0x5, 0x3
00000183 ffff                 NOP
00000184 e27a                 BCR 0x5, 0x3
00000185                      main.o:_00379_DS_:
00000185 e4fc                 BSR 0x3, 0x6
00000186 f558                 BTRSS 0x27, 0x5
00000187 c673                 LGOTO 0x18c; main.o:_00383_DS_=0x18c
00000188 e27a                 BCR 0x5, 0x3
00000189 e27a                 BCR 0x5, 0x3
0000018a e67a                 BSR 0x5, 0x3
0000018b c66e                 LGOTO 0x191; main.o:_00388_DS_=0x191
0000018c                      main.o:_00383_DS_:
0000018c e27a                 BCR 0x5, 0x3
0000018d e67a                 BSR 0x5, 0x3
0000018e e67a                 BSR 0x5, 0x3
0000018f ffff                 NOP
00000190 e27a                 BCR 0x5, 0x3
00000191                      main.o:_00388_DS_:
00000191 e4fc                 BSR 0x3, 0x6
00000192 f5d8                 BTRSS 0x27, 0x4
00000193 c667                 LGOTO 0x198; main.o:_00392_DS_=0x198
00000194 e27a                 BCR 0x5, 0x3
00000195 e27a                 BCR 0x5, 0x3
00000196 e67a                 BSR 0x5, 0x3
00000197 c662                 LGOTO 0x19d; main.o:_00397_DS_=0x19d
00000198                      main.o:_00392_DS_:
00000198 e27a                 BCR 0x5, 0x3
00000199 e67a                 BSR 0x5, 0x3
0000019a e67a                 BSR 0x5, 0x3
0000019b ffff                 NOP
0000019c e27a                 BCR 0x5, 0x3
0000019d                      main.o:_00397_DS_:
0000019d e4fc                 BSR 0x3, 0x6
0000019e f658                 BTRSS 0x27, 0x3
0000019f c65b                 LGOTO 0x1a4; main.o:_00401_DS_=0x1a4
000001a0 e27a                 BCR 0x5, 0x3
000001a1 e27a                 BCR 0x5, 0x3
000001a2 e67a                 BSR 0x5, 0x3
000001a3 c656                 LGOTO 0x1a9; main.o:_00406_DS_=0x1a9
000001a4                      main.o:_00401_DS_:
000001a4 e27a                 BCR 0x5, 0x3
000001a5 e67a                 BSR 0x5, 0x3
000001a6 e67a                 BSR 0x5, 0x3
000001a7 ffff                 NOP
000001a8 e27a                 BCR 0x5, 0x3
000001a9                      main.o:_00406_DS_:
000001a9 e4fc                 BSR 0x3, 0x6
000001aa f6d8                 BTRSS 0x27, 0x2
000001ab c64f                 LGOTO 0x1b0; main.o:_00410_DS_=0x1b0
000001ac e27a                 BCR 0x5, 0x3
000001ad e27a                 BCR 0x5, 0x3
000001ae e67a                 BSR 0x5, 0x3
000001af c64a                 LGOTO 0x1b5; main.o:_00415_DS_=0x1b5
000001b0                      main.o:_00410_DS_:
000001b0 e27a                 BCR 0x5, 0x3
000001b1 e67a                 BSR 0x5, 0x3
000001b2 e67a                 BSR 0x5, 0x3
000001b3 ffff                 NOP
000001b4 e27a                 BCR 0x5, 0x3
000001b5                      main.o:_00415_DS_:
000001b5 e4fc                 BSR 0x3, 0x6
000001b6 f758                 BTRSS 0x27, 0x1
000001b7 c643                 LGOTO 0x1bc; main.o:_00419_DS_=0x1bc
000001b8 e27a                 BCR 0x5, 0x3
000001b9 e27a                 BCR 0x5, 0x3
000001ba e67a                 BSR 0x5, 0x3
000001bb c63e                 LGOTO 0x1c1; main.o:_00424_DS_=0x1c1
000001bc                      main.o:_00419_DS_:
000001bc e27a                 BCR 0x5, 0x3
000001bd e67a                 BSR 0x5, 0x3
000001be e67a                 BSR 0x5, 0x3
000001bf ffff                 NOP
000001c0 e27a                 BCR 0x5, 0x3
000001c1                      main.o:_00424_DS_:
000001c1 e4fc                 BSR 0x3, 0x6
000001c2 f7d8                 BTRSS 0x27, 0x0
000001c3 c637                 LGOTO 0x1c8; main.o:_00428_DS_=0x1c8
000001c4 e27a                 BCR 0x5, 0x3
000001c5 e27a                 BCR 0x5, 0x3
000001c6 e67a                 BSR 0x5, 0x3
000001c7 c632                 LGOTO 0x1cd; main.o:_00433_DS_=0x1cd
000001c8                      main.o:_00428_DS_:
000001c8 e27a                 BCR 0x5, 0x3
000001c9 e67a                 BSR 0x5, 0x3
000001ca e67a                 BSR 0x5, 0x3
000001cb ffff                 NOP
000001cc e27a                 BCR 0x5, 0x3
000001cd                      main.o:_00433_DS_:
000001cd e4fc                 BSR 0x3, 0x6
000001ce f457                 BTRSS 0x28, 0x7
000001cf c62b                 LGOTO 0x1d4; main.o:_00437_DS_=0x1d4
000001d0 e27a                 BCR 0x5, 0x3
000001d1 e27a                 BCR 0x5, 0x3
000001d2 e67a                 BSR 0x5, 0x3
000001d3 c626                 LGOTO 0x1d9; main.o:_00442_DS_=0x1d9
000001d4                      main.o:_00437_DS_:
000001d4 e27a                 BCR 0x5, 0x3
000001d5 e67a                 BSR 0x5, 0x3
000001d6 e67a                 BSR 0x5, 0x3
000001d7 ffff                 NOP
000001d8 e27a                 BCR 0x5, 0x3
000001d9                      main.o:_00442_DS_:
000001d9 e4fc                 BSR 0x3, 0x6
000001da f4d7                 BTRSS 0x28, 0x6
000001db c61f                 LGOTO 0x1e0; main.o:_00446_DS_=0x1e0
000001dc e27a                 BCR 0x5, 0x3
000001dd e27a                 BCR 0x5, 0x3
000001de e67a                 BSR 0x5, 0x3
000001df c61a                 LGOTO 0x1e5; main.o:_00451_DS_=0x1e5
000001e0                      main.o:_00446_DS_:
000001e0 e27a                 BCR 0x5, 0x3
000001e1 e67a                 BSR 0x5, 0x3
000001e2 e67a                 BSR 0x5, 0x3
000001e3 ffff                 NOP
000001e4 e27a                 BCR 0x5, 0x3
000001e5                      main.o:_00451_DS_:
000001e5 e4fc                 BSR 0x3, 0x6
000001e6 f557                 BTRSS 0x28, 0x5
000001e7 c613                 LGOTO 0x1ec; main.o:_00455_DS_=0x1ec
000001e8 e27a                 BCR 0x5, 0x3
000001e9 e27a                 BCR 0x5, 0x3
000001ea e67a                 BSR 0x5, 0x3
000001eb c60e                 LGOTO 0x1f1; main.o:_00460_DS_=0x1f1
000001ec                      main.o:_00455_DS_:
000001ec e27a                 BCR 0x5, 0x3
000001ed e67a                 BSR 0x5, 0x3
000001ee e67a                 BSR 0x5, 0x3
000001ef ffff                 NOP
000001f0 e27a                 BCR 0x5, 0x3
000001f1                      main.o:_00460_DS_:
000001f1 e4fc                 BSR 0x3, 0x6
000001f2 f5d7                 BTRSS 0x28, 0x4
000001f3 c607                 LGOTO 0x1f8; main.o:_00464_DS_=0x1f8
000001f4 e27a                 BCR 0x5, 0x3
000001f5 e27a                 BCR 0x5, 0x3
000001f6 e67a                 BSR 0x5, 0x3
000001f7 c602                 LGOTO 0x1fd; main.o:_00469_DS_=0x1fd
000001f8                      main.o:_00464_DS_:
000001f8 e27a                 BCR 0x5, 0x3
000001f9 e67a                 BSR 0x5, 0x3
000001fa e67a                 BSR 0x5, 0x3
000001fb ffff                 NOP
000001fc e27a                 BCR 0x5, 0x3
000001fd                      main.o:_00469_DS_:
000001fd e4fc                 BSR 0x3, 0x6
000001fe f657                 BTRSS 0x28, 0x3
000001ff c5fb                 LGOTO 0x204; main.o:_00473_DS_=0x204
00000200 e27a                 BCR 0x5, 0x3
00000201 e27a                 BCR 0x5, 0x3
00000202 e67a                 BSR 0x5, 0x3
00000203 c5f6                 LGOTO 0x209; main.o:_00478_DS_=0x209
00000204                      main.o:_00473_DS_:
00000204 e27a                 BCR 0x5, 0x3
00000205 e67a                 BSR 0x5, 0x3
00000206 e67a                 BSR 0x5, 0x3
00000207 ffff                 NOP
00000208 e27a                 BCR 0x5, 0x3
00000209                      main.o:_00478_DS_:
00000209 e4fc                 BSR 0x3, 0x6
0000020a f6d7                 BTRSS 0x28, 0x2
0000020b c5ef                 LGOTO 0x210; main.o:_00482_DS_=0x210
0000020c e27a                 BCR 0x5, 0x3
0000020d e27a                 BCR 0x5, 0x3
0000020e e67a                 BSR 0x5, 0x3
0000020f c5ea                 LGOTO 0x215; main.o:_00487_DS_=0x215
00000210                      main.o:_00482_DS_:
00000210 e27a                 BCR 0x5, 0x3
00000211 e67a                 BSR 0x5, 0x3
00000212 e67a                 BSR 0x5, 0x3
00000213 ffff                 NOP
00000214 e27a                 BCR 0x5, 0x3
00000215                      main.o:_00487_DS_:
00000215 e4fc                 BSR 0x3, 0x6
00000216 f757                 BTRSS 0x28, 0x1
00000217 c5e3                 LGOTO 0x21c; main.o:_00491_DS_=0x21c
00000218 e27a                 BCR 0x5, 0x3
00000219 e27a                 BCR 0x5, 0x3
0000021a e67a                 BSR 0x5, 0x3
0000021b c5de                 LGOTO 0x221; main.o:_00496_DS_=0x221
0000021c                      main.o:_00491_DS_:
0000021c e27a                 BCR 0x5, 0x3
0000021d e67a                 BSR 0x5, 0x3
0000021e e67a                 BSR 0x5, 0x3
0000021f ffff                 NOP
00000220 e27a                 BCR 0x5, 0x3
00000221                      main.o:_00496_DS_:
00000221 e4fc                 BSR 0x3, 0x6
00000222 f7d7                 BTRSS 0x28, 0x0
00000223 c5d7                 LGOTO 0x228; main.o:_00500_DS_=0x228
00000224 e27a                 BCR 0x5, 0x3
00000225 e27a                 BCR 0x5, 0x3
00000226 e67a                 BSR 0x5, 0x3
00000227 c5d2                 LGOTO 0x22d; main.o:_00505_DS_=0x22d
00000228                      main.o:_00500_DS_:
00000228 e27a                 BCR 0x5, 0x3
00000229 e67a                 BSR 0x5, 0x3
0000022a e67a                 BSR 0x5, 0x3
0000022b ffff                 NOP
0000022c e27a                 BCR 0x5, 0x3
0000022d                      main.o:_00505_DS_:
0000022d e4fc                 BSR 0x3, 0x6
0000022e f456                 BTRSS 0x29, 0x7
0000022f c5cb                 LGOTO 0x234; main.o:_00509_DS_=0x234
00000230 e27a                 BCR 0x5, 0x3
00000231 e27a                 BCR 0x5, 0x3
00000232 e67a                 BSR 0x5, 0x3
00000233 c5c6                 LGOTO 0x239; main.o:_00514_DS_=0x239
00000234                      main.o:_00509_DS_:
00000234 e27a                 BCR 0x5, 0x3
00000235 e67a                 BSR 0x5, 0x3
00000236 e67a                 BSR 0x5, 0x3
00000237 ffff                 NOP
00000238 e27a                 BCR 0x5, 0x3
00000239                      main.o:_00514_DS_:
00000239 e4fc                 BSR 0x3, 0x6
0000023a f4d6                 BTRSS 0x29, 0x6
0000023b c5bf                 LGOTO 0x240; main.o:_00518_DS_=0x240
0000023c e27a                 BCR 0x5, 0x3
0000023d e27a                 BCR 0x5, 0x3
0000023e e67a                 BSR 0x5, 0x3
0000023f c5ba                 LGOTO 0x245; main.o:_00523_DS_=0x245
00000240                      main.o:_00518_DS_:
00000240 e27a                 BCR 0x5, 0x3
00000241 e67a                 BSR 0x5, 0x3
00000242 e67a                 BSR 0x5, 0x3
00000243 ffff                 NOP
00000244 e27a                 BCR 0x5, 0x3
00000245                      main.o:_00523_DS_:
00000245 e4fc                 BSR 0x3, 0x6
00000246 f556                 BTRSS 0x29, 0x5
00000247 c5b3                 LGOTO 0x24c; main.o:_00527_DS_=0x24c
00000248 e27a                 BCR 0x5, 0x3
00000249 e27a                 BCR 0x5, 0x3
0000024a e67a                 BSR 0x5, 0x3
0000024b c5ae                 LGOTO 0x251; main.o:_00532_DS_=0x251
0000024c                      main.o:_00527_DS_:
0000024c e27a                 BCR 0x5, 0x3
0000024d e67a                 BSR 0x5, 0x3
0000024e e67a                 BSR 0x5, 0x3
0000024f ffff                 NOP
00000250 e27a                 BCR 0x5, 0x3
00000251                      main.o:_00532_DS_:
00000251 e4fc                 BSR 0x3, 0x6
00000252 f5d6                 BTRSS 0x29, 0x4
00000253 c5a7                 LGOTO 0x258; main.o:_00536_DS_=0x258
00000254 e27a                 BCR 0x5, 0x3
00000255 e27a                 BCR 0x5, 0x3
00000256 e67a                 BSR 0x5, 0x3
00000257 c5a2                 LGOTO 0x25d; main.o:_00541_DS_=0x25d
00000258                      main.o:_00536_DS_:
00000258 e27a                 BCR 0x5, 0x3
00000259 e67a                 BSR 0x5, 0x3
0000025a e67a                 BSR 0x5, 0x3
0000025b ffff                 NOP
0000025c e27a                 BCR 0x5, 0x3
0000025d                      main.o:_00541_DS_:
0000025d e4fc                 BSR 0x3, 0x6
0000025e f656                 BTRSS 0x29, 0x3
0000025f c59b                 LGOTO 0x264; main.o:_00545_DS_=0x264
00000260 e27a                 BCR 0x5, 0x3
00000261 e27a                 BCR 0x5, 0x3
00000262 e67a                 BSR 0x5, 0x3
00000263 c596                 LGOTO 0x269; main.o:_00550_DS_=0x269
00000264                      main.o:_00545_DS_:
00000264 e27a                 BCR 0x5, 0x3
00000265 e67a                 BSR 0x5, 0x3
00000266 e67a                 BSR 0x5, 0x3
00000267 ffff                 NOP
00000268 e27a                 BCR 0x5, 0x3
00000269                      main.o:_00550_DS_:
00000269 e4fc                 BSR 0x3, 0x6
0000026a f6d6                 BTRSS 0x29, 0x2
0000026b c58f                 LGOTO 0x270; main.o:_00554_DS_=0x270
0000026c e27a                 BCR 0x5, 0x3
0000026d e27a                 BCR 0x5, 0x3
0000026e e67a                 BSR 0x5, 0x3
0000026f c58a                 LGOTO 0x275; main.o:_00559_DS_=0x275
00000270                      main.o:_00554_DS_:
00000270 e27a                 BCR 0x5, 0x3
00000271 e67a                 BSR 0x5, 0x3
00000272 e67a                 BSR 0x5, 0x3
00000273 ffff                 NOP
00000274 e27a                 BCR 0x5, 0x3
00000275                      main.o:_00559_DS_:
00000275 e4fc                 BSR 0x3, 0x6
00000276 f756                 BTRSS 0x29, 0x1
00000277 c583                 LGOTO 0x27c; main.o:_00563_DS_=0x27c
00000278 e27a                 BCR 0x5, 0x3
00000279 e27a                 BCR 0x5, 0x3
0000027a e67a                 BSR 0x5, 0x3
0000027b c57e                 LGOTO 0x281; main.o:_00568_DS_=0x281
0000027c                      main.o:_00563_DS_:
0000027c e27a                 BCR 0x5, 0x3
0000027d e67a                 BSR 0x5, 0x3
0000027e e67a                 BSR 0x5, 0x3
0000027f ffff                 NOP
00000280 e27a                 BCR 0x5, 0x3
00000281                      main.o:_00568_DS_:
00000281 e4fc                 BSR 0x3, 0x6
00000282 f7d6                 BTRSS 0x29, 0x0
00000283 c577                 LGOTO 0x288; main.o:_00572_DS_=0x288
00000284 e27a                 BCR 0x5, 0x3
00000285 e27a                 BCR 0x5, 0x3
00000286 e67a                 BSR 0x5, 0x3
00000287 c572                 LGOTO 0x28d; main.o:_00577_DS_=0x28d
00000288                      main.o:_00572_DS_:
00000288 e27a                 BCR 0x5, 0x3
00000289 e67a                 BSR 0x5, 0x3
0000028a e67a                 BSR 0x5, 0x3
0000028b ffff                 NOP
0000028c e27a                 BCR 0x5, 0x3
0000028d                      main.o:_00577_DS_:
0000028d e27a                 BCR 0x5, 0x3
0000028e fffb                 ENI
0000028f ffef                 RET
00000290                      _Delay80us:
00000290 e0fc                 BCR 0x3, 0x6
00000291 fd2a                 CLRR 0x55
00000292                      main.o:_00351_DS_:
00000292 decd                 MOVIA 0x32
00000293 e0fc                 BCR 0x3, 0x6
00000294 fbaa                 SUBAR 0x55, 0x0
00000295 f3fc                 BTRSC 0x3, 0x0
00000296 c563                 LGOTO 0x29c; main.o:_00353_DS_=0x29c
00000297 fe85                 MOVR 0x7a, 0x0
00000298 f6fc                 BTRSS 0x3, 0x2
00000299 c563                 LGOTO 0x29c; main.o:_00353_DS_=0x29c
0000029a fa2a                 INCR 0x55, 0x1
0000029b c56d                 LGOTO 0x292; main.o:_00351_DS_=0x292
0000029c                      main.o:_00353_DS_:
0000029c ffef                 RET
0000029d                      _breath3:
0000029d e0fc                 BCR 0x3, 0x6
0000029e ff42                 MOVAR 0x3d
0000029f feb0                 MOVR 0x4f, 0x0
000002a0 ff43                 MOVAR 0x3c
000002a1 feb1                 MOVR 0x4e, 0x0
000002a2 ff44                 MOVAR 0x3b
000002a3 feb2                 MOVR 0x4d, 0x0
000002a4 ff2f                 MOVAR 0x50
000002a5 feb3                 MOVR 0x4c, 0x0
000002a6 ff40                 MOVAR 0x3f
000002a7 feb4                 MOVR 0x4b, 0x0
000002a8 ff41                 MOVAR 0x3e
000002a9 feb5                 MOVR 0x4a, 0x0
000002aa ff2c                 MOVAR 0x53
000002ab feb6                 MOVR 0x49, 0x0
000002ac ff2d                 MOVAR 0x52
000002ad feb7                 MOVR 0x48, 0x0
000002ae ff2e                 MOVAR 0x51
000002af ff31                 MOVAR 0x4e
000002b0 fead                 MOVR 0x52, 0x0
000002b1 ff30                 MOVAR 0x4f
000002b2 feac                 MOVR 0x53, 0x0
000002b3 d2f3                 LCALL 0x50c; __gptrget=0x50c
000002b4 e0fc                 BCR 0x3, 0x6
000002b5 ff2b                 MOVAR 0x54
000002b6 def4                 MOVIA 0xb
000002b7 fbab                 SUBAR 0x54, 0x0
000002b8 f7fc                 BTRSS 0x3, 0x0
000002b9 c53c                 LGOTO 0x2c3; main.o:_00334_DS_=0x2c3
000002ba f92b                 DECR 0x54, 0x1
000002bb feab                 MOVR 0x54, 0x0
000002bc ff32                 MOVAR 0x4d
000002bd feae                 MOVR 0x51, 0x0
000002be ff31                 MOVAR 0x4e
000002bf fead                 MOVR 0x52, 0x0
000002c0 ff30                 MOVAR 0x4f
000002c1 feac                 MOVR 0x53, 0x0
000002c2 d2e0                 LCALL 0x51f; __gptrput=0x51f
000002c3                      main.o:_00334_DS_:
000002c3 e0fc                 BCR 0x3, 0x6
000002c4 fec1                 MOVR 0x3e, 0x0
000002c5 ff31                 MOVAR 0x4e
000002c6 fec0                 MOVR 0x3f, 0x0
000002c7 ff30                 MOVAR 0x4f
000002c8 feaf                 MOVR 0x50, 0x0
000002c9 d2f3                 LCALL 0x50c; __gptrget=0x50c
000002ca e0fc                 BCR 0x3, 0x6
000002cb ff2b                 MOVAR 0x54
000002cc def4                 MOVIA 0xb
000002cd fbab                 SUBAR 0x54, 0x0
000002ce f7fc                 BTRSS 0x3, 0x0
000002cf c526                 LGOTO 0x2d9; main.o:_00336_DS_=0x2d9
000002d0 f92b                 DECR 0x54, 0x1
000002d1 feab                 MOVR 0x54, 0x0
000002d2 ff32                 MOVAR 0x4d
000002d3 fec1                 MOVR 0x3e, 0x0
000002d4 ff31                 MOVAR 0x4e
000002d5 fec0                 MOVR 0x3f, 0x0
000002d6 ff30                 MOVAR 0x4f
000002d7 feaf                 MOVR 0x50, 0x0
000002d8 d2e0                 LCALL 0x51f; __gptrput=0x51f
000002d9                      main.o:_00336_DS_:
000002d9 e0fc                 BCR 0x3, 0x6
000002da fec4                 MOVR 0x3b, 0x0
000002db ff31                 MOVAR 0x4e
000002dc fec3                 MOVR 0x3c, 0x0
000002dd ff30                 MOVAR 0x4f
000002de fec2                 MOVR 0x3d, 0x0
000002df d2f3                 LCALL 0x50c; __gptrget=0x50c
000002e0 e0fc                 BCR 0x3, 0x6
000002e1 ff2b                 MOVAR 0x54
000002e2 def4                 MOVIA 0xb
000002e3 fbab                 SUBAR 0x54, 0x0
000002e4 f7fc                 BTRSS 0x3, 0x0
000002e5 c510                 LGOTO 0x2ef; main.o:_00338_DS_=0x2ef
000002e6 f92b                 DECR 0x54, 0x1
000002e7 feab                 MOVR 0x54, 0x0
000002e8 ff32                 MOVAR 0x4d
000002e9 fec4                 MOVR 0x3b, 0x0
000002ea ff31                 MOVAR 0x4e
000002eb fec3                 MOVR 0x3c, 0x0
000002ec ff30                 MOVAR 0x4f
000002ed fec2                 MOVR 0x3d, 0x0
000002ee d2e0                 LCALL 0x51f; __gptrput=0x51f
000002ef                      main.o:_00338_DS_:
000002ef e0fc                 BCR 0x3, 0x6
000002f0 fec4                 MOVR 0x3b, 0x0
000002f1 ff31                 MOVAR 0x4e
000002f2 fec3                 MOVR 0x3c, 0x0
000002f3 ff30                 MOVAR 0x4f
000002f4 fec2                 MOVR 0x3d, 0x0
000002f5 d2f3                 LCALL 0x50c; __gptrget=0x50c
000002f6 e0fc                 BCR 0x3, 0x6
000002f7 ff2b                 MOVAR 0x54
000002f8 fec1                 MOVR 0x3e, 0x0
000002f9 ff31                 MOVAR 0x4e
000002fa fec0                 MOVR 0x3f, 0x0
000002fb ff30                 MOVAR 0x4f
000002fc feaf                 MOVR 0x50, 0x0
000002fd d2f3                 LCALL 0x50c; __gptrget=0x50c
000002fe e0fc                 BCR 0x3, 0x6
000002ff ff44                 MOVAR 0x3b
00000300 feae                 MOVR 0x51, 0x0
00000301 ff31                 MOVAR 0x4e
00000302 fead                 MOVR 0x52, 0x0
00000303 ff30                 MOVAR 0x4f
00000304 feac                 MOVR 0x53, 0x0
00000305 d2f3                 LCALL 0x50c; __gptrget=0x50c
00000306 e0fc                 BCR 0x3, 0x6
00000307 ff41                 MOVAR 0x3e
00000308 ff31                 MOVAR 0x4e
00000309 fec4                 MOVR 0x3b, 0x0
0000030a ff30                 MOVAR 0x4f
0000030b feab                 MOVR 0x54, 0x0
0000030c d6c4                 LCALL 0x13b; _sendtoLast=0x13b
0000030d ffef                 RET
0000030e                      _work9:
0000030e e3fc                 BCR 0x3, 0x0
0000030f e4fc                 BSR 0x3, 0x6
00000310 ecde                 RRR 0x21, 0x0
00000311 e0fc                 BCR 0x3, 0x6
00000312 ff48                 MOVAR 0x37
00000313 e4fc                 BSR 0x3, 0x6
00000314 ecdf                 RRR 0x20, 0x0
00000315 e0fc                 BCR 0x3, 0x6
00000316 ff49                 MOVAR 0x36
00000317 e3fc                 BCR 0x3, 0x0
00000318 ec48                 RRR 0x37, 0x1
00000319 ec49                 RRR 0x36, 0x1
0000031a fec9                 MOVR 0x36, 0x0
0000031b e4fc                 BSR 0x3, 0x6
0000031c ff52                 MOVAR 0x2d
0000031d edd9                 XORAR 0x26, 0x0
0000031e f2fc                 BTRSC 0x3, 0x2
0000031f c4bf                 LGOTO 0x340; main.o:_00321_DS_=0x340
00000320 fed2                 MOVR 0x2d, 0x0
00000321 ff59                 MOVAR 0x26
00000322 deff                 MOVIA 0x0
00000323 e0fc                 BCR 0x3, 0x6
00000324 ff48                 MOVAR 0x37
00000325 de55                 MOVIA 0xaa
00000326 ff49                 MOVAR 0x36
00000327 deff                 MOVIA 0x0
00000328 ff46                 MOVAR 0x39
00000329 de54                 MOVIA 0xab
0000032a ff47                 MOVAR 0x38
0000032b deff                 MOVIA 0x0
0000032c ff45                 MOVAR 0x3a
0000032d de53                 MOVIA 0xac
0000032e ff37                 MOVAR 0x48
0000032f fec5                 MOVR 0x3a, 0x0
00000330 ff36                 MOVAR 0x49
00000331 deff                 MOVIA 0x0
00000332 ff35                 MOVAR 0x4a
00000333 fec7                 MOVR 0x38, 0x0
00000334 ff34                 MOVAR 0x4b
00000335 fec6                 MOVR 0x39, 0x0
00000336 ff33                 MOVAR 0x4c
00000337 deff                 MOVIA 0x0
00000338 ff32                 MOVAR 0x4d
00000339 fec9                 MOVR 0x36, 0x0
0000033a ff31                 MOVAR 0x4e
0000033b fec8                 MOVR 0x37, 0x0
0000033c ff30                 MOVAR 0x4f
0000033d deff                 MOVIA 0x0
0000033e d562                 LCALL 0x29d; _breath3=0x29d
0000033f c4b8                 LGOTO 0x347; main.o:_00323_DS_=0x347
00000340                      main.o:_00321_DS_:
00000340 e4fc                 BSR 0x3, 0x6
00000341 fed3                 MOVR 0x2c, 0x0
00000342 ff31                 MOVAR 0x4e
00000343 fed4                 MOVR 0x2b, 0x0
00000344 ff30                 MOVAR 0x4f
00000345 fed5                 MOVR 0x2a, 0x0
00000346 d6c4                 LCALL 0x13b; _sendtoLast=0x13b
00000347                      main.o:_00323_DS_:
00000347 ffef                 RET
00000348                      _setColor:
00000348 e0fc                 BCR 0x3, 0x6
00000349 ff4a                 MOVAR 0x35
0000034a def6                 MOVIA 0x9
0000034b fbca                 SUBAR 0x35, 0x0
0000034c f3fc                 BTRSC 0x3, 0x0
0000034d c461                 LGOTO 0x39e; main.o:_00303_DS_=0x39e
0000034e defc                 MOVIA 0x3
0000034f ff75                 MOVAR 0xa
00000350 feca                 MOVR 0x35, 0x0
00000351 daaa                 ADDIA 0x55
00000352 f3fc                 BTRSC 0x3, 0x0
00000353 fa75                 INCR 0xa, 0x1
00000354 ff7d                 MOVAR 0x2
00000355                      main.o:_00315_DS_:
00000355 c4a1                 LGOTO 0x35e; main.o:_00289_DS_=0x35e
00000356 c492                 LGOTO 0x36d; main.o:_00294_DS_=0x36d
00000357 c48c                 LGOTO 0x373; main.o:_00295_DS_=0x373
00000358 c485                 LGOTO 0x37a; main.o:_00296_DS_=0x37a
00000359 c47f                 LGOTO 0x380; main.o:_00297_DS_=0x380
0000035a c478                 LGOTO 0x387; main.o:_00298_DS_=0x387
0000035b c472                 LGOTO 0x38d; main.o:_00299_DS_=0x38d
0000035c c46c                 LGOTO 0x393; main.o:_00300_DS_=0x393
0000035d c465                 LGOTO 0x39a; main.o:_00301_DS_=0x39a
0000035e                      main.o:_00289_DS_:
0000035e e4fc                 BSR 0x3, 0x6
0000035f fed5                 MOVR 0x2a, 0x0
00000360 f6fc                 BTRSS 0x3, 0x2
00000361 c497                 LGOTO 0x368; main.o:_00290_DS_=0x368
00000362 fed4                 MOVR 0x2b, 0x0
00000363 f6fc                 BTRSS 0x3, 0x2
00000364 c497                 LGOTO 0x368; main.o:_00290_DS_=0x368
00000365 fed3                 MOVR 0x2c, 0x0
00000366 f2fc                 BTRSC 0x3, 0x2
00000367 c461                 LGOTO 0x39e; main.o:_00303_DS_=0x39e
00000368                      main.o:_00290_DS_:
00000368 deff                 MOVIA 0x0
00000369 ff31                 MOVAR 0x4e
0000036a ff30                 MOVAR 0x4f
0000036b d6c4                 LCALL 0x13b; _sendtoLast=0x13b
0000036c c461                 LGOTO 0x39e; main.o:_00303_DS_=0x39e
0000036d                      main.o:_00294_DS_:
0000036d deff                 MOVIA 0x0
0000036e ff31                 MOVAR 0x4e
0000036f ff30                 MOVAR 0x4f
00000370 de00                 MOVIA 0xff
00000371 d6c4                 LCALL 0x13b; _sendtoLast=0x13b
00000372 c461                 LGOTO 0x39e; main.o:_00303_DS_=0x39e
00000373                      main.o:_00295_DS_:
00000373 deff                 MOVIA 0x0
00000374 ff31                 MOVAR 0x4e
00000375 de5a                 MOVIA 0xa5
00000376 ff30                 MOVAR 0x4f
00000377 de00                 MOVIA 0xff
00000378 d6c4                 LCALL 0x13b; _sendtoLast=0x13b
00000379 c461                 LGOTO 0x39e; main.o:_00303_DS_=0x39e
0000037a                      main.o:_00296_DS_:
0000037a deff                 MOVIA 0x0
0000037b ff31                 MOVAR 0x4e
0000037c de00                 MOVIA 0xff
0000037d ff30                 MOVAR 0x4f
0000037e d6c4                 LCALL 0x13b; _sendtoLast=0x13b
0000037f c461                 LGOTO 0x39e; main.o:_00303_DS_=0x39e
00000380                      main.o:_00297_DS_:
00000380 deff                 MOVIA 0x0
00000381 ff31                 MOVAR 0x4e
00000382 de00                 MOVIA 0xff
00000383 ff30                 MOVAR 0x4f
00000384 deff                 MOVIA 0x0
00000385 d6c4                 LCALL 0x13b; _sendtoLast=0x13b
00000386 c461                 LGOTO 0x39e; main.o:_00303_DS_=0x39e
00000387                      main.o:_00298_DS_:
00000387 de00                 MOVIA 0xff
00000388 ff31                 MOVAR 0x4e
00000389 ff30                 MOVAR 0x4f
0000038a deff                 MOVIA 0x0
0000038b d6c4                 LCALL 0x13b; _sendtoLast=0x13b
0000038c c461                 LGOTO 0x39e; main.o:_00303_DS_=0x39e
0000038d                      main.o:_00299_DS_:
0000038d de00                 MOVIA 0xff
0000038e ff31                 MOVAR 0x4e
0000038f deff                 MOVIA 0x0
00000390 ff30                 MOVAR 0x4f
00000391 d6c4                 LCALL 0x13b; _sendtoLast=0x13b
00000392 c461                 LGOTO 0x39e; main.o:_00303_DS_=0x39e
00000393                      main.o:_00300_DS_:
00000393 de00                 MOVIA 0xff
00000394 ff31                 MOVAR 0x4e
00000395 deff                 MOVIA 0x0
00000396 ff30                 MOVAR 0x4f
00000397 de00                 MOVIA 0xff
00000398 d6c4                 LCALL 0x13b; _sendtoLast=0x13b
00000399 c461                 LGOTO 0x39e; main.o:_00303_DS_=0x39e
0000039a                      main.o:_00301_DS_:
0000039a de00                 MOVIA 0xff
0000039b ff31                 MOVAR 0x4e
0000039c ff30                 MOVAR 0x4f
0000039d d6c4                 LCALL 0x13b; _sendtoLast=0x13b
0000039e                      main.o:_00303_DS_:
0000039e ffef                 RET
0000039f                      _workCtr:
0000039f def4                 MOVIA 0xb
000003a0 e0fc                 BCR 0x3, 0x6
000003a1 fb81                 SUBAR 0x7e, 0x0
000003a2 f3fc                 BTRSC 0x3, 0x0
000003a3 c44c                 LGOTO 0x3b3; main.o:_00284_DS_=0x3b3
000003a4 def6                 MOVIA 0x9
000003a5 fb81                 SUBAR 0x7e, 0x0
000003a6 f3fc                 BTRSC 0x3, 0x0
000003a7 c454                 LGOTO 0x3ab; main.o:_00282_DS_=0x3ab
000003a8 fe81                 MOVR 0x7e, 0x0
000003a9 d4b7                 LCALL 0x348; _setColor=0x348
000003aa c44c                 LGOTO 0x3b3; main.o:_00284_DS_=0x3b3
000003ab                      main.o:_00282_DS_:
000003ab e0fc                 BCR 0x3, 0x6
000003ac fe81                 MOVR 0x7e, 0x0
000003ad dbf6                 XORIA 0x9
000003ae f6fc                 BTRSS 0x3, 0x2
000003af c44d                 LGOTO 0x3b2; main.o:_00279_DS_=0x3b2
000003b0 d4f1                 LCALL 0x30e; _work9=0x30e
000003b1 c44c                 LGOTO 0x3b3; main.o:_00284_DS_=0x3b3
000003b2                      main.o:_00279_DS_:
000003b2 d7fe                 LCALL 0x1; _work10=0x1
000003b3                      main.o:_00284_DS_:
000003b3 ffef                 RET
000003b4                      main.o:_00259_DS_:
000003b4 e0fc                 BCR 0x3, 0x6
000003b5 fe8a                 MOVR 0x75, 0x0
000003b6 f2fc                 BTRSC 0x3, 0x2
000003b7 c44b                 LGOTO 0x3b4; main.o:_00259_DS_=0x3b4
000003b8 fd0a                 CLRR 0x75
000003b9 ffef                 RET
000003ba                      _RByte:
000003ba defe                 MOVIA 0x1
000003bb e0fc                 BCR 0x3, 0x6
000003bc ff09                 MOVAR 0x76
000003bd fd4d                 CLRR 0x32
000003be fd66                 CLRR 0x19
000003bf de96                 MOVIA 0x69
000003c0 ffbf                 SFUN 0x0
000003c1 defc                 MOVIA 0x3
000003c2 ffbe                 SFUN 0x1
000003c3 fdff                 CLRA
000003c4 fff0                 IOST 0xf
000003c5 d44b                 LCALL 0x3b4; main.o:_00259_DS_=0x3b4
000003c6 def7                 MOVIA 0x8
000003c7 e0fc                 BCR 0x3, 0x6
000003c8 ff4c                 MOVAR 0x33
000003c9                      main.o:_00247_DS_:
000003c9 e0fc                 BCR 0x3, 0x6
000003ca fecc                 MOVR 0x33, 0x0
000003cb ff4b                 MOVAR 0x34
000003cc f94c                 DECR 0x33, 0x1
000003cd fecb                 MOVR 0x34, 0x0
000003ce f2fc                 BTRSC 0x3, 0x2
000003cf c428                 LGOTO 0x3d7; main.o:_00252_DS_=0x3d7
000003d0 e3fc                 BCR 0x3, 0x0
000003d1 ec4d                 RRR 0x32, 0x1
000003d2 f6fa                 BTRSS 0x5, 0x2
000003d3 c42a                 LGOTO 0x3d5; main.o:_00004_DS_=0x3d5
000003d4 e44d                 BSR 0x32, 0x7
000003d5                      main.o:_00004_DS_:
000003d5 d44b                 LCALL 0x3b4; main.o:_00259_DS_=0x3b4
000003d6 c436                 LGOTO 0x3c9; main.o:_00247_DS_=0x3c9
000003d7                      main.o:_00252_DS_:
000003d7 e0fc                 BCR 0x3, 0x6
000003d8 fe8a                 MOVR 0x75, 0x0
000003d9 f6fc                 BTRSS 0x3, 0x2
000003da c422                 LGOTO 0x3dd; main.o:_00254_DS_=0x3dd
000003db f6fa                 BTRSS 0x5, 0x2
000003dc c428                 LGOTO 0x3d7; main.o:_00252_DS_=0x3d7
000003dd                      main.o:_00254_DS_:
000003dd fdff                 CLRA
000003de ffbe                 SFUN 0x1
000003df deee                 MOVIA 0x11
000003e0 fff0                 IOST 0xf
000003e1 e0fc                 BCR 0x3, 0x6
000003e2 fd09                 CLRR 0x76
000003e3 fd02                 CLRR 0x7d
000003e4 fecd                 MOVR 0x32, 0x0
000003e5 ffef                 RET
000003e6                      _rankNub:
000003e6 e0fc                 BCR 0x3, 0x6
000003e7 ff52                 MOVAR 0x2d
000003e8 defc                 MOVIA 0x3
000003e9 ff30                 MOVAR 0x4f
000003ea e4fc                 BSR 0x3, 0x6
000003eb fedc                 MOVR 0x23, 0x0
000003ec d3aa                 LCALL 0x455; __mulchar=0x455
000003ed e0fc                 BCR 0x3, 0x6
000003ee ff51                 MOVAR 0x2e
000003ef fd50                 CLRR 0x2f
000003f0 fd4f                 CLRR 0x30
000003f1                      main.o:_00240_DS_:
000003f1 e0fc                 BCR 0x3, 0x6
000003f2 fed2                 MOVR 0x2d, 0x0
000003f3 fbcf                 SUBAR 0x30, 0x0
000003f4 f3fc                 BTRSC 0x3, 0x0
000003f5 c3e2                 LGOTO 0x41d; main.o:_00238_DS_=0x41d
000003f6 e4fc                 BSR 0x3, 0x6
000003f7 fedb                 MOVR 0x24, 0x0
000003f8 ff32                 MOVAR 0x4d
000003f9 fdff                 CLRA
000003fa ff31                 MOVAR 0x4e
000003fb e0fc                 BCR 0x3, 0x6
000003fc fecf                 MOVR 0x30, 0x0
000003fd ff30                 MOVAR 0x4f
000003fe fdff                 CLRA
000003ff d368                 LCALL 0x497; __mulint=0x497
00000400 e0fc                 BCR 0x3, 0x6
00000401 ff4e                 MOVAR 0x31
00000402 feb0                 MOVR 0x4f, 0x0
00000403 fc51                 ADDAR 0x2e, 0x1
00000404 fece                 MOVR 0x31, 0x0
00000405 f3fc                 BTRSC 0x3, 0x0
00000406 face                 INCR 0x31, 0x0
00000407 f2fc                 BTRSC 0x3, 0x2
00000408 c3f5                 LGOTO 0x40a; main.o:_00005_DS_=0x40a
00000409 fc50                 ADDAR 0x2f, 0x1
0000040a                      main.o:_00005_DS_:
0000040a defa                 MOVIA 0x5
0000040b e0fc                 BCR 0x3, 0x6
0000040c fbcf                 SUBAR 0x30, 0x0
0000040d f7fc                 BTRSS 0x3, 0x0
0000040e c3eb                 LGOTO 0x414; main.o:_00006_DS_=0x414
0000040f de00                 MOVIA 0xff
00000410 fc51                 ADDAR 0x2e, 0x1
00000411 f3fc                 BTRSC 0x3, 0x0
00000412 c3eb                 LGOTO 0x414; main.o:_00006_DS_=0x414
00000413 f950                 DECR 0x2f, 0x1
00000414                      main.o:_00006_DS_:
00000414 defc                 MOVIA 0x3
00000415 e0fc                 BCR 0x3, 0x6
00000416 fc51                 ADDAR 0x2e, 0x1
00000417 f7fc                 BTRSS 0x3, 0x0
00000418 c3e5                 LGOTO 0x41a; main.o:_00007_DS_=0x41a
00000419 fa50                 INCR 0x2f, 0x1
0000041a                      main.o:_00007_DS_:
0000041a e0fc                 BCR 0x3, 0x6
0000041b fa4f                 INCR 0x30, 0x1
0000041c c40e                 LGOTO 0x3f1; main.o:_00240_DS_=0x3f1
0000041d                      main.o:_00238_DS_:
0000041d def8                 MOVIA 0x7
0000041e e0fc                 BCR 0x3, 0x6
0000041f ef51                 ANDAR 0x2e, 0x1
00000420 fd50                 CLRR 0x2f
00000421 fed1                 MOVR 0x2e, 0x0
00000422 ff52                 MOVAR 0x2d
00000423 fad2                 INCR 0x2d, 0x0
00000424 e4fc                 BSR 0x3, 0x6
00000425 ff5c                 MOVAR 0x23
00000426 ffef                 RET
00000427                      _revData:
00000427 e0fc                 BCR 0x3, 0x6
00000428 fe89                 MOVR 0x76, 0x0
00000429 f6fc                 BTRSS 0x3, 0x2
0000042a c3ad                 LGOTO 0x452; main.o:_00221_DS_=0x452
0000042b f2fa                 BTRSC 0x5, 0x2
0000042c c3ad                 LGOTO 0x452; main.o:_00221_DS_=0x452
0000042d def6                 MOVIA 0x9
0000042e ff71                 MOVAR 0xe
0000042f defe                 MOVIA 0x1
00000430 ff09                 MOVAR 0x76
00000431 fe88                 MOVR 0x77, 0x0
00000432 f6fc                 BTRSS 0x3, 0x2
00000433 c3b1                 LGOTO 0x44e; main.o:_00218_DS_=0x44e
00000434 d445                 LCALL 0x3ba; _RByte=0x3ba
00000435 e0fc                 BCR 0x3, 0x6
00000436 ff04                 MOVAR 0x7b
00000437 fe83                 MOVR 0x7c, 0x0
00000438 dadf                 ADDIA 0x20
00000439 ff54                 MOVAR 0x2b
0000043a deff                 MOVIA 0x0
0000043b f3fc                 BTRSC 0x3, 0x0
0000043c dafe                 ADDIA 0x1
0000043d ff53                 MOVAR 0x2c
0000043e fe84                 MOVR 0x7b, 0x0
0000043f ff32                 MOVAR 0x4d
00000440 fed4                 MOVR 0x2b, 0x0
00000441 ff31                 MOVAR 0x4e
00000442 fed3                 MOVR 0x2c, 0x0
00000443 ff30                 MOVAR 0x4f
00000444 deff                 MOVIA 0x0
00000445 d2e0                 LCALL 0x51f; __gptrput=0x51f
00000446 e0fc                 BCR 0x3, 0x6
00000447 fa03                 INCR 0x7c, 0x1
00000448 def9                 MOVIA 0x6
00000449 fb83                 SUBAR 0x7c, 0x0
0000044a f7fc                 BTRSS 0x3, 0x0
0000044b c3af                 LGOTO 0x450; main.o:_00219_DS_=0x450
0000044c fd03                 CLRR 0x7c
0000044d c3af                 LGOTO 0x450; main.o:_00219_DS_=0x450
0000044e                      main.o:_00218_DS_:
0000044e e0fc                 BCR 0x3, 0x6
0000044f fd09                 CLRR 0x76
00000450                      main.o:_00219_DS_:
00000450 def4                 MOVIA 0xb
00000451 ff71                 MOVAR 0xe
00000452                      main.o:_00221_DS_:
00000452 e0fc                 BCR 0x3, 0x6
00000453 fd05                 CLRR 0x7a
00000454 ffef                 RET
00000455                      __mulchar:
00000455 e0fc                 BCR 0x3, 0x6
00000456 ff24                 MOVAR 0x5b
00000457 feb0                 MOVR 0x4f, 0x0
00000458 ff23                 MOVAR 0x5c
00000459 fd22                 CLRR 0x5d
0000045a def7                 MOVIA 0x8
0000045b ff21                 MOVAR 0x5e
0000045c                      _mulchar.o:_00119_DS_:
0000045c e0fc                 BCR 0x3, 0x6
0000045d f7a4                 BTRSS 0x5b, 0x0
0000045e c39e                 LGOTO 0x461; _mulchar.o:_00114_DS_=0x461
0000045f fea3                 MOVR 0x5c, 0x0
00000460 fc22                 ADDAR 0x5d, 0x1
00000461                      _mulchar.o:_00114_DS_:
00000461 e3fc                 BCR 0x3, 0x0
00000462 e0fc                 BCR 0x3, 0x6
00000463 ec24                 RRR 0x5b, 0x1
00000464 e3fc                 BCR 0x3, 0x0
00000465 eb23                 RLR 0x5c, 0x1
00000466 f9a1                 DECR 0x5e, 0x0
00000467 ff20                 MOVAR 0x5f
00000468 ff21                 MOVAR 0x5e
00000469 fea0                 MOVR 0x5f, 0x0
0000046a f6fc                 BTRSS 0x3, 0x2
0000046b c3a3                 LGOTO 0x45c; _mulchar.o:_00119_DS_=0x45c
0000046c fea2                 MOVR 0x5d, 0x0
0000046d ffef                 RET
0000046e                      __divuchar:
0000046e e0fc                 BCR 0x3, 0x6
0000046f ff1f                 MOVAR 0x60
00000470 feb0                 MOVR 0x4f, 0x0
00000471 ff1e                 MOVAR 0x61
00000472 fd1d                 CLRR 0x62
00000473 defe                 MOVIA 0x1
00000474 ff1c                 MOVAR 0x63
00000475 fe9e                 MOVR 0x61, 0x0
00000476 f6fc                 BTRSS 0x3, 0x2
00000477 c385                 LGOTO 0x47a; _divuchar.o:_00107_DS_=0x47a
00000478 de00                 MOVIA 0xff
00000479 c369                 LGOTO 0x496; _divuchar.o:_00115_DS_=0x496
0000047a                      _divuchar.o:_00107_DS_:
0000047a e0fc                 BCR 0x3, 0x6
0000047b f01e                 BTRSC 0x61, 0x7
0000047c c37d                 LGOTO 0x482; _divuchar.o:_00112_DS_=0x482
0000047d e3fc                 BCR 0x3, 0x0
0000047e eb1e                 RLR 0x61, 0x1
0000047f e3fc                 BCR 0x3, 0x0
00000480 eb1c                 RLR 0x63, 0x1
00000481 c385                 LGOTO 0x47a; _divuchar.o:_00107_DS_=0x47a
00000482                      _divuchar.o:_00112_DS_:
00000482 e0fc                 BCR 0x3, 0x6
00000483 fe9c                 MOVR 0x63, 0x0
00000484 f2fc                 BTRSC 0x3, 0x2
00000485 c36b                 LGOTO 0x494; _divuchar.o:_00114_DS_=0x494
00000486 fe9e                 MOVR 0x61, 0x0
00000487 fb9f                 SUBAR 0x60, 0x0
00000488 f7fc                 BTRSS 0x3, 0x0
00000489 c371                 LGOTO 0x48e; _divuchar.o:_00111_DS_=0x48e
0000048a fe9c                 MOVR 0x63, 0x0
0000048b fc1d                 ADDAR 0x62, 0x1
0000048c fe9e                 MOVR 0x61, 0x0
0000048d fb1f                 SUBAR 0x60, 0x1
0000048e                      _divuchar.o:_00111_DS_:
0000048e e3fc                 BCR 0x3, 0x0
0000048f e0fc                 BCR 0x3, 0x6
00000490 ec1e                 RRR 0x61, 0x1
00000491 e3fc                 BCR 0x3, 0x0
00000492 ec1c                 RRR 0x63, 0x1
00000493 c37d                 LGOTO 0x482; _divuchar.o:_00112_DS_=0x482
00000494                      _divuchar.o:_00114_DS_:
00000494 e0fc                 BCR 0x3, 0x6
00000495 fe9d                 MOVR 0x62, 0x0
00000496                      _divuchar.o:_00115_DS_:
00000496 ffef                 RET
00000497                      __mulint:
00000497 e0fc                 BCR 0x3, 0x6
00000498 ff1a                 MOVAR 0x65
00000499 feb0                 MOVR 0x4f, 0x0
0000049a ff1b                 MOVAR 0x64
0000049b feb1                 MOVR 0x4e, 0x0
0000049c ff18                 MOVAR 0x67
0000049d feb2                 MOVR 0x4d, 0x0
0000049e ff19                 MOVAR 0x66
0000049f fd17                 CLRR 0x68
000004a0 fd16                 CLRR 0x69
000004a1 def7                 MOVIA 0x8
000004a2 ff15                 MOVAR 0x6a
000004a3                      _mulint.o:_00119_DS_:
000004a3 e0fc                 BCR 0x3, 0x6
000004a4 f79b                 BTRSS 0x64, 0x0
000004a5 c351                 LGOTO 0x4ae; _mulint.o:_00001_DS_=0x4ae
000004a6 fe99                 MOVR 0x66, 0x0
000004a7 fc17                 ADDAR 0x68, 0x1
000004a8 fe98                 MOVR 0x67, 0x0
000004a9 f3fc                 BTRSC 0x3, 0x0
000004aa fa98                 INCR 0x67, 0x0
000004ab f2fc                 BTRSC 0x3, 0x2
000004ac c351                 LGOTO 0x4ae; _mulint.o:_00001_DS_=0x4ae
000004ad fc16                 ADDAR 0x69, 0x1
000004ae                      _mulint.o:_00001_DS_:
000004ae e0fc                 BCR 0x3, 0x6
000004af f79a                 BTRSS 0x65, 0x0
000004b0 c343                 LGOTO 0x4bc; _mulint.o:_00002_DS_=0x4bc
000004b1 fe99                 MOVR 0x66, 0x0
000004b2 fd14                 CLRR 0x6b
000004b3 deff                 MOVIA 0x0
000004b4 fc17                 ADDAR 0x68, 0x1
000004b5 fe99                 MOVR 0x66, 0x0
000004b6 ff13                 MOVAR 0x6c
000004b7 f3fc                 BTRSC 0x3, 0x0
000004b8 fa93                 INCR 0x6c, 0x0
000004b9 f2fc                 BTRSC 0x3, 0x2
000004ba c343                 LGOTO 0x4bc; _mulint.o:_00002_DS_=0x4bc
000004bb fc16                 ADDAR 0x69, 0x1
000004bc                      _mulint.o:_00002_DS_:
000004bc e0fc                 BCR 0x3, 0x6
000004bd fe9b                 MOVR 0x64, 0x0
000004be ff14                 MOVAR 0x6b
000004bf fe9a                 MOVR 0x65, 0x0
000004c0 ff13                 MOVAR 0x6c
000004c1 e3fc                 BCR 0x3, 0x0
000004c2 ec93                 RRR 0x6c, 0x0
000004c3 ff1a                 MOVAR 0x65
000004c4 ec94                 RRR 0x6b, 0x0
000004c5 ff1b                 MOVAR 0x64
000004c6 e3fc                 BCR 0x3, 0x0
000004c7 eb19                 RLR 0x66, 0x1
000004c8 eb18                 RLR 0x67, 0x1
000004c9 f995                 DECR 0x6a, 0x0
000004ca ff14                 MOVAR 0x6b
000004cb ff15                 MOVAR 0x6a
000004cc fe94                 MOVR 0x6b, 0x0
000004cd f6fc                 BTRSS 0x3, 0x2
000004ce c35c                 LGOTO 0x4a3; _mulint.o:_00119_DS_=0x4a3
000004cf fe97                 MOVR 0x68, 0x0
000004d0 ff30                 MOVAR 0x4f
000004d1 fe96                 MOVR 0x69, 0x0
000004d2 ffef                 RET
000004d3                      __moduint:
000004d3 e0fc                 BCR 0x3, 0x6
000004d4 ff11                 MOVAR 0x6e
000004d5 feb0                 MOVR 0x4f, 0x0
000004d6 ff12                 MOVAR 0x6d
000004d7 feb1                 MOVR 0x4e, 0x0
000004d8 ff0f                 MOVAR 0x70
000004d9 feb2                 MOVR 0x4d, 0x0
000004da ff10                 MOVAR 0x6f
000004db ee8f                 IORAR 0x70, 0x0
000004dc f6fc                 BTRSS 0x3, 0x2
000004dd c31e                 LGOTO 0x4e1; _moduint.o:_00119_DS_=0x4e1
000004de de00                 MOVIA 0xff
000004df ff30                 MOVAR 0x4f
000004e0 c2f4                 LGOTO 0x50b; _moduint.o:_00115_DS_=0x50b
000004e1                      _moduint.o:_00119_DS_:
000004e1 defe                 MOVIA 0x1
000004e2 e0fc                 BCR 0x3, 0x6
000004e3 ff0e                 MOVAR 0x71
000004e4                      _moduint.o:_00107_DS_:
000004e4 e0fc                 BCR 0x3, 0x6
000004e5 f00f                 BTRSC 0x70, 0x7
000004e6 c313                 LGOTO 0x4ec; _moduint.o:_00112_DS_=0x4ec
000004e7 e3fc                 BCR 0x3, 0x0
000004e8 eb10                 RLR 0x6f, 0x1
000004e9 eb0f                 RLR 0x70, 0x1
000004ea fa0e                 INCR 0x71, 0x1
000004eb c31b                 LGOTO 0x4e4; _moduint.o:_00107_DS_=0x4e4
000004ec                      _moduint.o:_00112_DS_:
000004ec e0fc                 BCR 0x3, 0x6
000004ed fe8e                 MOVR 0x71, 0x0
000004ee f2fc                 BTRSC 0x3, 0x2
000004ef c2f8                 LGOTO 0x507; _moduint.o:_00114_DS_=0x507
000004f0 fe8f                 MOVR 0x70, 0x0
000004f1 fb91                 SUBAR 0x6e, 0x0
000004f2 f6fc                 BTRSS 0x3, 0x2
000004f3 c309                 LGOTO 0x4f6; _moduint.o:_00137_DS_=0x4f6
000004f4 fe90                 MOVR 0x6f, 0x0
000004f5 fb92                 SUBAR 0x6d, 0x0
000004f6                      _moduint.o:_00137_DS_:
000004f6 f7fc                 BTRSS 0x3, 0x0
000004f7 c2fe                 LGOTO 0x501; _moduint.o:_00001_DS_=0x501
000004f8 e0fc                 BCR 0x3, 0x6
000004f9 fe90                 MOVR 0x6f, 0x0
000004fa fb12                 SUBAR 0x6d, 0x1
000004fb fe8f                 MOVR 0x70, 0x0
000004fc f7fc                 BTRSS 0x3, 0x0
000004fd fa8f                 INCR 0x70, 0x0
000004fe f2fc                 BTRSC 0x3, 0x2
000004ff c2fe                 LGOTO 0x501; _moduint.o:_00001_DS_=0x501
00000500 fb11                 SUBAR 0x6e, 0x1
00000501                      _moduint.o:_00001_DS_:
00000501 e3fc                 BCR 0x3, 0x0
00000502 e0fc                 BCR 0x3, 0x6
00000503 ec0f                 RRR 0x70, 0x1
00000504 ec10                 RRR 0x6f, 0x1
00000505 f90e                 DECR 0x71, 0x1
00000506 c313                 LGOTO 0x4ec; _moduint.o:_00112_DS_=0x4ec
00000507                      _moduint.o:_00114_DS_:
00000507 e0fc                 BCR 0x3, 0x6
00000508 fe92                 MOVR 0x6d, 0x0
00000509 ff30                 MOVAR 0x4f
0000050a fe91                 MOVR 0x6e, 0x0
0000050b                      _moduint.o:_00115_DS_:
0000050b ffef                 RET
0000050c                      __gptrget:
0000050c dbff                 XORIA 0x0
0000050d f2fc                 BTRSC 0x3, 0x2
0000050e c2ec                 LGOTO 0x513; _gptrget1.o:__dataptrget1=0x513
0000050f db7f                 XORIA 0x80
00000510 f2fc                 BTRSC 0x3, 0x2
00000511 c2e5                 LGOTO 0x51a; __codeptrget1=0x51a
00000512 dfff                 RETIA 0x0
00000513                      _gptrget1.o:__dataptrget1:
00000513 feb1                 MOVR 0x4e, 0x0
00000514 ff7b                 MOVAR 0x4
00000515 e0fc                 BCR 0x3, 0x6
00000516 f031                 BTRSC 0x4e, 0x7
00000517 e4fc                 BSR 0x3, 0x6
00000518 feff                 MOVR 0x0, 0x0
00000519 ffef                 RET
0000051a                      __codeptrget1:
0000051a feb0                 MOVR 0x4f, 0x0
0000051b ffb8                 SFUN 0x7
0000051c feb1                 MOVR 0x4e, 0x0
0000051d fdee                 TABLEA
0000051e ffef                 RET
0000051f                      __gptrput:
0000051f dbff                 XORIA 0x0
00000520 f2fc                 BTRSC 0x3, 0x2
00000521 c2dc                 LGOTO 0x523; _gptrput1.o:__dataptrput1=0x523
00000522 ffef                 RET
00000523                      _gptrput1.o:__dataptrput1:
00000523 feb1                 MOVR 0x4e, 0x0
00000524 ff7b                 MOVAR 0x4
00000525 e0fc                 BCR 0x3, 0x6
00000526 f031                 BTRSC 0x4e, 0x7
00000527 e4fc                 BSR 0x3, 0x6
00000528 feb2                 MOVR 0x4d, 0x0
00000529 ff7f                 MOVAR 0x0
0000052a ffef                 RET
0000052b                      ___cinit_load__:
