00000000 c7f6                 LGOTO 0x9; crt0.o:initial_ram_bss=0x9
00000001                      _work10:
00000001 e0fc                 BCR 0x3, 0x6
00000002 fe82                 MOVR 0x7d, 0x0
00000003 d462                 LCALL 0x39d; _setColor=0x39d
00000004 ffef                 RET
00000008 c7e2                 LGOTO 0x1d; main.o:__sdcc_interrupt=0x1d
00000009                      crt0.o:initial_ram_bss:
00000009 e0fc                 BCR 0x3, 0x6
0000000a e07c                 BCR 0x3, 0x7
0000000b dedf                 MOVIA 0x20
0000000c ff7b                 MOVAR 0x4
0000000d de7f                 MOVIA 0x80
0000000e d7e8                 LCALL 0x17; crt0.o:startup_exit=0x17
0000000f e4fc                 BSR 0x3, 0x6
00000010 e07c                 BCR 0x3, 0x7
00000011 dedf                 MOVIA 0x20
00000012 ff7b                 MOVAR 0x4
00000013 de7f                 MOVIA 0x80
00000014 d7e8                 LCALL 0x17; crt0.o:startup_exit=0x17
00000015                      crt0.o:initial_ram_cinit:
00000015 d241                 LCALL 0x5be; ___cinit_load__=0x5be
00000016 c6e6                 LGOTO 0x119; _main=0x119
00000017                      crt0.o:startup_exit:
00000017 fd7f                 CLRR 0x0
00000018 fa7b                 INCR 0x4, 0x1
00000019 c97b                 CMPAR 0x4
0000001a f6fc                 BTRSS 0x3, 0x2
0000001b c7e8                 LGOTO 0x17; crt0.o:startup_exit=0x17
0000001c ffef                 RET
0000001d                      main.o:__sdcc_interrupt:
0000001d ff3d                 MOVAR 0x42
0000001e eafc                 SWAPR 0x3, 0x0
0000001f fd7c                 CLRR 0x3
00000020 ff3e                 MOVAR 0x41
00000021 fef5                 MOVR 0xa, 0x0
00000022 fd75                 CLRR 0xa
00000023 ff3f                 MOVAR 0x40
00000024 fefb                 MOVR 0x4, 0x0
00000025 e0fc                 BCR 0x3, 0x6
00000026 ff0f                 MOVAR 0x70
00000027 feb0                 MOVR 0x4f, 0x0
00000028 ff0e                 MOVAR 0x71
00000029 feb1                 MOVR 0x4e, 0x0
0000002a ff0d                 MOVAR 0x72
0000002b f7f0                 BTRSS 0xf, 0x0
0000002c c709                 LGOTO 0xf6; main.o:_00137_DS_=0xf6
0000002d debe                 MOVIA 0x41
0000002e fc7e                 ADDAR 0x1, 0x1
0000002f fa09                 INCR 0x76, 0x1
00000030 fe89                 MOVR 0x76, 0x0
00000031 dbcd                 XORIA 0x32
00000032 f6fc                 BTRSS 0x3, 0x2
00000033 c709                 LGOTO 0xf6; main.o:_00137_DS_=0xf6
00000034 fd09                 CLRR 0x76
00000035 defe                 MOVIA 0x1
00000036 ff08                 MOVAR 0x77
00000037 deeb                 MOVIA 0x14
00000038 fb84                 SUBAR 0x7b, 0x0
00000039 f3fc                 BTRSC 0x3, 0x0
0000003a c76a                 LGOTO 0x95; main.o:_00120_DS_=0x95
0000003b fa04                 INCR 0x7b, 0x1
0000003c fe84                 MOVR 0x7b, 0x0
0000003d dbeb                 XORIA 0x14
0000003e f6fc                 BTRSS 0x3, 0x2
0000003f                      ___cinit_size__:
0000003f c76a                 LGOTO 0x95; main.o:_00120_DS_=0x95
00000040 fd05                 CLRR 0x7a
00000041 fedb                 MOVR 0x24, 0x0
00000042 ff5a                 MOVAR 0x25
00000043 db40                 XORIA 0xbf
00000044 f6fc                 BTRSS 0x3, 0x2
00000045 c789                 LGOTO 0x76; main.o:_00108_DS_=0x76
00000046 fede                 MOVR 0x21, 0x0
00000047 ff5a                 MOVAR 0x25
00000048 dbfc                 XORIA 0x3
00000049 f6fc                 BTRSS 0x3, 0x2
0000004a c789                 LGOTO 0x76; main.o:_00108_DS_=0x76
0000004b feda                 MOVR 0x25, 0x0
0000004c ff59                 MOVAR 0x26
0000004d fd58                 CLRR 0x27
0000004e fedd                 MOVR 0x22, 0x0
0000004f ff5a                 MOVAR 0x25
00000050 ff57                 MOVAR 0x28
00000051 fd56                 CLRR 0x29
00000052 fed7                 MOVR 0x28, 0x0
00000053 fc59                 ADDAR 0x26, 0x1
00000054 deff                 MOVIA 0x0
00000055 f7fc                 BTRSS 0x3, 0x0
00000056 c7a5                 LGOTO 0x5a; main.o:_00011_DS_=0x5a
00000057 fad6                 INCR 0x29, 0x0
00000058 f2fc                 BTRSC 0x3, 0x2
00000059 c7a3                 LGOTO 0x5c; main.o:_00012_DS_=0x5c
0000005a                      main.o:_00011_DS_:
0000005a e0fc                 BCR 0x3, 0x6
0000005b fc58                 ADDAR 0x27, 0x1
0000005c                      main.o:_00012_DS_:
0000005c e0fc                 BCR 0x3, 0x6
0000005d fedc                 MOVR 0x23, 0x0
0000005e ff57                 MOVAR 0x28
0000005f ff56                 MOVAR 0x29
00000060 fd55                 CLRR 0x2a
00000061 fed6                 MOVR 0x29, 0x0
00000062 edd9                 XORAR 0x26, 0x0
00000063 f6fc                 BTRSS 0x3, 0x2
00000064 c789                 LGOTO 0x76; main.o:_00108_DS_=0x76
00000065 fed5                 MOVR 0x2a, 0x0
00000066 edd8                 XORAR 0x27, 0x0
00000067 f6fc                 BTRSS 0x3, 0x2
00000068 c789                 LGOTO 0x76; main.o:_00108_DS_=0x76
00000069 feda                 MOVR 0x25, 0x0
0000006a ff03                 MOVAR 0x7c
0000006b defe                 MOVIA 0x1
0000006c ff02                 MOVAR 0x7d
0000006d fe83                 MOVR 0x7c, 0x0
0000006e dbf6                 XORIA 0x9
0000006f f6fc                 BTRSS 0x3, 0x2
00000070 c78c                 LGOTO 0x73; main.o:_00106_DS_=0x73
00000071 defe                 MOVIA 0x1
00000072 d462                 LCALL 0x39d; _setColor=0x39d
00000073                      main.o:_00106_DS_:
00000073 e0fc                 BCR 0x3, 0x6
00000074 fd01                 CLRR 0x7e
00000075 fd00                 CLRR 0x7f
00000076                      main.o:_00108_DS_:
00000076 e4fc                 BSR 0x3, 0x6
00000077 fedf                 MOVR 0x20, 0x0
00000078 f2fc                 BTRSC 0x3, 0x2
00000079 c76a                 LGOTO 0x95; main.o:_00120_DS_=0x95
0000007a defe                 MOVIA 0x1
0000007b e0fc                 BCR 0x3, 0x6
0000007c ff0c                 MOVAR 0x73
0000007d fd0b                 CLRR 0x74
0000007e fd06                 CLRR 0x79
0000007f defe                 MOVIA 0x1
00000080 ff02                 MOVAR 0x7d
00000081 fd01                 CLRR 0x7e
00000082 fd00                 CLRR 0x7f
00000083 e4fc                 BSR 0x3, 0x6
00000084 e85f                 DECRSZ 0x20, 0x1
00000085 c776                 LGOTO 0x89; main.o:_00112_DS_=0x89
00000086 e0fc                 BCR 0x3, 0x6
00000087 fedd                 MOVR 0x22, 0x0
00000088 ff03                 MOVAR 0x7c
00000089                      main.o:_00112_DS_:
00000089 e0fc                 BCR 0x3, 0x6
0000008a fd5b                 CLRR 0x24
0000008b fd5c                 CLRR 0x23
0000008c fd5d                 CLRR 0x22
0000008d fd5e                 CLRR 0x21
0000008e fd5f                 CLRR 0x20
0000008f fe83                 MOVR 0x7c, 0x0
00000090 dbf6                 XORIA 0x9
00000091 f6fc                 BTRSS 0x3, 0x2
00000092 c76a                 LGOTO 0x95; main.o:_00120_DS_=0x95
00000093 fe82                 MOVR 0x7d, 0x0
00000094 d462                 LCALL 0x39d; _setColor=0x39d
00000095                      main.o:_00120_DS_:
00000095 e0fc                 BCR 0x3, 0x6
00000096 fa01                 INCR 0x7e, 0x1
00000097 f2fc                 BTRSC 0x3, 0x2
00000098 fa00                 INCR 0x7f, 0x1
00000099 defc                 MOVIA 0x3
0000009a fb80                 SUBAR 0x7f, 0x0
0000009b f6fc                 BTRSS 0x3, 0x2
0000009c c760                 LGOTO 0x9f; main.o:_00217_DS_=0x9f
0000009d de17                 MOVIA 0xe8
0000009e fb81                 SUBAR 0x7e, 0x0
0000009f                      main.o:_00217_DS_:
0000009f f7fc                 BTRSS 0x3, 0x0
000000a0 c744                 LGOTO 0xbb; main.o:_00127_DS_=0xbb
000000a1 e0fc                 BCR 0x3, 0x6
000000a2 fd01                 CLRR 0x7e
000000a3 fd00                 CLRR 0x7f
000000a4 fd5a                 CLRR 0x25
000000a5 fe83                 MOVR 0x7c, 0x0
000000a6 dbf6                 XORIA 0x9
000000a7 f6fc                 BTRSS 0x3, 0x2
000000a8 c755                 LGOTO 0xaa; main.o:_00013_DS_=0xaa
000000a9 fa5a                 INCR 0x25, 0x1
000000aa                      main.o:_00013_DS_:
000000aa e0fc                 BCR 0x3, 0x6
000000ab feda                 MOVR 0x25, 0x0
000000ac f2fc                 BTRSC 0x3, 0x2
000000ad c74a                 LGOTO 0xb5; main.o:_00122_DS_=0xb5
000000ae fa02                 INCR 0x7d, 0x1
000000af def6                 MOVIA 0x9
000000b0 fb82                 SUBAR 0x7d, 0x0
000000b1 f7fc                 BTRSS 0x3, 0x0
000000b2 c74a                 LGOTO 0xb5; main.o:_00122_DS_=0xb5
000000b3 defe                 MOVIA 0x1
000000b4 ff02                 MOVAR 0x7d
000000b5                      main.o:_00122_DS_:
000000b5 e0fc                 BCR 0x3, 0x6
000000b6 feda                 MOVR 0x25, 0x0
000000b7 f2fc                 BTRSC 0x3, 0x2
000000b8 c744                 LGOTO 0xbb; main.o:_00127_DS_=0xbb
000000b9 fe82                 MOVR 0x7d, 0x0
000000ba d462                 LCALL 0x39d; _setColor=0x39d
000000bb                      main.o:_00127_DS_:
000000bb e0fc                 BCR 0x3, 0x6
000000bc fe83                 MOVR 0x7c, 0x0
000000bd dbf5                 XORIA 0xa
000000be f6fc                 BTRSS 0x3, 0x2
000000bf c709                 LGOTO 0xf6; main.o:_00137_DS_=0xf6
000000c0 de37                 MOVIA 0xc8
000000c1 ff32                 MOVAR 0x4d
000000c2 deff                 MOVIA 0x0
000000c3 ff31                 MOVAR 0x4e
000000c4 fe81                 MOVR 0x7e, 0x0
000000c5 ff30                 MOVAR 0x4f
000000c6 fe80                 MOVR 0x7f, 0x0
000000c7 d286                 LCALL 0x579; __moduint=0x579
000000c8 e0fc                 BCR 0x3, 0x6
000000c9 ff59                 MOVAR 0x26
000000ca feb0                 MOVR 0x4f, 0x0
000000cb ff5a                 MOVAR 0x25
000000cc eed9                 IORAR 0x26, 0x0
000000cd f6fc                 BTRSS 0x3, 0x2
000000ce c709                 LGOTO 0xf6; main.o:_00137_DS_=0xf6
000000cf defc                 MOVIA 0x3
000000d0 e4fc                 BSR 0x3, 0x6
000000d1 fcde                 ADDAR 0x21, 0x0
000000d2 e0fc                 BCR 0x3, 0x6
000000d3 ff5a                 MOVAR 0x25
000000d4 d3bd                 LCALL 0x442; _rankNub=0x442
000000d5 e0fc                 BCR 0x3, 0x6
000000d6 fe82                 MOVR 0x7d, 0x0
000000d7 e4fc                 BSR 0x3, 0x6
000000d8 ff5c                 MOVAR 0x23
000000d9                      main.o:_00128_DS_:
000000d9 def8                 MOVIA 0x7
000000da e4fc                 BSR 0x3, 0x6
000000db efde                 ANDAR 0x21, 0x0
000000dc e0fc                 BCR 0x3, 0x6
000000dd ff5a                 MOVAR 0x25
000000de fada                 INCR 0x25, 0x0
000000df ff02                 MOVAR 0x7d
000000e0 defc                 MOVIA 0x3
000000e1 e4fc                 BSR 0x3, 0x6
000000e2 fcde                 ADDAR 0x21, 0x0
000000e3 e0fc                 BCR 0x3, 0x6
000000e4 ff5a                 MOVAR 0x25
000000e5 d3bd                 LCALL 0x442; _rankNub=0x442
000000e6 defc                 MOVIA 0x3
000000e7 e4fc                 BSR 0x3, 0x6
000000e8 fc5d                 ADDAR 0x22, 0x1
000000e9 fffd                 CLRWDT
000000ea e0fc                 BCR 0x3, 0x6
000000eb fe82                 MOVR 0x7d, 0x0
000000ec e4fc                 BSR 0x3, 0x6
000000ed eddc                 XORAR 0x23, 0x0
000000ee f2fc                 BTRSC 0x3, 0x2
000000ef c726                 LGOTO 0xd9; main.o:_00128_DS_=0xd9
000000f0 defc                 MOVIA 0x3
000000f1 ff30                 MOVAR 0x4f
000000f2 fede                 MOVR 0x21, 0x0
000000f3 d335                 LCALL 0x4ca; __divuchar=0x4ca
000000f4 e4fc                 BSR 0x3, 0x6
000000f5 ff5e                 MOVAR 0x21
000000f6                      main.o:_00137_DS_:
000000f6 f670                 BTRSS 0xf, 0x3
000000f7 c702                 LGOTO 0xfd; main.o:_00139_DS_=0xfd
000000f8 de08                 MOVIA 0xf7
000000f9 ff70                 MOVAR 0xf
000000fa defe                 MOVIA 0x1
000000fb e0fc                 BCR 0x3, 0x6
000000fc ff0c                 MOVAR 0x73
000000fd                      main.o:_00139_DS_:
000000fd f770                 BTRSS 0xf, 0x1
000000fe c6f6                 LGOTO 0x109; main.o:_00144_DS_=0x109
000000ff de02                 MOVIA 0xfd
00000100 ff70                 MOVAR 0xf
00000101 e0fc                 BCR 0x3, 0x6
00000102 fe8b                 MOVR 0x74, 0x0
00000103 f6fc                 BTRSS 0x3, 0x2
00000104 c6f6                 LGOTO 0x109; main.o:_00144_DS_=0x109
00000105 f2fa                 BTRSC 0x5, 0x2
00000106 c6f6                 LGOTO 0x109; main.o:_00144_DS_=0x109
00000107 defe                 MOVIA 0x1
00000108 ff07                 MOVAR 0x78
00000109                      main.o:_00144_DS_:
00000109 fd70                 CLRR 0xf
0000010a e0fc                 BCR 0x3, 0x6
0000010b fe8d                 MOVR 0x72, 0x0
0000010c ff31                 MOVAR 0x4e
0000010d fe8e                 MOVR 0x71, 0x0
0000010e ff30                 MOVAR 0x4f
0000010f fe8f                 MOVR 0x70, 0x0
00000110 ff7b                 MOVAR 0x4
00000111 febf                 MOVR 0x40, 0x0
00000112 ff75                 MOVAR 0xa
00000113 fd7c                 CLRR 0x3
00000114 eabe                 SWAPR 0x41, 0x0
00000115 ff7c                 MOVAR 0x3
00000116 ea3d                 SWAPR 0x42, 0x1
00000117 eabd                 SWAPR 0x42, 0x0
00000118                      main.o:END_OF_INTERRUPT:
00000118 ffee                 RETIE
00000119                      _main:
00000119 e0fc                 BCR 0x3, 0x6
0000011a fd7a                 CLRR 0x5
0000011b de24                 MOVIA 0xdb
0000011c fff6                 IOST 0x9
0000011d dedb                 MOVIA 0x24
0000011e fffa                 IOST 0x5
0000011f defe                 MOVIA 0x1
00000120 fff9                 IOST 0x6
00000121 fd7a                 CLRR 0x5
00000122 de57                 MOVIA 0xa8
00000123 ff77                 MOVAR 0x8
00000124 de00                 MOVIA 0xff
00000125 ff74                 MOVAR 0xb
00000126 fdff                 CLRA
00000127 fff0                 IOST 0xf
00000128 dec8                 MOVIA 0x37
00000129 ff7e                 MOVAR 0x1
0000012a defe                 MOVIA 0x1
0000012b fffc                 T0MD
0000012c def4                 MOVIA 0xb
0000012d ff71                 MOVAR 0xe
0000012e deee                 MOVIA 0x11
0000012f fff0                 IOST 0xf
00000130 fd66                 CLRR 0x19
00000131 de97                 MOVIA 0x68
00000132 ffbf                 SFUN 0x0
00000133 defd                 MOVIA 0x2
00000134 ffbd                 SFUN 0x2
00000135 defc                 MOVIA 0x3
00000136 ffbe                 SFUN 0x1
00000137 fffb                 ENI
00000138 fd03                 CLRR 0x7c
00000139                      main.o:_00244_DS_:
00000139 fffd                 CLRWDT
0000013a d37c                 LCALL 0x483; _revData=0x483
0000013b e4fc                 BSR 0x3, 0x6
0000013c fa5d                 INCR 0x22, 0x1
0000013d e0fc                 BCR 0x3, 0x6
0000013e fe88                 MOVR 0x77, 0x0
0000013f f2fc                 BTRSC 0x3, 0x2
00000140 c6c6                 LGOTO 0x139; main.o:_00244_DS_=0x139
00000141 fd08                 CLRR 0x77
00000142 fe87                 MOVR 0x78, 0x0
00000143 f2fc                 BTRSC 0x3, 0x2
00000144 d404                 LCALL 0x3fb; _workCtr=0x3fb
00000145 e0fc                 BCR 0x3, 0x6
00000146 fe83                 MOVR 0x7c, 0x0
00000147 f2fc                 BTRSC 0x3, 0x2
00000148 c6b2                 LGOTO 0x14d; main.o:_00240_DS_=0x14d
00000149 def4                 MOVIA 0xb
0000014a fb83                 SUBAR 0x7c, 0x0
0000014b f7fc                 BTRSS 0x3, 0x0
0000014c c6c6                 LGOTO 0x139; main.o:_00244_DS_=0x139
0000014d                      main.o:_00240_DS_:
0000014d deff                 MOVIA 0x0
0000014e d462                 LCALL 0x39d; _setColor=0x39d
0000014f e0fc                 BCR 0x3, 0x6
00000150 fd03                 CLRR 0x7c
00000151 c6c6                 LGOTO 0x139; main.o:_00244_DS_=0x139
00000152 ffef                 RET
00000153                      _sendtoLast:
00000153 e4fc                 BSR 0x3, 0x6
00000154 ff55                 MOVAR 0x2a
00000155 e0fc                 BCR 0x3, 0x6
00000156 ff43                 MOVAR 0x3c
00000157 feb0                 MOVR 0x4f, 0x0
00000158 e4fc                 BSR 0x3, 0x6
00000159 ff54                 MOVAR 0x2b
0000015a e0fc                 BCR 0x3, 0x6
0000015b ff42                 MOVAR 0x3d
0000015c feb1                 MOVR 0x4e, 0x0
0000015d e4fc                 BSR 0x3, 0x6
0000015e ff53                 MOVAR 0x2c
0000015f e0fc                 BCR 0x3, 0x6
00000160 ff41                 MOVAR 0x3e
00000161 fe83                 MOVR 0x7c, 0x0
00000162 dbf6                 XORIA 0x9
00000163 f6fc                 BTRSS 0x3, 0x2
00000164 c685                 LGOTO 0x17a; main.o:_00672_DS_=0x17a
00000165 fe82                 MOVR 0x7d, 0x0
00000166 e4fc                 BSR 0x3, 0x6
00000167 edd9                 XORAR 0x26, 0x0
00000168 f2fc                 BTRSC 0x3, 0x2
00000169 c685                 LGOTO 0x17a; main.o:_00672_DS_=0x17a
0000016a e0fc                 BCR 0x3, 0x6
0000016b fe82                 MOVR 0x7d, 0x0
0000016c e4fc                 BSR 0x3, 0x6
0000016d ff59                 MOVAR 0x26
0000016e e0fc                 BCR 0x3, 0x6
0000016f fec3                 MOVR 0x3c, 0x0
00000170 e4fc                 BSR 0x3, 0x6
00000171 ff52                 MOVAR 0x2d
00000172 e0fc                 BCR 0x3, 0x6
00000173 fec2                 MOVR 0x3d, 0x0
00000174 e4fc                 BSR 0x3, 0x6
00000175 ff51                 MOVAR 0x2e
00000176 e0fc                 BCR 0x3, 0x6
00000177 fec1                 MOVR 0x3e, 0x0
00000178 e4fc                 BSR 0x3, 0x6
00000179 ff50                 MOVAR 0x2f
0000017a                      main.o:_00672_DS_:
0000017a e0fc                 BCR 0x3, 0x6
0000017b fd40                 CLRR 0x3f
0000017c fd2f                 CLRR 0x50
0000017d                      main.o:_00664_DS_:
0000017d e0fc                 BCR 0x3, 0x6
0000017e feaf                 MOVR 0x50, 0x0
0000017f da7f                 ADDIA 0x80
00000180 da7f                 ADDIA 0x80
00000181 f6fc                 BTRSS 0x3, 0x2
00000182 c67a                 LGOTO 0x185; main.o:_00684_DS_=0x185
00000183 defb                 MOVIA 0x4
00000184 fbc0                 SUBAR 0x3f, 0x0
00000185                      main.o:_00684_DS_:
00000185 f3fc                 BTRSC 0x3, 0x0
00000186 c668                 LGOTO 0x197; main.o:_00662_DS_=0x197
00000187 e0fc                 BCR 0x3, 0x6
00000188 fec1                 MOVR 0x3e, 0x0
00000189 ff31                 MOVAR 0x4e
0000018a fec2                 MOVR 0x3d, 0x0
0000018b ff30                 MOVAR 0x4f
0000018c fec3                 MOVR 0x3c, 0x0
0000018d d666                 LCALL 0x199; _sendRGB=0x199
0000018e e0fc                 BCR 0x3, 0x6
0000018f fe87                 MOVR 0x78, 0x0
00000190 f6fc                 BTRSS 0x3, 0x2
00000191 c667                 LGOTO 0x198; main.o:_00666_DS_=0x198
00000192 fa40                 INCR 0x3f, 0x1
00000193 f6fc                 BTRSS 0x3, 0x2
00000194 c669                 LGOTO 0x196; main.o:_00001_DS_=0x196
00000195 fa2f                 INCR 0x50, 0x1
00000196                      main.o:_00001_DS_:
00000196 c682                 LGOTO 0x17d; main.o:_00664_DS_=0x17d
00000197                      main.o:_00662_DS_:
00000197 d53d                 LCALL 0x2c2; _Delay80us=0x2c2
00000198                      main.o:_00666_DS_:
00000198 ffef                 RET
00000199                      _sendRGB:
00000199 e4fc                 BSR 0x3, 0x6
0000019a ff58                 MOVAR 0x27
0000019b feb0                 MOVR 0x4f, 0x0
0000019c ff57                 MOVAR 0x28
0000019d feb1                 MOVR 0x4e, 0x0
0000019e ff56                 MOVAR 0x29
0000019f ffec                 DISI
000001a0 f458                 BTRSS 0x27, 0x7
000001a1 c659                 LGOTO 0x1a6; main.o:_00440_DS_=0x1a6
000001a2 e27a                 BCR 0x5, 0x3
000001a3 e27a                 BCR 0x5, 0x3
000001a4 e67a                 BSR 0x5, 0x3
000001a5 c654                 LGOTO 0x1ab; main.o:_00445_DS_=0x1ab
000001a6                      main.o:_00440_DS_:
000001a6 e27a                 BCR 0x5, 0x3
000001a7 e67a                 BSR 0x5, 0x3
000001a8 e67a                 BSR 0x5, 0x3
000001a9 ffff                 NOP
000001aa e27a                 BCR 0x5, 0x3
000001ab                      main.o:_00445_DS_:
000001ab e4fc                 BSR 0x3, 0x6
000001ac f4d8                 BTRSS 0x27, 0x6
000001ad c64d                 LGOTO 0x1b2; main.o:_00449_DS_=0x1b2
000001ae e27a                 BCR 0x5, 0x3
000001af e27a                 BCR 0x5, 0x3
000001b0 e67a                 BSR 0x5, 0x3
000001b1 c648                 LGOTO 0x1b7; main.o:_00454_DS_=0x1b7
000001b2                      main.o:_00449_DS_:
000001b2 e27a                 BCR 0x5, 0x3
000001b3 e67a                 BSR 0x5, 0x3
000001b4 e67a                 BSR 0x5, 0x3
000001b5 ffff                 NOP
000001b6 e27a                 BCR 0x5, 0x3
000001b7                      main.o:_00454_DS_:
000001b7 e4fc                 BSR 0x3, 0x6
000001b8 f558                 BTRSS 0x27, 0x5
000001b9 c641                 LGOTO 0x1be; main.o:_00458_DS_=0x1be
000001ba e27a                 BCR 0x5, 0x3
000001bb e27a                 BCR 0x5, 0x3
000001bc e67a                 BSR 0x5, 0x3
000001bd c63c                 LGOTO 0x1c3; main.o:_00463_DS_=0x1c3
000001be                      main.o:_00458_DS_:
000001be e27a                 BCR 0x5, 0x3
000001bf e67a                 BSR 0x5, 0x3
000001c0 e67a                 BSR 0x5, 0x3
000001c1 ffff                 NOP
000001c2 e27a                 BCR 0x5, 0x3
000001c3                      main.o:_00463_DS_:
000001c3 e4fc                 BSR 0x3, 0x6
000001c4 f5d8                 BTRSS 0x27, 0x4
000001c5 c635                 LGOTO 0x1ca; main.o:_00467_DS_=0x1ca
000001c6 e27a                 BCR 0x5, 0x3
000001c7 e27a                 BCR 0x5, 0x3
000001c8 e67a                 BSR 0x5, 0x3
000001c9 c630                 LGOTO 0x1cf; main.o:_00472_DS_=0x1cf
000001ca                      main.o:_00467_DS_:
000001ca e27a                 BCR 0x5, 0x3
000001cb e67a                 BSR 0x5, 0x3
000001cc e67a                 BSR 0x5, 0x3
000001cd ffff                 NOP
000001ce e27a                 BCR 0x5, 0x3
000001cf                      main.o:_00472_DS_:
000001cf e4fc                 BSR 0x3, 0x6
000001d0 f658                 BTRSS 0x27, 0x3
000001d1 c629                 LGOTO 0x1d6; main.o:_00476_DS_=0x1d6
000001d2 e27a                 BCR 0x5, 0x3
000001d3 e27a                 BCR 0x5, 0x3
000001d4 e67a                 BSR 0x5, 0x3
000001d5 c624                 LGOTO 0x1db; main.o:_00481_DS_=0x1db
000001d6                      main.o:_00476_DS_:
000001d6 e27a                 BCR 0x5, 0x3
000001d7 e67a                 BSR 0x5, 0x3
000001d8 e67a                 BSR 0x5, 0x3
000001d9 ffff                 NOP
000001da e27a                 BCR 0x5, 0x3
000001db                      main.o:_00481_DS_:
000001db e4fc                 BSR 0x3, 0x6
000001dc f6d8                 BTRSS 0x27, 0x2
000001dd c61d                 LGOTO 0x1e2; main.o:_00485_DS_=0x1e2
000001de e27a                 BCR 0x5, 0x3
000001df e27a                 BCR 0x5, 0x3
000001e0 e67a                 BSR 0x5, 0x3
000001e1 c618                 LGOTO 0x1e7; main.o:_00490_DS_=0x1e7
000001e2                      main.o:_00485_DS_:
000001e2 e27a                 BCR 0x5, 0x3
000001e3 e67a                 BSR 0x5, 0x3
000001e4 e67a                 BSR 0x5, 0x3
000001e5 ffff                 NOP
000001e6 e27a                 BCR 0x5, 0x3
000001e7                      main.o:_00490_DS_:
000001e7 e4fc                 BSR 0x3, 0x6
000001e8 f758                 BTRSS 0x27, 0x1
000001e9 c611                 LGOTO 0x1ee; main.o:_00494_DS_=0x1ee
000001ea e27a                 BCR 0x5, 0x3
000001eb e27a                 BCR 0x5, 0x3
000001ec e67a                 BSR 0x5, 0x3
000001ed c60c                 LGOTO 0x1f3; main.o:_00499_DS_=0x1f3
000001ee                      main.o:_00494_DS_:
000001ee e27a                 BCR 0x5, 0x3
000001ef e67a                 BSR 0x5, 0x3
000001f0 e67a                 BSR 0x5, 0x3
000001f1 ffff                 NOP
000001f2 e27a                 BCR 0x5, 0x3
000001f3                      main.o:_00499_DS_:
000001f3 e4fc                 BSR 0x3, 0x6
000001f4 f7d8                 BTRSS 0x27, 0x0
000001f5 c605                 LGOTO 0x1fa; main.o:_00503_DS_=0x1fa
000001f6 e27a                 BCR 0x5, 0x3
000001f7 e27a                 BCR 0x5, 0x3
000001f8 e67a                 BSR 0x5, 0x3
000001f9 c600                 LGOTO 0x1ff; main.o:_00508_DS_=0x1ff
000001fa                      main.o:_00503_DS_:
000001fa e27a                 BCR 0x5, 0x3
000001fb e67a                 BSR 0x5, 0x3
000001fc e67a                 BSR 0x5, 0x3
000001fd ffff                 NOP
000001fe e27a                 BCR 0x5, 0x3
000001ff                      main.o:_00508_DS_:
000001ff e4fc                 BSR 0x3, 0x6
00000200 f457                 BTRSS 0x28, 0x7
00000201 c5f9                 LGOTO 0x206; main.o:_00512_DS_=0x206
00000202 e27a                 BCR 0x5, 0x3
00000203 e27a                 BCR 0x5, 0x3
00000204 e67a                 BSR 0x5, 0x3
00000205 c5f4                 LGOTO 0x20b; main.o:_00517_DS_=0x20b
00000206                      main.o:_00512_DS_:
00000206 e27a                 BCR 0x5, 0x3
00000207 e67a                 BSR 0x5, 0x3
00000208 e67a                 BSR 0x5, 0x3
00000209 ffff                 NOP
0000020a e27a                 BCR 0x5, 0x3
0000020b                      main.o:_00517_DS_:
0000020b e4fc                 BSR 0x3, 0x6
0000020c f4d7                 BTRSS 0x28, 0x6
0000020d c5ed                 LGOTO 0x212; main.o:_00521_DS_=0x212
0000020e e27a                 BCR 0x5, 0x3
0000020f e27a                 BCR 0x5, 0x3
00000210 e67a                 BSR 0x5, 0x3
00000211 c5e8                 LGOTO 0x217; main.o:_00526_DS_=0x217
00000212                      main.o:_00521_DS_:
00000212 e27a                 BCR 0x5, 0x3
00000213 e67a                 BSR 0x5, 0x3
00000214 e67a                 BSR 0x5, 0x3
00000215 ffff                 NOP
00000216 e27a                 BCR 0x5, 0x3
00000217                      main.o:_00526_DS_:
00000217 e4fc                 BSR 0x3, 0x6
00000218 f557                 BTRSS 0x28, 0x5
00000219 c5e1                 LGOTO 0x21e; main.o:_00530_DS_=0x21e
0000021a e27a                 BCR 0x5, 0x3
0000021b e27a                 BCR 0x5, 0x3
0000021c e67a                 BSR 0x5, 0x3
0000021d c5dc                 LGOTO 0x223; main.o:_00535_DS_=0x223
0000021e                      main.o:_00530_DS_:
0000021e e27a                 BCR 0x5, 0x3
0000021f e67a                 BSR 0x5, 0x3
00000220 e67a                 BSR 0x5, 0x3
00000221 ffff                 NOP
00000222 e27a                 BCR 0x5, 0x3
00000223                      main.o:_00535_DS_:
00000223 e4fc                 BSR 0x3, 0x6
00000224 f5d7                 BTRSS 0x28, 0x4
00000225 c5d5                 LGOTO 0x22a; main.o:_00539_DS_=0x22a
00000226 e27a                 BCR 0x5, 0x3
00000227 e27a                 BCR 0x5, 0x3
00000228 e67a                 BSR 0x5, 0x3
00000229 c5d0                 LGOTO 0x22f; main.o:_00544_DS_=0x22f
0000022a                      main.o:_00539_DS_:
0000022a e27a                 BCR 0x5, 0x3
0000022b e67a                 BSR 0x5, 0x3
0000022c e67a                 BSR 0x5, 0x3
0000022d ffff                 NOP
0000022e e27a                 BCR 0x5, 0x3
0000022f                      main.o:_00544_DS_:
0000022f e4fc                 BSR 0x3, 0x6
00000230 f657                 BTRSS 0x28, 0x3
00000231 c5c9                 LGOTO 0x236; main.o:_00548_DS_=0x236
00000232 e27a                 BCR 0x5, 0x3
00000233 e27a                 BCR 0x5, 0x3
00000234 e67a                 BSR 0x5, 0x3
00000235 c5c4                 LGOTO 0x23b; main.o:_00553_DS_=0x23b
00000236                      main.o:_00548_DS_:
00000236 e27a                 BCR 0x5, 0x3
00000237 e67a                 BSR 0x5, 0x3
00000238 e67a                 BSR 0x5, 0x3
00000239 ffff                 NOP
0000023a e27a                 BCR 0x5, 0x3
0000023b                      main.o:_00553_DS_:
0000023b e4fc                 BSR 0x3, 0x6
0000023c f6d7                 BTRSS 0x28, 0x2
0000023d c5bd                 LGOTO 0x242; main.o:_00557_DS_=0x242
0000023e e27a                 BCR 0x5, 0x3
0000023f e27a                 BCR 0x5, 0x3
00000240 e67a                 BSR 0x5, 0x3
00000241 c5b8                 LGOTO 0x247; main.o:_00562_DS_=0x247
00000242                      main.o:_00557_DS_:
00000242 e27a                 BCR 0x5, 0x3
00000243 e67a                 BSR 0x5, 0x3
00000244 e67a                 BSR 0x5, 0x3
00000245 ffff                 NOP
00000246 e27a                 BCR 0x5, 0x3
00000247                      main.o:_00562_DS_:
00000247 e4fc                 BSR 0x3, 0x6
00000248 f757                 BTRSS 0x28, 0x1
00000249 c5b1                 LGOTO 0x24e; main.o:_00566_DS_=0x24e
0000024a e27a                 BCR 0x5, 0x3
0000024b e27a                 BCR 0x5, 0x3
0000024c e67a                 BSR 0x5, 0x3
0000024d c5ac                 LGOTO 0x253; main.o:_00571_DS_=0x253
0000024e                      main.o:_00566_DS_:
0000024e e27a                 BCR 0x5, 0x3
0000024f e67a                 BSR 0x5, 0x3
00000250 e67a                 BSR 0x5, 0x3
00000251 ffff                 NOP
00000252 e27a                 BCR 0x5, 0x3
00000253                      main.o:_00571_DS_:
00000253 e4fc                 BSR 0x3, 0x6
00000254 f7d7                 BTRSS 0x28, 0x0
00000255 c5a5                 LGOTO 0x25a; main.o:_00575_DS_=0x25a
00000256 e27a                 BCR 0x5, 0x3
00000257 e27a                 BCR 0x5, 0x3
00000258 e67a                 BSR 0x5, 0x3
00000259 c5a0                 LGOTO 0x25f; main.o:_00580_DS_=0x25f
0000025a                      main.o:_00575_DS_:
0000025a e27a                 BCR 0x5, 0x3
0000025b e67a                 BSR 0x5, 0x3
0000025c e67a                 BSR 0x5, 0x3
0000025d ffff                 NOP
0000025e e27a                 BCR 0x5, 0x3
0000025f                      main.o:_00580_DS_:
0000025f e4fc                 BSR 0x3, 0x6
00000260 f456                 BTRSS 0x29, 0x7
00000261 c599                 LGOTO 0x266; main.o:_00584_DS_=0x266
00000262 e27a                 BCR 0x5, 0x3
00000263 e27a                 BCR 0x5, 0x3
00000264 e67a                 BSR 0x5, 0x3
00000265 c594                 LGOTO 0x26b; main.o:_00589_DS_=0x26b
00000266                      main.o:_00584_DS_:
00000266 e27a                 BCR 0x5, 0x3
00000267 e67a                 BSR 0x5, 0x3
00000268 e67a                 BSR 0x5, 0x3
00000269 ffff                 NOP
0000026a e27a                 BCR 0x5, 0x3
0000026b                      main.o:_00589_DS_:
0000026b e4fc                 BSR 0x3, 0x6
0000026c f4d6                 BTRSS 0x29, 0x6
0000026d c58d                 LGOTO 0x272; main.o:_00593_DS_=0x272
0000026e e27a                 BCR 0x5, 0x3
0000026f e27a                 BCR 0x5, 0x3
00000270 e67a                 BSR 0x5, 0x3
00000271 c588                 LGOTO 0x277; main.o:_00598_DS_=0x277
00000272                      main.o:_00593_DS_:
00000272 e27a                 BCR 0x5, 0x3
00000273 e67a                 BSR 0x5, 0x3
00000274 e67a                 BSR 0x5, 0x3
00000275 ffff                 NOP
00000276 e27a                 BCR 0x5, 0x3
00000277                      main.o:_00598_DS_:
00000277 e4fc                 BSR 0x3, 0x6
00000278 f556                 BTRSS 0x29, 0x5
00000279 c581                 LGOTO 0x27e; main.o:_00602_DS_=0x27e
0000027a e27a                 BCR 0x5, 0x3
0000027b e27a                 BCR 0x5, 0x3
0000027c e67a                 BSR 0x5, 0x3
0000027d c57c                 LGOTO 0x283; main.o:_00607_DS_=0x283
0000027e                      main.o:_00602_DS_:
0000027e e27a                 BCR 0x5, 0x3
0000027f e67a                 BSR 0x5, 0x3
00000280 e67a                 BSR 0x5, 0x3
00000281 ffff                 NOP
00000282 e27a                 BCR 0x5, 0x3
00000283                      main.o:_00607_DS_:
00000283 e4fc                 BSR 0x3, 0x6
00000284 f5d6                 BTRSS 0x29, 0x4
00000285 c575                 LGOTO 0x28a; main.o:_00611_DS_=0x28a
00000286 e27a                 BCR 0x5, 0x3
00000287 e27a                 BCR 0x5, 0x3
00000288 e67a                 BSR 0x5, 0x3
00000289 c570                 LGOTO 0x28f; main.o:_00616_DS_=0x28f
0000028a                      main.o:_00611_DS_:
0000028a e27a                 BCR 0x5, 0x3
0000028b e67a                 BSR 0x5, 0x3
0000028c e67a                 BSR 0x5, 0x3
0000028d ffff                 NOP
0000028e e27a                 BCR 0x5, 0x3
0000028f                      main.o:_00616_DS_:
0000028f e4fc                 BSR 0x3, 0x6
00000290 f656                 BTRSS 0x29, 0x3
00000291 c569                 LGOTO 0x296; main.o:_00620_DS_=0x296
00000292 e27a                 BCR 0x5, 0x3
00000293 e27a                 BCR 0x5, 0x3
00000294 e67a                 BSR 0x5, 0x3
00000295 c564                 LGOTO 0x29b; main.o:_00625_DS_=0x29b
00000296                      main.o:_00620_DS_:
00000296 e27a                 BCR 0x5, 0x3
00000297 e67a                 BSR 0x5, 0x3
00000298 e67a                 BSR 0x5, 0x3
00000299 ffff                 NOP
0000029a e27a                 BCR 0x5, 0x3
0000029b                      main.o:_00625_DS_:
0000029b e4fc                 BSR 0x3, 0x6
0000029c f6d6                 BTRSS 0x29, 0x2
0000029d c55d                 LGOTO 0x2a2; main.o:_00629_DS_=0x2a2
0000029e e27a                 BCR 0x5, 0x3
0000029f e27a                 BCR 0x5, 0x3
000002a0 e67a                 BSR 0x5, 0x3
000002a1 c558                 LGOTO 0x2a7; main.o:_00634_DS_=0x2a7
000002a2                      main.o:_00629_DS_:
000002a2 e27a                 BCR 0x5, 0x3
000002a3 e67a                 BSR 0x5, 0x3
000002a4 e67a                 BSR 0x5, 0x3
000002a5 ffff                 NOP
000002a6 e27a                 BCR 0x5, 0x3
000002a7                      main.o:_00634_DS_:
000002a7 e4fc                 BSR 0x3, 0x6
000002a8 f756                 BTRSS 0x29, 0x1
000002a9 c551                 LGOTO 0x2ae; main.o:_00638_DS_=0x2ae
000002aa e27a                 BCR 0x5, 0x3
000002ab e27a                 BCR 0x5, 0x3
000002ac e67a                 BSR 0x5, 0x3
000002ad c54c                 LGOTO 0x2b3; main.o:_00643_DS_=0x2b3
000002ae                      main.o:_00638_DS_:
000002ae e27a                 BCR 0x5, 0x3
000002af e67a                 BSR 0x5, 0x3
000002b0 e67a                 BSR 0x5, 0x3
000002b1 ffff                 NOP
000002b2 e27a                 BCR 0x5, 0x3
000002b3                      main.o:_00643_DS_:
000002b3 e4fc                 BSR 0x3, 0x6
000002b4 f7d6                 BTRSS 0x29, 0x0
000002b5 c545                 LGOTO 0x2ba; main.o:_00647_DS_=0x2ba
000002b6 e27a                 BCR 0x5, 0x3
000002b7 e27a                 BCR 0x5, 0x3
000002b8 e67a                 BSR 0x5, 0x3
000002b9 c540                 LGOTO 0x2bf; main.o:_00652_DS_=0x2bf
000002ba                      main.o:_00647_DS_:
000002ba e27a                 BCR 0x5, 0x3
000002bb e67a                 BSR 0x5, 0x3
000002bc e67a                 BSR 0x5, 0x3
000002bd ffff                 NOP
000002be e27a                 BCR 0x5, 0x3
000002bf                      main.o:_00652_DS_:
000002bf e27a                 BCR 0x5, 0x3
000002c0 fffb                 ENI
000002c1 ffef                 RET
000002c2                      _Delay80us:
000002c2 e0fc                 BCR 0x3, 0x6
000002c3 fd44                 CLRR 0x3b
000002c4                      main.o:_00426_DS_:
000002c4 decd                 MOVIA 0x32
000002c5 e0fc                 BCR 0x3, 0x6
000002c6 fbc4                 SUBAR 0x3b, 0x0
000002c7 f3fc                 BTRSC 0x3, 0x0
000002c8 c531                 LGOTO 0x2ce; main.o:_00428_DS_=0x2ce
000002c9 fe87                 MOVR 0x78, 0x0
000002ca f6fc                 BTRSS 0x3, 0x2
000002cb c531                 LGOTO 0x2ce; main.o:_00428_DS_=0x2ce
000002cc fa44                 INCR 0x3b, 0x1
000002cd c53b                 LGOTO 0x2c4; main.o:_00426_DS_=0x2c4
000002ce                      main.o:_00428_DS_:
000002ce ffef                 RET
000002cf                      _breath3:
000002cf e4fc                 BSR 0x3, 0x6
000002d0 fed2                 MOVR 0x2d, 0x0
000002d1 f2fc                 BTRSC 0x3, 0x2
000002d2 c4f7                 LGOTO 0x308; main.o:_00350_DS_=0x308
000002d3 deae                 MOVIA 0x51
000002d4 fbd2                 SUBAR 0x2d, 0x0
000002d5 f7fc                 BTRSS 0x3, 0x0
000002d6 c525                 LGOTO 0x2da; main.o:_00347_DS_=0x2da
000002d7 de07                 MOVIA 0xf8
000002d8 fc52                 ADDAR 0x2d, 0x1
000002d9 c4f7                 LGOTO 0x308; main.o:_00350_DS_=0x308
000002da                      main.o:_00347_DS_:
000002da e4fc                 BSR 0x3, 0x6
000002db fed2                 MOVR 0x2d, 0x0
000002dc e0fc                 BCR 0x3, 0x6
000002dd ff49                 MOVAR 0x36
000002de fd48                 CLRR 0x37
000002df def5                 MOVIA 0xa
000002e0 fc49                 ADDAR 0x36, 0x1
000002e1 f7fc                 BTRSS 0x3, 0x0
000002e2 c51b                 LGOTO 0x2e4; main.o:_00002_DS_=0x2e4
000002e3 fa48                 INCR 0x37, 0x1
000002e4                      main.o:_00002_DS_:
000002e4 e4fc                 BSR 0x3, 0x6
000002e5 fed1                 MOVR 0x2e, 0x0
000002e6 e0fc                 BCR 0x3, 0x6
000002e7 ff47                 MOVAR 0x38
000002e8 fd46                 CLRR 0x39
000002e9 deff                 MOVIA 0x0
000002ea da7f                 ADDIA 0x80
000002eb ff45                 MOVAR 0x3a
000002ec fec8                 MOVR 0x37, 0x0
000002ed da7f                 ADDIA 0x80
000002ee fbc5                 SUBAR 0x3a, 0x0
000002ef f6fc                 BTRSS 0x3, 0x2
000002f0 c50c                 LGOTO 0x2f3; main.o:_00406_DS_=0x2f3
000002f1 fec9                 MOVR 0x36, 0x0
000002f2 fbc7                 SUBAR 0x38, 0x0
000002f3                      main.o:_00406_DS_:
000002f3 f3fc                 BTRSC 0x3, 0x0
000002f4 c4f7                 LGOTO 0x308; main.o:_00350_DS_=0x308
000002f5 e4fc                 BSR 0x3, 0x6
000002f6 fed0                 MOVR 0x2f, 0x0
000002f7 e0fc                 BCR 0x3, 0x6
000002f8 ff47                 MOVAR 0x38
000002f9 fd46                 CLRR 0x39
000002fa deff                 MOVIA 0x0
000002fb da7f                 ADDIA 0x80
000002fc ff45                 MOVAR 0x3a
000002fd fec8                 MOVR 0x37, 0x0
000002fe da7f                 ADDIA 0x80
000002ff fbc5                 SUBAR 0x3a, 0x0
00000300 f6fc                 BTRSS 0x3, 0x2
00000301 c4fb                 LGOTO 0x304; main.o:_00407_DS_=0x304
00000302 fec9                 MOVR 0x36, 0x0
00000303 fbc7                 SUBAR 0x38, 0x0
00000304                      main.o:_00407_DS_:
00000304 f3fc                 BTRSC 0x3, 0x0
00000305 c4f7                 LGOTO 0x308; main.o:_00350_DS_=0x308
00000306 e4fc                 BSR 0x3, 0x6
00000307 f952                 DECR 0x2d, 0x1
00000308                      main.o:_00350_DS_:
00000308 e4fc                 BSR 0x3, 0x6
00000309 fed1                 MOVR 0x2e, 0x0
0000030a f2fc                 BTRSC 0x3, 0x2
0000030b c4be                 LGOTO 0x341; main.o:_00358_DS_=0x341
0000030c deae                 MOVIA 0x51
0000030d fbd1                 SUBAR 0x2e, 0x0
0000030e f7fc                 BTRSS 0x3, 0x0
0000030f c4ec                 LGOTO 0x313; main.o:_00355_DS_=0x313
00000310 de07                 MOVIA 0xf8
00000311 fc51                 ADDAR 0x2e, 0x1
00000312 c4be                 LGOTO 0x341; main.o:_00358_DS_=0x341
00000313                      main.o:_00355_DS_:
00000313 e4fc                 BSR 0x3, 0x6
00000314 fed1                 MOVR 0x2e, 0x0
00000315 e0fc                 BCR 0x3, 0x6
00000316 ff49                 MOVAR 0x36
00000317 fd48                 CLRR 0x37
00000318 def5                 MOVIA 0xa
00000319 fc49                 ADDAR 0x36, 0x1
0000031a f7fc                 BTRSS 0x3, 0x0
0000031b c4e2                 LGOTO 0x31d; main.o:_00003_DS_=0x31d
0000031c fa48                 INCR 0x37, 0x1
0000031d                      main.o:_00003_DS_:
0000031d e4fc                 BSR 0x3, 0x6
0000031e fed2                 MOVR 0x2d, 0x0
0000031f e0fc                 BCR 0x3, 0x6
00000320 ff47                 MOVAR 0x38
00000321 fd46                 CLRR 0x39
00000322 deff                 MOVIA 0x0
00000323 da7f                 ADDIA 0x80
00000324 ff45                 MOVAR 0x3a
00000325 fec8                 MOVR 0x37, 0x0
00000326 da7f                 ADDIA 0x80
00000327 fbc5                 SUBAR 0x3a, 0x0
00000328 f6fc                 BTRSS 0x3, 0x2
00000329 c4d3                 LGOTO 0x32c; main.o:_00409_DS_=0x32c
0000032a fec9                 MOVR 0x36, 0x0
0000032b fbc7                 SUBAR 0x38, 0x0
0000032c                      main.o:_00409_DS_:
0000032c f3fc                 BTRSC 0x3, 0x0
0000032d c4be                 LGOTO 0x341; main.o:_00358_DS_=0x341
0000032e e4fc                 BSR 0x3, 0x6
0000032f fed0                 MOVR 0x2f, 0x0
00000330 e0fc                 BCR 0x3, 0x6
00000331 ff47                 MOVAR 0x38
00000332 fd46                 CLRR 0x39
00000333 deff                 MOVIA 0x0
00000334 da7f                 ADDIA 0x80
00000335 ff45                 MOVAR 0x3a
00000336 fec8                 MOVR 0x37, 0x0
00000337 da7f                 ADDIA 0x80
00000338 fbc5                 SUBAR 0x3a, 0x0
00000339 f6fc                 BTRSS 0x3, 0x2
0000033a c4c2                 LGOTO 0x33d; main.o:_00410_DS_=0x33d
0000033b fec9                 MOVR 0x36, 0x0
0000033c fbc7                 SUBAR 0x38, 0x0
0000033d                      main.o:_00410_DS_:
0000033d f3fc                 BTRSC 0x3, 0x0
0000033e c4be                 LGOTO 0x341; main.o:_00358_DS_=0x341
0000033f e4fc                 BSR 0x3, 0x6
00000340 f951                 DECR 0x2e, 0x1
00000341                      main.o:_00358_DS_:
00000341 e4fc                 BSR 0x3, 0x6
00000342 fed0                 MOVR 0x2f, 0x0
00000343 f2fc                 BTRSC 0x3, 0x2
00000344 c485                 LGOTO 0x37a; main.o:_00366_DS_=0x37a
00000345 deae                 MOVIA 0x51
00000346 fbd0                 SUBAR 0x2f, 0x0
00000347 f7fc                 BTRSS 0x3, 0x0
00000348 c4b3                 LGOTO 0x34c; main.o:_00363_DS_=0x34c
00000349 de07                 MOVIA 0xf8
0000034a fc50                 ADDAR 0x2f, 0x1
0000034b c485                 LGOTO 0x37a; main.o:_00366_DS_=0x37a
0000034c                      main.o:_00363_DS_:
0000034c e4fc                 BSR 0x3, 0x6
0000034d fed0                 MOVR 0x2f, 0x0
0000034e e0fc                 BCR 0x3, 0x6
0000034f ff49                 MOVAR 0x36
00000350 fd48                 CLRR 0x37
00000351 def5                 MOVIA 0xa
00000352 fc49                 ADDAR 0x36, 0x1
00000353 f7fc                 BTRSS 0x3, 0x0
00000354 c4a9                 LGOTO 0x356; main.o:_00004_DS_=0x356
00000355 fa48                 INCR 0x37, 0x1
00000356                      main.o:_00004_DS_:
00000356 e4fc                 BSR 0x3, 0x6
00000357 fed2                 MOVR 0x2d, 0x0
00000358 e0fc                 BCR 0x3, 0x6
00000359 ff47                 MOVAR 0x38
0000035a fd46                 CLRR 0x39
0000035b deff                 MOVIA 0x0
0000035c da7f                 ADDIA 0x80
0000035d ff45                 MOVAR 0x3a
0000035e fec8                 MOVR 0x37, 0x0
0000035f da7f                 ADDIA 0x80
00000360 fbc5                 SUBAR 0x3a, 0x0
00000361 f6fc                 BTRSS 0x3, 0x2
00000362 c49a                 LGOTO 0x365; main.o:_00412_DS_=0x365
00000363 fec9                 MOVR 0x36, 0x0
00000364 fbc7                 SUBAR 0x38, 0x0
00000365                      main.o:_00412_DS_:
00000365 f3fc                 BTRSC 0x3, 0x0
00000366 c485                 LGOTO 0x37a; main.o:_00366_DS_=0x37a
00000367 e4fc                 BSR 0x3, 0x6
00000368 fed1                 MOVR 0x2e, 0x0
00000369 e0fc                 BCR 0x3, 0x6
0000036a ff47                 MOVAR 0x38
0000036b fd46                 CLRR 0x39
0000036c deff                 MOVIA 0x0
0000036d da7f                 ADDIA 0x80
0000036e ff45                 MOVAR 0x3a
0000036f fec8                 MOVR 0x37, 0x0
00000370 da7f                 ADDIA 0x80
00000371 fbc5                 SUBAR 0x3a, 0x0
00000372 f6fc                 BTRSS 0x3, 0x2
00000373 c489                 LGOTO 0x376; main.o:_00413_DS_=0x376
00000374 fec9                 MOVR 0x36, 0x0
00000375 fbc7                 SUBAR 0x38, 0x0
00000376                      main.o:_00413_DS_:
00000376 f3fc                 BTRSC 0x3, 0x0
00000377 c485                 LGOTO 0x37a; main.o:_00366_DS_=0x37a
00000378 e4fc                 BSR 0x3, 0x6
00000379 f950                 DECR 0x2f, 0x1
0000037a                      main.o:_00366_DS_:
0000037a e4fc                 BSR 0x3, 0x6
0000037b fed0                 MOVR 0x2f, 0x0
0000037c ff31                 MOVAR 0x4e
0000037d fed1                 MOVR 0x2e, 0x0
0000037e ff30                 MOVAR 0x4f
0000037f fed2                 MOVR 0x2d, 0x0
00000380 d6ac                 LCALL 0x153; _sendtoLast=0x153
00000381 ffef                 RET
00000382                      _work9:
00000382 def5                 MOVIA 0xa
00000383 ff32                 MOVAR 0x4d
00000384 deff                 MOVIA 0x0
00000385 ff31                 MOVAR 0x4e
00000386 e0fc                 BCR 0x3, 0x6
00000387 fe81                 MOVR 0x7e, 0x0
00000388 ff30                 MOVAR 0x4f
00000389 fe80                 MOVR 0x7f, 0x0
0000038a d30c                 LCALL 0x4f3; __divuint=0x4f3
0000038b feb0                 MOVR 0x4f, 0x0
0000038c e4fc                 BSR 0x3, 0x6
0000038d ff4f                 MOVAR 0x30
0000038e eddb                 XORAR 0x24, 0x0
0000038f f2fc                 BTRSC 0x3, 0x2
00000390 c46a                 LGOTO 0x395; main.o:_00331_DS_=0x395
00000391 fecf                 MOVR 0x30, 0x0
00000392 ff5b                 MOVAR 0x24
00000393 d530                 LCALL 0x2cf; _breath3=0x2cf
00000394 c463                 LGOTO 0x39c; main.o:_00333_DS_=0x39c
00000395                      main.o:_00331_DS_:
00000395 e4fc                 BSR 0x3, 0x6
00000396 fed0                 MOVR 0x2f, 0x0
00000397 ff31                 MOVAR 0x4e
00000398 fed1                 MOVR 0x2e, 0x0
00000399 ff30                 MOVAR 0x4f
0000039a fed2                 MOVR 0x2d, 0x0
0000039b d6ac                 LCALL 0x153; _sendtoLast=0x153
0000039c                      main.o:_00333_DS_:
0000039c ffef                 RET
0000039d                      _setColor:
0000039d e0fc                 BCR 0x3, 0x6
0000039e ff4a                 MOVAR 0x35
0000039f def6                 MOVIA 0x9
000003a0 fbca                 SUBAR 0x35, 0x0
000003a1 f3fc                 BTRSC 0x3, 0x0
000003a2 c409                 LGOTO 0x3f6; main.o:_00314_DS_=0x3f6
000003a3 defc                 MOVIA 0x3
000003a4 ff75                 MOVAR 0xa
000003a5 feca                 MOVR 0x35, 0x0
000003a6 da55                 ADDIA 0xaa
000003a7 f3fc                 BTRSC 0x3, 0x0
000003a8 fa75                 INCR 0xa, 0x1
000003a9 ff7d                 MOVAR 0x2
000003aa                      main.o:_00325_DS_:
000003aa c44c                 LGOTO 0x3b3; main.o:_00302_DS_=0x3b3
000003ab c43b                 LGOTO 0x3c4; main.o:_00306_DS_=0x3c4
000003ac c434                 LGOTO 0x3cb; main.o:_00307_DS_=0x3cb
000003ad c42d                 LGOTO 0x3d2; main.o:_00308_DS_=0x3d2
000003ae c427                 LGOTO 0x3d8; main.o:_00309_DS_=0x3d8
000003af c421                 LGOTO 0x3de; main.o:_00310_DS_=0x3de
000003b0 c41a                 LGOTO 0x3e5; main.o:_00311_DS_=0x3e5
000003b1 c414                 LGOTO 0x3eb; main.o:_00312_DS_=0x3eb
000003b2 c40e                 LGOTO 0x3f1; main.o:_00313_DS_=0x3f1
000003b3                      main.o:_00302_DS_:
000003b3 def4                 MOVIA 0xb
000003b4 e4fc                 BSR 0x3, 0x6
000003b5 fbda                 SUBAR 0x25, 0x0
000003b6 f7fc                 BTRSS 0x3, 0x0
000003b7 c43e                 LGOTO 0x3c1; main.o:_00304_DS_=0x3c1
000003b8 deff                 MOVIA 0x0
000003b9 ff31                 MOVAR 0x4e
000003ba ff30                 MOVAR 0x4f
000003bb d6ac                 LCALL 0x153; _sendtoLast=0x153
000003bc e4fc                 BSR 0x3, 0x6
000003bd fd5a                 CLRR 0x25
000003be e0fc                 BCR 0x3, 0x6
000003bf fd02                 CLRR 0x7d
000003c0 c405                 LGOTO 0x3fa; main.o:_00316_DS_=0x3fa
000003c1                      main.o:_00304_DS_:
000003c1 e4fc                 BSR 0x3, 0x6
000003c2 fa5a                 INCR 0x25, 0x1
000003c3 c405                 LGOTO 0x3fa; main.o:_00316_DS_=0x3fa
000003c4                      main.o:_00306_DS_:
000003c4 deff                 MOVIA 0x0
000003c5 ff31                 MOVAR 0x4e
000003c6 de00                 MOVIA 0xff
000003c7 ff30                 MOVAR 0x4f
000003c8 deff                 MOVIA 0x0
000003c9 d6ac                 LCALL 0x153; _sendtoLast=0x153
000003ca c405                 LGOTO 0x3fa; main.o:_00316_DS_=0x3fa
000003cb                      main.o:_00307_DS_:
000003cb deff                 MOVIA 0x0
000003cc ff31                 MOVAR 0x4e
000003cd de00                 MOVIA 0xff
000003ce ff30                 MOVAR 0x4f
000003cf deda                 MOVIA 0x25
000003d0 d6ac                 LCALL 0x153; _sendtoLast=0x153
000003d1 c405                 LGOTO 0x3fa; main.o:_00316_DS_=0x3fa
000003d2                      main.o:_00308_DS_:
000003d2 deff                 MOVIA 0x0
000003d3 ff31                 MOVAR 0x4e
000003d4 de00                 MOVIA 0xff
000003d5 ff30                 MOVAR 0x4f
000003d6 d6ac                 LCALL 0x153; _sendtoLast=0x153
000003d7 c405                 LGOTO 0x3fa; main.o:_00316_DS_=0x3fa
000003d8                      main.o:_00309_DS_:
000003d8 deff                 MOVIA 0x0
000003d9 ff31                 MOVAR 0x4e
000003da ff30                 MOVAR 0x4f
000003db de00                 MOVIA 0xff
000003dc d6ac                 LCALL 0x153; _sendtoLast=0x153
000003dd c405                 LGOTO 0x3fa; main.o:_00316_DS_=0x3fa
000003de                      main.o:_00310_DS_:
000003de de00                 MOVIA 0xff
000003df ff31                 MOVAR 0x4e
000003e0 deff                 MOVIA 0x0
000003e1 ff30                 MOVAR 0x4f
000003e2 de00                 MOVIA 0xff
000003e3 d6ac                 LCALL 0x153; _sendtoLast=0x153
000003e4 c405                 LGOTO 0x3fa; main.o:_00316_DS_=0x3fa
000003e5                      main.o:_00311_DS_:
000003e5 de00                 MOVIA 0xff
000003e6 ff31                 MOVAR 0x4e
000003e7 deff                 MOVIA 0x0
000003e8 ff30                 MOVAR 0x4f
000003e9 d6ac                 LCALL 0x153; _sendtoLast=0x153
000003ea c405                 LGOTO 0x3fa; main.o:_00316_DS_=0x3fa
000003eb                      main.o:_00312_DS_:
000003eb de00                 MOVIA 0xff
000003ec ff31                 MOVAR 0x4e
000003ed ff30                 MOVAR 0x4f
000003ee deff                 MOVIA 0x0
000003ef d6ac                 LCALL 0x153; _sendtoLast=0x153
000003f0 c405                 LGOTO 0x3fa; main.o:_00316_DS_=0x3fa
000003f1                      main.o:_00313_DS_:
000003f1 de00                 MOVIA 0xff
000003f2 ff31                 MOVAR 0x4e
000003f3 ff30                 MOVAR 0x4f
000003f4 d6ac                 LCALL 0x153; _sendtoLast=0x153
000003f5 c405                 LGOTO 0x3fa; main.o:_00316_DS_=0x3fa
000003f6                      main.o:_00314_DS_:
000003f6 deff                 MOVIA 0x0
000003f7 ff31                 MOVAR 0x4e
000003f8 ff30                 MOVAR 0x4f
000003f9 d6ac                 LCALL 0x153; _sendtoLast=0x153
000003fa                      main.o:_00316_DS_:
000003fa ffef                 RET
000003fb                      _workCtr:
000003fb def4                 MOVIA 0xb
000003fc e0fc                 BCR 0x3, 0x6
000003fd fb83                 SUBAR 0x7c, 0x0
000003fe f3fc                 BTRSC 0x3, 0x0
000003ff c3f0                 LGOTO 0x40f; main.o:_00297_DS_=0x40f
00000400 def6                 MOVIA 0x9
00000401 fb83                 SUBAR 0x7c, 0x0
00000402 f3fc                 BTRSC 0x3, 0x0
00000403 c3f8                 LGOTO 0x407; main.o:_00295_DS_=0x407
00000404 fe83                 MOVR 0x7c, 0x0
00000405 d462                 LCALL 0x39d; _setColor=0x39d
00000406 c3f0                 LGOTO 0x40f; main.o:_00297_DS_=0x40f
00000407                      main.o:_00295_DS_:
00000407 e0fc                 BCR 0x3, 0x6
00000408 fe83                 MOVR 0x7c, 0x0
00000409 dbf6                 XORIA 0x9
0000040a f6fc                 BTRSS 0x3, 0x2
0000040b c3f1                 LGOTO 0x40e; main.o:_00292_DS_=0x40e
0000040c d47d                 LCALL 0x382; _work9=0x382
0000040d c3f0                 LGOTO 0x40f; main.o:_00297_DS_=0x40f
0000040e                      main.o:_00292_DS_:
0000040e d7fe                 LCALL 0x1; _work10=0x1
0000040f                      main.o:_00297_DS_:
0000040f ffef                 RET
00000410                      main.o:_00272_DS_:
00000410 e0fc                 BCR 0x3, 0x6
00000411 fe8c                 MOVR 0x73, 0x0
00000412 f2fc                 BTRSC 0x3, 0x2
00000413 c3ef                 LGOTO 0x410; main.o:_00272_DS_=0x410
00000414 fd0c                 CLRR 0x73
00000415 ffef                 RET
00000416                      _RByte:
00000416 defe                 MOVIA 0x1
00000417 e0fc                 BCR 0x3, 0x6
00000418 ff0b                 MOVAR 0x74
00000419 fd4d                 CLRR 0x32
0000041a fd66                 CLRR 0x19
0000041b de96                 MOVIA 0x69
0000041c ffbf                 SFUN 0x0
0000041d defc                 MOVIA 0x3
0000041e ffbe                 SFUN 0x1
0000041f fdff                 CLRA
00000420 fff0                 IOST 0xf
00000421 d3ef                 LCALL 0x410; main.o:_00272_DS_=0x410
00000422 def7                 MOVIA 0x8
00000423 e0fc                 BCR 0x3, 0x6
00000424 ff4c                 MOVAR 0x33
00000425                      main.o:_00260_DS_:
00000425 e0fc                 BCR 0x3, 0x6
00000426 fecc                 MOVR 0x33, 0x0
00000427 ff4b                 MOVAR 0x34
00000428 f94c                 DECR 0x33, 0x1
00000429 fecb                 MOVR 0x34, 0x0
0000042a f2fc                 BTRSC 0x3, 0x2
0000042b c3cc                 LGOTO 0x433; main.o:_00265_DS_=0x433
0000042c e3fc                 BCR 0x3, 0x0
0000042d ec4d                 RRR 0x32, 0x1
0000042e f6fa                 BTRSS 0x5, 0x2
0000042f c3ce                 LGOTO 0x431; main.o:_00007_DS_=0x431
00000430 e44d                 BSR 0x32, 0x7
00000431                      main.o:_00007_DS_:
00000431 d3ef                 LCALL 0x410; main.o:_00272_DS_=0x410
00000432 c3da                 LGOTO 0x425; main.o:_00260_DS_=0x425
00000433                      main.o:_00265_DS_:
00000433 e0fc                 BCR 0x3, 0x6
00000434 fe8c                 MOVR 0x73, 0x0
00000435 f6fc                 BTRSS 0x3, 0x2
00000436 c3c6                 LGOTO 0x439; main.o:_00267_DS_=0x439
00000437 f6fa                 BTRSS 0x5, 0x2
00000438 c3cc                 LGOTO 0x433; main.o:_00265_DS_=0x433
00000439                      main.o:_00267_DS_:
00000439 fdff                 CLRA
0000043a ffbe                 SFUN 0x1
0000043b deee                 MOVIA 0x11
0000043c fff0                 IOST 0xf
0000043d e0fc                 BCR 0x3, 0x6
0000043e fd0b                 CLRR 0x74
0000043f fd04                 CLRR 0x7b
00000440 fecd                 MOVR 0x32, 0x0
00000441 ffef                 RET
00000442                      _rankNub:
00000442 e0fc                 BCR 0x3, 0x6
00000443 ff52                 MOVAR 0x2d
00000444 defc                 MOVIA 0x3
00000445 ff30                 MOVAR 0x4f
00000446 e4fc                 BSR 0x3, 0x6
00000447 fede                 MOVR 0x21, 0x0
00000448 d34e                 LCALL 0x4b1; __mulchar=0x4b1
00000449 e0fc                 BCR 0x3, 0x6
0000044a ff51                 MOVAR 0x2e
0000044b fd50                 CLRR 0x2f
0000044c fd4f                 CLRR 0x30
0000044d                      main.o:_00253_DS_:
0000044d e0fc                 BCR 0x3, 0x6
0000044e fed2                 MOVR 0x2d, 0x0
0000044f fbcf                 SUBAR 0x30, 0x0
00000450 f3fc                 BTRSC 0x3, 0x0
00000451 c386                 LGOTO 0x479; main.o:_00251_DS_=0x479
00000452 e4fc                 BSR 0x3, 0x6
00000453 fedd                 MOVR 0x22, 0x0
00000454 ff32                 MOVAR 0x4d
00000455 fdff                 CLRA
00000456 ff31                 MOVAR 0x4e
00000457 e0fc                 BCR 0x3, 0x6
00000458 fecf                 MOVR 0x30, 0x0
00000459 ff30                 MOVAR 0x4f
0000045a fdff                 CLRA
0000045b d2c2                 LCALL 0x53d; __mulint=0x53d
0000045c e0fc                 BCR 0x3, 0x6
0000045d ff4e                 MOVAR 0x31
0000045e feb0                 MOVR 0x4f, 0x0
0000045f fc51                 ADDAR 0x2e, 0x1
00000460 fece                 MOVR 0x31, 0x0
00000461 f3fc                 BTRSC 0x3, 0x0
00000462 face                 INCR 0x31, 0x0
00000463 f2fc                 BTRSC 0x3, 0x2
00000464 c399                 LGOTO 0x466; main.o:_00008_DS_=0x466
00000465 fc50                 ADDAR 0x2f, 0x1
00000466                      main.o:_00008_DS_:
00000466 defa                 MOVIA 0x5
00000467 e0fc                 BCR 0x3, 0x6
00000468 fbcf                 SUBAR 0x30, 0x0
00000469 f7fc                 BTRSS 0x3, 0x0
0000046a c38f                 LGOTO 0x470; main.o:_00009_DS_=0x470
0000046b de00                 MOVIA 0xff
0000046c fc51                 ADDAR 0x2e, 0x1
0000046d f3fc                 BTRSC 0x3, 0x0
0000046e c38f                 LGOTO 0x470; main.o:_00009_DS_=0x470
0000046f f950                 DECR 0x2f, 0x1
00000470                      main.o:_00009_DS_:
00000470 defc                 MOVIA 0x3
00000471 e0fc                 BCR 0x3, 0x6
00000472 fc51                 ADDAR 0x2e, 0x1
00000473 f7fc                 BTRSS 0x3, 0x0
00000474 c389                 LGOTO 0x476; main.o:_00010_DS_=0x476
00000475 fa50                 INCR 0x2f, 0x1
00000476                      main.o:_00010_DS_:
00000476 e0fc                 BCR 0x3, 0x6
00000477 fa4f                 INCR 0x30, 0x1
00000478 c3b2                 LGOTO 0x44d; main.o:_00253_DS_=0x44d
00000479                      main.o:_00251_DS_:
00000479 def8                 MOVIA 0x7
0000047a e0fc                 BCR 0x3, 0x6
0000047b ef51                 ANDAR 0x2e, 0x1
0000047c fd50                 CLRR 0x2f
0000047d fed1                 MOVR 0x2e, 0x0
0000047e ff52                 MOVAR 0x2d
0000047f fad2                 INCR 0x2d, 0x0
00000480 e4fc                 BSR 0x3, 0x6
00000481 ff5e                 MOVAR 0x21
00000482 ffef                 RET
00000483                      _revData:
00000483 e0fc                 BCR 0x3, 0x6
00000484 fe8b                 MOVR 0x74, 0x0
00000485 f6fc                 BTRSS 0x3, 0x2
00000486 c351                 LGOTO 0x4ae; main.o:_00231_DS_=0x4ae
00000487 f2fa                 BTRSC 0x5, 0x2
00000488 c351                 LGOTO 0x4ae; main.o:_00231_DS_=0x4ae
00000489 def6                 MOVIA 0x9
0000048a ff71                 MOVAR 0xe
0000048b defe                 MOVIA 0x1
0000048c ff0b                 MOVAR 0x74
0000048d fe8a                 MOVR 0x75, 0x0
0000048e f6fc                 BTRSS 0x3, 0x2
0000048f c355                 LGOTO 0x4aa; main.o:_00228_DS_=0x4aa
00000490 d3e9                 LCALL 0x416; _RByte=0x416
00000491 e0fc                 BCR 0x3, 0x6
00000492 ff06                 MOVAR 0x79
00000493 fe85                 MOVR 0x7a, 0x0
00000494 dadf                 ADDIA 0x20
00000495 ff54                 MOVAR 0x2b
00000496 deff                 MOVIA 0x0
00000497 f3fc                 BTRSC 0x3, 0x0
00000498 dafe                 ADDIA 0x1
00000499 ff53                 MOVAR 0x2c
0000049a fe86                 MOVR 0x79, 0x0
0000049b ff32                 MOVAR 0x4d
0000049c fed4                 MOVR 0x2b, 0x0
0000049d ff31                 MOVAR 0x4e
0000049e fed3                 MOVR 0x2c, 0x0
0000049f ff30                 MOVAR 0x4f
000004a0 deff                 MOVIA 0x0
000004a1 d24d                 LCALL 0x5b2; __gptrput=0x5b2
000004a2 e0fc                 BCR 0x3, 0x6
000004a3 fa05                 INCR 0x7a, 0x1
000004a4 def9                 MOVIA 0x6
000004a5 fb85                 SUBAR 0x7a, 0x0
000004a6 f7fc                 BTRSS 0x3, 0x0
000004a7 c353                 LGOTO 0x4ac; main.o:_00229_DS_=0x4ac
000004a8 fd05                 CLRR 0x7a
000004a9 c353                 LGOTO 0x4ac; main.o:_00229_DS_=0x4ac
000004aa                      main.o:_00228_DS_:
000004aa e0fc                 BCR 0x3, 0x6
000004ab fd0b                 CLRR 0x74
000004ac                      main.o:_00229_DS_:
000004ac def4                 MOVIA 0xb
000004ad ff71                 MOVAR 0xe
000004ae                      main.o:_00231_DS_:
000004ae e0fc                 BCR 0x3, 0x6
000004af fd07                 CLRR 0x78
000004b0 ffef                 RET
000004b1                      __mulchar:
000004b1 e0fc                 BCR 0x3, 0x6
000004b2 ff2e                 MOVAR 0x51
000004b3 feb0                 MOVR 0x4f, 0x0
000004b4 ff2d                 MOVAR 0x52
000004b5 fd2c                 CLRR 0x53
000004b6 def7                 MOVIA 0x8
000004b7 ff2b                 MOVAR 0x54
000004b8                      _mulchar.o:_00119_DS_:
000004b8 e0fc                 BCR 0x3, 0x6
000004b9 f7ae                 BTRSS 0x51, 0x0
000004ba c342                 LGOTO 0x4bd; _mulchar.o:_00114_DS_=0x4bd
000004bb fead                 MOVR 0x52, 0x0
000004bc fc2c                 ADDAR 0x53, 0x1
000004bd                      _mulchar.o:_00114_DS_:
000004bd e3fc                 BCR 0x3, 0x0
000004be e0fc                 BCR 0x3, 0x6
000004bf ec2e                 RRR 0x51, 0x1
000004c0 e3fc                 BCR 0x3, 0x0
000004c1 eb2d                 RLR 0x52, 0x1
000004c2 f9ab                 DECR 0x54, 0x0
000004c3 ff2a                 MOVAR 0x55
000004c4 ff2b                 MOVAR 0x54
000004c5 feaa                 MOVR 0x55, 0x0
000004c6 f6fc                 BTRSS 0x3, 0x2
000004c7 c347                 LGOTO 0x4b8; _mulchar.o:_00119_DS_=0x4b8
000004c8 feac                 MOVR 0x53, 0x0
000004c9 ffef                 RET
000004ca                      __divuchar:
000004ca e0fc                 BCR 0x3, 0x6
000004cb ff29                 MOVAR 0x56
000004cc feb0                 MOVR 0x4f, 0x0
000004cd ff28                 MOVAR 0x57
000004ce fd27                 CLRR 0x58
000004cf defe                 MOVIA 0x1
000004d0 ff26                 MOVAR 0x59
000004d1 fea8                 MOVR 0x57, 0x0
000004d2 f6fc                 BTRSS 0x3, 0x2
000004d3 c329                 LGOTO 0x4d6; _divuchar.o:_00107_DS_=0x4d6
000004d4 de00                 MOVIA 0xff
000004d5 c30d                 LGOTO 0x4f2; _divuchar.o:_00115_DS_=0x4f2
000004d6                      _divuchar.o:_00107_DS_:
000004d6 e0fc                 BCR 0x3, 0x6
000004d7 f028                 BTRSC 0x57, 0x7
000004d8 c321                 LGOTO 0x4de; _divuchar.o:_00112_DS_=0x4de
000004d9 e3fc                 BCR 0x3, 0x0
000004da eb28                 RLR 0x57, 0x1
000004db e3fc                 BCR 0x3, 0x0
000004dc eb26                 RLR 0x59, 0x1
000004dd c329                 LGOTO 0x4d6; _divuchar.o:_00107_DS_=0x4d6
000004de                      _divuchar.o:_00112_DS_:
000004de e0fc                 BCR 0x3, 0x6
000004df fea6                 MOVR 0x59, 0x0
000004e0 f2fc                 BTRSC 0x3, 0x2
000004e1 c30f                 LGOTO 0x4f0; _divuchar.o:_00114_DS_=0x4f0
000004e2 fea8                 MOVR 0x57, 0x0
000004e3 fba9                 SUBAR 0x56, 0x0
000004e4 f7fc                 BTRSS 0x3, 0x0
000004e5 c315                 LGOTO 0x4ea; _divuchar.o:_00111_DS_=0x4ea
000004e6 fea6                 MOVR 0x59, 0x0
000004e7 fc27                 ADDAR 0x58, 0x1
000004e8 fea8                 MOVR 0x57, 0x0
000004e9 fb29                 SUBAR 0x56, 0x1
000004ea                      _divuchar.o:_00111_DS_:
000004ea e3fc                 BCR 0x3, 0x0
000004eb e0fc                 BCR 0x3, 0x6
000004ec ec28                 RRR 0x57, 0x1
000004ed e3fc                 BCR 0x3, 0x0
000004ee ec26                 RRR 0x59, 0x1
000004ef c321                 LGOTO 0x4de; _divuchar.o:_00112_DS_=0x4de
000004f0                      _divuchar.o:_00114_DS_:
000004f0 e0fc                 BCR 0x3, 0x6
000004f1 fea7                 MOVR 0x58, 0x0
000004f2                      _divuchar.o:_00115_DS_:
000004f2 ffef                 RET
000004f3                      __divuint:
000004f3 e0fc                 BCR 0x3, 0x6
000004f4 ff24                 MOVAR 0x5b
000004f5 feb0                 MOVR 0x4f, 0x0
000004f6 ff25                 MOVAR 0x5a
000004f7 feb1                 MOVR 0x4e, 0x0
000004f8 ff22                 MOVAR 0x5d
000004f9 feb2                 MOVR 0x4d, 0x0
000004fa ff23                 MOVAR 0x5c
000004fb fd21                 CLRR 0x5e
000004fc fd20                 CLRR 0x5f
000004fd defe                 MOVIA 0x1
000004fe ff1f                 MOVAR 0x60
000004ff fd1e                 CLRR 0x61
00000500 fea3                 MOVR 0x5c, 0x0
00000501 eea2                 IORAR 0x5d, 0x0
00000502 f6fc                 BTRSS 0x3, 0x2
00000503 c2f8                 LGOTO 0x507; _divuint.o:_00107_DS_=0x507
00000504 de00                 MOVIA 0xff
00000505 ff30                 MOVAR 0x4f
00000506 c2c3                 LGOTO 0x53c; _divuint.o:_00115_DS_=0x53c
00000507                      _divuint.o:_00107_DS_:
00000507 e0fc                 BCR 0x3, 0x6
00000508 f022                 BTRSC 0x5d, 0x7
00000509 c2ee                 LGOTO 0x511; _divuint.o:_00112_DS_=0x511
0000050a e3fc                 BCR 0x3, 0x0
0000050b eb23                 RLR 0x5c, 0x1
0000050c eb22                 RLR 0x5d, 0x1
0000050d e3fc                 BCR 0x3, 0x0
0000050e eb1f                 RLR 0x60, 0x1
0000050f eb1e                 RLR 0x61, 0x1
00000510 c2f8                 LGOTO 0x507; _divuint.o:_00107_DS_=0x507
00000511                      _divuint.o:_00112_DS_:
00000511 e0fc                 BCR 0x3, 0x6
00000512 fe9f                 MOVR 0x60, 0x0
00000513 ee9e                 IORAR 0x61, 0x0
00000514 f2fc                 BTRSC 0x3, 0x2
00000515 c2c7                 LGOTO 0x538; _divuint.o:_00114_DS_=0x538
00000516 fea2                 MOVR 0x5d, 0x0
00000517 fba4                 SUBAR 0x5b, 0x0
00000518 f6fc                 BTRSS 0x3, 0x2
00000519 c2e3                 LGOTO 0x51c; _divuint.o:_00135_DS_=0x51c
0000051a fea3                 MOVR 0x5c, 0x0
0000051b fba5                 SUBAR 0x5a, 0x0
0000051c                      _divuint.o:_00135_DS_:
0000051c f7fc                 BTRSS 0x3, 0x0
0000051d c2cf                 LGOTO 0x530; _divuint.o:_00002_DS_=0x530
0000051e e0fc                 BCR 0x3, 0x6
0000051f fe9f                 MOVR 0x60, 0x0
00000520 fc21                 ADDAR 0x5e, 0x1
00000521 fe9e                 MOVR 0x61, 0x0
00000522 f3fc                 BTRSC 0x3, 0x0
00000523 fa9e                 INCR 0x61, 0x0
00000524 f2fc                 BTRSC 0x3, 0x2
00000525 c2d8                 LGOTO 0x527; _divuint.o:_00001_DS_=0x527
00000526 fc20                 ADDAR 0x5f, 0x1
00000527                      _divuint.o:_00001_DS_:
00000527 e0fc                 BCR 0x3, 0x6
00000528 fea3                 MOVR 0x5c, 0x0
00000529 fb25                 SUBAR 0x5a, 0x1
0000052a fea2                 MOVR 0x5d, 0x0
0000052b f7fc                 BTRSS 0x3, 0x0
0000052c faa2                 INCR 0x5d, 0x0
0000052d f2fc                 BTRSC 0x3, 0x2
0000052e c2cf                 LGOTO 0x530; _divuint.o:_00002_DS_=0x530
0000052f fb24                 SUBAR 0x5b, 0x1
00000530                      _divuint.o:_00002_DS_:
00000530 e3fc                 BCR 0x3, 0x0
00000531 e0fc                 BCR 0x3, 0x6
00000532 ec22                 RRR 0x5d, 0x1
00000533 ec23                 RRR 0x5c, 0x1
00000534 e3fc                 BCR 0x3, 0x0
00000535 ec1e                 RRR 0x61, 0x1
00000536 ec1f                 RRR 0x60, 0x1
00000537 c2ee                 LGOTO 0x511; _divuint.o:_00112_DS_=0x511
00000538                      _divuint.o:_00114_DS_:
00000538 e0fc                 BCR 0x3, 0x6
00000539 fea1                 MOVR 0x5e, 0x0
0000053a ff30                 MOVAR 0x4f
0000053b fea0                 MOVR 0x5f, 0x0
0000053c                      _divuint.o:_00115_DS_:
0000053c ffef                 RET
0000053d                      __mulint:
0000053d e0fc                 BCR 0x3, 0x6
0000053e ff1c                 MOVAR 0x63
0000053f feb0                 MOVR 0x4f, 0x0
00000540 ff1d                 MOVAR 0x62
00000541 feb1                 MOVR 0x4e, 0x0
00000542 ff1a                 MOVAR 0x65
00000543 feb2                 MOVR 0x4d, 0x0
00000544 ff1b                 MOVAR 0x64
00000545 fd19                 CLRR 0x66
00000546 fd18                 CLRR 0x67
00000547 def7                 MOVIA 0x8
00000548 ff17                 MOVAR 0x68
00000549                      _mulint.o:_00119_DS_:
00000549 e0fc                 BCR 0x3, 0x6
0000054a f79d                 BTRSS 0x62, 0x0
0000054b c2ab                 LGOTO 0x554; _mulint.o:_00001_DS_=0x554
0000054c fe9b                 MOVR 0x64, 0x0
0000054d fc19                 ADDAR 0x66, 0x1
0000054e fe9a                 MOVR 0x65, 0x0
0000054f f3fc                 BTRSC 0x3, 0x0
00000550 fa9a                 INCR 0x65, 0x0
00000551 f2fc                 BTRSC 0x3, 0x2
00000552 c2ab                 LGOTO 0x554; _mulint.o:_00001_DS_=0x554
00000553 fc18                 ADDAR 0x67, 0x1
00000554                      _mulint.o:_00001_DS_:
00000554 e0fc                 BCR 0x3, 0x6
00000555 f79c                 BTRSS 0x63, 0x0
00000556 c29d                 LGOTO 0x562; _mulint.o:_00002_DS_=0x562
00000557 fe9b                 MOVR 0x64, 0x0
00000558 fd16                 CLRR 0x69
00000559 deff                 MOVIA 0x0
0000055a fc19                 ADDAR 0x66, 0x1
0000055b fe9b                 MOVR 0x64, 0x0
0000055c ff15                 MOVAR 0x6a
0000055d f3fc                 BTRSC 0x3, 0x0
0000055e fa95                 INCR 0x6a, 0x0
0000055f f2fc                 BTRSC 0x3, 0x2
00000560 c29d                 LGOTO 0x562; _mulint.o:_00002_DS_=0x562
00000561 fc18                 ADDAR 0x67, 0x1
00000562                      _mulint.o:_00002_DS_:
00000562 e0fc                 BCR 0x3, 0x6
00000563 fe9d                 MOVR 0x62, 0x0
00000564 ff16                 MOVAR 0x69
00000565 fe9c                 MOVR 0x63, 0x0
00000566 ff15                 MOVAR 0x6a
00000567 e3fc                 BCR 0x3, 0x0
00000568 ec95                 RRR 0x6a, 0x0
00000569 ff1c                 MOVAR 0x63
0000056a ec96                 RRR 0x69, 0x0
0000056b ff1d                 MOVAR 0x62
0000056c e3fc                 BCR 0x3, 0x0
0000056d eb1b                 RLR 0x64, 0x1
0000056e eb1a                 RLR 0x65, 0x1
0000056f f997                 DECR 0x68, 0x0
00000570 ff16                 MOVAR 0x69
00000571 ff17                 MOVAR 0x68
00000572 fe96                 MOVR 0x69, 0x0
00000573 f6fc                 BTRSS 0x3, 0x2
00000574 c2b6                 LGOTO 0x549; _mulint.o:_00119_DS_=0x549
00000575 fe99                 MOVR 0x66, 0x0
00000576 ff30                 MOVAR 0x4f
00000577 fe98                 MOVR 0x67, 0x0
00000578 ffef                 RET
00000579                      __moduint:
00000579 e0fc                 BCR 0x3, 0x6
0000057a ff13                 MOVAR 0x6c
0000057b feb0                 MOVR 0x4f, 0x0
0000057c ff14                 MOVAR 0x6b
0000057d feb1                 MOVR 0x4e, 0x0
0000057e ff11                 MOVAR 0x6e
0000057f feb2                 MOVR 0x4d, 0x0
00000580 ff12                 MOVAR 0x6d
00000581 ee91                 IORAR 0x6e, 0x0
00000582 f6fc                 BTRSS 0x3, 0x2
00000583 c278                 LGOTO 0x587; _moduint.o:_00119_DS_=0x587
00000584 de00                 MOVIA 0xff
00000585 ff30                 MOVAR 0x4f
00000586 c24e                 LGOTO 0x5b1; _moduint.o:_00115_DS_=0x5b1
00000587                      _moduint.o:_00119_DS_:
00000587 defe                 MOVIA 0x1
00000588 e0fc                 BCR 0x3, 0x6
00000589 ff10                 MOVAR 0x6f
0000058a                      _moduint.o:_00107_DS_:
0000058a e0fc                 BCR 0x3, 0x6
0000058b f011                 BTRSC 0x6e, 0x7
0000058c c26d                 LGOTO 0x592; _moduint.o:_00112_DS_=0x592
0000058d e3fc                 BCR 0x3, 0x0
0000058e eb12                 RLR 0x6d, 0x1
0000058f eb11                 RLR 0x6e, 0x1
00000590 fa10                 INCR 0x6f, 0x1
00000591 c275                 LGOTO 0x58a; _moduint.o:_00107_DS_=0x58a
00000592                      _moduint.o:_00112_DS_:
00000592 e0fc                 BCR 0x3, 0x6
00000593 fe90                 MOVR 0x6f, 0x0
00000594 f2fc                 BTRSC 0x3, 0x2
00000595 c252                 LGOTO 0x5ad; _moduint.o:_00114_DS_=0x5ad
00000596 fe91                 MOVR 0x6e, 0x0
00000597 fb93                 SUBAR 0x6c, 0x0
00000598 f6fc                 BTRSS 0x3, 0x2
00000599 c263                 LGOTO 0x59c; _moduint.o:_00137_DS_=0x59c
0000059a fe92                 MOVR 0x6d, 0x0
0000059b fb94                 SUBAR 0x6b, 0x0
0000059c                      _moduint.o:_00137_DS_:
0000059c f7fc                 BTRSS 0x3, 0x0
0000059d c258                 LGOTO 0x5a7; _moduint.o:_00001_DS_=0x5a7
0000059e e0fc                 BCR 0x3, 0x6
0000059f fe92                 MOVR 0x6d, 0x0
000005a0 fb14                 SUBAR 0x6b, 0x1
000005a1 fe91                 MOVR 0x6e, 0x0
000005a2 f7fc                 BTRSS 0x3, 0x0
000005a3 fa91                 INCR 0x6e, 0x0
000005a4 f2fc                 BTRSC 0x3, 0x2
000005a5 c258                 LGOTO 0x5a7; _moduint.o:_00001_DS_=0x5a7
000005a6 fb13                 SUBAR 0x6c, 0x1
000005a7                      _moduint.o:_00001_DS_:
000005a7 e3fc                 BCR 0x3, 0x0
000005a8 e0fc                 BCR 0x3, 0x6
000005a9 ec11                 RRR 0x6e, 0x1
000005aa ec12                 RRR 0x6d, 0x1
000005ab f910                 DECR 0x6f, 0x1
000005ac c26d                 LGOTO 0x592; _moduint.o:_00112_DS_=0x592
000005ad                      _moduint.o:_00114_DS_:
000005ad e0fc                 BCR 0x3, 0x6
000005ae fe94                 MOVR 0x6b, 0x0
000005af ff30                 MOVAR 0x4f
000005b0 fe93                 MOVR 0x6c, 0x0
000005b1                      _moduint.o:_00115_DS_:
000005b1 ffef                 RET
000005b2                      __gptrput:
000005b2 dbff                 XORIA 0x0
000005b3 f2fc                 BTRSC 0x3, 0x2
000005b4 c249                 LGOTO 0x5b6; _gptrput1.o:__dataptrput1=0x5b6
000005b5 ffef                 RET
000005b6                      _gptrput1.o:__dataptrput1:
000005b6 feb1                 MOVR 0x4e, 0x0
000005b7 ff7b                 MOVAR 0x4
000005b8 e0fc                 BCR 0x3, 0x6
000005b9 f031                 BTRSC 0x4e, 0x7
000005ba e4fc                 BSR 0x3, 0x6
000005bb feb2                 MOVR 0x4d, 0x0
000005bc ff7f                 MOVAR 0x0
000005bd ffef                 RET
000005be                      ___cinit_load__:
