00000000 c7fe                 LGOTO 0x1; __nyc_ny8_startup=0x1
00000001                      __nyc_ny8_startup:
00000001 d0bb                 LCALL 0x744; ___cinit_load__=0x744
00000002 c795                 LGOTO 0x6a; _main=0x6a
00000003                      main.o:_00680_DS_:
00000003 f56f                 BTRSS 0x10, 0x5
00000004 c7fc                 LGOTO 0x3; main.o:_00680_DS_=0x3
00000005 ffef                 RET
00000008 c7f6                 LGOTO 0x9; main.o:__sdcc_interrupt=0x9
00000009                      main.o:__sdcc_interrupt:
00000009 ff3d                 MOVAR 0x42
0000000a eafc                 SWAPR 0x3, 0x0
0000000b fd7c                 CLRR 0x3
0000000c ff3e                 MOVAR 0x41
0000000d fef5                 MOVR 0xa, 0x0
0000000e fd75                 CLRR 0xa
0000000f ff3f                 MOVAR 0x40
00000010 fefb                 MOVR 0x4, 0x0
00000011 e0fc                 BCR 0x3, 0x6
00000012 ff1b                 MOVAR 0x64
00000013 feba                 MOVR 0x45, 0x0
00000014 ff1a                 MOVAR 0x65
00000015 febb                 MOVR 0x44, 0x0
00000016 ff19                 MOVAR 0x66
00000017 f7f0                 BTRSS 0xf, 0x0
00000018 c7a9                 LGOTO 0x56; main.o:_00123_DS_=0x56
00000019 dec8                 MOVIA 0x37
0000001a fc7e                 ADDAR 0x1, 0x1
0000001b fa09                 INCR 0x76, 0x1
0000001c de9b                 MOVIA 0x64
0000001d fb89                 SUBAR 0x76, 0x0
0000001e f7fc                 BTRSS 0x3, 0x0
0000001f c7a9                 LGOTO 0x56; main.o:_00123_DS_=0x56
00000020 e78a                 BSR 0x75, 0x0
00000021 fd09                 CLRR 0x76
00000022 fa05                 INCR 0x7a, 0x1
00000023 ded7                 MOVIA 0x28
00000024 fb85                 SUBAR 0x7a, 0x0
00000025 f3fc                 BTRSC 0x3, 0x0
00000026 fd05                 CLRR 0x7a
00000027 fa06                 INCR 0x79, 0x1
00000028 deeb                 MOVIA 0x14
00000029 fb86                 SUBAR 0x79, 0x0
0000002a f7fc                 BTRSS 0x3, 0x0
0000002b c7ce                 LGOTO 0x31; main.o:_00110_DS_=0x31
0000002c fd06                 CLRR 0x79
0000002d e4fc                 BSR 0x3, 0x6
0000002e fed4                 MOVR 0x2b, 0x0
0000002f f6fc                 BTRSS 0x3, 0x2
00000030 f954                 DECR 0x2b, 0x1
00000031                      main.o:_00110_DS_:
00000031 e0fc                 BCR 0x3, 0x6
00000032 fa03                 INCR 0x7c, 0x1
00000033 f2fc                 BTRSC 0x3, 0x2
00000034 fa02                 INCR 0x7d, 0x1
00000035 defe                 MOVIA 0x1
00000036 fb82                 SUBAR 0x7d, 0x0
00000037 f6fc                 BTRSS 0x3, 0x2
00000038 c7c4                 LGOTO 0x3b; main.o:_00161_DS_=0x3b
00000039 de0b                 MOVIA 0xf4
0000003a fb83                 SUBAR 0x7c, 0x0
0000003b                      main.o:_00161_DS_:
0000003b f7fc                 BTRSS 0x3, 0x0
0000003c c7bf                 LGOTO 0x40; main.o:_00112_DS_=0x40
0000003d e0fc                 BCR 0x3, 0x6
0000003e fd03                 CLRR 0x7c
0000003f fd02                 CLRR 0x7d
00000040                      main.o:_00112_DS_:
00000040 e0fc                 BCR 0x3, 0x6
00000041 fa04                 INCR 0x7b, 0x1
00000042 de9b                 MOVIA 0x64
00000043 fb84                 SUBAR 0x7b, 0x0
00000044 f7fc                 BTRSS 0x3, 0x0
00000045 c7a9                 LGOTO 0x56; main.o:_00123_DS_=0x56
00000046 fd04                 CLRR 0x7b
00000047 e4fc                 BSR 0x3, 0x6
00000048 fedb                 MOVR 0x24, 0x0
00000049 f6fc                 BTRSS 0x3, 0x2
0000004a f95b                 DECR 0x24, 0x1
0000004b fedf                 MOVR 0x20, 0x0
0000004c f2fc                 BTRSC 0x3, 0x2
0000004d c7ac                 LGOTO 0x53; main.o:_00116_DS_=0x53
0000004e e0fc                 BCR 0x3, 0x6
0000004f fa01                 INCR 0x7e, 0x1
00000050 f2fc                 BTRSC 0x3, 0x2
00000051 fa00                 INCR 0x7f, 0x1
00000052 c7a9                 LGOTO 0x56; main.o:_00123_DS_=0x56
00000053                      main.o:_00116_DS_:
00000053 e0fc                 BCR 0x3, 0x6
00000054 fd01                 CLRR 0x7e
00000055 fd00                 CLRR 0x7f
00000056                      main.o:_00123_DS_:
00000056 f770                 BTRSS 0xf, 0x1
00000057 c7a5                 LGOTO 0x5a; main.o:_00125_DS_=0x5a
00000058 de02                 MOVIA 0xfd
00000059 ff70                 MOVAR 0xf
0000005a                      main.o:_00125_DS_:
0000005a fd70                 CLRR 0xf
0000005b e0fc                 BCR 0x3, 0x6
0000005c fe99                 MOVR 0x66, 0x0
0000005d ff3b                 MOVAR 0x44
0000005e fe9a                 MOVR 0x65, 0x0
0000005f ff3a                 MOVAR 0x45
00000060 fe9b                 MOVR 0x64, 0x0
00000061 ff7b                 MOVAR 0x4
00000062 febf                 MOVR 0x40, 0x0
00000063 ff75                 MOVAR 0xa
00000064 fd7c                 CLRR 0x3
00000065 eabe                 SWAPR 0x41, 0x0
00000066 ff7c                 MOVAR 0x3
00000067 ea3d                 SWAPR 0x42, 0x1
00000068 eabd                 SWAPR 0x42, 0x0
00000069                      main.o:END_OF_INTERRUPT:
00000069 ffee                 RETIE
0000006a                      _main:
0000006a d47b                 LCALL 0x384; _initSys=0x384
0000006b d4fb                 LCALL 0x304; _initAD=0x304
0000006c                      main.o:_00215_DS_:
0000006c fffd                 CLRWDT
0000006d e4fc                 BSR 0x3, 0x6
0000006e fec9                 MOVR 0x36, 0x0
0000006f f6fc                 BTRSS 0x3, 0x2
00000070 d3d7                 LCALL 0x428; _refreshNub=0x428
00000071 e4fc                 BSR 0x3, 0x6
00000072 fedf                 MOVR 0x20, 0x0
00000073 f2fc                 BTRSC 0x3, 0x2
00000074 c776                 LGOTO 0x89; main.o:_00174_DS_=0x89
00000075 ded7                 MOVIA 0x28
00000076 fbd7                 SUBAR 0x28, 0x0
00000077 f7fc                 BTRSS 0x3, 0x0
00000078 c776                 LGOTO 0x89; main.o:_00174_DS_=0x89
00000079 fecb                 MOVR 0x34, 0x0
0000007a fbd7                 SUBAR 0x28, 0x0
0000007b f3fc                 BTRSC 0x3, 0x0
0000007c c77e                 LGOTO 0x81; main.o:_00171_DS_=0x81
0000007d f94b                 DECR 0x34, 0x1
0000007e fecb                 MOVR 0x34, 0x0
0000007f ffb3                 SFUN 0xc
00000080 c776                 LGOTO 0x89; main.o:_00174_DS_=0x89
00000081                      main.o:_00171_DS_:
00000081 e4fc                 BSR 0x3, 0x6
00000082 fed7                 MOVR 0x28, 0x0
00000083 fbcb                 SUBAR 0x34, 0x0
00000084 f3fc                 BTRSC 0x3, 0x0
00000085 c776                 LGOTO 0x89; main.o:_00174_DS_=0x89
00000086 fa4b                 INCR 0x34, 0x1
00000087 fecb                 MOVR 0x34, 0x0
00000088 ffb3                 SFUN 0xc
00000089                      main.o:_00174_DS_:
00000089 e4fc                 BSR 0x3, 0x6
0000008a fedf                 MOVR 0x20, 0x0
0000008b f2fc                 BTRSC 0x3, 0x2
0000008c c769                 LGOTO 0x96; main.o:_00177_DS_=0x96
0000008d fed9                 MOVR 0x26, 0x0
0000008e fbda                 SUBAR 0x25, 0x0
0000008f f3fc                 BTRSC 0x3, 0x0
00000090 c769                 LGOTO 0x96; main.o:_00177_DS_=0x96
00000091 f959                 DECR 0x26, 0x1
00000092 fed9                 MOVR 0x26, 0x0
00000093 ffb3                 SFUN 0xc
00000094 fed9                 MOVR 0x26, 0x0
00000095 ff4b                 MOVAR 0x34
00000096                      main.o:_00177_DS_:
00000096 e0fc                 BCR 0x3, 0x6
00000097 f78a                 BTRSS 0x75, 0x0
00000098 c793                 LGOTO 0x6c; main.o:_00215_DS_=0x6c
00000099 e38a                 BCR 0x75, 0x0
0000009a e4fc                 BSR 0x3, 0x6
0000009b fecc                 MOVR 0x33, 0x0
0000009c f6fc                 BTRSS 0x3, 0x2
0000009d c74d                 LGOTO 0xb2; main.o:_00184_DS_=0xb2
0000009e fedf                 MOVR 0x20, 0x0
0000009f f2fc                 BTRSC 0x3, 0x2
000000a0 c74d                 LGOTO 0xb2; main.o:_00184_DS_=0xb2
000000a1 fa47                 INCR 0x38, 0x1
000000a2 f2fc                 BTRSC 0x3, 0x2
000000a3 fa46                 INCR 0x39, 0x1
000000a4 defc                 MOVIA 0x3
000000a5 fbc6                 SUBAR 0x39, 0x0
000000a6 f6fc                 BTRSS 0x3, 0x2
000000a7 c755                 LGOTO 0xaa; main.o:_00307_DS_=0xaa
000000a8 de17                 MOVIA 0xe8
000000a9 fbc7                 SUBAR 0x38, 0x0
000000aa                      main.o:_00307_DS_:
000000aa f7fc                 BTRSS 0x3, 0x0
000000ab c74a                 LGOTO 0xb5; main.o:_00185_DS_=0xb5
000000ac e4fc                 BSR 0x3, 0x6
000000ad fd47                 CLRR 0x38
000000ae fd46                 CLRR 0x39
000000af fd5f                 CLRR 0x20
000000b0 d49f                 LCALL 0x360; _pwmStop=0x360
000000b1 c74a                 LGOTO 0xb5; main.o:_00185_DS_=0xb5
000000b2                      main.o:_00184_DS_:
000000b2 e4fc                 BSR 0x3, 0x6
000000b3 fd47                 CLRR 0x38
000000b4 fd46                 CLRR 0x39
000000b5                      main.o:_00185_DS_:
000000b5 defa                 MOVIA 0x5
000000b6 e4fc                 BSR 0x3, 0x6
000000b7 fbd8                 SUBAR 0x27, 0x0
000000b8 f7fc                 BTRSS 0x3, 0x0
000000b9 c72f                 LGOTO 0xd0; main.o:_00190_DS_=0xd0
000000ba fedf                 MOVR 0x20, 0x0
000000bb f2fc                 BTRSC 0x3, 0x2
000000bc c72f                 LGOTO 0xd0; main.o:_00190_DS_=0xd0
000000bd fa56                 INCR 0x29, 0x1
000000be f2fc                 BTRSC 0x3, 0x2
000000bf fa55                 INCR 0x2a, 0x1
000000c0 deff                 MOVIA 0x0
000000c1 fbd5                 SUBAR 0x2a, 0x0
000000c2 f6fc                 BTRSS 0x3, 0x2
000000c3 c739                 LGOTO 0xc6; main.o:_00309_DS_=0xc6
000000c4 de04                 MOVIA 0xfb
000000c5 fbd6                 SUBAR 0x29, 0x0
000000c6                      main.o:_00309_DS_:
000000c6 f7fc                 BTRSS 0x3, 0x0
000000c7 c72c                 LGOTO 0xd3; main.o:_00191_DS_=0xd3
000000c8 e4fc                 BSR 0x3, 0x6
000000c9 fd58                 CLRR 0x27
000000ca fd56                 CLRR 0x29
000000cb fd55                 CLRR 0x2a
000000cc dee6                 MOVIA 0x19
000000cd ff54                 MOVAR 0x2b
000000ce d47f                 LCALL 0x380; _powerOff=0x380
000000cf c72c                 LGOTO 0xd3; main.o:_00191_DS_=0xd3
000000d0                      main.o:_00190_DS_:
000000d0 e4fc                 BSR 0x3, 0x6
000000d1 fd56                 CLRR 0x29
000000d2 fd55                 CLRR 0x2a
000000d3                      main.o:_00191_DS_:
000000d3 defa                 MOVIA 0x5
000000d4 e0fc                 BCR 0x3, 0x6
000000d5 fb86                 SUBAR 0x79, 0x0
000000d6 f3fc                 BTRSC 0x3, 0x0
000000d7 c719                 LGOTO 0xe6; main.o:_00202_DS_=0xe6
000000d8 e4fc                 BSR 0x3, 0x6
000000d9 fedf                 MOVR 0x20, 0x0
000000da f2fc                 BTRSC 0x3, 0x2
000000db c71f                 LGOTO 0xe0; main.o:_00194_DS_=0xe0
000000dc fed7                 MOVR 0x28, 0x0
000000dd edcb                 XORAR 0x34, 0x0
000000de f2fc                 BTRSC 0x3, 0x2
000000df d5cb                 LCALL 0x234; _checkBatAD=0x234
000000e0                      main.o:_00194_DS_:
000000e0 e4fc                 BSR 0x3, 0x6
000000e1 fedf                 MOVR 0x20, 0x0
000000e2 f6fc                 BTRSS 0x3, 0x2
000000e3 c710                 LGOTO 0xef; main.o:_00203_DS_=0xef
000000e4 d5cb                 LCALL 0x234; _checkBatAD=0x234
000000e5 c710                 LGOTO 0xef; main.o:_00203_DS_=0xef
000000e6                      main.o:_00202_DS_:
000000e6 def6                 MOVIA 0x9
000000e7 e0fc                 BCR 0x3, 0x6
000000e8 fb86                 SUBAR 0x79, 0x0
000000e9 f7fc                 BTRSS 0x3, 0x0
000000ea c710                 LGOTO 0xef; main.o:_00203_DS_=0xef
000000eb def4                 MOVIA 0xb
000000ec fb86                 SUBAR 0x79, 0x0
000000ed f7fc                 BTRSS 0x3, 0x0
000000ee d682                 LCALL 0x17d; _checkOutA=0x17d
000000ef                      main.o:_00203_DS_:
000000ef d365                 LCALL 0x49a; _chrgCtr=0x49a
000000f0 e0fc                 BCR 0x3, 0x6
000000f1 f60a                 BTRSS 0x75, 0x3
000000f2 d460                 LCALL 0x39f; _keyCtr=0x39f
000000f3 e4fc                 BSR 0x3, 0x6
000000f4 fedf                 MOVR 0x20, 0x0
000000f5 f6fc                 BTRSS 0x3, 0x2
000000f6 c6fb                 LGOTO 0x104; main.o:_00207_DS_=0x104
000000f7 fede                 MOVR 0x21, 0x0
000000f8 f6fc                 BTRSS 0x3, 0x2
000000f9 c6fb                 LGOTO 0x104; main.o:_00207_DS_=0x104
000000fa e0fc                 BCR 0x3, 0x6
000000fb f27a                 BTRSC 0x5, 0x3
000000fc c6fb                 LGOTO 0x104; main.o:_00207_DS_=0x104
000000fd e4fc                 BSR 0x3, 0x6
000000fe fedb                 MOVR 0x24, 0x0
000000ff f6fc                 BTRSS 0x3, 0x2
00000100 c6fb                 LGOTO 0x104; main.o:_00207_DS_=0x104
00000101 fed4                 MOVR 0x2b, 0x0
00000102 f2fc                 BTRSC 0x3, 0x2
00000103 d4c3                 LCALL 0x33c; _gotoSleep=0x33c
00000104                      main.o:_00207_DS_:
00000104 defc                 MOVIA 0x3
00000105 e0fc                 BCR 0x3, 0x6
00000106 fb80                 SUBAR 0x7f, 0x0
00000107 f6fc                 BTRSS 0x3, 0x2
00000108 c6f4                 LGOTO 0x10b; main.o:_00313_DS_=0x10b
00000109 de7b                 MOVIA 0x84
0000010a fb81                 SUBAR 0x7e, 0x0
0000010b                      main.o:_00313_DS_:
0000010b f7fc                 BTRSS 0x3, 0x0
0000010c c793                 LGOTO 0x6c; main.o:_00215_DS_=0x6c
0000010d d47f                 LCALL 0x380; _powerOff=0x380
0000010e c793                 LGOTO 0x6c; main.o:_00215_DS_=0x6c
0000010f ffef                 RET
00000110                      _delay:
00000110 e0fc                 BCR 0x3, 0x6
00000111 ff41                 MOVAR 0x3e
00000112 feba                 MOVR 0x45, 0x0
00000113 ff42                 MOVAR 0x3d
00000114 defe                 MOVIA 0x1
00000115 ff40                 MOVAR 0x3f
00000116 fd39                 CLRR 0x46
00000117                      main.o:_00687_DS_:
00000117 e0fc                 BCR 0x3, 0x6
00000118 fec1                 MOVR 0x3e, 0x0
00000119 da7f                 ADDIA 0x80
0000011a ff38                 MOVAR 0x47
0000011b feb9                 MOVR 0x46, 0x0
0000011c da7f                 ADDIA 0x80
0000011d fbb8                 SUBAR 0x47, 0x0
0000011e f6fc                 BTRSS 0x3, 0x2
0000011f c6dd                 LGOTO 0x122; main.o:_00698_DS_=0x122
00000120 fec0                 MOVR 0x3f, 0x0
00000121 fbc2                 SUBAR 0x3d, 0x0
00000122                      main.o:_00698_DS_:
00000122 f7fc                 BTRSS 0x3, 0x0
00000123 c6d5                 LGOTO 0x12a; main.o:_00689_DS_=0x12a
00000124 e0fc                 BCR 0x3, 0x6
00000125 fa40                 INCR 0x3f, 0x1
00000126 f6fc                 BTRSS 0x3, 0x2
00000127 c6d6                 LGOTO 0x129; main.o:_00001_DS_=0x129
00000128 fa39                 INCR 0x46, 0x1
00000129                      main.o:_00001_DS_:
00000129 c6e8                 LGOTO 0x117; main.o:_00687_DS_=0x117
0000012a                      main.o:_00689_DS_:
0000012a ffef                 RET
0000012b                      _F_AIN2_Convert:
0000012b e0fc                 BCR 0x3, 0x6
0000012c ff46                 MOVAR 0x39
0000012d fd5a                 CLRR 0x25
0000012e fd5c                 CLRR 0x23
0000012f fd5b                 CLRR 0x24
00000130 de6d                 MOVIA 0x92
00000131 ff6f                 MOVAR 0x10
00000132 de37                 MOVIA 0xc8
00000133 ff3a                 MOVAR 0x45
00000134 deff                 MOVIA 0x0
00000135 d6ef                 LCALL 0x110; _delay=0x110
00000136 defe                 MOVIA 0x1
00000137 e0fc                 BCR 0x3, 0x6
00000138 ff45                 MOVAR 0x3a
00000139                      main.o:_00673_DS_:
00000139 e0fc                 BCR 0x3, 0x6
0000013a fec5                 MOVR 0x3a, 0x0
0000013b fbc6                 SUBAR 0x39, 0x0
0000013c f7fc                 BTRSS 0x3, 0x0
0000013d c6ac                 LGOTO 0x153; main.o:_00675_DS_=0x153
0000013e e4ef                 BSR 0x10, 0x6
0000013f d7fc                 LCALL 0x3; main.o:_00680_DS_=0x3
00000140 def0                 MOVIA 0xf
00000141 efee                 ANDAR 0x11, 0x0
00000142 e0fc                 BCR 0x3, 0x6
00000143 fc5a                 ADDAR 0x25, 0x1
00000144 feed                 MOVR 0x12, 0x0
00000145 ff44                 MOVAR 0x3b
00000146 deff                 MOVIA 0x0
00000147 ff43                 MOVAR 0x3c
00000148 fec4                 MOVR 0x3b, 0x0
00000149 fc5c                 ADDAR 0x23, 0x1
0000014a fec3                 MOVR 0x3c, 0x0
0000014b f3fc                 BTRSC 0x3, 0x0
0000014c fac3                 INCR 0x3c, 0x0
0000014d f2fc                 BTRSC 0x3, 0x2
0000014e c6af                 LGOTO 0x150; main.o:_00002_DS_=0x150
0000014f fc5b                 ADDAR 0x24, 0x1
00000150                      main.o:_00002_DS_:
00000150 e0fc                 BCR 0x3, 0x6
00000151 fa45                 INCR 0x3a, 0x1
00000152 c6c6                 LGOTO 0x139; main.o:_00673_DS_=0x139
00000153                      main.o:_00675_DS_:
00000153 ffef                 RET
00000154                      _F_AIN4_Convert:
00000154 e0fc                 BCR 0x3, 0x6
00000155 ff4a                 MOVAR 0x35
00000156 fd5d                 CLRR 0x22
00000157 fd5f                 CLRR 0x20
00000158 fd5e                 CLRR 0x21
00000159 de6b                 MOVIA 0x94
0000015a ff6f                 MOVAR 0x10
0000015b de37                 MOVIA 0xc8
0000015c ff3a                 MOVAR 0x45
0000015d deff                 MOVIA 0x0
0000015e d6ef                 LCALL 0x110; _delay=0x110
0000015f defe                 MOVIA 0x1
00000160 e0fc                 BCR 0x3, 0x6
00000161 ff49                 MOVAR 0x36
00000162                      main.o:_00655_DS_:
00000162 e0fc                 BCR 0x3, 0x6
00000163 fec9                 MOVR 0x36, 0x0
00000164 fbca                 SUBAR 0x35, 0x0
00000165 f7fc                 BTRSS 0x3, 0x0
00000166 c683                 LGOTO 0x17c; main.o:_00657_DS_=0x17c
00000167 e4ef                 BSR 0x10, 0x6
00000168 d7fc                 LCALL 0x3; main.o:_00680_DS_=0x3
00000169 def0                 MOVIA 0xf
0000016a efee                 ANDAR 0x11, 0x0
0000016b e0fc                 BCR 0x3, 0x6
0000016c fc5d                 ADDAR 0x22, 0x1
0000016d feed                 MOVR 0x12, 0x0
0000016e ff48                 MOVAR 0x37
0000016f deff                 MOVIA 0x0
00000170 ff47                 MOVAR 0x38
00000171 fec8                 MOVR 0x37, 0x0
00000172 fc5f                 ADDAR 0x20, 0x1
00000173 fec7                 MOVR 0x38, 0x0
00000174 f3fc                 BTRSC 0x3, 0x0
00000175 fac7                 INCR 0x38, 0x0
00000176 f2fc                 BTRSC 0x3, 0x2
00000177 c686                 LGOTO 0x179; main.o:_00004_DS_=0x179
00000178 fc5e                 ADDAR 0x21, 0x1
00000179                      main.o:_00004_DS_:
00000179 e0fc                 BCR 0x3, 0x6
0000017a fa49                 INCR 0x36, 0x1
0000017b c69d                 LGOTO 0x162; main.o:_00655_DS_=0x162
0000017c                      main.o:_00657_DS_:
0000017c ffef                 RET
0000017d                      _checkOutA:
0000017d e0fc                 BCR 0x3, 0x6
0000017e fd5d                 CLRR 0x22
0000017f fd5f                 CLRR 0x20
00000180 fd5e                 CLRR 0x21
00000181 def7                 MOVIA 0x8
00000182 d6ab                 LCALL 0x154; _F_AIN4_Convert=0x154
00000183 e0fc                 BCR 0x3, 0x6
00000184 eade                 SWAPR 0x21, 0x0
00000185 dd0f                 ANDIA 0xf0
00000186 ff5e                 MOVAR 0x21
00000187 eadf                 SWAPR 0x20, 0x0
00000188 ff5f                 MOVAR 0x20
00000189 ddf0                 ANDIA 0xf
0000018a ee5e                 IORAR 0x21, 0x1
0000018b ed5f                 XORAR 0x20, 0x1
0000018c de0f                 MOVIA 0xf0
0000018d ef5d                 ANDAR 0x22, 0x1
0000018e fedd                 MOVR 0x22, 0x0
0000018f ff4c                 MOVAR 0x33
00000190 deff                 MOVIA 0x0
00000191 ff4b                 MOVAR 0x34
00000192 fecc                 MOVR 0x33, 0x0
00000193 fc5f                 ADDAR 0x20, 0x1
00000194 fecb                 MOVR 0x34, 0x0
00000195 f3fc                 BTRSC 0x3, 0x0
00000196 facb                 INCR 0x34, 0x0
00000197 f2fc                 BTRSC 0x3, 0x2
00000198 c665                 LGOTO 0x19a; main.o:_00005_DS_=0x19a
00000199 fc5e                 ADDAR 0x21, 0x1
0000019a                      main.o:_00005_DS_:
0000019a e3fc                 BCR 0x3, 0x0
0000019b e0fc                 BCR 0x3, 0x6
0000019c ec5e                 RRR 0x21, 0x1
0000019d ec5f                 RRR 0x20, 0x1
0000019e e3fc                 BCR 0x3, 0x0
0000019f ec5e                 RRR 0x21, 0x1
000001a0 ec5f                 RRR 0x20, 0x1
000001a1 e3fc                 BCR 0x3, 0x0
000001a2 ec5e                 RRR 0x21, 0x1
000001a3 ec5f                 RRR 0x20, 0x1
000001a4 fe98                 MOVR 0x67, 0x0
000001a5 f2fc                 BTRSC 0x3, 0x2
000001a6 c654                 LGOTO 0x1ab; main.o:_00559_DS_=0x1ab
000001a7 ded2                 MOVIA 0x2d
000001a8 ff5f                 MOVAR 0x20
000001a9 defe                 MOVIA 0x1
000001aa ff5e                 MOVAR 0x21
000001ab                      main.o:_00559_DS_:
000001ab def9                 MOVIA 0x6
000001ac e4fc                 BSR 0x3, 0x6
000001ad fbdf                 SUBAR 0x20, 0x0
000001ae f3fc                 BTRSC 0x3, 0x0
000001af c63d                 LGOTO 0x1c2; main.o:_00589_DS_=0x1c2
000001b0 deff                 MOVIA 0x0
000001b1 e0fc                 BCR 0x3, 0x6
000001b2 fbde                 SUBAR 0x21, 0x0
000001b3 f6fc                 BTRSS 0x3, 0x2
000001b4 c648                 LGOTO 0x1b7; main.o:_00640_DS_=0x1b7
000001b5 de36                 MOVIA 0xc9
000001b6 fbdf                 SUBAR 0x20, 0x0
000001b7                      main.o:_00640_DS_:
000001b7 f7fc                 BTRSS 0x3, 0x0
000001b8 c63d                 LGOTO 0x1c2; main.o:_00589_DS_=0x1c2
000001b9 e4fc                 BSR 0x3, 0x6
000001ba fa58                 INCR 0x27, 0x1
000001bb def9                 MOVIA 0x6
000001bc fbd8                 SUBAR 0x27, 0x0
000001bd f7fc                 BTRSS 0x3, 0x0
000001be c5cc                 LGOTO 0x233; main.o:_00592_DS_=0x233
000001bf defa                 MOVIA 0x5
000001c0 ff58                 MOVAR 0x27
000001c1 c5cc                 LGOTO 0x233; main.o:_00592_DS_=0x233
000001c2                      main.o:_00589_DS_:
000001c2 defe                 MOVIA 0x1
000001c3 e0fc                 BCR 0x3, 0x6
000001c4 fbde                 SUBAR 0x21, 0x0
000001c5 f6fc                 BTRSS 0x3, 0x2
000001c6 c636                 LGOTO 0x1c9; main.o:_00642_DS_=0x1c9
000001c7 de6e                 MOVIA 0x91
000001c8 fbdf                 SUBAR 0x20, 0x0
000001c9                      main.o:_00642_DS_:
000001c9 f7fc                 BTRSS 0x3, 0x0
000001ca c62b                 LGOTO 0x1d4; main.o:_00586_DS_=0x1d4
000001cb e4fc                 BSR 0x3, 0x6
000001cc fa58                 INCR 0x27, 0x1
000001cd def9                 MOVIA 0x6
000001ce fbd8                 SUBAR 0x27, 0x0
000001cf f7fc                 BTRSS 0x3, 0x0
000001d0 c5cc                 LGOTO 0x233; main.o:_00592_DS_=0x233
000001d1 defa                 MOVIA 0x5
000001d2 ff58                 MOVAR 0x27
000001d3 c5cc                 LGOTO 0x233; main.o:_00592_DS_=0x233
000001d4                      main.o:_00586_DS_:
000001d4 deff                 MOVIA 0x0
000001d5 e0fc                 BCR 0x3, 0x6
000001d6 fbde                 SUBAR 0x21, 0x0
000001d7 f6fc                 BTRSS 0x3, 0x2
000001d8 c624                 LGOTO 0x1db; main.o:_00644_DS_=0x1db
000001d9 ded1                 MOVIA 0x2e
000001da fbdf                 SUBAR 0x20, 0x0
000001db                      main.o:_00644_DS_:
000001db f7fc                 BTRSS 0x3, 0x0
000001dc c5f5                 LGOTO 0x20a; main.o:_00583_DS_=0x20a
000001dd e4fc                 BSR 0x3, 0x6
000001de fed8                 MOVR 0x27, 0x0
000001df f6fc                 BTRSS 0x3, 0x2
000001e0 f958                 DECR 0x27, 0x1
000001e1 defb                 MOVIA 0x4
000001e2 fbdf                 SUBAR 0x20, 0x0
000001e3 f3fc                 BTRSC 0x3, 0x0
000001e4 c60f                 LGOTO 0x1f0; main.o:_00567_DS_=0x1f0
000001e5 defa                 MOVIA 0x5
000001e6 ff3a                 MOVAR 0x45
000001e7 fedf                 MOVR 0x20, 0x0
000001e8 d134                 LCALL 0x6cb; __mulchar=0x6cb
000001e9 e0fc                 BCR 0x3, 0x6
000001ea ff4c                 MOVAR 0x33
000001eb deb9                 MOVIA 0x46
000001ec fccc                 ADDAR 0x33, 0x0
000001ed e4fc                 BSR 0x3, 0x6
000001ee ff57                 MOVAR 0x28
000001ef c604                 LGOTO 0x1fb; main.o:_00568_DS_=0x1fb
000001f0                      main.o:_00567_DS_:
000001f0 defa                 MOVIA 0x5
000001f1 ff3a                 MOVAR 0x45
000001f2 e4fc                 BSR 0x3, 0x6
000001f3 fedf                 MOVR 0x20, 0x0
000001f4 d134                 LCALL 0x6cb; __mulchar=0x6cb
000001f5 e0fc                 BCR 0x3, 0x6
000001f6 ff4c                 MOVAR 0x33
000001f7 deb9                 MOVIA 0x46
000001f8 fccc                 ADDAR 0x33, 0x0
000001f9 e4fc                 BSR 0x3, 0x6
000001fa ff57                 MOVAR 0x28
000001fb                      main.o:_00568_DS_:
000001fb e4fc                 BSR 0x3, 0x6
000001fc fedf                 MOVR 0x20, 0x0
000001fd dbfe                 XORIA 0x1
000001fe f6fc                 BTRSS 0x3, 0x2
000001ff c5fc                 LGOTO 0x203; main.o:_00572_DS_=0x203
00000200 fa57                 INCR 0x28, 0x1
00000201 fa57                 INCR 0x28, 0x1
00000202 c5cc                 LGOTO 0x233; main.o:_00592_DS_=0x233
00000203                      main.o:_00572_DS_:
00000203 e4fc                 BSR 0x3, 0x6
00000204 fedf                 MOVR 0x20, 0x0
00000205 dbfd                 XORIA 0x2
00000206 f6fc                 BTRSS 0x3, 0x2
00000207 c5cc                 LGOTO 0x233; main.o:_00592_DS_=0x233
00000208 fa57                 INCR 0x28, 0x1
00000209 c5cc                 LGOTO 0x233; main.o:_00592_DS_=0x233
0000020a                      main.o:_00583_DS_:
0000020a e4fc                 BSR 0x3, 0x6
0000020b fed8                 MOVR 0x27, 0x0
0000020c f6fc                 BTRSS 0x3, 0x2
0000020d f958                 DECR 0x27, 0x1
0000020e deff                 MOVIA 0x0
0000020f e0fc                 BCR 0x3, 0x6
00000210 fbde                 SUBAR 0x21, 0x0
00000211 f6fc                 BTRSS 0x3, 0x2
00000212 c5ea                 LGOTO 0x215; main.o:_00646_DS_=0x215
00000213 ded6                 MOVIA 0x29
00000214 fbdf                 SUBAR 0x20, 0x0
00000215                      main.o:_00646_DS_:
00000215 f7fc                 BTRSS 0x3, 0x0
00000216 c5d8                 LGOTO 0x227; main.o:_00579_DS_=0x227
00000217 defb                 MOVIA 0x4
00000218 e4fc                 BSR 0x3, 0x6
00000219 fbdf                 SUBAR 0x20, 0x0
0000021a f3fc                 BTRSC 0x3, 0x0
0000021b c5d8                 LGOTO 0x227; main.o:_00579_DS_=0x227
0000021c defa                 MOVIA 0x5
0000021d ff3a                 MOVAR 0x45
0000021e fedf                 MOVR 0x20, 0x0
0000021f d134                 LCALL 0x6cb; __mulchar=0x6cb
00000220 e0fc                 BCR 0x3, 0x6
00000221 ff4c                 MOVAR 0x33
00000222 deb9                 MOVIA 0x46
00000223 fccc                 ADDAR 0x33, 0x0
00000224 e4fc                 BSR 0x3, 0x6
00000225 ff57                 MOVAR 0x28
00000226 c5cc                 LGOTO 0x233; main.o:_00592_DS_=0x233
00000227                      main.o:_00579_DS_:
00000227 deff                 MOVIA 0x0
00000228 e0fc                 BCR 0x3, 0x6
00000229 fbde                 SUBAR 0x21, 0x0
0000022a f6fc                 BTRSS 0x3, 0x2
0000022b c5d1                 LGOTO 0x22e; main.o:_00648_DS_=0x22e
0000022c debb                 MOVIA 0x44
0000022d fbdf                 SUBAR 0x20, 0x0
0000022e                      main.o:_00648_DS_:
0000022e f3fc                 BTRSC 0x3, 0x0
0000022f c5cc                 LGOTO 0x233; main.o:_00592_DS_=0x233
00000230 e4fc                 BSR 0x3, 0x6
00000231 feda                 MOVR 0x25, 0x0
00000232 ff57                 MOVAR 0x28
00000233                      main.o:_00592_DS_:
00000233 ffef                 RET
00000234                      _checkBatAD:
00000234 e0fc                 BCR 0x3, 0x6
00000235 fd5a                 CLRR 0x25
00000236 fd5c                 CLRR 0x23
00000237 fd5b                 CLRR 0x24
00000238 def7                 MOVIA 0x8
00000239 d6d4                 LCALL 0x12b; _F_AIN2_Convert=0x12b
0000023a e0fc                 BCR 0x3, 0x6
0000023b eadb                 SWAPR 0x24, 0x0
0000023c dd0f                 ANDIA 0xf0
0000023d ff5b                 MOVAR 0x24
0000023e eadc                 SWAPR 0x23, 0x0
0000023f ff5c                 MOVAR 0x23
00000240 ddf0                 ANDIA 0xf
00000241 ee5b                 IORAR 0x24, 0x1
00000242 ed5c                 XORAR 0x23, 0x1
00000243 de0f                 MOVIA 0xf0
00000244 ef5a                 ANDAR 0x25, 0x1
00000245 feda                 MOVR 0x25, 0x0
00000246 ff50                 MOVAR 0x2f
00000247 ff52                 MOVAR 0x2d
00000248 fd51                 CLRR 0x2e
00000249 deff                 MOVIA 0x0
0000024a ff4f                 MOVAR 0x30
0000024b fed0                 MOVR 0x2f, 0x0
0000024c fc5c                 ADDAR 0x23, 0x1
0000024d fecf                 MOVR 0x30, 0x0
0000024e f3fc                 BTRSC 0x3, 0x0
0000024f facf                 INCR 0x30, 0x0
00000250 f2fc                 BTRSC 0x3, 0x2
00000251 c5ac                 LGOTO 0x253; main.o:_00006_DS_=0x253
00000252 fc5b                 ADDAR 0x24, 0x1
00000253                      main.o:_00006_DS_:
00000253 e3fc                 BCR 0x3, 0x0
00000254 e0fc                 BCR 0x3, 0x6
00000255 ec5b                 RRR 0x24, 0x1
00000256 ec5c                 RRR 0x23, 0x1
00000257 e3fc                 BCR 0x3, 0x0
00000258 ec5b                 RRR 0x24, 0x1
00000259 ec5c                 RRR 0x23, 0x1
0000025a e3fc                 BCR 0x3, 0x0
0000025b ec5b                 RRR 0x24, 0x1
0000025c ec5c                 RRR 0x23, 0x1
0000025d fe98                 MOVR 0x67, 0x0
0000025e f2fc                 BTRSC 0x3, 0x2
0000025f c59b                 LGOTO 0x264; main.o:_00508_DS_=0x264
00000260 def1                 MOVIA 0xe
00000261 ff5c                 MOVAR 0x23
00000262 def9                 MOVIA 0x6
00000263 ff5b                 MOVAR 0x24
00000264                      main.o:_00508_DS_:
00000264 def9                 MOVIA 0x6
00000265 e0fc                 BCR 0x3, 0x6
00000266 fbdb                 SUBAR 0x24, 0x0
00000267 f6fc                 BTRSS 0x3, 0x2
00000268 c594                 LGOTO 0x26b; main.o:_00548_DS_=0x26b
00000269 deeb                 MOVIA 0x14
0000026a fbdc                 SUBAR 0x23, 0x0
0000026b                      main.o:_00548_DS_:
0000026b f7fc                 BTRSS 0x3, 0x0
0000026c c58f                 LGOTO 0x270; main.o:_00514_DS_=0x270
0000026d e4fc                 BSR 0x3, 0x6
0000026e fd5c                 CLRR 0x23
0000026f c578                 LGOTO 0x287; main.o:_00515_DS_=0x287
00000270                      main.o:_00514_DS_:
00000270 defb                 MOVIA 0x4
00000271 e0fc                 BCR 0x3, 0x6
00000272 fbdb                 SUBAR 0x24, 0x0
00000273 f6fc                 BTRSS 0x3, 0x2
00000274 c588                 LGOTO 0x277; main.o:_00549_DS_=0x277
00000275 de86                 MOVIA 0x79
00000276 fbdc                 SUBAR 0x23, 0x0
00000277                      main.o:_00549_DS_:
00000277 f3fc                 BTRSC 0x3, 0x0
00000278 c578                 LGOTO 0x287; main.o:_00515_DS_=0x287
00000279 e4fc                 BSR 0x3, 0x6
0000027a fa5c                 INCR 0x23, 0x1
0000027b def5                 MOVIA 0xa
0000027c fbdc                 SUBAR 0x23, 0x0
0000027d f7fc                 BTRSS 0x3, 0x0
0000027e c4fc                 LGOTO 0x303; main.o:_00525_DS_=0x303
0000027f def5                 MOVIA 0xa
00000280 ff5c                 MOVAR 0x23
00000281 fd5d                 CLRR 0x22
00000282 de81                 MOVIA 0x7e
00000283 e0fc                 BCR 0x3, 0x6
00000284 ff5c                 MOVAR 0x23
00000285 defb                 MOVIA 0x4
00000286 ff5b                 MOVAR 0x24
00000287                      main.o:_00515_DS_:
00000287 de78                 MOVIA 0x87
00000288 e0fc                 BCR 0x3, 0x6
00000289 fc5c                 ADDAR 0x23, 0x1
0000028a de04                 MOVIA 0xfb
0000028b f3fc                 BTRSC 0x3, 0x0
0000028c de03                 MOVIA 0xfc
0000028d fc5b                 ADDAR 0x24, 0x1
0000028e defe                 MOVIA 0x1
0000028f fbdb                 SUBAR 0x24, 0x0
00000290 f6fc                 BTRSS 0x3, 0x2
00000291 c56b                 LGOTO 0x294; main.o:_00551_DS_=0x294
00000292 de6f                 MOVIA 0x90
00000293 fbdc                 SUBAR 0x23, 0x0
00000294                      main.o:_00551_DS_:
00000294 f7fc                 BTRSS 0x3, 0x0
00000295 c551                 LGOTO 0x2ae; main.o:_00523_DS_=0x2ae
00000296 de2b                 MOVIA 0xd4
00000297 e0fc                 BCR 0x3, 0x6
00000298 fcdc                 ADDAR 0x23, 0x0
00000299 ff52                 MOVAR 0x2d
0000029a de01                 MOVIA 0xfe
0000029b ff51                 MOVAR 0x2e
0000029c fedb                 MOVR 0x24, 0x0
0000029d f3fc                 BTRSC 0x3, 0x0
0000029e fadb                 INCR 0x24, 0x0
0000029f f2fc                 BTRSC 0x3, 0x2
000002a0 c55d                 LGOTO 0x2a2; main.o:_00007_DS_=0x2a2
000002a1 fc51                 ADDAR 0x2e, 0x1
000002a2                      main.o:_00007_DS_:
000002a2 e3fc                 BCR 0x3, 0x0
000002a3 e0fc                 BCR 0x3, 0x6
000002a4 ecd1                 RRR 0x2e, 0x0
000002a5 ff4f                 MOVAR 0x30
000002a6 ecd2                 RRR 0x2d, 0x0
000002a7 ff50                 MOVAR 0x2f
000002a8 ff52                 MOVAR 0x2d
000002a9 decd                 MOVIA 0x32
000002aa fcd2                 ADDAR 0x2d, 0x0
000002ab e4fc                 BSR 0x3, 0x6
000002ac ff4c                 MOVAR 0x33
000002ad c4fc                 LGOTO 0x303; main.o:_00525_DS_=0x303
000002ae                      main.o:_00523_DS_:
000002ae defe                 MOVIA 0x1
000002af e0fc                 BCR 0x3, 0x6
000002b0 fbdb                 SUBAR 0x24, 0x0
000002b1 f6fc                 BTRSS 0x3, 0x2
000002b2 c54a                 LGOTO 0x2b5; main.o:_00552_DS_=0x2b5
000002b3 ded3                 MOVIA 0x2c
000002b4 fbdc                 SUBAR 0x23, 0x0
000002b5                      main.o:_00552_DS_:
000002b5 f7fc                 BTRSS 0x3, 0x0
000002b6 c530                 LGOTO 0x2cf; main.o:_00520_DS_=0x2cf
000002b7 de2b                 MOVIA 0xd4
000002b8 e0fc                 BCR 0x3, 0x6
000002b9 fcdc                 ADDAR 0x23, 0x0
000002ba ff52                 MOVAR 0x2d
000002bb de01                 MOVIA 0xfe
000002bc ff50                 MOVAR 0x2f
000002bd fedb                 MOVR 0x24, 0x0
000002be f3fc                 BTRSC 0x3, 0x0
000002bf fadb                 INCR 0x24, 0x0
000002c0 f2fc                 BTRSC 0x3, 0x2
000002c1 c53c                 LGOTO 0x2c3; main.o:_00008_DS_=0x2c3
000002c2 fc50                 ADDAR 0x2f, 0x1
000002c3                      main.o:_00008_DS_:
000002c3 e3fc                 BCR 0x3, 0x0
000002c4 e0fc                 BCR 0x3, 0x6
000002c5 ecd0                 RRR 0x2f, 0x0
000002c6 ff4e                 MOVAR 0x31
000002c7 ecd2                 RRR 0x2d, 0x0
000002c8 ff4f                 MOVAR 0x30
000002c9 ff52                 MOVAR 0x2d
000002ca decd                 MOVIA 0x32
000002cb fcd2                 ADDAR 0x2d, 0x0
000002cc e4fc                 BSR 0x3, 0x6
000002cd ff4c                 MOVAR 0x33
000002ce c4fc                 LGOTO 0x303; main.o:_00525_DS_=0x303
000002cf                      main.o:_00520_DS_:
000002cf deff                 MOVIA 0x0
000002d0 e0fc                 BCR 0x3, 0x6
000002d1 fbdb                 SUBAR 0x24, 0x0
000002d2 f6fc                 BTRSS 0x3, 0x2
000002d3 c529                 LGOTO 0x2d6; main.o:_00553_DS_=0x2d6
000002d4 de37                 MOVIA 0xc8
000002d5 fbdc                 SUBAR 0x23, 0x0
000002d6                      main.o:_00553_DS_:
000002d6 f7fc                 BTRSS 0x3, 0x0
000002d7 c50b                 LGOTO 0x2f4; main.o:_00517_DS_=0x2f4
000002d8 dec7                 MOVIA 0x38
000002d9 e0fc                 BCR 0x3, 0x6
000002da fcdc                 ADDAR 0x23, 0x0
000002db ff52                 MOVAR 0x2d
000002dc de00                 MOVIA 0xff
000002dd ff4f                 MOVAR 0x30
000002de fedb                 MOVR 0x24, 0x0
000002df f3fc                 BTRSC 0x3, 0x0
000002e0 fadb                 INCR 0x24, 0x0
000002e1 f2fc                 BTRSC 0x3, 0x2
000002e2 c51b                 LGOTO 0x2e4; main.o:_00009_DS_=0x2e4
000002e3 fc4f                 ADDAR 0x30, 0x1
000002e4                      main.o:_00009_DS_:
000002e4 e3fc                 BCR 0x3, 0x0
000002e5 e0fc                 BCR 0x3, 0x6
000002e6 eccf                 RRR 0x30, 0x0
000002e7 ff4d                 MOVAR 0x32
000002e8 ecd2                 RRR 0x2d, 0x0
000002e9 ff4e                 MOVAR 0x31
000002ea e3fc                 BCR 0x3, 0x0
000002eb ec4d                 RRR 0x32, 0x1
000002ec ec4e                 RRR 0x31, 0x1
000002ed fece                 MOVR 0x31, 0x0
000002ee ff52                 MOVAR 0x2d
000002ef dee6                 MOVIA 0x19
000002f0 fcd2                 ADDAR 0x2d, 0x0
000002f1 e4fc                 BSR 0x3, 0x6
000002f2 ff4c                 MOVAR 0x33
000002f3 c4fc                 LGOTO 0x303; main.o:_00525_DS_=0x303
000002f4                      main.o:_00517_DS_:
000002f4 e3fc                 BCR 0x3, 0x0
000002f5 e0fc                 BCR 0x3, 0x6
000002f6 ecdb                 RRR 0x24, 0x0
000002f7 ff4e                 MOVAR 0x31
000002f8 ecdc                 RRR 0x23, 0x0
000002f9 ff52                 MOVAR 0x2d
000002fa e3fc                 BCR 0x3, 0x0
000002fb ec4e                 RRR 0x31, 0x1
000002fc ec52                 RRR 0x2d, 0x1
000002fd e3fc                 BCR 0x3, 0x0
000002fe ec4e                 RRR 0x31, 0x1
000002ff ec52                 RRR 0x2d, 0x1
00000300 fed2                 MOVR 0x2d, 0x0
00000301 e4fc                 BSR 0x3, 0x6
00000302 ff4c                 MOVAR 0x33
00000303                      main.o:_00525_DS_:
00000303 ffef                 RET
00000304                      _initAD:
00000304 de7b                 MOVIA 0x84
00000305 ff6f                 MOVAR 0x10
00000306 fd6c                 CLRR 0x13
00000307 deef                 MOVIA 0x10
00000308 ff6e                 MOVAR 0x11
00000309 defc                 MOVIA 0x3
0000030a ff6b                 MOVAR 0x14
0000030b dee9                 MOVIA 0x16
0000030c ff69                 MOVAR 0x16
0000030d e5ef                 BSR 0x10, 0x4
0000030e de9b                 MOVIA 0x64
0000030f ff3a                 MOVAR 0x45
00000310 deff                 MOVIA 0x0
00000311 d6ef                 LCALL 0x110; _delay=0x110
00000312 ffef                 RET
00000313                      _keyRead:
00000313 e0fc                 BCR 0x3, 0x6
00000314 ff53                 MOVAR 0x2c
00000315 fed3                 MOVR 0x2c, 0x0
00000316 f2fc                 BTRSC 0x3, 0x2
00000317 c4d9                 LGOTO 0x326; main.o:_00496_DS_=0x326
00000318 e4fc                 BSR 0x3, 0x6
00000319 fa5e                 INCR 0x21, 0x1
0000031a de37                 MOVIA 0xc8
0000031b fbde                 SUBAR 0x21, 0x0
0000031c f7fc                 BTRSS 0x3, 0x0
0000031d c4c5                 LGOTO 0x33a; main.o:_00497_DS_=0x33a
0000031e de37                 MOVIA 0xc8
0000031f ff5e                 MOVAR 0x21
00000320 e0fc                 BCR 0x3, 0x6
00000321 f30a                 BTRSC 0x75, 0x1
00000322 c4c5                 LGOTO 0x33a; main.o:_00497_DS_=0x33a
00000323 e70a                 BSR 0x75, 0x1
00000324 defd                 MOVIA 0x2
00000325 c4c4                 LGOTO 0x33b; main.o:_00498_DS_=0x33b
00000326                      main.o:_00496_DS_:
00000326 de37                 MOVIA 0xc8
00000327 e4fc                 BSR 0x3, 0x6
00000328 fbde                 SUBAR 0x21, 0x0
00000329 f7fc                 BTRSS 0x3, 0x0
0000032a c4cf                 LGOTO 0x330; main.o:_00493_DS_=0x330
0000032b fd5e                 CLRR 0x21
0000032c e0fc                 BCR 0x3, 0x6
0000032d e30a                 BCR 0x75, 0x1
0000032e deff                 MOVIA 0x0
0000032f c4c4                 LGOTO 0x33b; main.o:_00498_DS_=0x33b
00000330                      main.o:_00493_DS_:
00000330 def7                 MOVIA 0x8
00000331 e4fc                 BSR 0x3, 0x6
00000332 fbde                 SUBAR 0x21, 0x0
00000333 f7fc                 BTRSS 0x3, 0x0
00000334 c4c7                 LGOTO 0x338; main.o:_00494_DS_=0x338
00000335 fd5e                 CLRR 0x21
00000336 defe                 MOVIA 0x1
00000337 c4c4                 LGOTO 0x33b; main.o:_00498_DS_=0x33b
00000338                      main.o:_00494_DS_:
00000338 e4fc                 BSR 0x3, 0x6
00000339 fd5e                 CLRR 0x21
0000033a                      main.o:_00497_DS_:
0000033a deff                 MOVIA 0x0
0000033b                      main.o:_00498_DS_:
0000033b ffef                 RET
0000033c                      _gotoSleep:
0000033c d2a6                 LCALL 0x559; _setInput=0x559
0000033d e0fc                 BCR 0x3, 0x6
0000033e fd03                 CLRR 0x7c
0000033f fd02                 CLRR 0x7d
00000340 e4fc                 BSR 0x3, 0x6
00000341 fd49                 CLRR 0x36
00000342 fdff                 CLRA
00000343 fff9                 IOST 0x6
00000344 fd79                 CLRR 0x6
00000345 e0fc                 BCR 0x3, 0x6
00000346 fd7a                 CLRR 0x5
00000347 dec1                 MOVIA 0x3e
00000348 fffa                 IOST 0x5
00000349 fd08                 CLRR 0x77
0000034a fd07                 CLRR 0x78
0000034b d49f                 LCALL 0x360; _pwmStop=0x360
0000034c d48f                 LCALL 0x370; _pwm1Stop=0x370
0000034d e4fc                 BSR 0x3, 0x6
0000034e fd5f                 CLRR 0x20
0000034f ded7                 MOVIA 0x28
00000350 ff6a                 MOVAR 0x15
00000351 def4                 MOVIA 0xb
00000352 ff71                 MOVAR 0xe
00000353 def7                 MOVIA 0x8
00000354 ff77                 MOVAR 0x8
00000355 fd70                 CLRR 0xf
00000356 fffd                 CLRWDT
00000357 fffb                 ENI
00000358 fffe                 SLEEP
00000359 fd6a                 CLRR 0x15
0000035a defe                 MOVIA 0x1
0000035b ff71                 MOVAR 0xe
0000035c fd70                 CLRR 0xf
0000035d de57                 MOVIA 0xa8
0000035e ff77                 MOVAR 0x8
0000035f ffef                 RET
00000360                      _pwmStop:
00000360 fdff                 CLRA
00000361 ffb5                 SFUN 0xa
00000362 ffef                 RET
00000363                      _pwmInit:
00000363 ff95                 SFUNR 0xa
00000364 e0fc                 BCR 0x3, 0x6
00000365 ff54                 MOVAR 0x2b
00000366 f054                 BTRSC 0x2b, 0x7
00000367 c490                 LGOTO 0x36f; main.o:_00473_DS_=0x36f
00000368 fd66                 CLRR 0x19
00000369 de9b                 MOVIA 0x64
0000036a ffb6                 SFUN 0x9
0000036b defe                 MOVIA 0x1
0000036c ffb4                 SFUN 0xb
0000036d de7c                 MOVIA 0x83
0000036e ffb5                 SFUN 0xa
0000036f                      main.o:_00473_DS_:
0000036f ffef                 RET
00000370                      _pwm1Stop:
00000370 fdff                 CLRA
00000371 ffbe                 SFUN 0x1
00000372 ffef                 RET
00000373                      _pwm1Init:
00000373 ff9e                 SFUNR 0x1
00000374 e0fc                 BCR 0x3, 0x6
00000375 ff55                 MOVAR 0x2a
00000376 f055                 BTRSC 0x2a, 0x7
00000377 c480                 LGOTO 0x37f; main.o:_00462_DS_=0x37f
00000378 fd66                 CLRR 0x19
00000379 dee7                 MOVIA 0x18
0000037a ffbf                 SFUN 0x0
0000037b fdff                 CLRA
0000037c ffbd                 SFUN 0x2
0000037d de7c                 MOVIA 0x83
0000037e ffbe                 SFUN 0x1
0000037f                      main.o:_00462_DS_:
0000037f ffef                 RET
00000380                      _powerOff:
00000380 e4fc                 BSR 0x3, 0x6
00000381 fd5f                 CLRR 0x20
00000382 d49f                 LCALL 0x360; _pwmStop=0x360
00000383 ffef                 RET
00000384                      _initSys:
00000384 ffec                 DISI
00000385 dec1                 MOVIA 0x3e
00000386 fffa                 IOST 0x5
00000387 fdff                 CLRA
00000388 fff9                 IOST 0x6
00000389 fd79                 CLRR 0x6
0000038a e0fc                 BCR 0x3, 0x6
0000038b fd7a                 CLRR 0x5
0000038c de00                 MOVIA 0xff
0000038d fff6                 IOST 0x9
0000038e ff73                 MOVAR 0xc
0000038f ff74                 MOVAR 0xb
00000390 defe                 MOVIA 0x1
00000391 ff71                 MOVAR 0xe
00000392 fdff                 CLRA
00000393 fff0                 IOST 0xf
00000394 dec8                 MOVIA 0x37
00000395 ff7e                 MOVAR 0x1
00000396 defe                 MOVIA 0x1
00000397 fffc                 T0MD
00000398 fff0                 IOST 0xf
00000399 de77                 MOVIA 0x88
0000039a ff77                 MOVAR 0x8
0000039b defe                 MOVIA 0x1
0000039c fff0                 IOST 0xf
0000039d fffb                 ENI
0000039e ffef                 RET
0000039f                      _keyCtr:
0000039f e0fc                 BCR 0x3, 0x6
000003a0 f8fa                 COMR 0x5, 0x0
000003a1 ff56                 MOVAR 0x29
000003a2 dedf                 MOVIA 0x20
000003a3 ef56                 ANDAR 0x29, 0x1
000003a4 fed6                 MOVR 0x29, 0x0
000003a5 d4ec                 LCALL 0x313; _keyRead=0x313
000003a6 e0fc                 BCR 0x3, 0x6
000003a7 ff56                 MOVAR 0x29
000003a8 dbfe                 XORIA 0x1
000003a9 f6fc                 BTRSS 0x3, 0x2
000003aa c3f8                 LGOTO 0x407; main.o:_00445_DS_=0x407
000003ab fd05                 CLRR 0x7a
000003ac e4fc                 BSR 0x3, 0x6
000003ad fd5b                 CLRR 0x24
000003ae fd56                 CLRR 0x29
000003af fd55                 CLRR 0x2a
000003b0 fedf                 MOVR 0x20, 0x0
000003b1 f6fc                 BTRSS 0x3, 0x2
000003b2 c437                 LGOTO 0x3c8; main.o:_00415_DS_=0x3c8
000003b3 e0fc                 BCR 0x3, 0x6
000003b4 fd04                 CLRR 0x7b
000003b5 defc                 MOVIA 0x3
000003b6 e4fc                 BSR 0x3, 0x6
000003b7 ff5b                 MOVAR 0x24
000003b8 fecc                 MOVR 0x33, 0x0
000003b9 fbca                 SUBAR 0x35, 0x0
000003ba f3fc                 BTRSC 0x3, 0x0
000003bb c43b                 LGOTO 0x3c4; main.o:_00413_DS_=0x3c4
000003bc fecc                 MOVR 0x33, 0x0
000003bd ff4a                 MOVAR 0x35
000003be de9b                 MOVIA 0x64
000003bf fbca                 SUBAR 0x35, 0x0
000003c0 f7fc                 BTRSS 0x3, 0x0
000003c1 c43b                 LGOTO 0x3c4; main.o:_00413_DS_=0x3c4
000003c2 de9c                 MOVIA 0x63
000003c3 ff4a                 MOVAR 0x35
000003c4                      main.o:_00413_DS_:
000003c4 defe                 MOVIA 0x1
000003c5 e4fc                 BSR 0x3, 0x6
000003c6 ff49                 MOVAR 0x36
000003c7 c3d8                 LGOTO 0x427; main.o:_00447_DS_=0x427
000003c8                      main.o:_00415_DS_:
000003c8 e4fc                 BSR 0x3, 0x6
000003c9 fa5f                 INCR 0x20, 0x1
000003ca def8                 MOVIA 0x7
000003cb fbdf                 SUBAR 0x20, 0x0
000003cc f7fc                 BTRSS 0x3, 0x0
000003cd c42f                 LGOTO 0x3d0; main.o:_00417_DS_=0x3d0
000003ce defe                 MOVIA 0x1
000003cf ff5f                 MOVAR 0x20
000003d0                      main.o:_00417_DS_:
000003d0 e4fc                 BSR 0x3, 0x6
000003d1 fedf                 MOVR 0x20, 0x0
000003d2 dbfe                 XORIA 0x1
000003d3 f6fc                 BTRSS 0x3, 0x2
000003d4 c427                 LGOTO 0x3d8; main.o:_00433_DS_=0x3d8
000003d5 ded7                 MOVIA 0x28
000003d6 ff5a                 MOVAR 0x25
000003d7 c400                 LGOTO 0x3ff; main.o:_00434_DS_=0x3ff
000003d8                      main.o:_00433_DS_:
000003d8 e4fc                 BSR 0x3, 0x6
000003d9 fedf                 MOVR 0x20, 0x0
000003da dbfd                 XORIA 0x2
000003db f6fc                 BTRSS 0x3, 0x2
000003dc c41f                 LGOTO 0x3e0; main.o:_00430_DS_=0x3e0
000003dd ded5                 MOVIA 0x2a
000003de ff5a                 MOVAR 0x25
000003df c400                 LGOTO 0x3ff; main.o:_00434_DS_=0x3ff
000003e0                      main.o:_00430_DS_:
000003e0 e4fc                 BSR 0x3, 0x6
000003e1 fedf                 MOVR 0x20, 0x0
000003e2 dbfc                 XORIA 0x3
000003e3 f6fc                 BTRSS 0x3, 0x2
000003e4 c417                 LGOTO 0x3e8; main.o:_00427_DS_=0x3e8
000003e5 ded3                 MOVIA 0x2c
000003e6 ff5a                 MOVAR 0x25
000003e7 c400                 LGOTO 0x3ff; main.o:_00434_DS_=0x3ff
000003e8                      main.o:_00427_DS_:
000003e8 e4fc                 BSR 0x3, 0x6
000003e9 fedf                 MOVR 0x20, 0x0
000003ea dbfb                 XORIA 0x4
000003eb f6fc                 BTRSS 0x3, 0x2
000003ec c40f                 LGOTO 0x3f0; main.o:_00424_DS_=0x3f0
000003ed ded1                 MOVIA 0x2e
000003ee ff5a                 MOVAR 0x25
000003ef c400                 LGOTO 0x3ff; main.o:_00434_DS_=0x3ff
000003f0                      main.o:_00424_DS_:
000003f0 e4fc                 BSR 0x3, 0x6
000003f1 fedf                 MOVR 0x20, 0x0
000003f2 dbfa                 XORIA 0x5
000003f3 f6fc                 BTRSS 0x3, 0x2
000003f4 c407                 LGOTO 0x3f8; main.o:_00421_DS_=0x3f8
000003f5 decf                 MOVIA 0x30
000003f6 ff5a                 MOVAR 0x25
000003f7 c400                 LGOTO 0x3ff; main.o:_00434_DS_=0x3ff
000003f8                      main.o:_00421_DS_:
000003f8 e4fc                 BSR 0x3, 0x6
000003f9 fedf                 MOVR 0x20, 0x0
000003fa dbf9                 XORIA 0x6
000003fb f6fc                 BTRSS 0x3, 0x2
000003fc c400                 LGOTO 0x3ff; main.o:_00434_DS_=0x3ff
000003fd decd                 MOVIA 0x32
000003fe ff5a                 MOVAR 0x25
000003ff                      main.o:_00434_DS_:
000003ff e4fc                 BSR 0x3, 0x6
00000400 fedf                 MOVR 0x20, 0x0
00000401 f2fc                 BTRSC 0x3, 0x2
00000402 c3d8                 LGOTO 0x427; main.o:_00447_DS_=0x427
00000403 feda                 MOVR 0x25, 0x0
00000404 ffb3                 SFUN 0xc
00000405 d49c                 LCALL 0x363; _pwmInit=0x363
00000406 c3d8                 LGOTO 0x427; main.o:_00447_DS_=0x427
00000407                      main.o:_00445_DS_:
00000407 e0fc                 BCR 0x3, 0x6
00000408 fed6                 MOVR 0x29, 0x0
00000409 dbfd                 XORIA 0x2
0000040a f6fc                 BTRSS 0x3, 0x2
0000040b c3d8                 LGOTO 0x427; main.o:_00447_DS_=0x427
0000040c e4fc                 BSR 0x3, 0x6
0000040d fedf                 MOVR 0x20, 0x0
0000040e f2fc                 BTRSC 0x3, 0x2
0000040f c3ea                 LGOTO 0x415; main.o:_00440_DS_=0x415
00000410 fd5f                 CLRR 0x20
00000411 d47f                 LCALL 0x380; _powerOff=0x380
00000412 e4fc                 BSR 0x3, 0x6
00000413 fd49                 CLRR 0x36
00000414 c3d8                 LGOTO 0x427; main.o:_00447_DS_=0x427
00000415                      main.o:_00440_DS_:
00000415 e4fc                 BSR 0x3, 0x6
00000416 fedd                 MOVR 0x22, 0x0
00000417 dbf5                 XORIA 0xa
00000418 f6fc                 BTRSS 0x3, 0x2
00000419 c3e1                 LGOTO 0x41e; main.o:_00438_DS_=0x41e
0000041a e0fc                 BCR 0x3, 0x6
0000041b fd08                 CLRR 0x77
0000041c fd07                 CLRR 0x78
0000041d c3d8                 LGOTO 0x427; main.o:_00447_DS_=0x427
0000041e                      main.o:_00438_DS_:
0000041e defe                 MOVIA 0x1
0000041f e4fc                 BSR 0x3, 0x6
00000420 ff5f                 MOVAR 0x20
00000421 deb9                 MOVIA 0x46
00000422 ffb3                 SFUN 0xc
00000423 ff59                 MOVAR 0x26
00000424 ded7                 MOVIA 0x28
00000425 ff5a                 MOVAR 0x25
00000426 d49c                 LCALL 0x363; _pwmInit=0x363
00000427                      main.o:_00447_DS_:
00000427 ffef                 RET
00000428                      _refreshNub:
00000428 defc                 MOVIA 0x3
00000429 e0fc                 BCR 0x3, 0x6
0000042a fb80                 SUBAR 0x7f, 0x0
0000042b f6fc                 BTRSS 0x3, 0x2
0000042c c3d0                 LGOTO 0x42f; main.o:_00402_DS_=0x42f
0000042d de7b                 MOVIA 0x84
0000042e fb81                 SUBAR 0x7e, 0x0
0000042f                      main.o:_00402_DS_:
0000042f f7fc                 BTRSS 0x3, 0x0
00000430 c3cc                 LGOTO 0x433; main.o:_00362_DS_=0x433
00000431 d2a6                 LCALL 0x559; _setInput=0x559
00000432 c366                 LGOTO 0x499; main.o:_00379_DS_=0x499
00000433                      main.o:_00362_DS_:
00000433 e4fc                 BSR 0x3, 0x6
00000434 fece                 MOVR 0x31, 0x0
00000435 edd2                 XORAR 0x2d, 0x0
00000436 f6fc                 BTRSS 0x3, 0x2
00000437 c3c3                 LGOTO 0x43c; main.o:_00370_DS_=0x43c
00000438 fecd                 MOVR 0x32, 0x0
00000439 edd1                 XORAR 0x2e, 0x0
0000043a f2fc                 BTRSC 0x3, 0x2
0000043b c398                 LGOTO 0x467; main.o:_00371_DS_=0x467
0000043c                      main.o:_00370_DS_:
0000043c e4fc                 BSR 0x3, 0x6
0000043d fedf                 MOVR 0x20, 0x0
0000043e f6fc                 BTRSS 0x3, 0x2
0000043f c3ac                 LGOTO 0x453; main.o:_00368_DS_=0x453
00000440 fa50                 INCR 0x2f, 0x1
00000441 f2fc                 BTRSC 0x3, 0x2
00000442 fa4f                 INCR 0x30, 0x1
00000443 deff                 MOVIA 0x0
00000444 fbcf                 SUBAR 0x30, 0x0
00000445 f6fc                 BTRSS 0x3, 0x2
00000446 c3b6                 LGOTO 0x449; main.o:_00404_DS_=0x449
00000447 deeb                 MOVIA 0x14
00000448 fbd0                 SUBAR 0x2f, 0x0
00000449                      main.o:_00404_DS_:
00000449 f7fc                 BTRSS 0x3, 0x0
0000044a c395                 LGOTO 0x46a; main.o:_00372_DS_=0x46a
0000044b e4fc                 BSR 0x3, 0x6
0000044c fd50                 CLRR 0x2f
0000044d fd4f                 CLRR 0x30
0000044e fece                 MOVR 0x31, 0x0
0000044f ff52                 MOVAR 0x2d
00000450 fecd                 MOVR 0x32, 0x0
00000451 ff51                 MOVAR 0x2e
00000452 c395                 LGOTO 0x46a; main.o:_00372_DS_=0x46a
00000453                      main.o:_00368_DS_:
00000453 e4fc                 BSR 0x3, 0x6
00000454 fa50                 INCR 0x2f, 0x1
00000455 f2fc                 BTRSC 0x3, 0x2
00000456 fa4f                 INCR 0x30, 0x1
00000457 deff                 MOVIA 0x0
00000458 fbcf                 SUBAR 0x30, 0x0
00000459 f6fc                 BTRSS 0x3, 0x2
0000045a c3a2                 LGOTO 0x45d; main.o:_00405_DS_=0x45d
0000045b deeb                 MOVIA 0x14
0000045c fbd0                 SUBAR 0x2f, 0x0
0000045d                      main.o:_00405_DS_:
0000045d f7fc                 BTRSS 0x3, 0x0
0000045e c395                 LGOTO 0x46a; main.o:_00372_DS_=0x46a
0000045f e4fc                 BSR 0x3, 0x6
00000460 fd50                 CLRR 0x2f
00000461 fd4f                 CLRR 0x30
00000462 fece                 MOVR 0x31, 0x0
00000463 ff52                 MOVAR 0x2d
00000464 fecd                 MOVR 0x32, 0x0
00000465 ff51                 MOVAR 0x2e
00000466 c395                 LGOTO 0x46a; main.o:_00372_DS_=0x46a
00000467                      main.o:_00371_DS_:
00000467 e4fc                 BSR 0x3, 0x6
00000468 fd50                 CLRR 0x2f
00000469 fd4f                 CLRR 0x30
0000046a                      main.o:_00372_DS_:
0000046a e4fc                 BSR 0x3, 0x6
0000046b fedf                 MOVR 0x20, 0x0
0000046c f6fc                 BTRSS 0x3, 0x2
0000046d c38f                 LGOTO 0x470; main.o:_00374_DS_=0x470
0000046e fedb                 MOVR 0x24, 0x0
0000046f f6fc                 BTRSS 0x3, 0x2
00000470                      main.o:_00374_DS_:
00000470 d1b9                 LCALL 0x646; _showKeyLed=0x646
00000471 e4fc                 BSR 0x3, 0x6
00000472 fed4                 MOVR 0x2b, 0x0
00000473 f2fc                 BTRSC 0x3, 0x2
00000474 c386                 LGOTO 0x479; main.o:_00378_DS_=0x479
00000475 def4                 MOVIA 0xb
00000476 ff52                 MOVAR 0x2d
00000477 def3                 MOVIA 0xc
00000478 ff51                 MOVAR 0x2e
00000479                      main.o:_00378_DS_:
00000479 e4fc                 BSR 0x3, 0x6
0000047a fed2                 MOVR 0x2d, 0x0
0000047b da97                 ADDIA 0x68
0000047c e0fc                 BCR 0x3, 0x6
0000047d ff58                 MOVAR 0x27
0000047e deff                 MOVIA 0x0
0000047f f3fc                 BTRSC 0x3, 0x0
00000480 dafe                 ADDIA 0x1
00000481 ff57                 MOVAR 0x28
00000482 fed8                 MOVR 0x27, 0x0
00000483 ff3b                 MOVAR 0x44
00000484 fed7                 MOVR 0x28, 0x0
00000485 ff3a                 MOVAR 0x45
00000486 deff                 MOVIA 0x0
00000487 d0ce                 LCALL 0x731; __gptrget=0x731
00000488 d152                 LCALL 0x6ad; _showNubShiwei=0x6ad
00000489 e4fc                 BSR 0x3, 0x6
0000048a fed1                 MOVR 0x2e, 0x0
0000048b da97                 ADDIA 0x68
0000048c e0fc                 BCR 0x3, 0x6
0000048d ff58                 MOVAR 0x27
0000048e deff                 MOVIA 0x0
0000048f f3fc                 BTRSC 0x3, 0x0
00000490 dafe                 ADDIA 0x1
00000491 ff57                 MOVAR 0x28
00000492 fed8                 MOVR 0x27, 0x0
00000493 ff3b                 MOVAR 0x44
00000494 fed7                 MOVR 0x28, 0x0
00000495 ff3a                 MOVAR 0x45
00000496 deff                 MOVIA 0x0
00000497 d0ce                 LCALL 0x731; __gptrget=0x731
00000498 d192                 LCALL 0x66d; _showNubGewei=0x66d
00000499                      main.o:_00379_DS_:
00000499 ffef                 RET
0000049a                      _chrgCtr:
0000049a e0fc                 BCR 0x3, 0x6
0000049b f67a                 BTRSS 0x5, 0x3
0000049c c2eb                 LGOTO 0x514; main.o:_00354_DS_=0x514
0000049d e60a                 BSR 0x75, 0x3
0000049e defe                 MOVIA 0x1
0000049f e4fc                 BSR 0x3, 0x6
000004a0 ff49                 MOVAR 0x36
000004a1 fd5f                 CLRR 0x20
000004a2 fd5b                 CLRR 0x24
000004a3 d49f                 LCALL 0x360; _pwmStop=0x360
000004a4 de9b                 MOVIA 0x64
000004a5 e4fc                 BSR 0x3, 0x6
000004a6 fbcc                 SUBAR 0x33, 0x0
000004a7 f7fc                 BTRSS 0x3, 0x0
000004a8 c340                 LGOTO 0x4bf; main.o:_00339_DS_=0x4bf
000004a9 defb                 MOVIA 0x4
000004aa ff48                 MOVAR 0x37
000004ab def6                 MOVIA 0x9
000004ac ff4e                 MOVAR 0x31
000004ad ff4d                 MOVAR 0x32
000004ae de98                 MOVIA 0x67
000004af fbcc                 SUBAR 0x33, 0x0
000004b0 f7fc                 BTRSS 0x3, 0x0
000004b1 c348                 LGOTO 0x4b7; main.o:_00319_DS_=0x4b7
000004b2 fa53                 INCR 0x2c, 0x1
000004b3 de36                 MOVIA 0xc9
000004b4 fbd3                 SUBAR 0x2c, 0x0
000004b5 f3fc                 BTRSC 0x3, 0x0
000004b6 d48f                 LCALL 0x370; _pwm1Stop=0x370
000004b7                      main.o:_00319_DS_:
000004b7 e279                 BCR 0x6, 0x3
000004b8 ffe9                 IOSTR 0x6
000004b9 e0fc                 BCR 0x3, 0x6
000004ba ff59                 MOVAR 0x26
000004bb e659                 BSR 0x26, 0x3
000004bc fed9                 MOVR 0x26, 0x0
000004bd fff9                 IOST 0x6
000004be c2b3                 LGOTO 0x54c; main.o:_00011_DS_=0x54c
000004bf                      main.o:_00339_DS_:
000004bf e4fc                 BSR 0x3, 0x6
000004c0 fd53                 CLRR 0x2c
000004c1 ffe9                 IOSTR 0x6
000004c2 e0fc                 BCR 0x3, 0x6
000004c3 ff59                 MOVAR 0x26
000004c4 e259                 BCR 0x26, 0x3
000004c5 fed9                 MOVR 0x26, 0x0
000004c6 fff9                 IOST 0x6
000004c7 de9c                 MOVIA 0x63
000004c8 e4fc                 BSR 0x3, 0x6
000004c9 fbca                 SUBAR 0x35, 0x0
000004ca f3fc                 BTRSC 0x3, 0x0
000004cb c324                 LGOTO 0x4db; main.o:_00010_DS_=0x4db
000004cc feca                 MOVR 0x35, 0x0
000004cd fbcc                 SUBAR 0x33, 0x0
000004ce f7fc                 BTRSS 0x3, 0x0
000004cf c324                 LGOTO 0x4db; main.o:_00010_DS_=0x4db
000004d0 e0fc                 BCR 0x3, 0x6
000004d1 fe83                 MOVR 0x7c, 0x0
000004d2 dbfe                 XORIA 0x1
000004d3 f6fc                 BTRSS 0x3, 0x2
000004d4 c324                 LGOTO 0x4db; main.o:_00010_DS_=0x4db
000004d5 fe82                 MOVR 0x7d, 0x0
000004d6 dbff                 XORIA 0x0
000004d7 f6fc                 BTRSS 0x3, 0x2
000004d8 c324                 LGOTO 0x4db; main.o:_00010_DS_=0x4db
000004d9 e4fc                 BSR 0x3, 0x6
000004da fa4a                 INCR 0x35, 0x1
000004db                      main.o:_00010_DS_:
000004db def5                 MOVIA 0xa
000004dc ff3a                 MOVAR 0x45
000004dd e4fc                 BSR 0x3, 0x6
000004de feca                 MOVR 0x35, 0x0
000004df d11b                 LCALL 0x6e4; __divuchar=0x6e4
000004e0 e4fc                 BSR 0x3, 0x6
000004e1 ff4e                 MOVAR 0x31
000004e2 def5                 MOVIA 0xa
000004e3 ff3a                 MOVAR 0x45
000004e4 feca                 MOVR 0x35, 0x0
000004e5 d0f2                 LCALL 0x70d; __moduchar=0x70d
000004e6 e4fc                 BSR 0x3, 0x6
000004e7 ff4d                 MOVAR 0x32
000004e8 defd                 MOVIA 0x2
000004e9 fbce                 SUBAR 0x31, 0x0
000004ea f3fc                 BTRSC 0x3, 0x0
000004eb c309                 LGOTO 0x4f6; main.o:_00336_DS_=0x4f6
000004ec defd                 MOVIA 0x2
000004ed fbc8                 SUBAR 0x37, 0x0
000004ee f3fc                 BTRSC 0x3, 0x0
000004ef c2b3                 LGOTO 0x54c; main.o:_00011_DS_=0x54c
000004f0 def7                 MOVIA 0x8
000004f1 ffbc                 SFUN 0x3
000004f2 defe                 MOVIA 0x1
000004f3 ff48                 MOVAR 0x37
000004f4 d48c                 LCALL 0x373; _pwm1Init=0x373
000004f5 c2b3                 LGOTO 0x54c; main.o:_00011_DS_=0x54c
000004f6                      main.o:_00336_DS_:
000004f6 def6                 MOVIA 0x9
000004f7 e4fc                 BSR 0x3, 0x6
000004f8 fbce                 SUBAR 0x31, 0x0
000004f9 f3fc                 BTRSC 0x3, 0x0
000004fa c2f6                 LGOTO 0x509; main.o:_00332_DS_=0x509
000004fb def7                 MOVIA 0x8
000004fc fbcd                 SUBAR 0x32, 0x0
000004fd f3fc                 BTRSC 0x3, 0x0
000004fe c2f6                 LGOTO 0x509; main.o:_00332_DS_=0x509
000004ff defc                 MOVIA 0x3
00000500 fbc8                 SUBAR 0x37, 0x0
00000501 f3fc                 BTRSC 0x3, 0x0
00000502 c2b3                 LGOTO 0x54c; main.o:_00011_DS_=0x54c
00000503 defd                 MOVIA 0x2
00000504 ff48                 MOVAR 0x37
00000505 def2                 MOVIA 0xd
00000506 ffbc                 SFUN 0x3
00000507 d48c                 LCALL 0x373; _pwm1Init=0x373
00000508 c2b3                 LGOTO 0x54c; main.o:_00011_DS_=0x54c
00000509                      main.o:_00332_DS_:
00000509 defb                 MOVIA 0x4
0000050a e4fc                 BSR 0x3, 0x6
0000050b fbc8                 SUBAR 0x37, 0x0
0000050c f3fc                 BTRSC 0x3, 0x0
0000050d c2b3                 LGOTO 0x54c; main.o:_00011_DS_=0x54c
0000050e def3                 MOVIA 0xc
0000050f ffbc                 SFUN 0x3
00000510 defc                 MOVIA 0x3
00000511 ff48                 MOVAR 0x37
00000512 d48c                 LCALL 0x373; _pwm1Init=0x373
00000513 c2b3                 LGOTO 0x54c; main.o:_00011_DS_=0x54c
00000514                      main.o:_00354_DS_:
00000514 e4fc                 BSR 0x3, 0x6
00000515 fd48                 CLRR 0x37
00000516 fd53                 CLRR 0x2c
00000517 d48f                 LCALL 0x370; _pwm1Stop=0x370
00000518 e0fc                 BCR 0x3, 0x6
00000519 e20a                 BCR 0x75, 0x3
0000051a e4fc                 BSR 0x3, 0x6
0000051b fedf                 MOVR 0x20, 0x0
0000051c f2fc                 BTRSC 0x3, 0x2
0000051d c2db                 LGOTO 0x524; main.o:_00351_DS_=0x524
0000051e defe                 MOVIA 0x1
0000051f ff49                 MOVAR 0x36
00000520 fd4e                 CLRR 0x31
00000521 fedf                 MOVR 0x20, 0x0
00000522 ff4d                 MOVAR 0x32
00000523 c2b3                 LGOTO 0x54c; main.o:_00011_DS_=0x54c
00000524                      main.o:_00351_DS_:
00000524 de9b                 MOVIA 0x64
00000525 e4fc                 BSR 0x3, 0x6
00000526 fbcc                 SUBAR 0x33, 0x0
00000527 f7fc                 BTRSS 0x3, 0x0
00000528 c2d2                 LGOTO 0x52d; main.o:_00344_DS_=0x52d
00000529 def6                 MOVIA 0x9
0000052a ff4e                 MOVAR 0x31
0000052b ff4d                 MOVAR 0x32
0000052c c2c2                 LGOTO 0x53d; main.o:_00345_DS_=0x53d
0000052d                      main.o:_00344_DS_:
0000052d e4fc                 BSR 0x3, 0x6
0000052e fedb                 MOVR 0x24, 0x0
0000052f f2fc                 BTRSC 0x3, 0x2
00000530 c2c2                 LGOTO 0x53d; main.o:_00345_DS_=0x53d
00000531 def5                 MOVIA 0xa
00000532 ff3a                 MOVAR 0x45
00000533 feca                 MOVR 0x35, 0x0
00000534 d11b                 LCALL 0x6e4; __divuchar=0x6e4
00000535 e4fc                 BSR 0x3, 0x6
00000536 ff4e                 MOVAR 0x31
00000537 def5                 MOVIA 0xa
00000538 ff3a                 MOVAR 0x45
00000539 feca                 MOVR 0x35, 0x0
0000053a d0f2                 LCALL 0x70d; __moduchar=0x70d
0000053b e4fc                 BSR 0x3, 0x6
0000053c ff4d                 MOVAR 0x32
0000053d                      main.o:_00345_DS_:
0000053d e0fc                 BCR 0x3, 0x6
0000053e fe83                 MOVR 0x7c, 0x0
0000053f dbfe                 XORIA 0x1
00000540 f6fc                 BTRSS 0x3, 0x2
00000541 c2b3                 LGOTO 0x54c; main.o:_00011_DS_=0x54c
00000542 fe82                 MOVR 0x7d, 0x0
00000543 dbff                 XORIA 0x0
00000544 f6fc                 BTRSS 0x3, 0x2
00000545 c2b3                 LGOTO 0x54c; main.o:_00011_DS_=0x54c
00000546 e4fc                 BSR 0x3, 0x6
00000547 feca                 MOVR 0x35, 0x0
00000548 fbcc                 SUBAR 0x33, 0x0
00000549 f3fc                 BTRSC 0x3, 0x0
0000054a c2b3                 LGOTO 0x54c; main.o:_00011_DS_=0x54c
0000054b f94a                 DECR 0x35, 0x1
0000054c                      main.o:_00011_DS_:
0000054c ffef                 RET
0000054d                      _delayms:
0000054d e0fc                 BCR 0x3, 0x6
0000054e ff29                 MOVAR 0x56
0000054f fd28                 CLRR 0x57
00000550                      number.o:_00328_DS_:
00000550 e0fc                 BCR 0x3, 0x6
00000551 fea9                 MOVR 0x56, 0x0
00000552 fba8                 SUBAR 0x57, 0x0
00000553 f3fc                 BTRSC 0x3, 0x0
00000554 c2a7                 LGOTO 0x558; number.o:_00330_DS_=0x558
00000555 ffff                 NOP
00000556 fa28                 INCR 0x57, 0x1
00000557 c2af                 LGOTO 0x550; number.o:_00328_DS_=0x550
00000558                      number.o:_00330_DS_:
00000558 ffef                 RET
00000559                      _setInput:
00000559 ffea                 IOSTR 0x5
0000055a e0fc                 BCR 0x3, 0x6
0000055b ff2a                 MOVAR 0x55
0000055c de3e                 MOVIA 0xc1
0000055d ee2a                 IORAR 0x55, 0x1
0000055e feaa                 MOVR 0x55, 0x0
0000055f fffa                 IOST 0x5
00000560 ffe9                 IOSTR 0x6
00000561 ff2a                 MOVAR 0x55
00000562 defc                 MOVIA 0x3
00000563 ee2a                 IORAR 0x55, 0x1
00000564 feaa                 MOVR 0x55, 0x0
00000565 fff9                 IOST 0x6
00000566 ffef                 RET
00000567                      _setOutput:
00000567 e0fc                 BCR 0x3, 0x6
00000568 ff2b                 MOVAR 0x54
00000569 defe                 MOVIA 0x1
0000056a fbab                 SUBAR 0x54, 0x0
0000056b f7fc                 BTRSS 0x3, 0x0
0000056c c25f                 LGOTO 0x5a0; number.o:_00307_DS_=0x5a0
0000056d def9                 MOVIA 0x6
0000056e fbab                 SUBAR 0x54, 0x0
0000056f f3fc                 BTRSC 0x3, 0x0
00000570 c25f                 LGOTO 0x5a0; number.o:_00307_DS_=0x5a0
00000571 f92b                 DECR 0x54, 0x1
00000572 defa                 MOVIA 0x5
00000573 ff75                 MOVAR 0xa
00000574 feab                 MOVR 0x54, 0x0
00000575 da86                 ADDIA 0x79
00000576 f3fc                 BTRSC 0x3, 0x0
00000577 fa75                 INCR 0xa, 0x1
00000578 ff7d                 MOVAR 0x2
00000579                      number.o:_00317_DS_:
00000579 c265                 LGOTO 0x59a; number.o:_00305_DS_=0x59a
0000057a c26c                 LGOTO 0x593; number.o:_00304_DS_=0x593
0000057b c273                 LGOTO 0x58c; number.o:_00303_DS_=0x58c
0000057c c27a                 LGOTO 0x585; number.o:_00302_DS_=0x585
0000057d c281                 LGOTO 0x57e; number.o:_00301_DS_=0x57e
0000057e                      number.o:_00301_DS_:
0000057e ffea                 IOSTR 0x5
0000057f e0fc                 BCR 0x3, 0x6
00000580 ff2b                 MOVAR 0x54
00000581 e0ab                 BCR 0x54, 0x6
00000582 feab                 MOVR 0x54, 0x0
00000583 fffa                 IOST 0x5
00000584 c25f                 LGOTO 0x5a0; number.o:_00307_DS_=0x5a0
00000585                      number.o:_00302_DS_:
00000585 ffea                 IOSTR 0x5
00000586 e0fc                 BCR 0x3, 0x6
00000587 ff2b                 MOVAR 0x54
00000588 e02b                 BCR 0x54, 0x7
00000589 feab                 MOVR 0x54, 0x0
0000058a fffa                 IOST 0x5
0000058b c25f                 LGOTO 0x5a0; number.o:_00307_DS_=0x5a0
0000058c                      number.o:_00303_DS_:
0000058c ffe9                 IOSTR 0x6
0000058d e0fc                 BCR 0x3, 0x6
0000058e ff2b                 MOVAR 0x54
0000058f e32b                 BCR 0x54, 0x1
00000590 feab                 MOVR 0x54, 0x0
00000591 fff9                 IOST 0x6
00000592 c25f                 LGOTO 0x5a0; number.o:_00307_DS_=0x5a0
00000593                      number.o:_00304_DS_:
00000593 ffe9                 IOSTR 0x6
00000594 e0fc                 BCR 0x3, 0x6
00000595 ff2b                 MOVAR 0x54
00000596 e3ab                 BCR 0x54, 0x0
00000597 feab                 MOVR 0x54, 0x0
00000598 fff9                 IOST 0x6
00000599 c25f                 LGOTO 0x5a0; number.o:_00307_DS_=0x5a0
0000059a                      number.o:_00305_DS_:
0000059a ffea                 IOSTR 0x5
0000059b e0fc                 BCR 0x3, 0x6
0000059c ff2b                 MOVAR 0x54
0000059d e3ab                 BCR 0x54, 0x0
0000059e feab                 MOVR 0x54, 0x0
0000059f fffa                 IOST 0x5
000005a0                      number.o:_00307_DS_:
000005a0 ffef                 RET
000005a1                      _setlowOutput:
000005a1 e0fc                 BCR 0x3, 0x6
000005a2 ff2c                 MOVAR 0x53
000005a3 defe                 MOVIA 0x1
000005a4 fbac                 SUBAR 0x53, 0x0
000005a5 f7fc                 BTRSS 0x3, 0x0
000005a6 c23e                 LGOTO 0x5c1; number.o:_00286_DS_=0x5c1
000005a7 def9                 MOVIA 0x6
000005a8 fbac                 SUBAR 0x53, 0x0
000005a9 f3fc                 BTRSC 0x3, 0x0
000005aa c23e                 LGOTO 0x5c1; number.o:_00286_DS_=0x5c1
000005ab f92c                 DECR 0x53, 0x1
000005ac defa                 MOVIA 0x5
000005ad ff75                 MOVAR 0xa
000005ae feac                 MOVR 0x53, 0x0
000005af da4c                 ADDIA 0xb3
000005b0 f3fc                 BTRSC 0x3, 0x0
000005b1 fa75                 INCR 0xa, 0x1
000005b2 ff7d                 MOVAR 0x2
000005b3                      number.o:_00296_DS_:
000005b3 c23f                 LGOTO 0x5c0; number.o:_00284_DS_=0x5c0
000005b4 c241                 LGOTO 0x5be; number.o:_00283_DS_=0x5be
000005b5 c243                 LGOTO 0x5bc; number.o:_00282_DS_=0x5bc
000005b6 c245                 LGOTO 0x5ba; number.o:_00281_DS_=0x5ba
000005b7 c247                 LGOTO 0x5b8; number.o:_00280_DS_=0x5b8
000005b8                      number.o:_00280_DS_:
000005b8 e0fa                 BCR 0x5, 0x6
000005b9 c23e                 LGOTO 0x5c1; number.o:_00286_DS_=0x5c1
000005ba                      number.o:_00281_DS_:
000005ba e07a                 BCR 0x5, 0x7
000005bb c23e                 LGOTO 0x5c1; number.o:_00286_DS_=0x5c1
000005bc                      number.o:_00282_DS_:
000005bc e379                 BCR 0x6, 0x1
000005bd c23e                 LGOTO 0x5c1; number.o:_00286_DS_=0x5c1
000005be                      number.o:_00283_DS_:
000005be e3f9                 BCR 0x6, 0x0
000005bf c23e                 LGOTO 0x5c1; number.o:_00286_DS_=0x5c1
000005c0                      number.o:_00284_DS_:
000005c0 e3fa                 BCR 0x5, 0x0
000005c1                      number.o:_00286_DS_:
000005c1 ffef                 RET
000005c2                      _setHightOutput:
000005c2 e0fc                 BCR 0x3, 0x6
000005c3 ff2d                 MOVAR 0x52
000005c4 defe                 MOVIA 0x1
000005c5 fbad                 SUBAR 0x52, 0x0
000005c6 f7fc                 BTRSS 0x3, 0x0
000005c7 c21d                 LGOTO 0x5e2; number.o:_00265_DS_=0x5e2
000005c8 def9                 MOVIA 0x6
000005c9 fbad                 SUBAR 0x52, 0x0
000005ca f3fc                 BTRSC 0x3, 0x0
000005cb c21d                 LGOTO 0x5e2; number.o:_00265_DS_=0x5e2
000005cc f92d                 DECR 0x52, 0x1
000005cd defa                 MOVIA 0x5
000005ce ff75                 MOVAR 0xa
000005cf fead                 MOVR 0x52, 0x0
000005d0 da2b                 ADDIA 0xd4
000005d1 f3fc                 BTRSC 0x3, 0x0
000005d2 fa75                 INCR 0xa, 0x1
000005d3 ff7d                 MOVAR 0x2
000005d4                      number.o:_00275_DS_:
000005d4 c21e                 LGOTO 0x5e1; number.o:_00263_DS_=0x5e1
000005d5 c220                 LGOTO 0x5df; number.o:_00262_DS_=0x5df
000005d6 c222                 LGOTO 0x5dd; number.o:_00261_DS_=0x5dd
000005d7 c224                 LGOTO 0x5db; number.o:_00260_DS_=0x5db
000005d8 c226                 LGOTO 0x5d9; number.o:_00259_DS_=0x5d9
000005d9                      number.o:_00259_DS_:
000005d9 e4fa                 BSR 0x5, 0x6
000005da c21d                 LGOTO 0x5e2; number.o:_00265_DS_=0x5e2
000005db                      number.o:_00260_DS_:
000005db e47a                 BSR 0x5, 0x7
000005dc c21d                 LGOTO 0x5e2; number.o:_00265_DS_=0x5e2
000005dd                      number.o:_00261_DS_:
000005dd e779                 BSR 0x6, 0x1
000005de c21d                 LGOTO 0x5e2; number.o:_00265_DS_=0x5e2
000005df                      number.o:_00262_DS_:
000005df e7f9                 BSR 0x6, 0x0
000005e0 c21d                 LGOTO 0x5e2; number.o:_00265_DS_=0x5e2
000005e1                      number.o:_00263_DS_:
000005e1 e7fa                 BSR 0x5, 0x0
000005e2                      number.o:_00265_DS_:
000005e2 ffef                 RET
000005e3                      _showNub:
000005e3 e0fc                 BCR 0x3, 0x6
000005e4 ff2f                 MOVAR 0x50
000005e5 feba                 MOVR 0x45, 0x0
000005e6 ff2e                 MOVAR 0x51
000005e7 d2a6                 LCALL 0x559; _setInput=0x559
000005e8 dec1                 MOVIA 0x3e
000005e9 ef7a                 ANDAR 0x5, 0x1
000005ea de03                 MOVIA 0xfc
000005eb ef79                 ANDAR 0x6, 0x1
000005ec e0fc                 BCR 0x3, 0x6
000005ed feaf                 MOVR 0x50, 0x0
000005ee d298                 LCALL 0x567; _setOutput=0x567
000005ef e0fc                 BCR 0x3, 0x6
000005f0 feaf                 MOVR 0x50, 0x0
000005f1 d23d                 LCALL 0x5c2; _setHightOutput=0x5c2
000005f2 e0fc                 BCR 0x3, 0x6
000005f3 feae                 MOVR 0x51, 0x0
000005f4 d298                 LCALL 0x567; _setOutput=0x567
000005f5 e0fc                 BCR 0x3, 0x6
000005f6 feae                 MOVR 0x51, 0x0
000005f7 d25e                 LCALL 0x5a1; _setlowOutput=0x5a1
000005f8 def5                 MOVIA 0xa
000005f9 d2b2                 LCALL 0x54d; _delayms=0x54d
000005fa fffd                 CLRWDT
000005fb dec1                 MOVIA 0x3e
000005fc ef7a                 ANDAR 0x5, 0x1
000005fd de03                 MOVIA 0xfc
000005fe ef79                 ANDAR 0x6, 0x1
000005ff ffef                 RET
00000600                      _G3:
00000600 defa                 MOVIA 0x5
00000601 ff3a                 MOVAR 0x45
00000602 defe                 MOVIA 0x1
00000603 d21c                 LCALL 0x5e3; _showNub=0x5e3
00000604 ffef                 RET
00000605                      _F3:
00000605 defb                 MOVIA 0x4
00000606 ff3a                 MOVAR 0x45
00000607 defe                 MOVIA 0x1
00000608 d21c                 LCALL 0x5e3; _showNub=0x5e3
00000609 ffef                 RET
0000060a                      _E3:
0000060a defe                 MOVIA 0x1
0000060b ff3a                 MOVAR 0x45
0000060c defb                 MOVIA 0x4
0000060d d21c                 LCALL 0x5e3; _showNub=0x5e3
0000060e ffef                 RET
0000060f                      _D3:
0000060f defc                 MOVIA 0x3
00000610 ff3a                 MOVAR 0x45
00000611 defe                 MOVIA 0x1
00000612 d21c                 LCALL 0x5e3; _showNub=0x5e3
00000613 ffef                 RET
00000614                      _C3:
00000614 defe                 MOVIA 0x1
00000615 ff3a                 MOVAR 0x45
00000616 defc                 MOVIA 0x3
00000617 d21c                 LCALL 0x5e3; _showNub=0x5e3
00000618 ffef                 RET
00000619                      _B3:
00000619 defd                 MOVIA 0x2
0000061a ff3a                 MOVAR 0x45
0000061b defe                 MOVIA 0x1
0000061c d21c                 LCALL 0x5e3; _showNub=0x5e3
0000061d ffef                 RET
0000061e                      _A3:
0000061e defe                 MOVIA 0x1
0000061f ff3a                 MOVAR 0x45
00000620 defd                 MOVIA 0x2
00000621 d21c                 LCALL 0x5e3; _showNub=0x5e3
00000622 ffef                 RET
00000623                      _G2:
00000623 defa                 MOVIA 0x5
00000624 ff3a                 MOVAR 0x45
00000625 defb                 MOVIA 0x4
00000626 d21c                 LCALL 0x5e3; _showNub=0x5e3
00000627 ffef                 RET
00000628                      _F2:
00000628 defa                 MOVIA 0x5
00000629 ff3a                 MOVAR 0x45
0000062a defc                 MOVIA 0x3
0000062b d21c                 LCALL 0x5e3; _showNub=0x5e3
0000062c ffef                 RET
0000062d                      _E2:
0000062d defa                 MOVIA 0x5
0000062e ff3a                 MOVAR 0x45
0000062f defd                 MOVIA 0x2
00000630 d21c                 LCALL 0x5e3; _showNub=0x5e3
00000631 ffef                 RET
00000632                      _D2:
00000632 defb                 MOVIA 0x4
00000633 ff3a                 MOVAR 0x45
00000634 defd                 MOVIA 0x2
00000635 d21c                 LCALL 0x5e3; _showNub=0x5e3
00000636 ffef                 RET
00000637                      _C2:
00000637 defb                 MOVIA 0x4
00000638 ff3a                 MOVAR 0x45
00000639 defc                 MOVIA 0x3
0000063a d21c                 LCALL 0x5e3; _showNub=0x5e3
0000063b ffef                 RET
0000063c                      _B2:
0000063c defc                 MOVIA 0x3
0000063d ff3a                 MOVAR 0x45
0000063e defd                 MOVIA 0x2
0000063f d21c                 LCALL 0x5e3; _showNub=0x5e3
00000640 ffef                 RET
00000641                      _A2:
00000641 defd                 MOVIA 0x2
00000642 ff3a                 MOVAR 0x45
00000643 defc                 MOVIA 0x3
00000644 d21c                 LCALL 0x5e3; _showNub=0x5e3
00000645 ffef                 RET
00000646                      _showKeyLed:
00000646 defe                 MOVIA 0x1
00000647 ff3a                 MOVAR 0x45
00000648 defa                 MOVIA 0x5
00000649 d21c                 LCALL 0x5e3; _showNub=0x5e3
0000064a ffef                 RET
0000064b                      _showNubGewei2:
0000064b e0fc                 BCR 0x3, 0x6
0000064c ff30                 MOVAR 0x4f
0000064d def8                 MOVIA 0x7
0000064e fbb0                 SUBAR 0x4f, 0x0
0000064f f3fc                 BTRSC 0x3, 0x0
00000650 c193                 LGOTO 0x66c; number.o:_00184_DS_=0x66c
00000651 def9                 MOVIA 0x6
00000652 ff75                 MOVAR 0xa
00000653 feb0                 MOVR 0x4f, 0x0
00000654 daa7                 ADDIA 0x58
00000655 f3fc                 BTRSC 0x3, 0x0
00000656 fa75                 INCR 0xa, 0x1
00000657 ff7d                 MOVAR 0x2
00000658                      number.o:_00190_DS_:
00000658 c1a0                 LGOTO 0x65f; number.o:_00176_DS_=0x65f
00000659 c19e                 LGOTO 0x661; number.o:_00177_DS_=0x661
0000065a c19c                 LGOTO 0x663; number.o:_00178_DS_=0x663
0000065b c19a                 LGOTO 0x665; number.o:_00179_DS_=0x665
0000065c c198                 LGOTO 0x667; number.o:_00180_DS_=0x667
0000065d c196                 LGOTO 0x669; number.o:_00181_DS_=0x669
0000065e c194                 LGOTO 0x66b; number.o:_00182_DS_=0x66b
0000065f                      number.o:_00176_DS_:
0000065f d1e1                 LCALL 0x61e; _A3=0x61e
00000660 c193                 LGOTO 0x66c; number.o:_00184_DS_=0x66c
00000661                      number.o:_00177_DS_:
00000661 d1e6                 LCALL 0x619; _B3=0x619
00000662 c193                 LGOTO 0x66c; number.o:_00184_DS_=0x66c
00000663                      number.o:_00178_DS_:
00000663 d1eb                 LCALL 0x614; _C3=0x614
00000664 c193                 LGOTO 0x66c; number.o:_00184_DS_=0x66c
00000665                      number.o:_00179_DS_:
00000665 d1f0                 LCALL 0x60f; _D3=0x60f
00000666 c193                 LGOTO 0x66c; number.o:_00184_DS_=0x66c
00000667                      number.o:_00180_DS_:
00000667 d1f5                 LCALL 0x60a; _E3=0x60a
00000668 c193                 LGOTO 0x66c; number.o:_00184_DS_=0x66c
00000669                      number.o:_00181_DS_:
00000669 d1fa                 LCALL 0x605; _F3=0x605
0000066a c193                 LGOTO 0x66c; number.o:_00184_DS_=0x66c
0000066b                      number.o:_00182_DS_:
0000066b d1ff                 LCALL 0x600; _G3=0x600
0000066c                      number.o:_00184_DS_:
0000066c ffef                 RET
0000066d                      _showNubGewei:
0000066d e0fc                 BCR 0x3, 0x6
0000066e ff33                 MOVAR 0x4c
0000066f fd32                 CLRR 0x4d
00000670                      number.o:_00155_DS_:
00000670 def8                 MOVIA 0x7
00000671 e0fc                 BCR 0x3, 0x6
00000672 fbb2                 SUBAR 0x4d, 0x0
00000673 f3fc                 BTRSC 0x3, 0x0
00000674 c175                 LGOTO 0x68a; number.o:_00157_DS_=0x68a
00000675 feb3                 MOVR 0x4c, 0x0
00000676 ff31                 MOVAR 0x4e
00000677 feb2                 MOVR 0x4d, 0x0
00000678 d8ff                 SUBIA 0x0
00000679 f2fc                 BTRSC 0x3, 0x2
0000067a c17f                 LGOTO 0x680; number.o:_00171_DS_=0x680
0000067b                      number.o:_00170_DS_:
0000067b e0fc                 BCR 0x3, 0x6
0000067c ec31                 RRR 0x4e, 0x1
0000067d dafe                 ADDIA 0x1
0000067e f7fc                 BTRSS 0x3, 0x0
0000067f c184                 LGOTO 0x67b; number.o:_00170_DS_=0x67b
00000680                      number.o:_00171_DS_:
00000680 e0fc                 BCR 0x3, 0x6
00000681 f7b1                 BTRSS 0x4e, 0x0
00000682 c179                 LGOTO 0x686; number.o:_00151_DS_=0x686
00000683 feb2                 MOVR 0x4d, 0x0
00000684 d1b4                 LCALL 0x64b; _showNubGewei2=0x64b
00000685 c178                 LGOTO 0x687; number.o:_00156_DS_=0x687
00000686                      number.o:_00151_DS_:
00000686 d2a6                 LCALL 0x559; _setInput=0x559
00000687                      number.o:_00156_DS_:
00000687 e0fc                 BCR 0x3, 0x6
00000688 fa32                 INCR 0x4d, 0x1
00000689 c18f                 LGOTO 0x670; number.o:_00155_DS_=0x670
0000068a                      number.o:_00157_DS_:
0000068a ffef                 RET
0000068b                      _showNubShiwei2:
0000068b e0fc                 BCR 0x3, 0x6
0000068c ff34                 MOVAR 0x4b
0000068d def8                 MOVIA 0x7
0000068e fbb4                 SUBAR 0x4b, 0x0
0000068f f3fc                 BTRSC 0x3, 0x0
00000690 c153                 LGOTO 0x6ac; number.o:_00139_DS_=0x6ac
00000691 def9                 MOVIA 0x6
00000692 ff75                 MOVAR 0xa
00000693 feb4                 MOVR 0x4b, 0x0
00000694 da67                 ADDIA 0x98
00000695 f3fc                 BTRSC 0x3, 0x0
00000696 fa75                 INCR 0xa, 0x1
00000697 ff7d                 MOVAR 0x2
00000698                      number.o:_00145_DS_:
00000698 c160                 LGOTO 0x69f; number.o:_00131_DS_=0x69f
00000699 c15e                 LGOTO 0x6a1; number.o:_00132_DS_=0x6a1
0000069a c15c                 LGOTO 0x6a3; number.o:_00133_DS_=0x6a3
0000069b c15a                 LGOTO 0x6a5; number.o:_00134_DS_=0x6a5
0000069c c158                 LGOTO 0x6a7; number.o:_00135_DS_=0x6a7
0000069d c156                 LGOTO 0x6a9; number.o:_00136_DS_=0x6a9
0000069e c154                 LGOTO 0x6ab; number.o:_00137_DS_=0x6ab
0000069f                      number.o:_00131_DS_:
0000069f d1be                 LCALL 0x641; _A2=0x641
000006a0 c153                 LGOTO 0x6ac; number.o:_00139_DS_=0x6ac
000006a1                      number.o:_00132_DS_:
000006a1 d1c3                 LCALL 0x63c; _B2=0x63c
000006a2 c153                 LGOTO 0x6ac; number.o:_00139_DS_=0x6ac
000006a3                      number.o:_00133_DS_:
000006a3 d1c8                 LCALL 0x637; _C2=0x637
000006a4 c153                 LGOTO 0x6ac; number.o:_00139_DS_=0x6ac
000006a5                      number.o:_00134_DS_:
000006a5 d1cd                 LCALL 0x632; _D2=0x632
000006a6 c153                 LGOTO 0x6ac; number.o:_00139_DS_=0x6ac
000006a7                      number.o:_00135_DS_:
000006a7 d1d2                 LCALL 0x62d; _E2=0x62d
000006a8 c153                 LGOTO 0x6ac; number.o:_00139_DS_=0x6ac
000006a9                      number.o:_00136_DS_:
000006a9 d1d7                 LCALL 0x628; _F2=0x628
000006aa c153                 LGOTO 0x6ac; number.o:_00139_DS_=0x6ac
000006ab                      number.o:_00137_DS_:
000006ab d1dc                 LCALL 0x623; _G2=0x623
000006ac                      number.o:_00139_DS_:
000006ac ffef                 RET
000006ad                      _showNubShiwei:
000006ad e0fc                 BCR 0x3, 0x6
000006ae ff37                 MOVAR 0x48
000006af fd36                 CLRR 0x49
000006b0                      number.o:_00110_DS_:
000006b0 def8                 MOVIA 0x7
000006b1 e0fc                 BCR 0x3, 0x6
000006b2 fbb6                 SUBAR 0x49, 0x0
000006b3 f3fc                 BTRSC 0x3, 0x0
000006b4 c135                 LGOTO 0x6ca; number.o:_00112_DS_=0x6ca
000006b5 feb7                 MOVR 0x48, 0x0
000006b6 ff35                 MOVAR 0x4a
000006b7 feb6                 MOVR 0x49, 0x0
000006b8 d8ff                 SUBIA 0x0
000006b9 f2fc                 BTRSC 0x3, 0x2
000006ba c13f                 LGOTO 0x6c0; number.o:_00126_DS_=0x6c0
000006bb                      number.o:_00125_DS_:
000006bb e0fc                 BCR 0x3, 0x6
000006bc ec35                 RRR 0x4a, 0x1
000006bd dafe                 ADDIA 0x1
000006be f7fc                 BTRSS 0x3, 0x0
000006bf c144                 LGOTO 0x6bb; number.o:_00125_DS_=0x6bb
000006c0                      number.o:_00126_DS_:
000006c0 e0fc                 BCR 0x3, 0x6
000006c1 f7b5                 BTRSS 0x4a, 0x0
000006c2 c139                 LGOTO 0x6c6; number.o:_00106_DS_=0x6c6
000006c3 feb6                 MOVR 0x49, 0x0
000006c4 d174                 LCALL 0x68b; _showNubShiwei2=0x68b
000006c5 c138                 LGOTO 0x6c7; number.o:_00111_DS_=0x6c7
000006c6                      number.o:_00106_DS_:
000006c6 d2a6                 LCALL 0x559; _setInput=0x559
000006c7                      number.o:_00111_DS_:
000006c7 e0fc                 BCR 0x3, 0x6
000006c8 fa36                 INCR 0x49, 0x1
000006c9 c14f                 LGOTO 0x6b0; number.o:_00110_DS_=0x6b0
000006ca                      number.o:_00112_DS_:
000006ca ffef                 RET
000006cb                      __mulchar:
000006cb e0fc                 BCR 0x3, 0x6
000006cc ff27                 MOVAR 0x58
000006cd feba                 MOVR 0x45, 0x0
000006ce ff26                 MOVAR 0x59
000006cf fd25                 CLRR 0x5a
000006d0 def7                 MOVIA 0x8
000006d1 ff24                 MOVAR 0x5b
000006d2                      _mulchar.o:_00119_DS_:
000006d2 e0fc                 BCR 0x3, 0x6
000006d3 f7a7                 BTRSS 0x58, 0x0
000006d4 c128                 LGOTO 0x6d7; _mulchar.o:_00114_DS_=0x6d7
000006d5 fea6                 MOVR 0x59, 0x0
000006d6 fc25                 ADDAR 0x5a, 0x1
000006d7                      _mulchar.o:_00114_DS_:
000006d7 e3fc                 BCR 0x3, 0x0
000006d8 e0fc                 BCR 0x3, 0x6
000006d9 ec27                 RRR 0x58, 0x1
000006da e3fc                 BCR 0x3, 0x0
000006db eb26                 RLR 0x59, 0x1
000006dc f9a4                 DECR 0x5b, 0x0
000006dd ff23                 MOVAR 0x5c
000006de ff24                 MOVAR 0x5b
000006df fea3                 MOVR 0x5c, 0x0
000006e0 f6fc                 BTRSS 0x3, 0x2
000006e1 c12d                 LGOTO 0x6d2; _mulchar.o:_00119_DS_=0x6d2
000006e2 fea5                 MOVR 0x5a, 0x0
000006e3 ffef                 RET
000006e4                      __divuchar:
000006e4 e0fc                 BCR 0x3, 0x6
000006e5 ff22                 MOVAR 0x5d
000006e6 feba                 MOVR 0x45, 0x0
000006e7 ff21                 MOVAR 0x5e
000006e8 fd20                 CLRR 0x5f
000006e9 defe                 MOVIA 0x1
000006ea ff1f                 MOVAR 0x60
000006eb fea1                 MOVR 0x5e, 0x0
000006ec f6fc                 BTRSS 0x3, 0x2
000006ed c10f                 LGOTO 0x6f0; _divuchar.o:_00107_DS_=0x6f0
000006ee de00                 MOVIA 0xff
000006ef c0f3                 LGOTO 0x70c; _divuchar.o:_00115_DS_=0x70c
000006f0                      _divuchar.o:_00107_DS_:
000006f0 e0fc                 BCR 0x3, 0x6
000006f1 f021                 BTRSC 0x5e, 0x7
000006f2 c107                 LGOTO 0x6f8; _divuchar.o:_00112_DS_=0x6f8
000006f3 e3fc                 BCR 0x3, 0x0
000006f4 eb21                 RLR 0x5e, 0x1
000006f5 e3fc                 BCR 0x3, 0x0
000006f6 eb1f                 RLR 0x60, 0x1
000006f7 c10f                 LGOTO 0x6f0; _divuchar.o:_00107_DS_=0x6f0
000006f8                      _divuchar.o:_00112_DS_:
000006f8 e0fc                 BCR 0x3, 0x6
000006f9 fe9f                 MOVR 0x60, 0x0
000006fa f2fc                 BTRSC 0x3, 0x2
000006fb c0f5                 LGOTO 0x70a; _divuchar.o:_00114_DS_=0x70a
000006fc fea1                 MOVR 0x5e, 0x0
000006fd fba2                 SUBAR 0x5d, 0x0
000006fe f7fc                 BTRSS 0x3, 0x0
000006ff c0fb                 LGOTO 0x704; _divuchar.o:_00111_DS_=0x704
00000700 fe9f                 MOVR 0x60, 0x0
00000701 fc20                 ADDAR 0x5f, 0x1
00000702 fea1                 MOVR 0x5e, 0x0
00000703 fb22                 SUBAR 0x5d, 0x1
00000704                      _divuchar.o:_00111_DS_:
00000704 e3fc                 BCR 0x3, 0x0
00000705 e0fc                 BCR 0x3, 0x6
00000706 ec21                 RRR 0x5e, 0x1
00000707 e3fc                 BCR 0x3, 0x0
00000708 ec1f                 RRR 0x60, 0x1
00000709 c107                 LGOTO 0x6f8; _divuchar.o:_00112_DS_=0x6f8
0000070a                      _divuchar.o:_00114_DS_:
0000070a e0fc                 BCR 0x3, 0x6
0000070b fea0                 MOVR 0x5f, 0x0
0000070c                      _divuchar.o:_00115_DS_:
0000070c ffef                 RET
0000070d                      __moduchar:
0000070d e0fc                 BCR 0x3, 0x6
0000070e ff1e                 MOVAR 0x61
0000070f feba                 MOVR 0x45, 0x0
00000710 ff1d                 MOVAR 0x62
00000711 f6fc                 BTRSS 0x3, 0x2
00000712 c0ea                 LGOTO 0x715; _moduchar.o:_00119_DS_=0x715
00000713 de00                 MOVIA 0xff
00000714 c0cf                 LGOTO 0x730; _moduchar.o:_00115_DS_=0x730
00000715                      _moduchar.o:_00119_DS_:
00000715 defe                 MOVIA 0x1
00000716 e0fc                 BCR 0x3, 0x6
00000717 ff1c                 MOVAR 0x63
00000718                      _moduchar.o:_00107_DS_:
00000718 e0fc                 BCR 0x3, 0x6
00000719 f01d                 BTRSC 0x62, 0x7
0000071a c0e0                 LGOTO 0x71f; _moduchar.o:_00112_DS_=0x71f
0000071b e3fc                 BCR 0x3, 0x0
0000071c eb1d                 RLR 0x62, 0x1
0000071d fa1c                 INCR 0x63, 0x1
0000071e c0e7                 LGOTO 0x718; _moduchar.o:_00107_DS_=0x718
0000071f                      _moduchar.o:_00112_DS_:
0000071f e0fc                 BCR 0x3, 0x6
00000720 fe9c                 MOVR 0x63, 0x0
00000721 f2fc                 BTRSC 0x3, 0x2
00000722 c0d1                 LGOTO 0x72e; _moduchar.o:_00114_DS_=0x72e
00000723 fe9d                 MOVR 0x62, 0x0
00000724 fb9e                 SUBAR 0x61, 0x0
00000725 f7fc                 BTRSS 0x3, 0x0
00000726 c0d6                 LGOTO 0x729; _moduchar.o:_00111_DS_=0x729
00000727 fe9d                 MOVR 0x62, 0x0
00000728 fb1e                 SUBAR 0x61, 0x1
00000729                      _moduchar.o:_00111_DS_:
00000729 e3fc                 BCR 0x3, 0x0
0000072a e0fc                 BCR 0x3, 0x6
0000072b ec1d                 RRR 0x62, 0x1
0000072c f91c                 DECR 0x63, 0x1
0000072d c0e0                 LGOTO 0x71f; _moduchar.o:_00112_DS_=0x71f
0000072e                      _moduchar.o:_00114_DS_:
0000072e e0fc                 BCR 0x3, 0x6
0000072f fe9e                 MOVR 0x61, 0x0
00000730                      _moduchar.o:_00115_DS_:
00000730 ffef                 RET
00000731                      __gptrget:
00000731 dbff                 XORIA 0x0
00000732 f2fc                 BTRSC 0x3, 0x2
00000733 c0c7                 LGOTO 0x738; _gptrget1.o:__dataptrget1=0x738
00000734 db7f                 XORIA 0x80
00000735 f2fc                 BTRSC 0x3, 0x2
00000736 c0c0                 LGOTO 0x73f; __codeptrget1=0x73f
00000737 dfff                 RETIA 0x0
00000738                      _gptrget1.o:__dataptrget1:
00000738 febb                 MOVR 0x44, 0x0
00000739 ff7b                 MOVAR 0x4
0000073a e0fc                 BCR 0x3, 0x6
0000073b f03b                 BTRSC 0x44, 0x7
0000073c e4fc                 BSR 0x3, 0x6
0000073d feff                 MOVR 0x0, 0x0
0000073e ffef                 RET
0000073f                      __codeptrget1:
0000073f feba                 MOVR 0x45, 0x0
00000740 ffb8                 SFUN 0x7
00000741 febb                 MOVR 0x44, 0x0
00000742 fdee                 TABLEA
00000743 ffef                 RET
00000744                      ___cinit_load__:
