00000000 c7fe                 LGOTO 0x1; __nyc_ny8_startup=0x1
00000001                      __nyc_ny8_startup:
00000001 d243                 LCALL 0x5bc; ___cinit_load__=0x5bc
00000002 c79b                 LGOTO 0x64; _main=0x64
00000003                      main.o:_00886_DS_:
00000003 f56f                 BTRSS 0x10, 0x5
00000004 c7fc                 LGOTO 0x3; main.o:_00886_DS_=0x3
00000005 ffef                 RET
00000008 c7f6                 LGOTO 0x9; main.o:__sdcc_interrupt=0x9
00000009                      main.o:__sdcc_interrupt:
00000009 ff5d                 MOVAR 0x22
0000000a eafc                 SWAPR 0x3, 0x0
0000000b fd7c                 CLRR 0x3
0000000c ff5e                 MOVAR 0x21
0000000d fef5                 MOVR 0xa, 0x0
0000000e fd75                 CLRR 0xa
0000000f ff5f                 MOVAR 0x20
00000010 fefb                 MOVR 0x4, 0x0
00000011 ff2a                 MOVAR 0x55
00000012 feda                 MOVR 0x25, 0x0
00000013 ff29                 MOVAR 0x56
00000014 fedb                 MOVR 0x24, 0x0
00000015 ff28                 MOVAR 0x57
00000016 f7f0                 BTRSS 0xf, 0x0
00000017 c7ae                 LGOTO 0x51; main.o:_00126_DS_=0x51
00000018 dec8                 MOVIA 0x37
00000019 fc7e                 ADDAR 0x1, 0x1
0000001a fa26                 INCR 0x59, 0x1
0000001b de9b                 MOVIA 0x64
0000001c fba6                 SUBAR 0x59, 0x0
0000001d f7fc                 BTRSS 0x3, 0x0
0000001e c7ae                 LGOTO 0x51; main.o:_00126_DS_=0x51
0000001f e7a7                 BSR 0x58, 0x0
00000020 fd26                 CLRR 0x59
00000021 fea3                 MOVR 0x5c, 0x0
00000022 f2fc                 BTRSC 0x3, 0x2
00000023 c7d8                 LGOTO 0x27; main.o:_00106_DS_=0x27
00000024 fa21                 INCR 0x5e, 0x1
00000025 f2fc                 BTRSC 0x3, 0x2
00000026 fa20                 INCR 0x5f, 0x1
00000027                      main.o:_00106_DS_:
00000027 fa25                 INCR 0x5a, 0x1
00000028 ded7                 MOVIA 0x28
00000029 fba5                 SUBAR 0x5a, 0x0
0000002a f3fc                 BTRSC 0x3, 0x0
0000002b fd25                 CLRR 0x5a
0000002c fa17                 INCR 0x68, 0x1
0000002d deeb                 MOVIA 0x14
0000002e fb97                 SUBAR 0x68, 0x0
0000002f f3fc                 BTRSC 0x3, 0x0
00000030 fd17                 CLRR 0x68
00000031 fa16                 INCR 0x69, 0x1
00000032 de9b                 MOVIA 0x64
00000033 fb96                 SUBAR 0x69, 0x0
00000034 f7fc                 BTRSS 0x3, 0x0
00000035 c7ae                 LGOTO 0x51; main.o:_00126_DS_=0x51
00000036 fd16                 CLRR 0x69
00000037 f627                 BTRSS 0x58, 0x3
00000038 c7bd                 LGOTO 0x42; main.o:_00112_DS_=0x42
00000039 fe9c                 MOVR 0x63, 0x0
0000003a dbf9                 XORIA 0x6
0000003b f6fc                 BTRSS 0x3, 0x2
0000003c c7bd                 LGOTO 0x42; main.o:_00112_DS_=0x42
0000003d                      ___cinit_size__:
0000003d fa1b                 INCR 0x64, 0x1
0000003e f2fc                 BTRSC 0x3, 0x2
0000003f fa1a                 INCR 0x65, 0x1
00000040 def8                 MOVIA 0x7
00000041 ffbc                 SFUN 0x3
00000042                      main.o:_00112_DS_:
00000042 fe91                 MOVR 0x6e, 0x0
00000043 f6fc                 BTRSS 0x3, 0x2
00000044 f911                 DECR 0x6e, 0x1
00000045 fe8e                 MOVR 0x71, 0x0
00000046 f6fc                 BTRSS 0x3, 0x2
00000047 f90e                 DECR 0x71, 0x1
00000048 fea3                 MOVR 0x5c, 0x0
00000049 f2fc                 BTRSC 0x3, 0x2
0000004a c7b0                 LGOTO 0x4f; main.o:_00119_DS_=0x4f
0000004b fa15                 INCR 0x6a, 0x1
0000004c f2fc                 BTRSC 0x3, 0x2
0000004d fa14                 INCR 0x6b, 0x1
0000004e c7ae                 LGOTO 0x51; main.o:_00126_DS_=0x51
0000004f                      main.o:_00119_DS_:
0000004f fd15                 CLRR 0x6a
00000050 fd14                 CLRR 0x6b
00000051                      main.o:_00126_DS_:
00000051 f770                 BTRSS 0xf, 0x1
00000052 c7aa                 LGOTO 0x55; main.o:_00128_DS_=0x55
00000053 de02                 MOVIA 0xfd
00000054 ff70                 MOVAR 0xf
00000055                      main.o:_00128_DS_:
00000055 fd70                 CLRR 0xf
00000056 fea8                 MOVR 0x57, 0x0
00000057 ff5b                 MOVAR 0x24
00000058 fea9                 MOVR 0x56, 0x0
00000059 ff5a                 MOVAR 0x25
0000005a feaa                 MOVR 0x55, 0x0
0000005b ff7b                 MOVAR 0x4
0000005c fedf                 MOVR 0x20, 0x0
0000005d ff75                 MOVAR 0xa
0000005e fd7c                 CLRR 0x3
0000005f eade                 SWAPR 0x21, 0x0
00000060 ff7c                 MOVAR 0x3
00000061 ea5d                 SWAPR 0x22, 0x1
00000062 eadd                 SWAPR 0x22, 0x0
00000063                      main.o:END_OF_INTERRUPT:
00000063 ffee                 RETIE
00000064                      _main:
00000064 d2e7                 LCALL 0x518; _initSys=0x518
00000065 d477                 LCALL 0x388; _initAD=0x388
00000066                      main.o:_00160_DS_:
00000066 fffd                 CLRWDT
00000067 d33f                 LCALL 0x4c0; _ledShow=0x4c0
00000068 f7a7                 BTRSS 0x58, 0x0
00000069 c799                 LGOTO 0x66; main.o:_00160_DS_=0x66
0000006a e3a7                 BCR 0x58, 0x0
0000006b f627                 BTRSS 0x58, 0x3
0000006c d2c5                 LCALL 0x53a; _keyCtr=0x53a
0000006d defa                 MOVIA 0x5
0000006e fb97                 SUBAR 0x68, 0x0
0000006f f3fc                 BTRSC 0x3, 0x0
00000070 c78c                 LGOTO 0x73; main.o:_00145_DS_=0x73
00000071 d5e3                 LCALL 0x21c; _checkBatAD=0x21c
00000072 c77a                 LGOTO 0x85; main.o:_00146_DS_=0x85
00000073                      main.o:_00145_DS_:
00000073 def6                 MOVIA 0x9
00000074 fb97                 SUBAR 0x68, 0x0
00000075 f7fc                 BTRSS 0x3, 0x0
00000076 c782                 LGOTO 0x7d; main.o:_00141_DS_=0x7d
00000077 def4                 MOVIA 0xb
00000078 fb97                 SUBAR 0x68, 0x0
00000079 f3fc                 BTRSC 0x3, 0x0
0000007a c782                 LGOTO 0x7d; main.o:_00141_DS_=0x7d
0000007b d6ec                 LCALL 0x113; _checkOutA=0x113
0000007c c77a                 LGOTO 0x85; main.o:_00146_DS_=0x85
0000007d                      main.o:_00141_DS_:
0000007d def1                 MOVIA 0xe
0000007e fb97                 SUBAR 0x68, 0x0
0000007f f7fc                 BTRSS 0x3, 0x0
00000080 c77a                 LGOTO 0x85; main.o:_00146_DS_=0x85
00000081 deef                 MOVIA 0x10
00000082 fb97                 SUBAR 0x68, 0x0
00000083 f7fc                 BTRSS 0x3, 0x0
00000084 d606                 LCALL 0x1f9; _checkChrgV=0x1f9
00000085                      main.o:_00146_DS_:
00000085 d462                 LCALL 0x39d; _chrgCtr=0x39d
00000086 fea3                 MOVR 0x5c, 0x0
00000087 f2fc                 BTRSC 0x3, 0x2
00000088 c76e                 LGOTO 0x91; main.o:_00148_DS_=0x91
00000089 fe90                 MOVR 0x6f, 0x0
0000008a fb9d                 SUBAR 0x62, 0x0
0000008b f3fc                 BTRSC 0x3, 0x0
0000008c c76e                 LGOTO 0x91; main.o:_00148_DS_=0x91
0000008d de09                 MOVIA 0xf6
0000008e fc10                 ADDAR 0x6f, 0x1
0000008f fe90                 MOVR 0x6f, 0x0
00000090 ffb3                 SFUN 0xc
00000091                      main.o:_00148_DS_:
00000091 fea3                 MOVR 0x5c, 0x0
00000092 f6fc                 BTRSS 0x3, 0x2
00000093 c757                 LGOTO 0xa8; main.o:_00153_DS_=0xa8
00000094 fea4                 MOVR 0x5b, 0x0
00000095 f6fc                 BTRSS 0x3, 0x2
00000096 c757                 LGOTO 0xa8; main.o:_00153_DS_=0xa8
00000097 f27a                 BTRSC 0x5, 0x3
00000098 c757                 LGOTO 0xa8; main.o:_00153_DS_=0xa8
00000099 fe91                 MOVR 0x6e, 0x0
0000009a f6fc                 BTRSS 0x3, 0x2
0000009b c757                 LGOTO 0xa8; main.o:_00153_DS_=0xa8
0000009c fa19                 INCR 0x66, 0x1
0000009d f2fc                 BTRSC 0x3, 0x2
0000009e fa18                 INCR 0x67, 0x1
0000009f def8                 MOVIA 0x7
000000a0 fb98                 SUBAR 0x67, 0x0
000000a1 f6fc                 BTRSS 0x3, 0x2
000000a2 c75a                 LGOTO 0xa5; main.o:_00218_DS_=0xa5
000000a3 de2e                 MOVIA 0xd1
000000a4 fb99                 SUBAR 0x66, 0x0
000000a5                      main.o:_00218_DS_:
000000a5 f7fc                 BTRSS 0x3, 0x0
000000a6 c757                 LGOTO 0xa8; main.o:_00153_DS_=0xa8
000000a7 d3f5                 LCALL 0x40a; _gotoSleep=0x40a
000000a8                      main.o:_00153_DS_:
000000a8 defc                 MOVIA 0x3
000000a9 fb94                 SUBAR 0x6b, 0x0
000000aa f6fc                 BTRSS 0x3, 0x2
000000ab c751                 LGOTO 0xae; main.o:_00219_DS_=0xae
000000ac de7b                 MOVIA 0x84
000000ad fb95                 SUBAR 0x6a, 0x0
000000ae                      main.o:_00219_DS_:
000000ae f7fc                 BTRSS 0x3, 0x0
000000af c799                 LGOTO 0x66; main.o:_00160_DS_=0x66
000000b0 d2ca                 LCALL 0x535; _powerOff=0x535
000000b1 c799                 LGOTO 0x66; main.o:_00160_DS_=0x66
000000b2 ffef                 RET
000000b3                      _F_AIN2_Convert:
000000b3 ff33                 MOVAR 0x4c
000000b4 fd51                 CLRR 0x2e
000000b5 fd53                 CLRR 0x2c
000000b6 fd52                 CLRR 0x2d
000000b7 de6d                 MOVIA 0x92
000000b8 ff6f                 MOVAR 0x10
000000b9 de37                 MOVIA 0xc8
000000ba d46c                 LCALL 0x393; _delay=0x393
000000bb defe                 MOVIA 0x1
000000bc ff32                 MOVAR 0x4d
000000bd                      main.o:_00879_DS_:
000000bd feb2                 MOVR 0x4d, 0x0
000000be fbb3                 SUBAR 0x4c, 0x0
000000bf f7fc                 BTRSS 0x3, 0x0
000000c0 c72d                 LGOTO 0xd2; main.o:_00881_DS_=0xd2
000000c1 e4ef                 BSR 0x10, 0x6
000000c2 d7fc                 LCALL 0x3; main.o:_00886_DS_=0x3
000000c3 def0                 MOVIA 0xf
000000c4 efee                 ANDAR 0x11, 0x0
000000c5 fc51                 ADDAR 0x2e, 0x1
000000c6 feed                 MOVR 0x12, 0x0
000000c7 ff31                 MOVAR 0x4e
000000c8 deff                 MOVIA 0x0
000000c9 ff30                 MOVAR 0x4f
000000ca feb1                 MOVR 0x4e, 0x0
000000cb fc53                 ADDAR 0x2c, 0x1
000000cc feb0                 MOVR 0x4f, 0x0
000000cd f3fc                 BTRSC 0x3, 0x0
000000ce e9b0                 INCRSZ 0x4f, 0x0
000000cf fc52                 ADDAR 0x2d, 0x1
000000d0 fa32                 INCR 0x4d, 0x1
000000d1 c742                 LGOTO 0xbd; main.o:_00879_DS_=0xbd
000000d2                      main.o:_00881_DS_:
000000d2 ffef                 RET
000000d3                      _F_AIN3_Convert:
000000d3 ff37                 MOVAR 0x48
000000d4 fd54                 CLRR 0x2b
000000d5 fd56                 CLRR 0x29
000000d6 fd55                 CLRR 0x2a
000000d7 de6c                 MOVIA 0x93
000000d8 ff6f                 MOVAR 0x10
000000d9 de37                 MOVIA 0xc8
000000da d46c                 LCALL 0x393; _delay=0x393
000000db defe                 MOVIA 0x1
000000dc ff36                 MOVAR 0x49
000000dd                      main.o:_00870_DS_:
000000dd feb6                 MOVR 0x49, 0x0
000000de fbb7                 SUBAR 0x48, 0x0
000000df f7fc                 BTRSS 0x3, 0x0
000000e0 c70d                 LGOTO 0xf2; main.o:_00872_DS_=0xf2
000000e1 e4ef                 BSR 0x10, 0x6
000000e2 d7fc                 LCALL 0x3; main.o:_00886_DS_=0x3
000000e3 def0                 MOVIA 0xf
000000e4 efee                 ANDAR 0x11, 0x0
000000e5 fc54                 ADDAR 0x2b, 0x1
000000e6 feed                 MOVR 0x12, 0x0
000000e7 ff35                 MOVAR 0x4a
000000e8 deff                 MOVIA 0x0
000000e9 ff34                 MOVAR 0x4b
000000ea feb5                 MOVR 0x4a, 0x0
000000eb fc56                 ADDAR 0x29, 0x1
000000ec feb4                 MOVR 0x4b, 0x0
000000ed f3fc                 BTRSC 0x3, 0x0
000000ee e9b4                 INCRSZ 0x4b, 0x0
000000ef fc55                 ADDAR 0x2a, 0x1
000000f0 fa36                 INCR 0x49, 0x1
000000f1 c722                 LGOTO 0xdd; main.o:_00870_DS_=0xdd
000000f2                      main.o:_00872_DS_:
000000f2 ffef                 RET
000000f3                      _F_AIN4_Convert:
000000f3 ff3b                 MOVAR 0x44
000000f4 fd57                 CLRR 0x28
000000f5 fd59                 CLRR 0x26
000000f6 fd58                 CLRR 0x27
000000f7 de6b                 MOVIA 0x94
000000f8 ff6f                 MOVAR 0x10
000000f9 de37                 MOVIA 0xc8
000000fa d46c                 LCALL 0x393; _delay=0x393
000000fb defe                 MOVIA 0x1
000000fc ff3a                 MOVAR 0x45
000000fd                      main.o:_00861_DS_:
000000fd feba                 MOVR 0x45, 0x0
000000fe fbbb                 SUBAR 0x44, 0x0
000000ff f7fc                 BTRSS 0x3, 0x0
00000100 c6ed                 LGOTO 0x112; main.o:_00863_DS_=0x112
00000101 e4ef                 BSR 0x10, 0x6
00000102 d7fc                 LCALL 0x3; main.o:_00886_DS_=0x3
00000103 def0                 MOVIA 0xf
00000104 efee                 ANDAR 0x11, 0x0
00000105 fc57                 ADDAR 0x28, 0x1
00000106 feed                 MOVR 0x12, 0x0
00000107 ff39                 MOVAR 0x46
00000108 deff                 MOVIA 0x0
00000109 ff38                 MOVAR 0x47
0000010a feb9                 MOVR 0x46, 0x0
0000010b fc59                 ADDAR 0x26, 0x1
0000010c feb8                 MOVR 0x47, 0x0
0000010d f3fc                 BTRSC 0x3, 0x0
0000010e e9b8                 INCRSZ 0x47, 0x0
0000010f fc58                 ADDAR 0x27, 0x1
00000110 fa3a                 INCR 0x45, 0x1
00000111 c702                 LGOTO 0xfd; main.o:_00861_DS_=0xfd
00000112                      main.o:_00863_DS_:
00000112 ffef                 RET
00000113                      _checkOutA:
00000113 fd57                 CLRR 0x28
00000114 fd59                 CLRR 0x26
00000115 fd58                 CLRR 0x27
00000116 def7                 MOVIA 0x8
00000117 d70c                 LCALL 0xf3; _F_AIN4_Convert=0xf3
00000118 ead8                 SWAPR 0x27, 0x0
00000119 dd0f                 ANDIA 0xf0
0000011a ff58                 MOVAR 0x27
0000011b ead9                 SWAPR 0x26, 0x0
0000011c ff59                 MOVAR 0x26
0000011d ddf0                 ANDIA 0xf
0000011e ee58                 IORAR 0x27, 0x1
0000011f ed59                 XORAR 0x26, 0x1
00000120 de0f                 MOVIA 0xf0
00000121 ef57                 ANDAR 0x28, 0x1
00000122 fed7                 MOVR 0x28, 0x0
00000123 ff3d                 MOVAR 0x42
00000124 deff                 MOVIA 0x0
00000125 ff3c                 MOVAR 0x43
00000126 febd                 MOVR 0x42, 0x0
00000127 fc59                 ADDAR 0x26, 0x1
00000128 febc                 MOVR 0x43, 0x0
00000129 f3fc                 BTRSC 0x3, 0x0
0000012a e9bc                 INCRSZ 0x43, 0x0
0000012b fc58                 ADDAR 0x27, 0x1
0000012c e3fc                 BCR 0x3, 0x0
0000012d ec58                 RRR 0x27, 0x1
0000012e ec59                 RRR 0x26, 0x1
0000012f e3fc                 BCR 0x3, 0x0
00000130 ec58                 RRR 0x27, 0x1
00000131 ec59                 RRR 0x26, 0x1
00000132 e3fc                 BCR 0x3, 0x0
00000133 ec58                 RRR 0x27, 0x1
00000134 ec59                 RRR 0x26, 0x1
00000135 fe8a                 MOVR 0x75, 0x0
00000136 f2fc                 BTRSC 0x3, 0x2
00000137 c6c3                 LGOTO 0x13c; main.o:_00737_DS_=0x13c
00000138 ded2                 MOVIA 0x2d
00000139 ff59                 MOVAR 0x26
0000013a defe                 MOVIA 0x1
0000013b ff58                 MOVAR 0x27
0000013c                      main.o:_00737_DS_:
0000013c def9                 MOVIA 0x6
0000013d fba3                 SUBAR 0x5c, 0x0
0000013e f3fc                 BTRSC 0x3, 0x0
0000013f c6af                 LGOTO 0x150; main.o:_00780_DS_=0x150
00000140 deff                 MOVIA 0x0
00000141 fbd8                 SUBAR 0x27, 0x0
00000142 f6fc                 BTRSS 0x3, 0x2
00000143 c6b9                 LGOTO 0x146; main.o:_00846_DS_=0x146
00000144 de36                 MOVIA 0xc9
00000145 fbd9                 SUBAR 0x26, 0x0
00000146                      main.o:_00846_DS_:
00000146 f7fc                 BTRSS 0x3, 0x0
00000147 c6af                 LGOTO 0x150; main.o:_00780_DS_=0x150
00000148 fa12                 INCR 0x6d, 0x1
00000149 def9                 MOVIA 0x6
0000014a fb92                 SUBAR 0x6d, 0x0
0000014b f7fc                 BTRSS 0x3, 0x0
0000014c c607                 LGOTO 0x1f8; main.o:_00783_DS_=0x1f8
0000014d defa                 MOVIA 0x5
0000014e ff12                 MOVAR 0x6d
0000014f c607                 LGOTO 0x1f8; main.o:_00783_DS_=0x1f8
00000150                      main.o:_00780_DS_:
00000150 defe                 MOVIA 0x1
00000151 fbd8                 SUBAR 0x27, 0x0
00000152 f6fc                 BTRSS 0x3, 0x2
00000153 c6a9                 LGOTO 0x156; main.o:_00848_DS_=0x156
00000154 de6e                 MOVIA 0x91
00000155 fbd9                 SUBAR 0x26, 0x0
00000156                      main.o:_00848_DS_:
00000156 f7fc                 BTRSS 0x3, 0x0
00000157 c69f                 LGOTO 0x160; main.o:_00777_DS_=0x160
00000158 fa12                 INCR 0x6d, 0x1
00000159 def9                 MOVIA 0x6
0000015a fb92                 SUBAR 0x6d, 0x0
0000015b f7fc                 BTRSS 0x3, 0x0
0000015c c607                 LGOTO 0x1f8; main.o:_00783_DS_=0x1f8
0000015d defa                 MOVIA 0x5
0000015e ff12                 MOVAR 0x6d
0000015f c607                 LGOTO 0x1f8; main.o:_00783_DS_=0x1f8
00000160                      main.o:_00777_DS_:
00000160 deff                 MOVIA 0x0
00000161 fbd8                 SUBAR 0x27, 0x0
00000162 f6fc                 BTRSS 0x3, 0x2
00000163 c699                 LGOTO 0x166; main.o:_00850_DS_=0x166
00000164 ded1                 MOVIA 0x2e
00000165 fbd9                 SUBAR 0x26, 0x0
00000166                      main.o:_00850_DS_:
00000166 f7fc                 BTRSS 0x3, 0x0
00000167 c651                 LGOTO 0x1ae; main.o:_00774_DS_=0x1ae
00000168 fe92                 MOVR 0x6d, 0x0
00000169 f6fc                 BTRSS 0x3, 0x2
0000016a f912                 DECR 0x6d, 0x1
0000016b defb                 MOVIA 0x4
0000016c fba3                 SUBAR 0x5c, 0x0
0000016d f3fc                 BTRSC 0x3, 0x0
0000016e c65d                 LGOTO 0x1a2; main.o:_00753_DS_=0x1a2
0000016f fea3                 MOVR 0x5c, 0x0
00000170 dbfe                 XORIA 0x1
00000171 f6fc                 BTRSS 0x3, 0x2
00000172 c682                 LGOTO 0x17d; main.o:_00750_DS_=0x17d
00000173 defb                 MOVIA 0x4
00000174 ff5a                 MOVAR 0x25
00000175 fea3                 MOVR 0x5c, 0x0
00000176 d259                 LCALL 0x5a6; __mulchar=0x5a6
00000177 fc9d                 ADDAR 0x62, 0x0
00000178 ff3d                 MOVAR 0x42
00000179 decc                 MOVIA 0x33
0000017a fcbd                 ADDAR 0x42, 0x0
0000017b ff0c                 MOVAR 0x73
0000017c c667                 LGOTO 0x198; main.o:_00751_DS_=0x198
0000017d                      main.o:_00750_DS_:
0000017d fea3                 MOVR 0x5c, 0x0
0000017e dbfd                 XORIA 0x2
0000017f f6fc                 BTRSS 0x3, 0x2
00000180 c674                 LGOTO 0x18b; main.o:_00747_DS_=0x18b
00000181 defb                 MOVIA 0x4
00000182 ff5a                 MOVAR 0x25
00000183 fea3                 MOVR 0x5c, 0x0
00000184 d259                 LCALL 0x5a6; __mulchar=0x5a6
00000185 fc9d                 ADDAR 0x62, 0x0
00000186 ff3d                 MOVAR 0x42
00000187 decf                 MOVIA 0x30
00000188 fcbd                 ADDAR 0x42, 0x0
00000189 ff0c                 MOVAR 0x73
0000018a c667                 LGOTO 0x198; main.o:_00751_DS_=0x198
0000018b                      main.o:_00747_DS_:
0000018b fea3                 MOVR 0x5c, 0x0
0000018c dbfc                 XORIA 0x3
0000018d f6fc                 BTRSS 0x3, 0x2
0000018e c667                 LGOTO 0x198; main.o:_00751_DS_=0x198
0000018f defb                 MOVIA 0x4
00000190 ff5a                 MOVAR 0x25
00000191 fea3                 MOVR 0x5c, 0x0
00000192 d259                 LCALL 0x5a6; __mulchar=0x5a6
00000193 fc9d                 ADDAR 0x62, 0x0
00000194 ff3d                 MOVAR 0x42
00000195 ded1                 MOVIA 0x2e
00000196 fcbd                 ADDAR 0x42, 0x0
00000197 ff0c                 MOVAR 0x73
00000198                      main.o:_00751_DS_:
00000198 defb                 MOVIA 0x4
00000199 ff5a                 MOVAR 0x25
0000019a fea3                 MOVR 0x5c, 0x0
0000019b d259                 LCALL 0x5a6; __mulchar=0x5a6
0000019c fc9d                 ADDAR 0x62, 0x0
0000019d ff3d                 MOVAR 0x42
0000019e ded2                 MOVIA 0x2d
0000019f fcbd                 ADDAR 0x42, 0x0
000001a0 ff0c                 MOVAR 0x73
000001a1 c654                 LGOTO 0x1ab; main.o:_00754_DS_=0x1ab
000001a2                      main.o:_00753_DS_:
000001a2 defa                 MOVIA 0x5
000001a3 ff5a                 MOVAR 0x25
000001a4 fea3                 MOVR 0x5c, 0x0
000001a5 d259                 LCALL 0x5a6; __mulchar=0x5a6
000001a6 fc9d                 ADDAR 0x62, 0x0
000001a7 ff3d                 MOVAR 0x42
000001a8 ded7                 MOVIA 0x28
000001a9 fcbd                 ADDAR 0x42, 0x0
000001aa ff0c                 MOVAR 0x73
000001ab                      main.o:_00754_DS_:
000001ab fe8c                 MOVR 0x73, 0x0
000001ac ffb3                 SFUN 0xc
000001ad c607                 LGOTO 0x1f8; main.o:_00783_DS_=0x1f8
000001ae                      main.o:_00774_DS_:
000001ae fe92                 MOVR 0x6d, 0x0
000001af f6fc                 BTRSS 0x3, 0x2
000001b0 f912                 DECR 0x6d, 0x1
000001b1 deff                 MOVIA 0x0
000001b2 fbd8                 SUBAR 0x27, 0x0
000001b3 f6fc                 BTRSS 0x3, 0x2
000001b4 c648                 LGOTO 0x1b7; main.o:_00852_DS_=0x1b7
000001b5 ded6                 MOVIA 0x29
000001b6 fbd9                 SUBAR 0x26, 0x0
000001b7                      main.o:_00852_DS_:
000001b7 f7fc                 BTRSS 0x3, 0x0
000001b8 c616                 LGOTO 0x1e9; main.o:_00768_DS_=0x1e9
000001b9 defb                 MOVIA 0x4
000001ba fba3                 SUBAR 0x5c, 0x0
000001bb f3fc                 BTRSC 0x3, 0x0
000001bc c616                 LGOTO 0x1e9; main.o:_00768_DS_=0x1e9
000001bd fea3                 MOVR 0x5c, 0x0
000001be dbfe                 XORIA 0x1
000001bf f6fc                 BTRSS 0x3, 0x2
000001c0 c634                 LGOTO 0x1cb; main.o:_00763_DS_=0x1cb
000001c1 defb                 MOVIA 0x4
000001c2 ff5a                 MOVAR 0x25
000001c3 fea3                 MOVR 0x5c, 0x0
000001c4 d259                 LCALL 0x5a6; __mulchar=0x5a6
000001c5 fc9d                 ADDAR 0x62, 0x0
000001c6 ff3d                 MOVAR 0x42
000001c7 ded2                 MOVIA 0x2d
000001c8 fcbd                 ADDAR 0x42, 0x0
000001c9 ff0c                 MOVAR 0x73
000001ca c619                 LGOTO 0x1e6; main.o:_00764_DS_=0x1e6
000001cb                      main.o:_00763_DS_:
000001cb fea3                 MOVR 0x5c, 0x0
000001cc dbfd                 XORIA 0x2
000001cd f6fc                 BTRSS 0x3, 0x2
000001ce c626                 LGOTO 0x1d9; main.o:_00760_DS_=0x1d9
000001cf defb                 MOVIA 0x4
000001d0 ff5a                 MOVAR 0x25
000001d1 fea3                 MOVR 0x5c, 0x0
000001d2 d259                 LCALL 0x5a6; __mulchar=0x5a6
000001d3 fc9d                 ADDAR 0x62, 0x0
000001d4 ff3d                 MOVAR 0x42
000001d5 ded5                 MOVIA 0x2a
000001d6 fcbd                 ADDAR 0x42, 0x0
000001d7 ff0c                 MOVAR 0x73
000001d8 c619                 LGOTO 0x1e6; main.o:_00764_DS_=0x1e6
000001d9                      main.o:_00760_DS_:
000001d9 fea3                 MOVR 0x5c, 0x0
000001da dbfc                 XORIA 0x3
000001db f6fc                 BTRSS 0x3, 0x2
000001dc c619                 LGOTO 0x1e6; main.o:_00764_DS_=0x1e6
000001dd defb                 MOVIA 0x4
000001de ff5a                 MOVAR 0x25
000001df fea3                 MOVR 0x5c, 0x0
000001e0 d259                 LCALL 0x5a6; __mulchar=0x5a6
000001e1 fc9d                 ADDAR 0x62, 0x0
000001e2 ff3d                 MOVAR 0x42
000001e3 ded7                 MOVIA 0x28
000001e4 fcbd                 ADDAR 0x42, 0x0
000001e5 ff0c                 MOVAR 0x73
000001e6                      main.o:_00764_DS_:
000001e6 fe8c                 MOVR 0x73, 0x0
000001e7 ffb3                 SFUN 0xc
000001e8 c60c                 LGOTO 0x1f3; main.o:_00769_DS_=0x1f3
000001e9                      main.o:_00768_DS_:
000001e9 deff                 MOVIA 0x0
000001ea fbd8                 SUBAR 0x27, 0x0
000001eb f6fc                 BTRSS 0x3, 0x2
000001ec c610                 LGOTO 0x1ef; main.o:_00854_DS_=0x1ef
000001ed debb                 MOVIA 0x44
000001ee fbd9                 SUBAR 0x26, 0x0
000001ef                      main.o:_00854_DS_:
000001ef f3fc                 BTRSC 0x3, 0x0
000001f0 c60c                 LGOTO 0x1f3; main.o:_00769_DS_=0x1f3
000001f1 fe9d                 MOVR 0x62, 0x0
000001f2 ffb3                 SFUN 0xc
000001f3                      main.o:_00769_DS_:
000001f3 fea3                 MOVR 0x5c, 0x0
000001f4 f2fc                 BTRSC 0x3, 0x2
000001f5 c607                 LGOTO 0x1f8; main.o:_00783_DS_=0x1f8
000001f6 fea3                 MOVR 0x5c, 0x0
000001f7 ff22                 MOVAR 0x5d
000001f8                      main.o:_00783_DS_:
000001f8 ffef                 RET
000001f9                      _checkChrgV:
000001f9 fd54                 CLRR 0x2b
000001fa fd56                 CLRR 0x29
000001fb fd55                 CLRR 0x2a
000001fc def7                 MOVIA 0x8
000001fd d72c                 LCALL 0xd3; _F_AIN3_Convert=0xd3
000001fe ead5                 SWAPR 0x2a, 0x0
000001ff dd0f                 ANDIA 0xf0
00000200 ff55                 MOVAR 0x2a
00000201 ead6                 SWAPR 0x29, 0x0
00000202 ff56                 MOVAR 0x29
00000203 ddf0                 ANDIA 0xf
00000204 ee55                 IORAR 0x2a, 0x1
00000205 ed56                 XORAR 0x29, 0x1
00000206 de0f                 MOVIA 0xf0
00000207 ef54                 ANDAR 0x2b, 0x1
00000208 fed4                 MOVR 0x2b, 0x0
00000209 ff3f                 MOVAR 0x40
0000020a deff                 MOVIA 0x0
0000020b ff3e                 MOVAR 0x41
0000020c febf                 MOVR 0x40, 0x0
0000020d fc56                 ADDAR 0x29, 0x1
0000020e febe                 MOVR 0x41, 0x0
0000020f f3fc                 BTRSC 0x3, 0x0
00000210 e9be                 INCRSZ 0x41, 0x0
00000211 fc55                 ADDAR 0x2a, 0x1
00000212 e3fc                 BCR 0x3, 0x0
00000213 ec55                 RRR 0x2a, 0x1
00000214 ec56                 RRR 0x29, 0x1
00000215 e3fc                 BCR 0x3, 0x0
00000216 ec55                 RRR 0x2a, 0x1
00000217 ec56                 RRR 0x29, 0x1
00000218 e3fc                 BCR 0x3, 0x0
00000219 ec55                 RRR 0x2a, 0x1
0000021a ec56                 RRR 0x29, 0x1
0000021b ffef                 RET
0000021c                      _checkBatAD:
0000021c fd51                 CLRR 0x2e
0000021d fd53                 CLRR 0x2c
0000021e fd52                 CLRR 0x2d
0000021f def7                 MOVIA 0x8
00000220 d74c                 LCALL 0xb3; _F_AIN2_Convert=0xb3
00000221 ead2                 SWAPR 0x2d, 0x0
00000222 dd0f                 ANDIA 0xf0
00000223 ff52                 MOVAR 0x2d
00000224 ead3                 SWAPR 0x2c, 0x0
00000225 ff53                 MOVAR 0x2c
00000226 ddf0                 ANDIA 0xf
00000227 ee52                 IORAR 0x2d, 0x1
00000228 ed53                 XORAR 0x2c, 0x1
00000229 de0f                 MOVIA 0xf0
0000022a ef51                 ANDAR 0x2e, 0x1
0000022b fed1                 MOVR 0x2e, 0x0
0000022c ff41                 MOVAR 0x3e
0000022d deff                 MOVIA 0x0
0000022e ff40                 MOVAR 0x3f
0000022f fec1                 MOVR 0x3e, 0x0
00000230 fc53                 ADDAR 0x2c, 0x1
00000231 fec0                 MOVR 0x3f, 0x0
00000232 f3fc                 BTRSC 0x3, 0x0
00000233 e9c0                 INCRSZ 0x3f, 0x0
00000234 fc52                 ADDAR 0x2d, 0x1
00000235 e3fc                 BCR 0x3, 0x0
00000236 ec52                 RRR 0x2d, 0x1
00000237 ec53                 RRR 0x2c, 0x1
00000238 e3fc                 BCR 0x3, 0x0
00000239 ec52                 RRR 0x2d, 0x1
0000023a ec53                 RRR 0x2c, 0x1
0000023b e3fc                 BCR 0x3, 0x0
0000023c ec52                 RRR 0x2d, 0x1
0000023d ec53                 RRR 0x2c, 0x1
0000023e fe8a                 MOVR 0x75, 0x0
0000023f f2fc                 BTRSC 0x3, 0x2
00000240 c5ba                 LGOTO 0x245; main.o:_00493_DS_=0x245
00000241 def1                 MOVIA 0xe
00000242 ff53                 MOVAR 0x2c
00000243 def9                 MOVIA 0x6
00000244 ff52                 MOVAR 0x2d
00000245                      main.o:_00493_DS_:
00000245 def9                 MOVIA 0x6
00000246 fbd2                 SUBAR 0x2d, 0x0
00000247 f6fc                 BTRSS 0x3, 0x2
00000248 c5b4                 LGOTO 0x24b; main.o:_00699_DS_=0x24b
00000249 def0                 MOVIA 0xf
0000024a fbd3                 SUBAR 0x2c, 0x0
0000024b                      main.o:_00699_DS_:
0000024b f7fc                 BTRSS 0x3, 0x0
0000024c c5b0                 LGOTO 0x24f; main.o:_00505_DS_=0x24f
0000024d fd0b                 CLRR 0x74
0000024e c589                 LGOTO 0x276; main.o:_00506_DS_=0x276
0000024f                      main.o:_00505_DS_:
0000024f defb                 MOVIA 0x4
00000250 fbd2                 SUBAR 0x2d, 0x0
00000251 f6fc                 BTRSS 0x3, 0x2
00000252 c5aa                 LGOTO 0x255; main.o:_00700_DS_=0x255
00000253 de86                 MOVIA 0x79
00000254 fbd3                 SUBAR 0x2c, 0x0
00000255                      main.o:_00700_DS_:
00000255 f3fc                 BTRSC 0x3, 0x0
00000256 c58b                 LGOTO 0x274; main.o:_00502_DS_=0x274
00000257 fa0b                 INCR 0x74, 0x1
00000258 def5                 MOVIA 0xa
00000259 fb8b                 SUBAR 0x74, 0x0
0000025a f7fc                 BTRSS 0x3, 0x0
0000025b c478                 LGOTO 0x387; main.o:_00580_DS_=0x387
0000025c def5                 MOVIA 0xa
0000025d ff0b                 MOVAR 0x74
0000025e fd1c                 CLRR 0x63
0000025f de86                 MOVIA 0x79
00000260 ff53                 MOVAR 0x2c
00000261 defb                 MOVIA 0x4
00000262 ff52                 MOVAR 0x2d
00000263 fea3                 MOVR 0x5c, 0x0
00000264 f2fc                 BTRSC 0x3, 0x2
00000265 c592                 LGOTO 0x26d; main.o:_00497_DS_=0x26d
00000266 fa0d                 INCR 0x72, 0x1
00000267 fe8d                 MOVR 0x72, 0x0
00000268 dbf5                 XORIA 0xa
00000269 f6fc                 BTRSS 0x3, 0x2
0000026a c592                 LGOTO 0x26d; main.o:_00497_DS_=0x26d
0000026b deef                 MOVIA 0x10
0000026c ff0e                 MOVAR 0x71
0000026d                      main.o:_00497_DS_:
0000026d def3                 MOVIA 0xc
0000026e fb8d                 SUBAR 0x72, 0x0
0000026f f7fc                 BTRSS 0x3, 0x0
00000270 c589                 LGOTO 0x276; main.o:_00506_DS_=0x276
00000271 def4                 MOVIA 0xb
00000272 ff0d                 MOVAR 0x72
00000273 c589                 LGOTO 0x276; main.o:_00506_DS_=0x276
00000274                      main.o:_00502_DS_:
00000274 fd0b                 CLRR 0x74
00000275 fd0d                 CLRR 0x72
00000276                      main.o:_00506_DS_:
00000276 de78                 MOVIA 0x87
00000277 fc53                 ADDAR 0x2c, 0x1
00000278 de04                 MOVIA 0xfb
00000279 f3fc                 BTRSC 0x3, 0x0
0000027a de03                 MOVIA 0xfc
0000027b fc52                 ADDAR 0x2d, 0x1
0000027c defe                 MOVIA 0x1
0000027d fbd2                 SUBAR 0x2d, 0x0
0000027e f6fc                 BTRSS 0x3, 0x2
0000027f c57d                 LGOTO 0x282; main.o:_00703_DS_=0x282
00000280 de59                 MOVIA 0xa6
00000281 fbd3                 SUBAR 0x2c, 0x0
00000282                      main.o:_00703_DS_:
00000282 f7fc                 BTRSS 0x3, 0x0
00000283 c578                 LGOTO 0x287; main.o:_00578_DS_=0x287
00000284 def8                 MOVIA 0x7
00000285 ff1c                 MOVAR 0x63
00000286 c478                 LGOTO 0x387; main.o:_00580_DS_=0x387
00000287                      main.o:_00578_DS_:
00000287 defe                 MOVIA 0x1
00000288 fbd2                 SUBAR 0x2d, 0x0
00000289 f6fc                 BTRSS 0x3, 0x2
0000028a c572                 LGOTO 0x28d; main.o:_00704_DS_=0x28d
0000028b dea0                 MOVIA 0x5f
0000028c fbd3                 SUBAR 0x2c, 0x0
0000028d                      main.o:_00704_DS_:
0000028d f7fc                 BTRSS 0x3, 0x0
0000028e c537                 LGOTO 0x2c8; main.o:_00575_DS_=0x2c8
0000028f fd0f                 CLRR 0x70
00000290 def9                 MOVIA 0x6
00000291 fb9c                 SUBAR 0x63, 0x0
00000292 f3fc                 BTRSC 0x3, 0x0
00000293 c560                 LGOTO 0x29f; main.o:_00513_DS_=0x29f
00000294 defe                 MOVIA 0x1
00000295 fbd2                 SUBAR 0x2d, 0x0
00000296 f6fc                 BTRSS 0x3, 0x2
00000297 c565                 LGOTO 0x29a; main.o:_00706_DS_=0x29a
00000298 de9b                 MOVIA 0x64
00000299 fbd3                 SUBAR 0x2c, 0x0
0000029a                      main.o:_00706_DS_:
0000029a f7fc                 BTRSS 0x3, 0x0
0000029b c552                 LGOTO 0x2ad; main.o:_00514_DS_=0x2ad
0000029c def9                 MOVIA 0x6
0000029d ff1c                 MOVAR 0x63
0000029e c552                 LGOTO 0x2ad; main.o:_00514_DS_=0x2ad
0000029f                      main.o:_00513_DS_:
0000029f fe9b                 MOVR 0x64, 0x0
000002a0 ee9a                 IORAR 0x65, 0x0
000002a1 f6fc                 BTRSS 0x3, 0x2
000002a2 c552                 LGOTO 0x2ad; main.o:_00514_DS_=0x2ad
000002a3 defe                 MOVIA 0x1
000002a4 fbd2                 SUBAR 0x2d, 0x0
000002a5 f6fc                 BTRSS 0x3, 0x2
000002a6 c556                 LGOTO 0x2a9; main.o:_00707_DS_=0x2a9
000002a7 de73                 MOVIA 0x8c
000002a8 fbd3                 SUBAR 0x2c, 0x0
000002a9                      main.o:_00707_DS_:
000002a9 f3fc                 BTRSC 0x3, 0x0
000002aa c552                 LGOTO 0x2ad; main.o:_00514_DS_=0x2ad
000002ab def9                 MOVIA 0x6
000002ac ff1c                 MOVAR 0x63
000002ad                      main.o:_00514_DS_:
000002ad fe9b                 MOVR 0x64, 0x0
000002ae ee9a                 IORAR 0x65, 0x0
000002af f2fc                 BTRSC 0x3, 0x2
000002b0 c478                 LGOTO 0x387; main.o:_00580_DS_=0x387
000002b1 defe                 MOVIA 0x1
000002b2 fbd2                 SUBAR 0x2d, 0x0
000002b3 f6fc                 BTRSS 0x3, 0x2
000002b4 c548                 LGOTO 0x2b7; main.o:_00708_DS_=0x2b7
000002b5 de73                 MOVIA 0x8c
000002b6 fbd3                 SUBAR 0x2c, 0x0
000002b7                      main.o:_00708_DS_:
000002b7 f7fc                 BTRSS 0x3, 0x0
000002b8 c478                 LGOTO 0x387; main.o:_00580_DS_=0x387
000002b9 defd                 MOVIA 0x2
000002ba fb9a                 SUBAR 0x65, 0x0
000002bb f6fc                 BTRSS 0x3, 0x2
000002bc c540                 LGOTO 0x2bf; main.o:_00709_DS_=0x2bf
000002bd dea6                 MOVIA 0x59
000002be fb9b                 SUBAR 0x64, 0x0
000002bf                      main.o:_00709_DS_:
000002bf f7fc                 BTRSS 0x3, 0x0
000002c0 c478                 LGOTO 0x387; main.o:_00580_DS_=0x387
000002c1 dea7                 MOVIA 0x58
000002c2 ff1b                 MOVAR 0x64
000002c3 defd                 MOVIA 0x2
000002c4 ff1a                 MOVAR 0x65
000002c5 def8                 MOVIA 0x7
000002c6 ff1c                 MOVAR 0x63
000002c7 c478                 LGOTO 0x387; main.o:_00580_DS_=0x387
000002c8                      main.o:_00575_DS_:
000002c8 defe                 MOVIA 0x1
000002c9 fbd2                 SUBAR 0x2d, 0x0
000002ca f6fc                 BTRSS 0x3, 0x2
000002cb c531                 LGOTO 0x2ce; main.o:_00710_DS_=0x2ce
000002cc deb9                 MOVIA 0x46
000002cd fbd3                 SUBAR 0x2c, 0x0
000002ce                      main.o:_00710_DS_:
000002ce f7fc                 BTRSS 0x3, 0x0
000002cf c50d                 LGOTO 0x2f2; main.o:_00572_DS_=0x2f2
000002d0 fe9c                 MOVR 0x63, 0x0
000002d1 dbfb                 XORIA 0x4
000002d2 f6fc                 BTRSS 0x3, 0x2
000002d3 c521                 LGOTO 0x2de; main.o:_00522_DS_=0x2de
000002d4 defe                 MOVIA 0x1
000002d5 fbd2                 SUBAR 0x2d, 0x0
000002d6 f6fc                 BTRSS 0x3, 0x2
000002d7 c525                 LGOTO 0x2da; main.o:_00711_DS_=0x2da
000002d8 deb4                 MOVIA 0x4b
000002d9 fbd3                 SUBAR 0x2c, 0x0
000002da                      main.o:_00711_DS_:
000002da f7fc                 BTRSS 0x3, 0x0
000002db c521                 LGOTO 0x2de; main.o:_00522_DS_=0x2de
000002dc defa                 MOVIA 0x5
000002dd ff1c                 MOVAR 0x63
000002de                      main.o:_00522_DS_:
000002de def9                 MOVIA 0x6
000002df fb9c                 SUBAR 0x63, 0x0
000002e0 f7fc                 BTRSS 0x3, 0x0
000002e1 c512                 LGOTO 0x2ed; main.o:_00526_DS_=0x2ed
000002e2 defe                 MOVIA 0x1
000002e3 fbd2                 SUBAR 0x2d, 0x0
000002e4 f6fc                 BTRSS 0x3, 0x2
000002e5 c517                 LGOTO 0x2e8; main.o:_00713_DS_=0x2e8
000002e6 de92                 MOVIA 0x6d
000002e7 fbd3                 SUBAR 0x2c, 0x0
000002e8                      main.o:_00713_DS_:
000002e8 f3fc                 BTRSC 0x3, 0x0
000002e9 c510                 LGOTO 0x2ef; main.o:_00527_DS_=0x2ef
000002ea defa                 MOVIA 0x5
000002eb ff1c                 MOVAR 0x63
000002ec c510                 LGOTO 0x2ef; main.o:_00527_DS_=0x2ef
000002ed                      main.o:_00526_DS_:
000002ed defa                 MOVIA 0x5
000002ee ff1c                 MOVAR 0x63
000002ef                      main.o:_00527_DS_:
000002ef fd1b                 CLRR 0x64
000002f0 fd1a                 CLRR 0x65
000002f1 c478                 LGOTO 0x387; main.o:_00580_DS_=0x387
000002f2                      main.o:_00572_DS_:
000002f2 defe                 MOVIA 0x1
000002f3 fbd2                 SUBAR 0x2d, 0x0
000002f4 f6fc                 BTRSS 0x3, 0x2
000002f5 c507                 LGOTO 0x2f8; main.o:_00714_DS_=0x2f8
000002f6 defa                 MOVIA 0x5
000002f7 fbd3                 SUBAR 0x2c, 0x0
000002f8                      main.o:_00714_DS_:
000002f8 f7fc                 BTRSS 0x3, 0x0
000002f9 c4e3                 LGOTO 0x31c; main.o:_00569_DS_=0x31c
000002fa fe9c                 MOVR 0x63, 0x0
000002fb dbfc                 XORIA 0x3
000002fc f6fc                 BTRSS 0x3, 0x2
000002fd c4f7                 LGOTO 0x308; main.o:_00531_DS_=0x308
000002fe defe                 MOVIA 0x1
000002ff fbd2                 SUBAR 0x2d, 0x0
00000300 f6fc                 BTRSS 0x3, 0x2
00000301 c4fb                 LGOTO 0x304; main.o:_00715_DS_=0x304
00000302 def5                 MOVIA 0xa
00000303 fbd3                 SUBAR 0x2c, 0x0
00000304                      main.o:_00715_DS_:
00000304 f7fc                 BTRSS 0x3, 0x0
00000305 c4f7                 LGOTO 0x308; main.o:_00531_DS_=0x308
00000306 defb                 MOVIA 0x4
00000307 ff1c                 MOVAR 0x63
00000308                      main.o:_00531_DS_:
00000308 defa                 MOVIA 0x5
00000309 fb9c                 SUBAR 0x63, 0x0
0000030a f7fc                 BTRSS 0x3, 0x0
0000030b c4e8                 LGOTO 0x317; main.o:_00535_DS_=0x317
0000030c defe                 MOVIA 0x1
0000030d fbd2                 SUBAR 0x2d, 0x0
0000030e f6fc                 BTRSS 0x3, 0x2
0000030f c4ed                 LGOTO 0x312; main.o:_00717_DS_=0x312
00000310 debf                 MOVIA 0x40
00000311 fbd3                 SUBAR 0x2c, 0x0
00000312                      main.o:_00717_DS_:
00000312 f3fc                 BTRSC 0x3, 0x0
00000313 c4e6                 LGOTO 0x319; main.o:_00536_DS_=0x319
00000314 defb                 MOVIA 0x4
00000315 ff1c                 MOVAR 0x63
00000316 c4e6                 LGOTO 0x319; main.o:_00536_DS_=0x319
00000317                      main.o:_00535_DS_:
00000317 defb                 MOVIA 0x4
00000318 ff1c                 MOVAR 0x63
00000319                      main.o:_00536_DS_:
00000319 fd1b                 CLRR 0x64
0000031a fd1a                 CLRR 0x65
0000031b c478                 LGOTO 0x387; main.o:_00580_DS_=0x387
0000031c                      main.o:_00569_DS_:
0000031c deff                 MOVIA 0x0
0000031d fbd2                 SUBAR 0x2d, 0x0
0000031e f6fc                 BTRSS 0x3, 0x2
0000031f c4dd                 LGOTO 0x322; main.o:_00718_DS_=0x322
00000320 de36                 MOVIA 0xc9
00000321 fbd3                 SUBAR 0x2c, 0x0
00000322                      main.o:_00718_DS_:
00000322 f7fc                 BTRSS 0x3, 0x0
00000323 c4b9                 LGOTO 0x346; main.o:_00566_DS_=0x346
00000324 fe9c                 MOVR 0x63, 0x0
00000325 dbfd                 XORIA 0x2
00000326 f6fc                 BTRSS 0x3, 0x2
00000327 c4cd                 LGOTO 0x332; main.o:_00540_DS_=0x332
00000328 deff                 MOVIA 0x0
00000329 fbd2                 SUBAR 0x2d, 0x0
0000032a f6fc                 BTRSS 0x3, 0x2
0000032b c4d1                 LGOTO 0x32e; main.o:_00719_DS_=0x32e
0000032c de2c                 MOVIA 0xd3
0000032d fbd3                 SUBAR 0x2c, 0x0
0000032e                      main.o:_00719_DS_:
0000032e f7fc                 BTRSS 0x3, 0x0
0000032f c4cd                 LGOTO 0x332; main.o:_00540_DS_=0x332
00000330 defc                 MOVIA 0x3
00000331 ff1c                 MOVAR 0x63
00000332                      main.o:_00540_DS_:
00000332 defb                 MOVIA 0x4
00000333 fb9c                 SUBAR 0x63, 0x0
00000334 f7fc                 BTRSS 0x3, 0x0
00000335 c4be                 LGOTO 0x341; main.o:_00544_DS_=0x341
00000336 defe                 MOVIA 0x1
00000337 fbd2                 SUBAR 0x2d, 0x0
00000338 f6fc                 BTRSS 0x3, 0x2
00000339 c4c3                 LGOTO 0x33c; main.o:_00721_DS_=0x33c
0000033a defb                 MOVIA 0x4
0000033b fbd3                 SUBAR 0x2c, 0x0
0000033c                      main.o:_00721_DS_:
0000033c f3fc                 BTRSC 0x3, 0x0
0000033d c4bc                 LGOTO 0x343; main.o:_00545_DS_=0x343
0000033e defc                 MOVIA 0x3
0000033f ff1c                 MOVAR 0x63
00000340 c4bc                 LGOTO 0x343; main.o:_00545_DS_=0x343
00000341                      main.o:_00544_DS_:
00000341 defc                 MOVIA 0x3
00000342 ff1c                 MOVAR 0x63
00000343                      main.o:_00545_DS_:
00000343 fd1b                 CLRR 0x64
00000344 fd1a                 CLRR 0x65
00000345 c478                 LGOTO 0x387; main.o:_00580_DS_=0x387
00000346                      main.o:_00566_DS_:
00000346 deff                 MOVIA 0x0
00000347 fbd2                 SUBAR 0x2d, 0x0
00000348 f6fc                 BTRSS 0x3, 0x2
00000349 c4b3                 LGOTO 0x34c; main.o:_00722_DS_=0x34c
0000034a de9a                 MOVIA 0x65
0000034b fbd3                 SUBAR 0x2c, 0x0
0000034c                      main.o:_00722_DS_:
0000034c f7fc                 BTRSS 0x3, 0x0
0000034d c48f                 LGOTO 0x370; main.o:_00563_DS_=0x370
0000034e fe9c                 MOVR 0x63, 0x0
0000034f dbfe                 XORIA 0x1
00000350 f6fc                 BTRSS 0x3, 0x2
00000351 c4a3                 LGOTO 0x35c; main.o:_00549_DS_=0x35c
00000352 deff                 MOVIA 0x0
00000353 fbd2                 SUBAR 0x2d, 0x0
00000354 f6fc                 BTRSS 0x3, 0x2
00000355 c4a7                 LGOTO 0x358; main.o:_00723_DS_=0x358
00000356 de90                 MOVIA 0x6f
00000357 fbd3                 SUBAR 0x2c, 0x0
00000358                      main.o:_00723_DS_:
00000358 f7fc                 BTRSS 0x3, 0x0
00000359 c4a3                 LGOTO 0x35c; main.o:_00549_DS_=0x35c
0000035a defd                 MOVIA 0x2
0000035b ff1c                 MOVAR 0x63
0000035c                      main.o:_00549_DS_:
0000035c defc                 MOVIA 0x3
0000035d fb9c                 SUBAR 0x63, 0x0
0000035e f7fc                 BTRSS 0x3, 0x0
0000035f c494                 LGOTO 0x36b; main.o:_00553_DS_=0x36b
00000360 deff                 MOVIA 0x0
00000361 fbd2                 SUBAR 0x2d, 0x0
00000362 f6fc                 BTRSS 0x3, 0x2
00000363 c499                 LGOTO 0x366; main.o:_00725_DS_=0x366
00000364 de41                 MOVIA 0xbe
00000365 fbd3                 SUBAR 0x2c, 0x0
00000366                      main.o:_00725_DS_:
00000366 f3fc                 BTRSC 0x3, 0x0
00000367 c492                 LGOTO 0x36d; main.o:_00554_DS_=0x36d
00000368 defd                 MOVIA 0x2
00000369 ff1c                 MOVAR 0x63
0000036a c492                 LGOTO 0x36d; main.o:_00554_DS_=0x36d
0000036b                      main.o:_00553_DS_:
0000036b defd                 MOVIA 0x2
0000036c ff1c                 MOVAR 0x63
0000036d                      main.o:_00554_DS_:
0000036d fd1b                 CLRR 0x64
0000036e fd1a                 CLRR 0x65
0000036f c478                 LGOTO 0x387; main.o:_00580_DS_=0x387
00000370                      main.o:_00563_DS_:
00000370 fed3                 MOVR 0x2c, 0x0
00000371 eed2                 IORAR 0x2d, 0x0
00000372 f2fc                 BTRSC 0x3, 0x2
00000373 c478                 LGOTO 0x387; main.o:_00580_DS_=0x387
00000374 defd                 MOVIA 0x2
00000375 fb9c                 SUBAR 0x63, 0x0
00000376 f7fc                 BTRSS 0x3, 0x0
00000377 c47c                 LGOTO 0x383; main.o:_00558_DS_=0x383
00000378 deff                 MOVIA 0x0
00000379 fbd2                 SUBAR 0x2d, 0x0
0000037a f6fc                 BTRSS 0x3, 0x2
0000037b c481                 LGOTO 0x37e; main.o:_00727_DS_=0x37e
0000037c dea5                 MOVIA 0x5a
0000037d fbd3                 SUBAR 0x2c, 0x0
0000037e                      main.o:_00727_DS_:
0000037e f3fc                 BTRSC 0x3, 0x0
0000037f c47a                 LGOTO 0x385; main.o:_00559_DS_=0x385
00000380 defe                 MOVIA 0x1
00000381 ff1c                 MOVAR 0x63
00000382 c47a                 LGOTO 0x385; main.o:_00559_DS_=0x385
00000383                      main.o:_00558_DS_:
00000383 defe                 MOVIA 0x1
00000384 ff1c                 MOVAR 0x63
00000385                      main.o:_00559_DS_:
00000385 fd1b                 CLRR 0x64
00000386 fd1a                 CLRR 0x65
00000387                      main.o:_00580_DS_:
00000387 ffef                 RET
00000388                      _initAD:
00000388 de7b                 MOVIA 0x84
00000389 ff6f                 MOVAR 0x10
0000038a fd6c                 CLRR 0x13
0000038b deef                 MOVIA 0x10
0000038c ff6e                 MOVAR 0x11
0000038d defc                 MOVIA 0x3
0000038e ff6b                 MOVAR 0x14
0000038f e5ef                 BSR 0x10, 0x4
00000390 de9b                 MOVIA 0x64
00000391 d46c                 LCALL 0x393; _delay=0x393
00000392 ffef                 RET
00000393                      _delay:
00000393 ff43                 MOVAR 0x3c
00000394 fd42                 CLRR 0x3d
00000395                      main.o:_00481_DS_:
00000395 fec3                 MOVR 0x3c, 0x0
00000396 fbc2                 SUBAR 0x3d, 0x0
00000397 f3fc                 BTRSC 0x3, 0x0
00000398 c463                 LGOTO 0x39c; main.o:_00483_DS_=0x39c
00000399 ffff                 NOP
0000039a fa42                 INCR 0x3d, 0x1
0000039b c46a                 LGOTO 0x395; main.o:_00481_DS_=0x395
0000039c                      main.o:_00483_DS_:
0000039c ffef                 RET
0000039d                      _chrgCtr:
0000039d f27a                 BTRSC 0x5, 0x3
0000039e c458                 LGOTO 0x3a7; main.o:_00444_DS_=0x3a7
0000039f deff                 MOVIA 0x0
000003a0 fbd5                 SUBAR 0x2a, 0x0
000003a1 f6fc                 BTRSS 0x3, 0x2
000003a2 c45a                 LGOTO 0x3a5; main.o:_00474_DS_=0x3a5
000003a3 de36                 MOVIA 0xc9
000003a4 fbd6                 SUBAR 0x29, 0x0
000003a5                      main.o:_00474_DS_:
000003a5 f7fc                 BTRSS 0x3, 0x0
000003a6 c421                 LGOTO 0x3de; main.o:_00445_DS_=0x3de
000003a7                      main.o:_00444_DS_:
000003a7 e627                 BSR 0x58, 0x3
000003a8 fd23                 CLRR 0x5c
000003a9 fd11                 CLRR 0x6e
000003aa d3cc                 LCALL 0x433; _pwmStop=0x433
000003ab fe9c                 MOVR 0x63, 0x0
000003ac dbf8                 XORIA 0x7
000003ad f6fc                 BTRSS 0x3, 0x2
000003ae c442                 LGOTO 0x3bd; main.o:_00440_DS_=0x3bd
000003af def9                 MOVIA 0x6
000003b0 ff22                 MOVAR 0x5d
000003b1 fa0f                 INCR 0x70, 0x1
000003b2 de9a                 MOVIA 0x65
000003b3 fb8f                 SUBAR 0x70, 0x0
000003b4 f3fc                 BTRSC 0x3, 0x0
000003b5 d3bd                 LCALL 0x442; _pwm1Stop=0x442
000003b6 e279                 BCR 0x6, 0x3
000003b7 ffe9                 IOSTR 0x6
000003b8 ff44                 MOVAR 0x3b
000003b9 e644                 BSR 0x3b, 0x3
000003ba fec4                 MOVR 0x3b, 0x0
000003bb fff9                 IOST 0x6
000003bc c418                 LGOTO 0x3e7; main.o:_00448_DS_=0x3e7
000003bd                      main.o:_00440_DS_:
000003bd ffe9                 IOSTR 0x6
000003be ff44                 MOVAR 0x3b
000003bf e244                 BCR 0x3b, 0x3
000003c0 fec4                 MOVR 0x3b, 0x0
000003c1 fff9                 IOST 0x6
000003c2 fea5                 MOVR 0x5a, 0x0
000003c3 f6fc                 BTRSS 0x3, 0x2
000003c4 c433                 LGOTO 0x3cc; main.o:_00432_DS_=0x3cc
000003c5 fa22                 INCR 0x5d, 0x1
000003c6 def8                 MOVIA 0x7
000003c7 fba2                 SUBAR 0x5d, 0x0
000003c8 f7fc                 BTRSS 0x3, 0x0
000003c9 c433                 LGOTO 0x3cc; main.o:_00432_DS_=0x3cc
000003ca f99c                 DECR 0x63, 0x0
000003cb ff22                 MOVAR 0x5d
000003cc                      main.o:_00432_DS_:
000003cc defd                 MOVIA 0x2
000003cd fb9c                 SUBAR 0x63, 0x0
000003ce f3fc                 BTRSC 0x3, 0x0
000003cf c42c                 LGOTO 0x3d3; main.o:_00437_DS_=0x3d3
000003d0 defc                 MOVIA 0x3
000003d1 ffbc                 SFUN 0x3
000003d2 c423                 LGOTO 0x3dc; main.o:_00438_DS_=0x3dc
000003d3                      main.o:_00437_DS_:
000003d3 defa                 MOVIA 0x5
000003d4 fb9c                 SUBAR 0x63, 0x0
000003d5 f3fc                 BTRSC 0x3, 0x0
000003d6 c425                 LGOTO 0x3da; main.o:_00434_DS_=0x3da
000003d7 def9                 MOVIA 0x6
000003d8 ffbc                 SFUN 0x3
000003d9 c423                 LGOTO 0x3dc; main.o:_00438_DS_=0x3dc
000003da                      main.o:_00434_DS_:
000003da def8                 MOVIA 0x7
000003db ffbc                 SFUN 0x3
000003dc                      main.o:_00438_DS_:
000003dc d3ba                 LCALL 0x445; _pwm1Init=0x445
000003dd c418                 LGOTO 0x3e7; main.o:_00448_DS_=0x3e7
000003de                      main.o:_00445_DS_:
000003de fd1b                 CLRR 0x64
000003df fd1a                 CLRR 0x65
000003e0 d3bd                 LCALL 0x442; _pwm1Stop=0x442
000003e1 fea3                 MOVR 0x5c, 0x0
000003e2 f2fc                 BTRSC 0x3, 0x2
000003e3 fd22                 CLRR 0x5d
000003e4 e227                 BCR 0x58, 0x3
000003e5 fd1b                 CLRR 0x64
000003e6 fd1a                 CLRR 0x65
000003e7                      main.o:_00448_DS_:
000003e7 ffef                 RET
000003e8                      _keyRead:
000003e8 ff45                 MOVAR 0x3a
000003e9 fec5                 MOVR 0x3a, 0x0
000003ea f2fc                 BTRSC 0x3, 0x2
000003eb c407                 LGOTO 0x3f8; main.o:_00420_DS_=0x3f8
000003ec fa24                 INCR 0x5b, 0x1
000003ed de9b                 MOVIA 0x64
000003ee fba4                 SUBAR 0x5b, 0x0
000003ef f7fc                 BTRSS 0x3, 0x0
000003f0 c3f7                 LGOTO 0x408; main.o:_00421_DS_=0x408
000003f1 de9b                 MOVIA 0x64
000003f2 ff24                 MOVAR 0x5b
000003f3 f327                 BTRSC 0x58, 0x1
000003f4 c3f7                 LGOTO 0x408; main.o:_00421_DS_=0x408
000003f5 e727                 BSR 0x58, 0x1
000003f6 defd                 MOVIA 0x2
000003f7 c3f6                 LGOTO 0x409; main.o:_00422_DS_=0x409
000003f8                      main.o:_00420_DS_:
000003f8 de9b                 MOVIA 0x64
000003f9 fba4                 SUBAR 0x5b, 0x0
000003fa f7fc                 BTRSS 0x3, 0x0
000003fb c3ff                 LGOTO 0x400; main.o:_00417_DS_=0x400
000003fc fd24                 CLRR 0x5b
000003fd e327                 BCR 0x58, 0x1
000003fe deff                 MOVIA 0x0
000003ff c3f6                 LGOTO 0x409; main.o:_00422_DS_=0x409
00000400                      main.o:_00417_DS_:
00000400 def7                 MOVIA 0x8
00000401 fba4                 SUBAR 0x5b, 0x0
00000402 f7fc                 BTRSS 0x3, 0x0
00000403 c3f8                 LGOTO 0x407; main.o:_00418_DS_=0x407
00000404 fd24                 CLRR 0x5b
00000405 defe                 MOVIA 0x1
00000406 c3f6                 LGOTO 0x409; main.o:_00422_DS_=0x409
00000407                      main.o:_00418_DS_:
00000407 fd24                 CLRR 0x5b
00000408                      main.o:_00421_DS_:
00000408 deff                 MOVIA 0x0
00000409                      main.o:_00422_DS_:
00000409 ffef                 RET
0000040a                      _gotoSleep:
0000040a fd79                 CLRR 0x6
0000040b fd7a                 CLRR 0x5
0000040c ffea                 IOSTR 0x5
0000040d ff46                 MOVAR 0x39
0000040e e4c6                 BSR 0x39, 0x6
0000040f fec6                 MOVR 0x39, 0x0
00000410 fffa                 IOST 0x5
00000411 d34e                 LCALL 0x4b1; _LedInput=0x4b1
00000412 fd19                 CLRR 0x66
00000413 fd18                 CLRR 0x67
00000414 d3cc                 LCALL 0x433; _pwmStop=0x433
00000415 d3bd                 LCALL 0x442; _pwm1Stop=0x442
00000416 fd23                 CLRR 0x5c
00000417 de67                 MOVIA 0x98
00000418 ff6a                 MOVAR 0x15
00000419 fd1f                 CLRR 0x60
0000041a fd1e                 CLRR 0x61
0000041b fd21                 CLRR 0x5e
0000041c fd20                 CLRR 0x5f
0000041d e2a7                 BCR 0x58, 0x2
0000041e def4                 MOVIA 0xb
0000041f ff71                 MOVAR 0xe
00000420 dee7                 MOVIA 0x18
00000421 ff77                 MOVAR 0x8
00000422 fd70                 CLRR 0xf
00000423 fffd                 CLRWDT
00000424 fffb                 ENI
00000425 fffe                 SLEEP
00000426 fd6a                 CLRR 0x15
00000427 ffea                 IOSTR 0x5
00000428 ff46                 MOVAR 0x39
00000429 e0c6                 BCR 0x39, 0x6
0000042a fec6                 MOVR 0x39, 0x0
0000042b fffa                 IOST 0x5
0000042c e0f9                 BCR 0x6, 0x6
0000042d defe                 MOVIA 0x1
0000042e ff71                 MOVAR 0xe
0000042f fd70                 CLRR 0xf
00000430 de47                 MOVIA 0xb8
00000431 ff77                 MOVAR 0x8
00000432 ffef                 RET
00000433                      _pwmStop:
00000433 fdff                 CLRA
00000434 ffb5                 SFUN 0xa
00000435 ffef                 RET
00000436                      _pwmInit:
00000436 ff95                 SFUNR 0xa
00000437 ff47                 MOVAR 0x38
00000438 f047                 BTRSC 0x38, 0x7
00000439 c3be                 LGOTO 0x441; main.o:_00397_DS_=0x441
0000043a fd66                 CLRR 0x19
0000043b de7f                 MOVIA 0x80
0000043c ffb6                 SFUN 0x9
0000043d fdff                 CLRA
0000043e ffb4                 SFUN 0xb
0000043f de7c                 MOVIA 0x83
00000440 ffb5                 SFUN 0xa
00000441                      main.o:_00397_DS_:
00000441 ffef                 RET
00000442                      _pwm1Stop:
00000442 fdff                 CLRA
00000443 ffbe                 SFUN 0x1
00000444 ffef                 RET
00000445                      _pwm1Init:
00000445 ff9e                 SFUNR 0x1
00000446 ff48                 MOVAR 0x37
00000447 f048                 BTRSC 0x37, 0x7
00000448 c3af                 LGOTO 0x450; main.o:_00386_DS_=0x450
00000449 fd66                 CLRR 0x19
0000044a def3                 MOVIA 0xc
0000044b ffbf                 SFUN 0x0
0000044c fdff                 CLRA
0000044d ffbd                 SFUN 0x2
0000044e de7c                 MOVIA 0x83
0000044f ffbe                 SFUN 0x1
00000450                      main.o:_00386_DS_:
00000450 ffef                 RET
00000451                      _LED6ON:
00000451 ffea                 IOSTR 0x5
00000452 ff49                 MOVAR 0x36
00000453 e3c9                 BCR 0x36, 0x0
00000454 fec9                 MOVR 0x36, 0x0
00000455 fffa                 IOST 0x5
00000456 ffe9                 IOSTR 0x6
00000457 ff49                 MOVAR 0x36
00000458 e349                 BCR 0x36, 0x1
00000459 fec9                 MOVR 0x36, 0x0
0000045a fff9                 IOST 0x6
0000045b e779                 BSR 0x6, 0x1
0000045c e3fa                 BCR 0x5, 0x0
0000045d de9b                 MOVIA 0x64
0000045e d46c                 LCALL 0x393; _delay=0x393
0000045f d34e                 LCALL 0x4b1; _LedInput=0x4b1
00000460 ffef                 RET
00000461                      _LED5ON:
00000461 ffea                 IOSTR 0x5
00000462 ff4a                 MOVAR 0x35
00000463 e3ca                 BCR 0x35, 0x0
00000464 feca                 MOVR 0x35, 0x0
00000465 fffa                 IOST 0x5
00000466 ffe9                 IOSTR 0x6
00000467 ff4a                 MOVAR 0x35
00000468 e34a                 BCR 0x35, 0x1
00000469 feca                 MOVR 0x35, 0x0
0000046a fff9                 IOST 0x6
0000046b e7fa                 BSR 0x5, 0x0
0000046c e379                 BCR 0x6, 0x1
0000046d de9b                 MOVIA 0x64
0000046e d46c                 LCALL 0x393; _delay=0x393
0000046f d34e                 LCALL 0x4b1; _LedInput=0x4b1
00000470 ffef                 RET
00000471                      _LED4ON:
00000471 ffe9                 IOSTR 0x6
00000472 ff4b                 MOVAR 0x34
00000473 e3cb                 BCR 0x34, 0x0
00000474 fecb                 MOVR 0x34, 0x0
00000475 fff9                 IOST 0x6
00000476 ffea                 IOSTR 0x5
00000477 ff4b                 MOVAR 0x34
00000478 e3cb                 BCR 0x34, 0x0
00000479 fecb                 MOVR 0x34, 0x0
0000047a fffa                 IOST 0x5
0000047b e7f9                 BSR 0x6, 0x0
0000047c e3fa                 BCR 0x5, 0x0
0000047d de9b                 MOVIA 0x64
0000047e d46c                 LCALL 0x393; _delay=0x393
0000047f d34e                 LCALL 0x4b1; _LedInput=0x4b1
00000480 ffef                 RET
00000481                      _LED3ON:
00000481 ffe9                 IOSTR 0x6
00000482 ff4c                 MOVAR 0x33
00000483 e3cc                 BCR 0x33, 0x0
00000484 fecc                 MOVR 0x33, 0x0
00000485 fff9                 IOST 0x6
00000486 ffe9                 IOSTR 0x6
00000487 ff4c                 MOVAR 0x33
00000488 e34c                 BCR 0x33, 0x1
00000489 fecc                 MOVR 0x33, 0x0
0000048a fff9                 IOST 0x6
0000048b e779                 BSR 0x6, 0x1
0000048c e3f9                 BCR 0x6, 0x0
0000048d de9b                 MOVIA 0x64
0000048e d46c                 LCALL 0x393; _delay=0x393
0000048f d34e                 LCALL 0x4b1; _LedInput=0x4b1
00000490 ffef                 RET
00000491                      _LED2ON:
00000491 ffea                 IOSTR 0x5
00000492 ff4d                 MOVAR 0x32
00000493 e3cd                 BCR 0x32, 0x0
00000494 fecd                 MOVR 0x32, 0x0
00000495 fffa                 IOST 0x5
00000496 ffe9                 IOSTR 0x6
00000497 ff4d                 MOVAR 0x32
00000498 e3cd                 BCR 0x32, 0x0
00000499 fecd                 MOVR 0x32, 0x0
0000049a fff9                 IOST 0x6
0000049b e7fa                 BSR 0x5, 0x0
0000049c e3f9                 BCR 0x6, 0x0
0000049d de9b                 MOVIA 0x64
0000049e d46c                 LCALL 0x393; _delay=0x393
0000049f d34e                 LCALL 0x4b1; _LedInput=0x4b1
000004a0 ffef                 RET
000004a1                      _LED1ON:
000004a1 ffe9                 IOSTR 0x6
000004a2 ff4e                 MOVAR 0x31
000004a3 e3ce                 BCR 0x31, 0x0
000004a4 fece                 MOVR 0x31, 0x0
000004a5 fff9                 IOST 0x6
000004a6 ffe9                 IOSTR 0x6
000004a7 ff4e                 MOVAR 0x31
000004a8 e34e                 BCR 0x31, 0x1
000004a9 fece                 MOVR 0x31, 0x0
000004aa fff9                 IOST 0x6
000004ab e7f9                 BSR 0x6, 0x0
000004ac e379                 BCR 0x6, 0x1
000004ad de9b                 MOVIA 0x64
000004ae d46c                 LCALL 0x393; _delay=0x393
000004af d34e                 LCALL 0x4b1; _LedInput=0x4b1
000004b0 ffef                 RET
000004b1                      _LedInput:
000004b1 ffea                 IOSTR 0x5
000004b2 ff4f                 MOVAR 0x30
000004b3 e7cf                 BSR 0x30, 0x0
000004b4 fecf                 MOVR 0x30, 0x0
000004b5 fffa                 IOST 0x5
000004b6 ffe9                 IOSTR 0x6
000004b7 ff4f                 MOVAR 0x30
000004b8 defc                 MOVIA 0x3
000004b9 ee4f                 IORAR 0x30, 0x1
000004ba fecf                 MOVR 0x30, 0x0
000004bb fff9                 IOST 0x6
000004bc e3fa                 BCR 0x5, 0x0
000004bd de03                 MOVIA 0xfc
000004be ef79                 ANDAR 0x6, 0x1
000004bf ffef                 RET
000004c0                      _ledShow:
000004c0 defa                 MOVIA 0x5
000004c1 fb92                 SUBAR 0x6d, 0x0
000004c2 f7fc                 BTRSS 0x3, 0x0
000004c3 c330                 LGOTO 0x4cf; main.o:_00274_DS_=0x4cf
000004c4 fea3                 MOVR 0x5c, 0x0
000004c5 f2fc                 BTRSC 0x3, 0x2
000004c6 c330                 LGOTO 0x4cf; main.o:_00274_DS_=0x4cf
000004c7 decd                 MOVIA 0x32
000004c8 fb96                 SUBAR 0x69, 0x0
000004c9 f3fc                 BTRSC 0x3, 0x0
000004ca c331                 LGOTO 0x4ce; main.o:_00271_DS_=0x4ce
000004cb fea3                 MOVR 0x5c, 0x0
000004cc ff22                 MOVAR 0x5d
000004cd c330                 LGOTO 0x4cf; main.o:_00274_DS_=0x4cf
000004ce                      main.o:_00271_DS_:
000004ce fd22                 CLRR 0x5d
000004cf                      main.o:_00274_DS_:
000004cf fe91                 MOVR 0x6e, 0x0
000004d0 f2fc                 BTRSC 0x3, 0x2
000004d1 c31d                 LGOTO 0x4e2; main.o:_00282_DS_=0x4e2
000004d2 fe9c                 MOVR 0x63, 0x0
000004d3 f2fc                 BTRSC 0x3, 0x2
000004d4 c31d                 LGOTO 0x4e2; main.o:_00282_DS_=0x4e2
000004d5 fe91                 MOVR 0x6e, 0x0
000004d6 dbfd                 XORIA 0x2
000004d7 f6fc                 BTRSS 0x3, 0x2
000004d8 c31d                 LGOTO 0x4e2; main.o:_00282_DS_=0x4e2
000004d9 def8                 MOVIA 0x7
000004da fb9c                 SUBAR 0x63, 0x0
000004db f7fc                 BTRSS 0x3, 0x0
000004dc c31f                 LGOTO 0x4e0; main.o:_00277_DS_=0x4e0
000004dd def9                 MOVIA 0x6
000004de ff22                 MOVAR 0x5d
000004df c31d                 LGOTO 0x4e2; main.o:_00282_DS_=0x4e2
000004e0                      main.o:_00277_DS_:
000004e0 fe9c                 MOVR 0x63, 0x0
000004e1 ff22                 MOVAR 0x5d
000004e2                      main.o:_00282_DS_:
000004e2 fe8e                 MOVR 0x71, 0x0
000004e3 f2fc                 BTRSC 0x3, 0x2
000004e4 c30c                 LGOTO 0x4f3; main.o:_00288_DS_=0x4f3
000004e5 fea3                 MOVR 0x5c, 0x0
000004e6 f2fc                 BTRSC 0x3, 0x2
000004e7 c30c                 LGOTO 0x4f3; main.o:_00288_DS_=0x4f3
000004e8 fe9c                 MOVR 0x63, 0x0
000004e9 f6fc                 BTRSS 0x3, 0x2
000004ea c30c                 LGOTO 0x4f3; main.o:_00288_DS_=0x4f3
000004eb decd                 MOVIA 0x32
000004ec fb96                 SUBAR 0x69, 0x0
000004ed f3fc                 BTRSC 0x3, 0x0
000004ee c30d                 LGOTO 0x4f2; main.o:_00285_DS_=0x4f2
000004ef fea3                 MOVR 0x5c, 0x0
000004f0 ff22                 MOVAR 0x5d
000004f1 c30c                 LGOTO 0x4f3; main.o:_00288_DS_=0x4f3
000004f2                      main.o:_00285_DS_:
000004f2 fd22                 CLRR 0x5d
000004f3                      main.o:_00288_DS_:
000004f3 fe8e                 MOVR 0x71, 0x0
000004f4 f6fc                 BTRSS 0x3, 0x2
000004f5 c303                 LGOTO 0x4fc; main.o:_00292_DS_=0x4fc
000004f6 fe9c                 MOVR 0x63, 0x0
000004f7 f6fc                 BTRSS 0x3, 0x2
000004f8 c303                 LGOTO 0x4fc; main.o:_00292_DS_=0x4fc
000004f9 fd23                 CLRR 0x5c
000004fa fd22                 CLRR 0x5d
000004fb d3cc                 LCALL 0x433; _pwmStop=0x433
000004fc                      main.o:_00292_DS_:
000004fc d34e                 LCALL 0x4b1; _LedInput=0x4b1
000004fd def8                 MOVIA 0x7
000004fe fba2                 SUBAR 0x5d, 0x0
000004ff f3fc                 BTRSC 0x3, 0x0
00000500 c2e8                 LGOTO 0x517; main.o:_00302_DS_=0x517
00000501 defa                 MOVIA 0x5
00000502 ff75                 MOVAR 0xa
00000503 fea2                 MOVR 0x5d, 0x0
00000504 daf7                 ADDIA 0x8
00000505 f3fc                 BTRSC 0x3, 0x0
00000506 fa75                 INCR 0xa, 0x1
00000507 ff7d                 MOVAR 0x2
00000508                      main.o:_00351_DS_:
00000508 c2f0                 LGOTO 0x50f; main.o:_00294_DS_=0x50f
00000509 c2e9                 LGOTO 0x516; main.o:_00300_DS_=0x516
0000050a c2ea                 LGOTO 0x515; main.o:_00299_DS_=0x515
0000050b c2eb                 LGOTO 0x514; main.o:_00298_DS_=0x514
0000050c c2ec                 LGOTO 0x513; main.o:_00297_DS_=0x513
0000050d c2ed                 LGOTO 0x512; main.o:_00296_DS_=0x512
0000050e c2ee                 LGOTO 0x511; main.o:_00295_DS_=0x511
0000050f                      main.o:_00294_DS_:
0000050f d34e                 LCALL 0x4b1; _LedInput=0x4b1
00000510 c2e8                 LGOTO 0x517; main.o:_00302_DS_=0x517
00000511                      main.o:_00295_DS_:
00000511 d3ae                 LCALL 0x451; _LED6ON=0x451
00000512                      main.o:_00296_DS_:
00000512 d39e                 LCALL 0x461; _LED5ON=0x461
00000513                      main.o:_00297_DS_:
00000513 d38e                 LCALL 0x471; _LED4ON=0x471
00000514                      main.o:_00298_DS_:
00000514 d37e                 LCALL 0x481; _LED3ON=0x481
00000515                      main.o:_00299_DS_:
00000515 d36e                 LCALL 0x491; _LED2ON=0x491
00000516                      main.o:_00300_DS_:
00000516 d35e                 LCALL 0x4a1; _LED1ON=0x4a1
00000517                      main.o:_00302_DS_:
00000517 ffef                 RET
00000518                      _initSys:
00000518 ffec                 DISI
00000519 de41                 MOVIA 0xbe
0000051a fffa                 IOST 0x5
0000051b fdff                 CLRA
0000051c fff9                 IOST 0x6
0000051d fd79                 CLRR 0x6
0000051e fd7a                 CLRR 0x5
0000051f d34e                 LCALL 0x4b1; _LedInput=0x4b1
00000520 de80                 MOVIA 0x7f
00000521 fff6                 IOST 0x9
00000522 de00                 MOVIA 0xff
00000523 ff73                 MOVAR 0xc
00000524 ff74                 MOVAR 0xb
00000525 defe                 MOVIA 0x1
00000526 ff71                 MOVAR 0xe
00000527 fdff                 CLRA
00000528 fff0                 IOST 0xf
00000529 dec8                 MOVIA 0x37
0000052a ff7e                 MOVAR 0x1
0000052b fdff                 CLRA
0000052c fffc                 T0MD
0000052d defe                 MOVIA 0x1
0000052e fff0                 IOST 0xf
0000052f de67                 MOVIA 0x98
00000530 ff77                 MOVAR 0x8
00000531 defe                 MOVIA 0x1
00000532 fff0                 IOST 0xf
00000533 fffb                 ENI
00000534 ffef                 RET
00000535                      _powerOff:
00000535 fd23                 CLRR 0x5c
00000536 d3cc                 LCALL 0x433; _pwmStop=0x433
00000537 defa                 MOVIA 0x5
00000538 ff22                 MOVAR 0x5d
00000539 ffef                 RET
0000053a                      _keyCtr:
0000053a f8fa                 COMR 0x5, 0x0
0000053b ff50                 MOVAR 0x2f
0000053c de7f                 MOVIA 0x80
0000053d ef50                 ANDAR 0x2f, 0x1
0000053e fed0                 MOVR 0x2f, 0x0
0000053f d417                 LCALL 0x3e8; _keyRead=0x3e8
00000540 ff50                 MOVAR 0x2f
00000541 dbfe                 XORIA 0x1
00000542 f6fc                 BTRSS 0x3, 0x2
00000543 c276                 LGOTO 0x589; main.o:_00255_DS_=0x589
00000544 fd25                 CLRR 0x5a
00000545 fd11                 CLRR 0x6e
00000546 fea3                 MOVR 0x5c, 0x0
00000547 f6fc                 BTRSS 0x3, 0x2
00000548 c2b2                 LGOTO 0x54d; main.o:_00225_DS_=0x54d
00000549 fd16                 CLRR 0x69
0000054a defd                 MOVIA 0x2
0000054b ff11                 MOVAR 0x6e
0000054c c25a                 LGOTO 0x5a5; main.o:_00257_DS_=0x5a5
0000054d                      main.o:_00225_DS_:
0000054d fd13                 CLRR 0x6c
0000054e fa23                 INCR 0x5c, 0x1
0000054f def8                 MOVIA 0x7
00000550 fba3                 SUBAR 0x5c, 0x0
00000551 f7fc                 BTRSS 0x3, 0x0
00000552 c2aa                 LGOTO 0x555; main.o:_00227_DS_=0x555
00000553 defe                 MOVIA 0x1
00000554 ff23                 MOVAR 0x5c
00000555                      main.o:_00227_DS_:
00000555 def9                 MOVIA 0x6
00000556 ff0e                 MOVAR 0x71
00000557 fea3                 MOVR 0x5c, 0x0
00000558 dbfe                 XORIA 0x1
00000559 f6fc                 BTRSS 0x3, 0x2
0000055a c2a1                 LGOTO 0x55e; main.o:_00243_DS_=0x55e
0000055b decc                 MOVIA 0x33
0000055c ff1d                 MOVAR 0x62
0000055d c27f                 LGOTO 0x580; main.o:_00244_DS_=0x580
0000055e                      main.o:_00243_DS_:
0000055e fea3                 MOVR 0x5c, 0x0
0000055f dbfd                 XORIA 0x2
00000560 f6fc                 BTRSS 0x3, 0x2
00000561 c29a                 LGOTO 0x565; main.o:_00240_DS_=0x565
00000562 deca                 MOVIA 0x35
00000563 ff1d                 MOVAR 0x62
00000564 c27f                 LGOTO 0x580; main.o:_00244_DS_=0x580
00000565                      main.o:_00240_DS_:
00000565 fea3                 MOVR 0x5c, 0x0
00000566 dbfc                 XORIA 0x3
00000567 f6fc                 BTRSS 0x3, 0x2
00000568 c293                 LGOTO 0x56c; main.o:_00237_DS_=0x56c
00000569 dec9                 MOVIA 0x36
0000056a ff1d                 MOVAR 0x62
0000056b c27f                 LGOTO 0x580; main.o:_00244_DS_=0x580
0000056c                      main.o:_00237_DS_:
0000056c fea3                 MOVR 0x5c, 0x0
0000056d dbfb                 XORIA 0x4
0000056e f6fc                 BTRSS 0x3, 0x2
0000056f c28c                 LGOTO 0x573; main.o:_00234_DS_=0x573
00000570 dec8                 MOVIA 0x37
00000571 ff1d                 MOVAR 0x62
00000572 c27f                 LGOTO 0x580; main.o:_00244_DS_=0x580
00000573                      main.o:_00234_DS_:
00000573 fea3                 MOVR 0x5c, 0x0
00000574 dbfa                 XORIA 0x5
00000575 f6fc                 BTRSS 0x3, 0x2
00000576 c285                 LGOTO 0x57a; main.o:_00231_DS_=0x57a
00000577 dec7                 MOVIA 0x38
00000578 ff1d                 MOVAR 0x62
00000579 c27f                 LGOTO 0x580; main.o:_00244_DS_=0x580
0000057a                      main.o:_00231_DS_:
0000057a fea3                 MOVR 0x5c, 0x0
0000057b dbf9                 XORIA 0x6
0000057c f6fc                 BTRSS 0x3, 0x2
0000057d c27f                 LGOTO 0x580; main.o:_00244_DS_=0x580
0000057e dec5                 MOVIA 0x3a
0000057f ff1d                 MOVAR 0x62
00000580                      main.o:_00244_DS_:
00000580 fea3                 MOVR 0x5c, 0x0
00000581 f2fc                 BTRSC 0x3, 0x2
00000582 c279                 LGOTO 0x586; main.o:_00246_DS_=0x586
00000583 fe9d                 MOVR 0x62, 0x0
00000584 ffb3                 SFUN 0xc
00000585 d3c9                 LCALL 0x436; _pwmInit=0x436
00000586                      main.o:_00246_DS_:
00000586 fea3                 MOVR 0x5c, 0x0
00000587 ff22                 MOVAR 0x5d
00000588 c25a                 LGOTO 0x5a5; main.o:_00257_DS_=0x5a5
00000589                      main.o:_00255_DS_:
00000589 fed0                 MOVR 0x2f, 0x0
0000058a dbfd                 XORIA 0x2
0000058b f6fc                 BTRSS 0x3, 0x2
0000058c c25a                 LGOTO 0x5a5; main.o:_00257_DS_=0x5a5
0000058d fea3                 MOVR 0x5c, 0x0
0000058e f2fc                 BTRSC 0x3, 0x2
0000058f c26d                 LGOTO 0x592; main.o:_00250_DS_=0x592
00000590 d2ca                 LCALL 0x535; _powerOff=0x535
00000591 c25c                 LGOTO 0x5a3; main.o:_00251_DS_=0x5a3
00000592                      main.o:_00250_DS_:
00000592 fe9c                 MOVR 0x63, 0x0
00000593 dbf5                 XORIA 0xa
00000594 f6fc                 BTRSS 0x3, 0x2
00000595 c266                 LGOTO 0x599; main.o:_00248_DS_=0x599
00000596 fd19                 CLRR 0x66
00000597 fd18                 CLRR 0x67
00000598 c25a                 LGOTO 0x5a5; main.o:_00257_DS_=0x5a5
00000599                      main.o:_00248_DS_:
00000599 defe                 MOVIA 0x1
0000059a ff23                 MOVAR 0x5c
0000059b de9b                 MOVIA 0x64
0000059c ffb3                 SFUN 0xc
0000059d ff10                 MOVAR 0x6f
0000059e decd                 MOVIA 0x32
0000059f ff1d                 MOVAR 0x62
000005a0 d3c9                 LCALL 0x436; _pwmInit=0x436
000005a1 deef                 MOVIA 0x10
000005a2 ff0e                 MOVAR 0x71
000005a3                      main.o:_00251_DS_:
000005a3 fea3                 MOVR 0x5c, 0x0
000005a4 ff22                 MOVAR 0x5d
000005a5                      main.o:_00257_DS_:
000005a5 ffef                 RET
000005a6                      __mulchar:
000005a6 ff2f                 MOVAR 0x50
000005a7 feda                 MOVR 0x25, 0x0
000005a8 ff2e                 MOVAR 0x51
000005a9 fd2d                 CLRR 0x52
000005aa def7                 MOVIA 0x8
000005ab ff2c                 MOVAR 0x53
000005ac                      _mulchar.o:_00119_DS_:
000005ac f7af                 BTRSS 0x50, 0x0
000005ad c24f                 LGOTO 0x5b0; _mulchar.o:_00114_DS_=0x5b0
000005ae feae                 MOVR 0x51, 0x0
000005af fc2d                 ADDAR 0x52, 0x1
000005b0                      _mulchar.o:_00114_DS_:
000005b0 e3fc                 BCR 0x3, 0x0
000005b1 ec2f                 RRR 0x50, 0x1
000005b2 e3fc                 BCR 0x3, 0x0
000005b3 eb2e                 RLR 0x51, 0x1
000005b4 f9ac                 DECR 0x53, 0x0
000005b5 ff2b                 MOVAR 0x54
000005b6 ff2c                 MOVAR 0x53
000005b7 feab                 MOVR 0x54, 0x0
000005b8 f6fc                 BTRSS 0x3, 0x2
000005b9 c253                 LGOTO 0x5ac; _mulchar.o:_00119_DS_=0x5ac
000005ba fead                 MOVR 0x52, 0x0
000005bb ffef                 RET
000005bc                      ___cinit_load__:
