00000000 c7fe                 LGOTO 0x1; __nyc_ny8_startup=0x1
00000001                      __nyc_ny8_startup:
00000001 d1b9                 LCALL 0x646; ___cinit_load__=0x646
00000002 c795                 LGOTO 0x6a; _main=0x6a
00000003                      main.o:_00935_DS_:
00000003 f56f                 BTRSS 0x10, 0x5
00000004 c7fc                 LGOTO 0x3; main.o:_00935_DS_=0x3
00000005 ffef                 RET
00000008 c7f6                 LGOTO 0x9; main.o:__sdcc_interrupt=0x9
00000009                      main.o:__sdcc_interrupt:
00000009 ff3d                 MOVAR 0x42
0000000a eafc                 SWAPR 0x3, 0x0
0000000b fd7c                 CLRR 0x3
0000000c ff3e                 MOVAR 0x41
0000000d fef5                 MOVR 0xa, 0x0
0000000e fd75                 CLRR 0xa
0000000f ff3f                 MOVAR 0x40
00000010 fefb                 MOVR 0x4, 0x0
00000011 e0fc                 BCR 0x3, 0x6
00000012 ff38                 MOVAR 0x47
00000013 feba                 MOVR 0x45, 0x0
00000014 ff37                 MOVAR 0x48
00000015 febb                 MOVR 0x44, 0x0
00000016 ff36                 MOVAR 0x49
00000017 f7f0                 BTRSS 0xf, 0x0
00000018 c7a9                 LGOTO 0x56; main.o:_00126_DS_=0x56
00000019 dec8                 MOVIA 0x37
0000001a fc7e                 ADDAR 0x1, 0x1
0000001b fa35                 INCR 0x4a, 0x1
0000001c de9b                 MOVIA 0x64
0000001d fbb5                 SUBAR 0x4a, 0x0
0000001e f7fc                 BTRSS 0x3, 0x0
0000001f c7a9                 LGOTO 0x56; main.o:_00126_DS_=0x56
00000020 defe                 MOVIA 0x1
00000021 ff1a                 MOVAR 0x65
00000022 fd35                 CLRR 0x4a
00000023 feb2                 MOVR 0x4d, 0x0
00000024 f2fc                 BTRSC 0x3, 0x2
00000025 c7d6                 LGOTO 0x29; main.o:_00106_DS_=0x29
00000026 fa30                 INCR 0x4f, 0x1
00000027 f2fc                 BTRSC 0x3, 0x2
00000028 fa2f                 INCR 0x50, 0x1
00000029                      main.o:_00106_DS_:
00000029 e0fc                 BCR 0x3, 0x6
0000002a fa34                 INCR 0x4b, 0x1
0000002b dec3                 MOVIA 0x3c
0000002c fbb4                 SUBAR 0x4b, 0x0
0000002d f3fc                 BTRSC 0x3, 0x0
0000002e fd34                 CLRR 0x4b
0000002f fa28                 INCR 0x57, 0x1
00000030 deeb                 MOVIA 0x14
00000031 fba8                 SUBAR 0x57, 0x0
00000032 f3fc                 BTRSC 0x3, 0x0
00000033 fd28                 CLRR 0x57
00000034 fa27                 INCR 0x58, 0x1
00000035 de9b                 MOVIA 0x64
00000036 fba7                 SUBAR 0x58, 0x0
00000037 f7fc                 BTRSS 0x3, 0x0
00000038 c7a9                 LGOTO 0x56; main.o:_00126_DS_=0x56
00000039 fd27                 CLRR 0x58
0000003a fe99                 MOVR 0x66, 0x0
0000003b dbfe                 XORIA 0x1
0000003c f6fc                 BTRSS 0x3, 0x2
0000003d c7ba                 LGOTO 0x45; main.o:_00112_DS_=0x45
0000003e fead                 MOVR 0x52, 0x0
0000003f                      ___cinit_size__:
0000003f dbf7                 XORIA 0x8
00000040 f6fc                 BTRSS 0x3, 0x2
00000041 c7ba                 LGOTO 0x45; main.o:_00112_DS_=0x45
00000042 fa2c                 INCR 0x53, 0x1
00000043 f2fc                 BTRSC 0x3, 0x2
00000044 fa2b                 INCR 0x54, 0x1
00000045                      main.o:_00112_DS_:
00000045 e0fc                 BCR 0x3, 0x6
00000046 fea2                 MOVR 0x5d, 0x0
00000047 f6fc                 BTRSS 0x3, 0x2
00000048 f922                 DECR 0x5d, 0x1
00000049 fe9f                 MOVR 0x60, 0x0
0000004a f6fc                 BTRSS 0x3, 0x2
0000004b f91f                 DECR 0x60, 0x1
0000004c feb2                 MOVR 0x4d, 0x0
0000004d f2fc                 BTRSC 0x3, 0x2
0000004e c7ac                 LGOTO 0x53; main.o:_00119_DS_=0x53
0000004f fa26                 INCR 0x59, 0x1
00000050 f2fc                 BTRSC 0x3, 0x2
00000051 fa25                 INCR 0x5a, 0x1
00000052 c7a9                 LGOTO 0x56; main.o:_00126_DS_=0x56
00000053                      main.o:_00119_DS_:
00000053 e0fc                 BCR 0x3, 0x6
00000054 fd26                 CLRR 0x59
00000055 fd25                 CLRR 0x5a
00000056                      main.o:_00126_DS_:
00000056 f770                 BTRSS 0xf, 0x1
00000057 c7a5                 LGOTO 0x5a; main.o:_00128_DS_=0x5a
00000058 de02                 MOVIA 0xfd
00000059 ff70                 MOVAR 0xf
0000005a                      main.o:_00128_DS_:
0000005a fd70                 CLRR 0xf
0000005b e0fc                 BCR 0x3, 0x6
0000005c feb6                 MOVR 0x49, 0x0
0000005d ff3b                 MOVAR 0x44
0000005e feb7                 MOVR 0x48, 0x0
0000005f ff3a                 MOVAR 0x45
00000060 feb8                 MOVR 0x47, 0x0
00000061 ff7b                 MOVAR 0x4
00000062 febf                 MOVR 0x40, 0x0
00000063 ff75                 MOVAR 0xa
00000064 fd7c                 CLRR 0x3
00000065 eabe                 SWAPR 0x41, 0x0
00000066 ff7c                 MOVAR 0x3
00000067 ea3d                 SWAPR 0x42, 0x1
00000068 eabd                 SWAPR 0x42, 0x0
00000069                      main.o:END_OF_INTERRUPT:
00000069 ffee                 RETIE
0000006a                      _main:
0000006a d269                 LCALL 0x596; _initSys=0x596
0000006b d41b                 LCALL 0x3e4; _initAD=0x3e4
0000006c                      main.o:_00156_DS_:
0000006c fffd                 CLRWDT
0000006d d2cd                 LCALL 0x532; _ledShow=0x532
0000006e e0fc                 BCR 0x3, 0x6
0000006f fe9a                 MOVR 0x65, 0x0
00000070 f2fc                 BTRSC 0x3, 0x2
00000071 c793                 LGOTO 0x6c; main.o:_00156_DS_=0x6c
00000072 fd1a                 CLRR 0x65
00000073 fe99                 MOVR 0x66, 0x0
00000074 f2fc                 BTRSC 0x3, 0x2
00000075 d245                 LCALL 0x5ba; _keyCtr=0x5ba
00000076 defa                 MOVIA 0x5
00000077 e0fc                 BCR 0x3, 0x6
00000078 fba8                 SUBAR 0x57, 0x0
00000079 f3fc                 BTRSC 0x3, 0x0
0000007a c782                 LGOTO 0x7d; main.o:_00141_DS_=0x7d
0000007b d61e                 LCALL 0x1e1; _checkBatAD=0x1e1
0000007c c779                 LGOTO 0x86; main.o:_00142_DS_=0x86
0000007d                      main.o:_00141_DS_:
0000007d def6                 MOVIA 0x9
0000007e e0fc                 BCR 0x3, 0x6
0000007f fba8                 SUBAR 0x57, 0x0
00000080 f7fc                 BTRSS 0x3, 0x0
00000081 c779                 LGOTO 0x86; main.o:_00142_DS_=0x86
00000082 def4                 MOVIA 0xb
00000083 fba8                 SUBAR 0x57, 0x0
00000084 f7fc                 BTRSS 0x3, 0x0
00000085 d6fa                 LCALL 0x105; _checkOutA=0x105
00000086                      main.o:_00142_DS_:
00000086 d404                 LCALL 0x3fb; _chrgCtr=0x3fb
00000087 e0fc                 BCR 0x3, 0x6
00000088 feb2                 MOVR 0x4d, 0x0
00000089 f2fc                 BTRSC 0x3, 0x2
0000008a c76c                 LGOTO 0x93; main.o:_00144_DS_=0x93
0000008b fea1                 MOVR 0x5e, 0x0
0000008c fbae                 SUBAR 0x51, 0x0
0000008d f3fc                 BTRSC 0x3, 0x0
0000008e c76c                 LGOTO 0x93; main.o:_00144_DS_=0x93
0000008f de09                 MOVIA 0xf6
00000090 fc21                 ADDAR 0x5e, 0x1
00000091 fea1                 MOVR 0x5e, 0x0
00000092 ffb3                 SFUN 0xc
00000093                      main.o:_00144_DS_:
00000093 e0fc                 BCR 0x3, 0x6
00000094 feb2                 MOVR 0x4d, 0x0
00000095 f6fc                 BTRSS 0x3, 0x2
00000096 c754                 LGOTO 0xab; main.o:_00149_DS_=0xab
00000097 feb3                 MOVR 0x4c, 0x0
00000098 f6fc                 BTRSS 0x3, 0x2
00000099 c754                 LGOTO 0xab; main.o:_00149_DS_=0xab
0000009a f17a                 BTRSC 0x5, 0x5
0000009b c754                 LGOTO 0xab; main.o:_00149_DS_=0xab
0000009c fea2                 MOVR 0x5d, 0x0
0000009d f6fc                 BTRSS 0x3, 0x2
0000009e c754                 LGOTO 0xab; main.o:_00149_DS_=0xab
0000009f fa2a                 INCR 0x55, 0x1
000000a0 f2fc                 BTRSC 0x3, 0x2
000000a1 fa29                 INCR 0x56, 0x1
000000a2 defe                 MOVIA 0x1
000000a3 fba9                 SUBAR 0x56, 0x0
000000a4 f6fc                 BTRSS 0x3, 0x2
000000a5 c757                 LGOTO 0xa8; main.o:_00206_DS_=0xa8
000000a6 ded2                 MOVIA 0x2d
000000a7 fbaa                 SUBAR 0x55, 0x0
000000a8                      main.o:_00206_DS_:
000000a8 f7fc                 BTRSS 0x3, 0x0
000000a9 c754                 LGOTO 0xab; main.o:_00149_DS_=0xab
000000aa d390                 LCALL 0x46f; _gotoSleep=0x46f
000000ab                      main.o:_00149_DS_:
000000ab defc                 MOVIA 0x3
000000ac e0fc                 BCR 0x3, 0x6
000000ad fba5                 SUBAR 0x5a, 0x0
000000ae f6fc                 BTRSS 0x3, 0x2
000000af c74d                 LGOTO 0xb2; main.o:_00207_DS_=0xb2
000000b0 de7b                 MOVIA 0x84
000000b1 fba6                 SUBAR 0x59, 0x0
000000b2                      main.o:_00207_DS_:
000000b2 f7fc                 BTRSS 0x3, 0x0
000000b3 c793                 LGOTO 0x6c; main.o:_00156_DS_=0x6c
000000b4 d24b                 LCALL 0x5b4; _powerOff=0x5b4
000000b5 c793                 LGOTO 0x6c; main.o:_00156_DS_=0x6c
000000b6 ffef                 RET
000000b7                      _F_AIN3_Convert:
000000b7 e0fc                 BCR 0x3, 0x6
000000b8 ff42                 MOVAR 0x3d
000000b9 fd5a                 CLRR 0x25
000000ba fd5c                 CLRR 0x23
000000bb fd5b                 CLRR 0x24
000000bc de6c                 MOVIA 0x93
000000bd ff6f                 MOVAR 0x10
000000be de37                 MOVIA 0xc8
000000bf d410                 LCALL 0x3ef; _delay=0x3ef
000000c0 defe                 MOVIA 0x1
000000c1 e0fc                 BCR 0x3, 0x6
000000c2 ff41                 MOVAR 0x3e
000000c3                      main.o:_00919_DS_:
000000c3 e0fc                 BCR 0x3, 0x6
000000c4 fec1                 MOVR 0x3e, 0x0
000000c5 fbc2                 SUBAR 0x3d, 0x0
000000c6 f7fc                 BTRSS 0x3, 0x0
000000c7 c722                 LGOTO 0xdd; main.o:_00921_DS_=0xdd
000000c8 e4ef                 BSR 0x10, 0x6
000000c9 d7fc                 LCALL 0x3; main.o:_00935_DS_=0x3
000000ca def0                 MOVIA 0xf
000000cb efee                 ANDAR 0x11, 0x0
000000cc e0fc                 BCR 0x3, 0x6
000000cd fc5a                 ADDAR 0x25, 0x1
000000ce feed                 MOVR 0x12, 0x0
000000cf ff40                 MOVAR 0x3f
000000d0 deff                 MOVIA 0x0
000000d1 ff39                 MOVAR 0x46
000000d2 fec0                 MOVR 0x3f, 0x0
000000d3 fc5c                 ADDAR 0x23, 0x1
000000d4 feb9                 MOVR 0x46, 0x0
000000d5 f3fc                 BTRSC 0x3, 0x0
000000d6 fab9                 INCR 0x46, 0x0
000000d7 f2fc                 BTRSC 0x3, 0x2
000000d8 c725                 LGOTO 0xda; main.o:_00002_DS_=0xda
000000d9 fc5b                 ADDAR 0x24, 0x1
000000da                      main.o:_00002_DS_:
000000da e0fc                 BCR 0x3, 0x6
000000db fa41                 INCR 0x3e, 0x1
000000dc c73c                 LGOTO 0xc3; main.o:_00919_DS_=0xc3
000000dd                      main.o:_00921_DS_:
000000dd ffef                 RET
000000de                      _F_AIN4_Convert:
000000de e0fc                 BCR 0x3, 0x6
000000df ff46                 MOVAR 0x39
000000e0 fd5d                 CLRR 0x22
000000e1 fd5f                 CLRR 0x20
000000e2 fd5e                 CLRR 0x21
000000e3 de6b                 MOVIA 0x94
000000e4 ff6f                 MOVAR 0x10
000000e5 de37                 MOVIA 0xc8
000000e6 d410                 LCALL 0x3ef; _delay=0x3ef
000000e7 defe                 MOVIA 0x1
000000e8 e0fc                 BCR 0x3, 0x6
000000e9 ff45                 MOVAR 0x3a
000000ea                      main.o:_00910_DS_:
000000ea e0fc                 BCR 0x3, 0x6
000000eb fec5                 MOVR 0x3a, 0x0
000000ec fbc6                 SUBAR 0x39, 0x0
000000ed f7fc                 BTRSS 0x3, 0x0
000000ee c6fb                 LGOTO 0x104; main.o:_00912_DS_=0x104
000000ef e4ef                 BSR 0x10, 0x6
000000f0 d7fc                 LCALL 0x3; main.o:_00935_DS_=0x3
000000f1 def0                 MOVIA 0xf
000000f2 efee                 ANDAR 0x11, 0x0
000000f3 e0fc                 BCR 0x3, 0x6
000000f4 fc5d                 ADDAR 0x22, 0x1
000000f5 feed                 MOVR 0x12, 0x0
000000f6 ff44                 MOVAR 0x3b
000000f7 deff                 MOVIA 0x0
000000f8 ff43                 MOVAR 0x3c
000000f9 fec4                 MOVR 0x3b, 0x0
000000fa fc5f                 ADDAR 0x20, 0x1
000000fb fec3                 MOVR 0x3c, 0x0
000000fc f3fc                 BTRSC 0x3, 0x0
000000fd fac3                 INCR 0x3c, 0x0
000000fe f2fc                 BTRSC 0x3, 0x2
000000ff c6fe                 LGOTO 0x101; main.o:_00003_DS_=0x101
00000100 fc5e                 ADDAR 0x21, 0x1
00000101                      main.o:_00003_DS_:
00000101 e0fc                 BCR 0x3, 0x6
00000102 fa45                 INCR 0x3a, 0x1
00000103 c715                 LGOTO 0xea; main.o:_00910_DS_=0xea
00000104                      main.o:_00912_DS_:
00000104 ffef                 RET
00000105                      _checkOutA:
00000105 e0fc                 BCR 0x3, 0x6
00000106 fd5a                 CLRR 0x25
00000107 fd5c                 CLRR 0x23
00000108 fd5b                 CLRR 0x24
00000109 def7                 MOVIA 0x8
0000010a d748                 LCALL 0xb7; _F_AIN3_Convert=0xb7
0000010b e0fc                 BCR 0x3, 0x6
0000010c eadb                 SWAPR 0x24, 0x0
0000010d dd0f                 ANDIA 0xf0
0000010e ff5b                 MOVAR 0x24
0000010f eadc                 SWAPR 0x23, 0x0
00000110 ff5c                 MOVAR 0x23
00000111 ddf0                 ANDIA 0xf
00000112 ee5b                 IORAR 0x24, 0x1
00000113 ed5c                 XORAR 0x23, 0x1
00000114 de0f                 MOVIA 0xf0
00000115 ef5a                 ANDAR 0x25, 0x1
00000116 feda                 MOVR 0x25, 0x0
00000117 ff48                 MOVAR 0x37
00000118 deff                 MOVIA 0x0
00000119 ff47                 MOVAR 0x38
0000011a fec8                 MOVR 0x37, 0x0
0000011b fc5c                 ADDAR 0x23, 0x1
0000011c fec7                 MOVR 0x38, 0x0
0000011d f3fc                 BTRSC 0x3, 0x0
0000011e fac7                 INCR 0x38, 0x0
0000011f f2fc                 BTRSC 0x3, 0x2
00000120 c6dd                 LGOTO 0x122; main.o:_00004_DS_=0x122
00000121 fc5b                 ADDAR 0x24, 0x1
00000122                      main.o:_00004_DS_:
00000122 e3fc                 BCR 0x3, 0x0
00000123 e0fc                 BCR 0x3, 0x6
00000124 ec5b                 RRR 0x24, 0x1
00000125 ec5c                 RRR 0x23, 0x1
00000126 e3fc                 BCR 0x3, 0x0
00000127 ec5b                 RRR 0x24, 0x1
00000128 ec5c                 RRR 0x23, 0x1
00000129 e3fc                 BCR 0x3, 0x0
0000012a ec5b                 RRR 0x24, 0x1
0000012b ec5c                 RRR 0x23, 0x1
0000012c fe98                 MOVR 0x67, 0x0
0000012d f2fc                 BTRSC 0x3, 0x2
0000012e c6cc                 LGOTO 0x133; main.o:_00769_DS_=0x133
0000012f ded2                 MOVIA 0x2d
00000130 ff5c                 MOVAR 0x23
00000131 defe                 MOVIA 0x1
00000132 ff5b                 MOVAR 0x24
00000133                      main.o:_00769_DS_:
00000133 def9                 MOVIA 0x6
00000134 e0fc                 BCR 0x3, 0x6
00000135 fbb2                 SUBAR 0x4d, 0x0
00000136 f3fc                 BTRSC 0x3, 0x0
00000137 c6b6                 LGOTO 0x149; main.o:_00822_DS_=0x149
00000138 deff                 MOVIA 0x0
00000139 fbdb                 SUBAR 0x24, 0x0
0000013a f6fc                 BTRSS 0x3, 0x2
0000013b c6c1                 LGOTO 0x13e; main.o:_00897_DS_=0x13e
0000013c de36                 MOVIA 0xc9
0000013d fbdc                 SUBAR 0x23, 0x0
0000013e                      main.o:_00897_DS_:
0000013e f7fc                 BTRSS 0x3, 0x0
0000013f c6b6                 LGOTO 0x149; main.o:_00822_DS_=0x149
00000140 e0fc                 BCR 0x3, 0x6
00000141 fa23                 INCR 0x5c, 0x1
00000142 def9                 MOVIA 0x6
00000143 fba3                 SUBAR 0x5c, 0x0
00000144 f7fc                 BTRSS 0x3, 0x0
00000145 c61f                 LGOTO 0x1e0; main.o:_00825_DS_=0x1e0
00000146 defa                 MOVIA 0x5
00000147 ff23                 MOVAR 0x5c
00000148 c61f                 LGOTO 0x1e0; main.o:_00825_DS_=0x1e0
00000149                      main.o:_00822_DS_:
00000149 defe                 MOVIA 0x1
0000014a e0fc                 BCR 0x3, 0x6
0000014b fbdb                 SUBAR 0x24, 0x0
0000014c f6fc                 BTRSS 0x3, 0x2
0000014d c6af                 LGOTO 0x150; main.o:_00899_DS_=0x150
0000014e de6e                 MOVIA 0x91
0000014f fbdc                 SUBAR 0x23, 0x0
00000150                      main.o:_00899_DS_:
00000150 f7fc                 BTRSS 0x3, 0x0
00000151 c6a4                 LGOTO 0x15b; main.o:_00819_DS_=0x15b
00000152 e0fc                 BCR 0x3, 0x6
00000153 fa23                 INCR 0x5c, 0x1
00000154 def9                 MOVIA 0x6
00000155 fba3                 SUBAR 0x5c, 0x0
00000156 f7fc                 BTRSS 0x3, 0x0
00000157 c61f                 LGOTO 0x1e0; main.o:_00825_DS_=0x1e0
00000158 defa                 MOVIA 0x5
00000159 ff23                 MOVAR 0x5c
0000015a c61f                 LGOTO 0x1e0; main.o:_00825_DS_=0x1e0
0000015b                      main.o:_00819_DS_:
0000015b deff                 MOVIA 0x0
0000015c e0fc                 BCR 0x3, 0x6
0000015d fbdb                 SUBAR 0x24, 0x0
0000015e f6fc                 BTRSS 0x3, 0x2
0000015f c69d                 LGOTO 0x162; main.o:_00901_DS_=0x162
00000160 deae                 MOVIA 0x51
00000161 fbdc                 SUBAR 0x23, 0x0
00000162                      main.o:_00901_DS_:
00000162 e0fc                 BCR 0x3, 0x6
00000163 fd48                 CLRR 0x37
00000164 eb48                 RLR 0x37, 0x1
00000165 fec8                 MOVR 0x37, 0x0
00000166 f2fc                 BTRSC 0x3, 0x2
00000167 c656                 LGOTO 0x1a9; main.o:_00816_DS_=0x1a9
00000168 fea3                 MOVR 0x5c, 0x0
00000169 f6fc                 BTRSS 0x3, 0x2
0000016a f923                 DECR 0x5c, 0x1
0000016b feb2                 MOVR 0x4d, 0x0
0000016c dbfe                 XORIA 0x1
0000016d f6fc                 BTRSS 0x3, 0x2
0000016e c68d                 LGOTO 0x172; main.o:_00795_DS_=0x172
0000016f de95                 MOVIA 0x6a
00000170 ff1d                 MOVAR 0x62
00000171 c65a                 LGOTO 0x1a5; main.o:_00796_DS_=0x1a5
00000172                      main.o:_00795_DS_:
00000172 e0fc                 BCR 0x3, 0x6
00000173 feb2                 MOVR 0x4d, 0x0
00000174 dbfd                 XORIA 0x2
00000175 f6fc                 BTRSS 0x3, 0x2
00000176 c685                 LGOTO 0x17a; main.o:_00792_DS_=0x17a
00000177 de92                 MOVIA 0x6d
00000178 ff1d                 MOVAR 0x62
00000179 c65a                 LGOTO 0x1a5; main.o:_00796_DS_=0x1a5
0000017a                      main.o:_00792_DS_:
0000017a e0fc                 BCR 0x3, 0x6
0000017b feb2                 MOVR 0x4d, 0x0
0000017c dbfc                 XORIA 0x3
0000017d f6fc                 BTRSS 0x3, 0x2
0000017e c67d                 LGOTO 0x182; main.o:_00789_DS_=0x182
0000017f de8f                 MOVIA 0x70
00000180 ff1d                 MOVAR 0x62
00000181 c65a                 LGOTO 0x1a5; main.o:_00796_DS_=0x1a5
00000182                      main.o:_00789_DS_:
00000182 e0fc                 BCR 0x3, 0x6
00000183 feb2                 MOVR 0x4d, 0x0
00000184 dbfb                 XORIA 0x4
00000185 f6fc                 BTRSS 0x3, 0x2
00000186 c675                 LGOTO 0x18a; main.o:_00786_DS_=0x18a
00000187 de8c                 MOVIA 0x73
00000188 ff1d                 MOVAR 0x62
00000189 c65a                 LGOTO 0x1a5; main.o:_00796_DS_=0x1a5
0000018a                      main.o:_00786_DS_:
0000018a e0fc                 BCR 0x3, 0x6
0000018b feb2                 MOVR 0x4d, 0x0
0000018c dbfa                 XORIA 0x5
0000018d f6fc                 BTRSS 0x3, 0x2
0000018e c66d                 LGOTO 0x192; main.o:_00783_DS_=0x192
0000018f de88                 MOVIA 0x77
00000190 ff1d                 MOVAR 0x62
00000191 c65a                 LGOTO 0x1a5; main.o:_00796_DS_=0x1a5
00000192                      main.o:_00783_DS_:
00000192 e0fc                 BCR 0x3, 0x6
00000193 feb2                 MOVR 0x4d, 0x0
00000194 dbf9                 XORIA 0x6
00000195 f6fc                 BTRSS 0x3, 0x2
00000196 c665                 LGOTO 0x19a; main.o:_00780_DS_=0x19a
00000197 de85                 MOVIA 0x7a
00000198 ff1d                 MOVAR 0x62
00000199 c65a                 LGOTO 0x1a5; main.o:_00796_DS_=0x1a5
0000019a                      main.o:_00780_DS_:
0000019a e0fc                 BCR 0x3, 0x6
0000019b feb2                 MOVR 0x4d, 0x0
0000019c dbf8                 XORIA 0x7
0000019d f6fc                 BTRSS 0x3, 0x2
0000019e c65d                 LGOTO 0x1a2; main.o:_00777_DS_=0x1a2
0000019f de82                 MOVIA 0x7d
000001a0 ff1d                 MOVAR 0x62
000001a1 c65a                 LGOTO 0x1a5; main.o:_00796_DS_=0x1a5
000001a2                      main.o:_00777_DS_:
000001a2 de7f                 MOVIA 0x80
000001a3 e0fc                 BCR 0x3, 0x6
000001a4 ff1d                 MOVAR 0x62
000001a5                      main.o:_00796_DS_:
000001a5 e0fc                 BCR 0x3, 0x6
000001a6 fe9d                 MOVR 0x62, 0x0
000001a7 ffb3                 SFUN 0xc
000001a8 c61f                 LGOTO 0x1e0; main.o:_00825_DS_=0x1e0
000001a9                      main.o:_00816_DS_:
000001a9 e0fc                 BCR 0x3, 0x6
000001aa fea3                 MOVR 0x5c, 0x0
000001ab f6fc                 BTRSS 0x3, 0x2
000001ac f923                 DECR 0x5c, 0x1
000001ad fec8                 MOVR 0x37, 0x0
000001ae f2fc                 BTRSC 0x3, 0x2
000001af c631                 LGOTO 0x1ce; main.o:_00810_DS_=0x1ce
000001b0 defb                 MOVIA 0x4
000001b1 fbb2                 SUBAR 0x4d, 0x0
000001b2 f3fc                 BTRSC 0x3, 0x0
000001b3 c631                 LGOTO 0x1ce; main.o:_00810_DS_=0x1ce
000001b4 feb2                 MOVR 0x4d, 0x0
000001b5 dbfe                 XORIA 0x1
000001b6 f6fc                 BTRSS 0x3, 0x2
000001b7 c644                 LGOTO 0x1bb; main.o:_00805_DS_=0x1bb
000001b8 de95                 MOVIA 0x6a
000001b9 ff1d                 MOVAR 0x62
000001ba c635                 LGOTO 0x1ca; main.o:_00806_DS_=0x1ca
000001bb                      main.o:_00805_DS_:
000001bb e0fc                 BCR 0x3, 0x6
000001bc feb2                 MOVR 0x4d, 0x0
000001bd dbfd                 XORIA 0x2
000001be f6fc                 BTRSS 0x3, 0x2
000001bf c63c                 LGOTO 0x1c3; main.o:_00802_DS_=0x1c3
000001c0 de92                 MOVIA 0x6d
000001c1 ff1d                 MOVAR 0x62
000001c2 c635                 LGOTO 0x1ca; main.o:_00806_DS_=0x1ca
000001c3                      main.o:_00802_DS_:
000001c3 e0fc                 BCR 0x3, 0x6
000001c4 feb2                 MOVR 0x4d, 0x0
000001c5 dbfc                 XORIA 0x3
000001c6 f6fc                 BTRSS 0x3, 0x2
000001c7 c635                 LGOTO 0x1ca; main.o:_00806_DS_=0x1ca
000001c8 de8f                 MOVIA 0x70
000001c9 ff1d                 MOVAR 0x62
000001ca                      main.o:_00806_DS_:
000001ca e0fc                 BCR 0x3, 0x6
000001cb fe9d                 MOVR 0x62, 0x0
000001cc ffb3                 SFUN 0xc
000001cd c625                 LGOTO 0x1da; main.o:_00811_DS_=0x1da
000001ce                      main.o:_00810_DS_:
000001ce deff                 MOVIA 0x0
000001cf e0fc                 BCR 0x3, 0x6
000001d0 fbdb                 SUBAR 0x24, 0x0
000001d1 f6fc                 BTRSS 0x3, 0x2
000001d2 c62a                 LGOTO 0x1d5; main.o:_00903_DS_=0x1d5
000001d3 deaf                 MOVIA 0x50
000001d4 fbdc                 SUBAR 0x23, 0x0
000001d5                      main.o:_00903_DS_:
000001d5 f3fc                 BTRSC 0x3, 0x0
000001d6 c625                 LGOTO 0x1da; main.o:_00811_DS_=0x1da
000001d7 e0fc                 BCR 0x3, 0x6
000001d8 feae                 MOVR 0x51, 0x0
000001d9 ffb3                 SFUN 0xc
000001da                      main.o:_00811_DS_:
000001da e0fc                 BCR 0x3, 0x6
000001db feb2                 MOVR 0x4d, 0x0
000001dc f2fc                 BTRSC 0x3, 0x2
000001dd c61f                 LGOTO 0x1e0; main.o:_00825_DS_=0x1e0
000001de feb2                 MOVR 0x4d, 0x0
000001df ff31                 MOVAR 0x4e
000001e0                      main.o:_00825_DS_:
000001e0 ffef                 RET
000001e1                      _checkBatAD:
000001e1 e0fc                 BCR 0x3, 0x6
000001e2 fd5d                 CLRR 0x22
000001e3 fd5f                 CLRR 0x20
000001e4 fd5e                 CLRR 0x21
000001e5 def7                 MOVIA 0x8
000001e6 d721                 LCALL 0xde; _F_AIN4_Convert=0xde
000001e7 e0fc                 BCR 0x3, 0x6
000001e8 eade                 SWAPR 0x21, 0x0
000001e9 dd0f                 ANDIA 0xf0
000001ea ff5e                 MOVAR 0x21
000001eb eadf                 SWAPR 0x20, 0x0
000001ec ff5f                 MOVAR 0x20
000001ed ddf0                 ANDIA 0xf
000001ee ee5e                 IORAR 0x21, 0x1
000001ef ed5f                 XORAR 0x20, 0x1
000001f0 de0f                 MOVIA 0xf0
000001f1 ef5d                 ANDAR 0x22, 0x1
000001f2 fedd                 MOVR 0x22, 0x0
000001f3 ff4a                 MOVAR 0x35
000001f4 deff                 MOVIA 0x0
000001f5 ff49                 MOVAR 0x36
000001f6 feca                 MOVR 0x35, 0x0
000001f7 fc5f                 ADDAR 0x20, 0x1
000001f8 fec9                 MOVR 0x36, 0x0
000001f9 f3fc                 BTRSC 0x3, 0x0
000001fa fac9                 INCR 0x36, 0x0
000001fb f2fc                 BTRSC 0x3, 0x2
000001fc c601                 LGOTO 0x1fe; main.o:_00005_DS_=0x1fe
000001fd fc5e                 ADDAR 0x21, 0x1
000001fe                      main.o:_00005_DS_:
000001fe e3fc                 BCR 0x3, 0x0
000001ff e0fc                 BCR 0x3, 0x6
00000200 ec5e                 RRR 0x21, 0x1
00000201 ec5f                 RRR 0x20, 0x1
00000202 e3fc                 BCR 0x3, 0x0
00000203 ec5e                 RRR 0x21, 0x1
00000204 ec5f                 RRR 0x20, 0x1
00000205 e3fc                 BCR 0x3, 0x0
00000206 ec5e                 RRR 0x21, 0x1
00000207 ec5f                 RRR 0x20, 0x1
00000208 fe98                 MOVR 0x67, 0x0
00000209 f2fc                 BTRSC 0x3, 0x2
0000020a c5f0                 LGOTO 0x20f; main.o:_00467_DS_=0x20f
0000020b def1                 MOVIA 0xe
0000020c ff5f                 MOVAR 0x20
0000020d def9                 MOVIA 0x6
0000020e ff5e                 MOVAR 0x21
0000020f                      main.o:_00467_DS_:
0000020f defa                 MOVIA 0x5
00000210 e0fc                 BCR 0x3, 0x6
00000211 fbde                 SUBAR 0x21, 0x0
00000212 f6fc                 BTRSS 0x3, 0x2
00000213 c5e9                 LGOTO 0x216; main.o:_00727_DS_=0x216
00000214 de09                 MOVIA 0xf6
00000215 fbdf                 SUBAR 0x20, 0x0
00000216                      main.o:_00727_DS_:
00000216 f7fc                 BTRSS 0x3, 0x0
00000217 c5e4                 LGOTO 0x21b; main.o:_00479_DS_=0x21b
00000218 e0fc                 BCR 0x3, 0x6
00000219 fd1c                 CLRR 0x63
0000021a c5b9                 LGOTO 0x246; main.o:_00480_DS_=0x246
0000021b                      main.o:_00479_DS_:
0000021b defb                 MOVIA 0x4
0000021c e0fc                 BCR 0x3, 0x6
0000021d fbde                 SUBAR 0x21, 0x0
0000021e f6fc                 BTRSS 0x3, 0x2
0000021f c5dd                 LGOTO 0x222; main.o:_00728_DS_=0x222
00000220 deae                 MOVIA 0x51
00000221 fbdf                 SUBAR 0x20, 0x0
00000222                      main.o:_00728_DS_:
00000222 f3fc                 BTRSC 0x3, 0x0
00000223 c5bc                 LGOTO 0x243; main.o:_00476_DS_=0x243
00000224 e0fc                 BCR 0x3, 0x6
00000225 fa1c                 INCR 0x63, 0x1
00000226 def5                 MOVIA 0xa
00000227 fb9c                 SUBAR 0x63, 0x0
00000228 f7fc                 BTRSS 0x3, 0x0
00000229 c41c                 LGOTO 0x3e3; main.o:_00578_DS_=0x3e3
0000022a def5                 MOVIA 0xa
0000022b ff1c                 MOVAR 0x63
0000022c fd2d                 CLRR 0x52
0000022d deae                 MOVIA 0x51
0000022e ff5f                 MOVAR 0x20
0000022f defb                 MOVIA 0x4
00000230 ff5e                 MOVAR 0x21
00000231 feb2                 MOVR 0x4d, 0x0
00000232 f2fc                 BTRSC 0x3, 0x2
00000233 c5c4                 LGOTO 0x23b; main.o:_00471_DS_=0x23b
00000234 fa1e                 INCR 0x61, 0x1
00000235 fe9e                 MOVR 0x61, 0x0
00000236 dbf5                 XORIA 0xa
00000237 f6fc                 BTRSS 0x3, 0x2
00000238 c5c4                 LGOTO 0x23b; main.o:_00471_DS_=0x23b
00000239 deef                 MOVIA 0x10
0000023a ff1f                 MOVAR 0x60
0000023b                      main.o:_00471_DS_:
0000023b def3                 MOVIA 0xc
0000023c e0fc                 BCR 0x3, 0x6
0000023d fb9e                 SUBAR 0x61, 0x0
0000023e f7fc                 BTRSS 0x3, 0x0
0000023f c5b9                 LGOTO 0x246; main.o:_00480_DS_=0x246
00000240 def4                 MOVIA 0xb
00000241 ff1e                 MOVAR 0x61
00000242 c5b9                 LGOTO 0x246; main.o:_00480_DS_=0x246
00000243                      main.o:_00476_DS_:
00000243 e0fc                 BCR 0x3, 0x6
00000244 fd1c                 CLRR 0x63
00000245 fd1e                 CLRR 0x61
00000246                      main.o:_00480_DS_:
00000246 de50                 MOVIA 0xaf
00000247 e0fc                 BCR 0x3, 0x6
00000248 fc5f                 ADDAR 0x20, 0x1
00000249 de04                 MOVIA 0xfb
0000024a f3fc                 BTRSC 0x3, 0x0
0000024b de03                 MOVIA 0xfc
0000024c fc5e                 ADDAR 0x21, 0x1
0000024d defe                 MOVIA 0x1
0000024e fbde                 SUBAR 0x21, 0x0
0000024f f6fc                 BTRSS 0x3, 0x2
00000250 c5ac                 LGOTO 0x253; main.o:_00731_DS_=0x253
00000251 de5b                 MOVIA 0xa4
00000252 fbdf                 SUBAR 0x20, 0x0
00000253                      main.o:_00731_DS_:
00000253 f7fc                 BTRSS 0x3, 0x0
00000254 c5a6                 LGOTO 0x259; main.o:_00576_DS_=0x259
00000255 def6                 MOVIA 0x9
00000256 e0fc                 BCR 0x3, 0x6
00000257 ff2d                 MOVAR 0x52
00000258 c41c                 LGOTO 0x3e3; main.o:_00578_DS_=0x3e3
00000259                      main.o:_00576_DS_:
00000259 defe                 MOVIA 0x1
0000025a e0fc                 BCR 0x3, 0x6
0000025b fbde                 SUBAR 0x21, 0x0
0000025c f6fc                 BTRSS 0x3, 0x2
0000025d c59f                 LGOTO 0x260; main.o:_00732_DS_=0x260
0000025e de73                 MOVIA 0x8c
0000025f fbdf                 SUBAR 0x20, 0x0
00000260                      main.o:_00732_DS_:
00000260 f7fc                 BTRSS 0x3, 0x0
00000261 c55d                 LGOTO 0x2a2; main.o:_00573_DS_=0x2a2
00000262 e0fc                 BCR 0x3, 0x6
00000263 fd20                 CLRR 0x5f
00000264 def7                 MOVIA 0x8
00000265 fbad                 SUBAR 0x52, 0x0
00000266 f3fc                 BTRSC 0x3, 0x0
00000267 c58b                 LGOTO 0x274; main.o:_00487_DS_=0x274
00000268 defe                 MOVIA 0x1
00000269 fbde                 SUBAR 0x21, 0x0
0000026a f6fc                 BTRSS 0x3, 0x2
0000026b c591                 LGOTO 0x26e; main.o:_00734_DS_=0x26e
0000026c de6e                 MOVIA 0x91
0000026d fbdf                 SUBAR 0x20, 0x0
0000026e                      main.o:_00734_DS_:
0000026e f7fc                 BTRSS 0x3, 0x0
0000026f c57b                 LGOTO 0x284; main.o:_00488_DS_=0x284
00000270 def7                 MOVIA 0x8
00000271 e0fc                 BCR 0x3, 0x6
00000272 ff2d                 MOVAR 0x52
00000273 c57b                 LGOTO 0x284; main.o:_00488_DS_=0x284
00000274                      main.o:_00487_DS_:
00000274 e0fc                 BCR 0x3, 0x6
00000275 feac                 MOVR 0x53, 0x0
00000276 eeab                 IORAR 0x54, 0x0
00000277 f6fc                 BTRSS 0x3, 0x2
00000278 c57b                 LGOTO 0x284; main.o:_00488_DS_=0x284
00000279 defe                 MOVIA 0x1
0000027a fbde                 SUBAR 0x21, 0x0
0000027b f6fc                 BTRSS 0x3, 0x2
0000027c c580                 LGOTO 0x27f; main.o:_00735_DS_=0x27f
0000027d de6a                 MOVIA 0x95
0000027e fbdf                 SUBAR 0x20, 0x0
0000027f                      main.o:_00735_DS_:
0000027f f3fc                 BTRSC 0x3, 0x0
00000280 c57b                 LGOTO 0x284; main.o:_00488_DS_=0x284
00000281 def7                 MOVIA 0x8
00000282 e0fc                 BCR 0x3, 0x6
00000283 ff2d                 MOVAR 0x52
00000284                      main.o:_00488_DS_:
00000284 e0fc                 BCR 0x3, 0x6
00000285 feac                 MOVR 0x53, 0x0
00000286 eeab                 IORAR 0x54, 0x0
00000287 f2fc                 BTRSC 0x3, 0x2
00000288 c41c                 LGOTO 0x3e3; main.o:_00578_DS_=0x3e3
00000289 defe                 MOVIA 0x1
0000028a fbde                 SUBAR 0x21, 0x0
0000028b f6fc                 BTRSS 0x3, 0x2
0000028c c570                 LGOTO 0x28f; main.o:_00736_DS_=0x28f
0000028d de5f                 MOVIA 0xa0
0000028e fbdf                 SUBAR 0x20, 0x0
0000028f                      main.o:_00736_DS_:
0000028f f7fc                 BTRSS 0x3, 0x0
00000290 c41c                 LGOTO 0x3e3; main.o:_00578_DS_=0x3e3
00000291 defd                 MOVIA 0x2
00000292 e0fc                 BCR 0x3, 0x6
00000293 fbab                 SUBAR 0x54, 0x0
00000294 f6fc                 BTRSS 0x3, 0x2
00000295 c567                 LGOTO 0x298; main.o:_00737_DS_=0x298
00000296 dea6                 MOVIA 0x59
00000297 fbac                 SUBAR 0x53, 0x0
00000298                      main.o:_00737_DS_:
00000298 f7fc                 BTRSS 0x3, 0x0
00000299 c41c                 LGOTO 0x3e3; main.o:_00578_DS_=0x3e3
0000029a dea7                 MOVIA 0x58
0000029b e0fc                 BCR 0x3, 0x6
0000029c ff2c                 MOVAR 0x53
0000029d defd                 MOVIA 0x2
0000029e ff2b                 MOVAR 0x54
0000029f def6                 MOVIA 0x9
000002a0 ff2d                 MOVAR 0x52
000002a1 c41c                 LGOTO 0x3e3; main.o:_00578_DS_=0x3e3
000002a2                      main.o:_00573_DS_:
000002a2 defe                 MOVIA 0x1
000002a3 e0fc                 BCR 0x3, 0x6
000002a4 fbde                 SUBAR 0x21, 0x0
000002a5 f6fc                 BTRSS 0x3, 0x2
000002a6 c556                 LGOTO 0x2a9; main.o:_00738_DS_=0x2a9
000002a7 de82                 MOVIA 0x7d
000002a8 fbdf                 SUBAR 0x20, 0x0
000002a9                      main.o:_00738_DS_:
000002a9 f7fc                 BTRSS 0x3, 0x0
000002aa c52c                 LGOTO 0x2d3; main.o:_00570_DS_=0x2d3
000002ab e0fc                 BCR 0x3, 0x6
000002ac fead                 MOVR 0x52, 0x0
000002ad dbf9                 XORIA 0x6
000002ae f6fc                 BTRSS 0x3, 0x2
000002af c544                 LGOTO 0x2bb; main.o:_00496_DS_=0x2bb
000002b0 defe                 MOVIA 0x1
000002b1 fbde                 SUBAR 0x21, 0x0
000002b2 f6fc                 BTRSS 0x3, 0x2
000002b3 c549                 LGOTO 0x2b6; main.o:_00739_DS_=0x2b6
000002b4 de7d                 MOVIA 0x82
000002b5 fbdf                 SUBAR 0x20, 0x0
000002b6                      main.o:_00739_DS_:
000002b6 f7fc                 BTRSS 0x3, 0x0
000002b7 c544                 LGOTO 0x2bb; main.o:_00496_DS_=0x2bb
000002b8 def8                 MOVIA 0x7
000002b9 e0fc                 BCR 0x3, 0x6
000002ba ff2d                 MOVAR 0x52
000002bb                      main.o:_00496_DS_:
000002bb def7                 MOVIA 0x8
000002bc e0fc                 BCR 0x3, 0x6
000002bd fbad                 SUBAR 0x52, 0x0
000002be f7fc                 BTRSS 0x3, 0x0
000002bf c533                 LGOTO 0x2cc; main.o:_00500_DS_=0x2cc
000002c0 defe                 MOVIA 0x1
000002c1 fbde                 SUBAR 0x21, 0x0
000002c2 f6fc                 BTRSS 0x3, 0x2
000002c3 c539                 LGOTO 0x2c6; main.o:_00741_DS_=0x2c6
000002c4 de79                 MOVIA 0x86
000002c5 fbdf                 SUBAR 0x20, 0x0
000002c6                      main.o:_00741_DS_:
000002c6 f3fc                 BTRSC 0x3, 0x0
000002c7 c530                 LGOTO 0x2cf; main.o:_00501_DS_=0x2cf
000002c8 def8                 MOVIA 0x7
000002c9 e0fc                 BCR 0x3, 0x6
000002ca ff2d                 MOVAR 0x52
000002cb c530                 LGOTO 0x2cf; main.o:_00501_DS_=0x2cf
000002cc                      main.o:_00500_DS_:
000002cc def8                 MOVIA 0x7
000002cd e0fc                 BCR 0x3, 0x6
000002ce ff2d                 MOVAR 0x52
000002cf                      main.o:_00501_DS_:
000002cf e0fc                 BCR 0x3, 0x6
000002d0 fd2c                 CLRR 0x53
000002d1 fd2b                 CLRR 0x54
000002d2 c41c                 LGOTO 0x3e3; main.o:_00578_DS_=0x3e3
000002d3                      main.o:_00570_DS_:
000002d3 defe                 MOVIA 0x1
000002d4 e0fc                 BCR 0x3, 0x6
000002d5 fbde                 SUBAR 0x21, 0x0
000002d6 f6fc                 BTRSS 0x3, 0x2
000002d7 c525                 LGOTO 0x2da; main.o:_00742_DS_=0x2da
000002d8 dea5                 MOVIA 0x5a
000002d9 fbdf                 SUBAR 0x20, 0x0
000002da                      main.o:_00742_DS_:
000002da f7fc                 BTRSS 0x3, 0x0
000002db c4fb                 LGOTO 0x304; main.o:_00567_DS_=0x304
000002dc e0fc                 BCR 0x3, 0x6
000002dd fead                 MOVR 0x52, 0x0
000002de dbfa                 XORIA 0x5
000002df f6fc                 BTRSS 0x3, 0x2
000002e0 c513                 LGOTO 0x2ec; main.o:_00505_DS_=0x2ec
000002e1 defe                 MOVIA 0x1
000002e2 fbde                 SUBAR 0x21, 0x0
000002e3 f6fc                 BTRSS 0x3, 0x2
000002e4 c518                 LGOTO 0x2e7; main.o:_00743_DS_=0x2e7
000002e5 dea0                 MOVIA 0x5f
000002e6 fbdf                 SUBAR 0x20, 0x0
000002e7                      main.o:_00743_DS_:
000002e7 f7fc                 BTRSS 0x3, 0x0
000002e8 c513                 LGOTO 0x2ec; main.o:_00505_DS_=0x2ec
000002e9 def9                 MOVIA 0x6
000002ea e0fc                 BCR 0x3, 0x6
000002eb ff2d                 MOVAR 0x52
000002ec                      main.o:_00505_DS_:
000002ec def8                 MOVIA 0x7
000002ed e0fc                 BCR 0x3, 0x6
000002ee fbad                 SUBAR 0x52, 0x0
000002ef f7fc                 BTRSS 0x3, 0x0
000002f0 c502                 LGOTO 0x2fd; main.o:_00509_DS_=0x2fd
000002f1 defe                 MOVIA 0x1
000002f2 fbde                 SUBAR 0x21, 0x0
000002f3 f6fc                 BTRSS 0x3, 0x2
000002f4 c508                 LGOTO 0x2f7; main.o:_00745_DS_=0x2f7
000002f5 de88                 MOVIA 0x77
000002f6 fbdf                 SUBAR 0x20, 0x0
000002f7                      main.o:_00745_DS_:
000002f7 f3fc                 BTRSC 0x3, 0x0
000002f8 c4ff                 LGOTO 0x300; main.o:_00510_DS_=0x300
000002f9 def9                 MOVIA 0x6
000002fa e0fc                 BCR 0x3, 0x6
000002fb ff2d                 MOVAR 0x52
000002fc c4ff                 LGOTO 0x300; main.o:_00510_DS_=0x300
000002fd                      main.o:_00509_DS_:
000002fd def9                 MOVIA 0x6
000002fe e0fc                 BCR 0x3, 0x6
000002ff ff2d                 MOVAR 0x52
00000300                      main.o:_00510_DS_:
00000300 e0fc                 BCR 0x3, 0x6
00000301 fd2c                 CLRR 0x53
00000302 fd2b                 CLRR 0x54
00000303 c41c                 LGOTO 0x3e3; main.o:_00578_DS_=0x3e3
00000304                      main.o:_00567_DS_:
00000304 defe                 MOVIA 0x1
00000305 e0fc                 BCR 0x3, 0x6
00000306 fbde                 SUBAR 0x21, 0x0
00000307 f6fc                 BTRSS 0x3, 0x2
00000308 c4f4                 LGOTO 0x30b; main.o:_00746_DS_=0x30b
00000309 decd                 MOVIA 0x32
0000030a fbdf                 SUBAR 0x20, 0x0
0000030b                      main.o:_00746_DS_:
0000030b f7fc                 BTRSS 0x3, 0x0
0000030c c4ca                 LGOTO 0x335; main.o:_00564_DS_=0x335
0000030d e0fc                 BCR 0x3, 0x6
0000030e fead                 MOVR 0x52, 0x0
0000030f dbfb                 XORIA 0x4
00000310 f6fc                 BTRSS 0x3, 0x2
00000311 c4e2                 LGOTO 0x31d; main.o:_00514_DS_=0x31d
00000312 defe                 MOVIA 0x1
00000313 fbde                 SUBAR 0x21, 0x0
00000314 f6fc                 BTRSS 0x3, 0x2
00000315 c4e7                 LGOTO 0x318; main.o:_00747_DS_=0x318
00000316 dec8                 MOVIA 0x37
00000317 fbdf                 SUBAR 0x20, 0x0
00000318                      main.o:_00747_DS_:
00000318 f7fc                 BTRSS 0x3, 0x0
00000319 c4e2                 LGOTO 0x31d; main.o:_00514_DS_=0x31d
0000031a defa                 MOVIA 0x5
0000031b e0fc                 BCR 0x3, 0x6
0000031c ff2d                 MOVAR 0x52
0000031d                      main.o:_00514_DS_:
0000031d def9                 MOVIA 0x6
0000031e e0fc                 BCR 0x3, 0x6
0000031f fbad                 SUBAR 0x52, 0x0
00000320 f7fc                 BTRSS 0x3, 0x0
00000321 c4d1                 LGOTO 0x32e; main.o:_00518_DS_=0x32e
00000322 defe                 MOVIA 0x1
00000323 fbde                 SUBAR 0x21, 0x0
00000324 f6fc                 BTRSS 0x3, 0x2
00000325 c4d7                 LGOTO 0x328; main.o:_00749_DS_=0x328
00000326 deab                 MOVIA 0x54
00000327 fbdf                 SUBAR 0x20, 0x0
00000328                      main.o:_00749_DS_:
00000328 f3fc                 BTRSC 0x3, 0x0
00000329 c4ce                 LGOTO 0x331; main.o:_00519_DS_=0x331
0000032a defa                 MOVIA 0x5
0000032b e0fc                 BCR 0x3, 0x6
0000032c ff2d                 MOVAR 0x52
0000032d c4ce                 LGOTO 0x331; main.o:_00519_DS_=0x331
0000032e                      main.o:_00518_DS_:
0000032e defa                 MOVIA 0x5
0000032f e0fc                 BCR 0x3, 0x6
00000330 ff2d                 MOVAR 0x52
00000331                      main.o:_00519_DS_:
00000331 e0fc                 BCR 0x3, 0x6
00000332 fd2c                 CLRR 0x53
00000333 fd2b                 CLRR 0x54
00000334 c41c                 LGOTO 0x3e3; main.o:_00578_DS_=0x3e3
00000335                      main.o:_00564_DS_:
00000335 deff                 MOVIA 0x0
00000336 e0fc                 BCR 0x3, 0x6
00000337 fbde                 SUBAR 0x21, 0x0
00000338 f6fc                 BTRSS 0x3, 0x2
00000339 c4c3                 LGOTO 0x33c; main.o:_00750_DS_=0x33c
0000033a de0e                 MOVIA 0xf1
0000033b fbdf                 SUBAR 0x20, 0x0
0000033c                      main.o:_00750_DS_:
0000033c f7fc                 BTRSS 0x3, 0x0
0000033d c499                 LGOTO 0x366; main.o:_00561_DS_=0x366
0000033e e0fc                 BCR 0x3, 0x6
0000033f fead                 MOVR 0x52, 0x0
00000340 dbfc                 XORIA 0x3
00000341 f6fc                 BTRSS 0x3, 0x2
00000342 c4b1                 LGOTO 0x34e; main.o:_00523_DS_=0x34e
00000343 deff                 MOVIA 0x0
00000344 fbde                 SUBAR 0x21, 0x0
00000345 f6fc                 BTRSS 0x3, 0x2
00000346 c4b6                 LGOTO 0x349; main.o:_00751_DS_=0x349
00000347 de09                 MOVIA 0xf6
00000348 fbdf                 SUBAR 0x20, 0x0
00000349                      main.o:_00751_DS_:
00000349 f7fc                 BTRSS 0x3, 0x0
0000034a c4b1                 LGOTO 0x34e; main.o:_00523_DS_=0x34e
0000034b defb                 MOVIA 0x4
0000034c e0fc                 BCR 0x3, 0x6
0000034d ff2d                 MOVAR 0x52
0000034e                      main.o:_00523_DS_:
0000034e defa                 MOVIA 0x5
0000034f e0fc                 BCR 0x3, 0x6
00000350 fbad                 SUBAR 0x52, 0x0
00000351 f7fc                 BTRSS 0x3, 0x0
00000352 c4a0                 LGOTO 0x35f; main.o:_00527_DS_=0x35f
00000353 defe                 MOVIA 0x1
00000354 fbde                 SUBAR 0x21, 0x0
00000355 f6fc                 BTRSS 0x3, 0x2
00000356 c4a6                 LGOTO 0x359; main.o:_00753_DS_=0x359
00000357 ded3                 MOVIA 0x2c
00000358 fbdf                 SUBAR 0x20, 0x0
00000359                      main.o:_00753_DS_:
00000359 f3fc                 BTRSC 0x3, 0x0
0000035a c49d                 LGOTO 0x362; main.o:_00528_DS_=0x362
0000035b defb                 MOVIA 0x4
0000035c e0fc                 BCR 0x3, 0x6
0000035d ff2d                 MOVAR 0x52
0000035e c49d                 LGOTO 0x362; main.o:_00528_DS_=0x362
0000035f                      main.o:_00527_DS_:
0000035f defb                 MOVIA 0x4
00000360 e0fc                 BCR 0x3, 0x6
00000361 ff2d                 MOVAR 0x52
00000362                      main.o:_00528_DS_:
00000362 e0fc                 BCR 0x3, 0x6
00000363 fd2c                 CLRR 0x53
00000364 fd2b                 CLRR 0x54
00000365 c41c                 LGOTO 0x3e3; main.o:_00578_DS_=0x3e3
00000366                      main.o:_00561_DS_:
00000366 deff                 MOVIA 0x0
00000367 e0fc                 BCR 0x3, 0x6
00000368 fbde                 SUBAR 0x21, 0x0
00000369 f6fc                 BTRSS 0x3, 0x2
0000036a c492                 LGOTO 0x36d; main.o:_00754_DS_=0x36d
0000036b de36                 MOVIA 0xc9
0000036c fbdf                 SUBAR 0x20, 0x0
0000036d                      main.o:_00754_DS_:
0000036d f7fc                 BTRSS 0x3, 0x0
0000036e c468                 LGOTO 0x397; main.o:_00558_DS_=0x397
0000036f e0fc                 BCR 0x3, 0x6
00000370 fead                 MOVR 0x52, 0x0
00000371 dbfd                 XORIA 0x2
00000372 f6fc                 BTRSS 0x3, 0x2
00000373 c480                 LGOTO 0x37f; main.o:_00532_DS_=0x37f
00000374 deff                 MOVIA 0x0
00000375 fbde                 SUBAR 0x21, 0x0
00000376 f6fc                 BTRSS 0x3, 0x2
00000377 c485                 LGOTO 0x37a; main.o:_00755_DS_=0x37a
00000378 de2c                 MOVIA 0xd3
00000379 fbdf                 SUBAR 0x20, 0x0
0000037a                      main.o:_00755_DS_:
0000037a f7fc                 BTRSS 0x3, 0x0
0000037b c480                 LGOTO 0x37f; main.o:_00532_DS_=0x37f
0000037c defc                 MOVIA 0x3
0000037d e0fc                 BCR 0x3, 0x6
0000037e ff2d                 MOVAR 0x52
0000037f                      main.o:_00532_DS_:
0000037f defb                 MOVIA 0x4
00000380 e0fc                 BCR 0x3, 0x6
00000381 fbad                 SUBAR 0x52, 0x0
00000382 f7fc                 BTRSS 0x3, 0x0
00000383 c46f                 LGOTO 0x390; main.o:_00536_DS_=0x390
00000384 deff                 MOVIA 0x0
00000385 fbde                 SUBAR 0x21, 0x0
00000386 f6fc                 BTRSS 0x3, 0x2
00000387 c475                 LGOTO 0x38a; main.o:_00757_DS_=0x38a
00000388 de14                 MOVIA 0xeb
00000389 fbdf                 SUBAR 0x20, 0x0
0000038a                      main.o:_00757_DS_:
0000038a f3fc                 BTRSC 0x3, 0x0
0000038b c46c                 LGOTO 0x393; main.o:_00537_DS_=0x393
0000038c defc                 MOVIA 0x3
0000038d e0fc                 BCR 0x3, 0x6
0000038e ff2d                 MOVAR 0x52
0000038f c46c                 LGOTO 0x393; main.o:_00537_DS_=0x393
00000390                      main.o:_00536_DS_:
00000390 defc                 MOVIA 0x3
00000391 e0fc                 BCR 0x3, 0x6
00000392 ff2d                 MOVAR 0x52
00000393                      main.o:_00537_DS_:
00000393 e0fc                 BCR 0x3, 0x6
00000394 fd2c                 CLRR 0x53
00000395 fd2b                 CLRR 0x54
00000396 c41c                 LGOTO 0x3e3; main.o:_00578_DS_=0x3e3
00000397                      main.o:_00558_DS_:
00000397 deff                 MOVIA 0x0
00000398 e0fc                 BCR 0x3, 0x6
00000399 fbde                 SUBAR 0x21, 0x0
0000039a f6fc                 BTRSS 0x3, 0x2
0000039b c461                 LGOTO 0x39e; main.o:_00758_DS_=0x39e
0000039c de9a                 MOVIA 0x65
0000039d fbdf                 SUBAR 0x20, 0x0
0000039e                      main.o:_00758_DS_:
0000039e f7fc                 BTRSS 0x3, 0x0
0000039f c437                 LGOTO 0x3c8; main.o:_00555_DS_=0x3c8
000003a0 e0fc                 BCR 0x3, 0x6
000003a1 fead                 MOVR 0x52, 0x0
000003a2 dbfe                 XORIA 0x1
000003a3 f6fc                 BTRSS 0x3, 0x2
000003a4 c44f                 LGOTO 0x3b0; main.o:_00541_DS_=0x3b0
000003a5 deff                 MOVIA 0x0
000003a6 fbde                 SUBAR 0x21, 0x0
000003a7 f6fc                 BTRSS 0x3, 0x2
000003a8 c454                 LGOTO 0x3ab; main.o:_00759_DS_=0x3ab
000003a9 de90                 MOVIA 0x6f
000003aa fbdf                 SUBAR 0x20, 0x0
000003ab                      main.o:_00759_DS_:
000003ab f7fc                 BTRSS 0x3, 0x0
000003ac c44f                 LGOTO 0x3b0; main.o:_00541_DS_=0x3b0
000003ad defd                 MOVIA 0x2
000003ae e0fc                 BCR 0x3, 0x6
000003af ff2d                 MOVAR 0x52
000003b0                      main.o:_00541_DS_:
000003b0 defc                 MOVIA 0x3
000003b1 e0fc                 BCR 0x3, 0x6
000003b2 fbad                 SUBAR 0x52, 0x0
000003b3 f7fc                 BTRSS 0x3, 0x0
000003b4 c43e                 LGOTO 0x3c1; main.o:_00545_DS_=0x3c1
000003b5 deff                 MOVIA 0x0
000003b6 fbde                 SUBAR 0x21, 0x0
000003b7 f6fc                 BTRSS 0x3, 0x2
000003b8 c444                 LGOTO 0x3bb; main.o:_00761_DS_=0x3bb
000003b9 de41                 MOVIA 0xbe
000003ba fbdf                 SUBAR 0x20, 0x0
000003bb                      main.o:_00761_DS_:
000003bb f3fc                 BTRSC 0x3, 0x0
000003bc c43b                 LGOTO 0x3c4; main.o:_00546_DS_=0x3c4
000003bd defd                 MOVIA 0x2
000003be e0fc                 BCR 0x3, 0x6
000003bf ff2d                 MOVAR 0x52
000003c0 c43b                 LGOTO 0x3c4; main.o:_00546_DS_=0x3c4
000003c1                      main.o:_00545_DS_:
000003c1 defd                 MOVIA 0x2
000003c2 e0fc                 BCR 0x3, 0x6
000003c3 ff2d                 MOVAR 0x52
000003c4                      main.o:_00546_DS_:
000003c4 e0fc                 BCR 0x3, 0x6
000003c5 fd2c                 CLRR 0x53
000003c6 fd2b                 CLRR 0x54
000003c7 c41c                 LGOTO 0x3e3; main.o:_00578_DS_=0x3e3
000003c8                      main.o:_00555_DS_:
000003c8 e0fc                 BCR 0x3, 0x6
000003c9 fedf                 MOVR 0x20, 0x0
000003ca eede                 IORAR 0x21, 0x0
000003cb f2fc                 BTRSC 0x3, 0x2
000003cc c41c                 LGOTO 0x3e3; main.o:_00578_DS_=0x3e3
000003cd defd                 MOVIA 0x2
000003ce fbad                 SUBAR 0x52, 0x0
000003cf f7fc                 BTRSS 0x3, 0x0
000003d0 c422                 LGOTO 0x3dd; main.o:_00550_DS_=0x3dd
000003d1 deff                 MOVIA 0x0
000003d2 fbde                 SUBAR 0x21, 0x0
000003d3 f6fc                 BTRSS 0x3, 0x2
000003d4 c428                 LGOTO 0x3d7; main.o:_00763_DS_=0x3d7
000003d5 dea5                 MOVIA 0x5a
000003d6 fbdf                 SUBAR 0x20, 0x0
000003d7                      main.o:_00763_DS_:
000003d7 f3fc                 BTRSC 0x3, 0x0
000003d8 c41f                 LGOTO 0x3e0; main.o:_00551_DS_=0x3e0
000003d9 defe                 MOVIA 0x1
000003da e0fc                 BCR 0x3, 0x6
000003db ff2d                 MOVAR 0x52
000003dc c41f                 LGOTO 0x3e0; main.o:_00551_DS_=0x3e0
000003dd                      main.o:_00550_DS_:
000003dd defe                 MOVIA 0x1
000003de e0fc                 BCR 0x3, 0x6
000003df ff2d                 MOVAR 0x52
000003e0                      main.o:_00551_DS_:
000003e0 e0fc                 BCR 0x3, 0x6
000003e1 fd2c                 CLRR 0x53
000003e2 fd2b                 CLRR 0x54
000003e3                      main.o:_00578_DS_:
000003e3 ffef                 RET
000003e4                      _initAD:
000003e4 de7b                 MOVIA 0x84
000003e5 ff6f                 MOVAR 0x10
000003e6 fd6c                 CLRR 0x13
000003e7 deef                 MOVIA 0x10
000003e8 ff6e                 MOVAR 0x11
000003e9 defc                 MOVIA 0x3
000003ea ff6b                 MOVAR 0x14
000003eb e5ef                 BSR 0x10, 0x4
000003ec de9b                 MOVIA 0x64
000003ed d410                 LCALL 0x3ef; _delay=0x3ef
000003ee ffef                 RET
000003ef                      _delay:
000003ef e0fc                 BCR 0x3, 0x6
000003f0 ff4c                 MOVAR 0x33
000003f1 fd4b                 CLRR 0x34
000003f2                      main.o:_00455_DS_:
000003f2 e0fc                 BCR 0x3, 0x6
000003f3 fecc                 MOVR 0x33, 0x0
000003f4 fbcb                 SUBAR 0x34, 0x0
000003f5 f3fc                 BTRSC 0x3, 0x0
000003f6 c405                 LGOTO 0x3fa; main.o:_00457_DS_=0x3fa
000003f7 ffff                 NOP
000003f8 fa4b                 INCR 0x34, 0x1
000003f9 c40d                 LGOTO 0x3f2; main.o:_00455_DS_=0x3f2
000003fa                      main.o:_00457_DS_:
000003fa ffef                 RET
000003fb                      _chrgCtr:
000003fb e0fc                 BCR 0x3, 0x6
000003fc f57a                 BTRSS 0x5, 0x5
000003fd c3cb                 LGOTO 0x434; main.o:_00446_DS_=0x434
000003fe defe                 MOVIA 0x1
000003ff ff19                 MOVAR 0x66
00000400 fd32                 CLRR 0x4d
00000401 fd22                 CLRR 0x5d
00000402 d375                 LCALL 0x48a; _pwmStop=0x48a
00000403 e0fc                 BCR 0x3, 0x6
00000404 fead                 MOVR 0x52, 0x0
00000405 dbf6                 XORIA 0x9
00000406 f6fc                 BTRSS 0x3, 0x2
00000407 c3e8                 LGOTO 0x417; main.o:_00441_DS_=0x417
00000408 def7                 MOVIA 0x8
00000409 ff31                 MOVAR 0x4e
0000040a fa20                 INCR 0x5f, 0x1
0000040b de9a                 MOVIA 0x65
0000040c fba0                 SUBAR 0x5f, 0x0
0000040d f7fc                 BTRSS 0x3, 0x0
0000040e c3eb                 LGOTO 0x414; main.o:_00432_DS_=0x414
0000040f ffea                 IOSTR 0x5
00000410 ff4d                 MOVAR 0x32
00000411 e7cd                 BSR 0x32, 0x0
00000412 fecd                 MOVR 0x32, 0x0
00000413 fffa                 IOST 0x5
00000414                      main.o:_00432_DS_:
00000414 e0fc                 BCR 0x3, 0x6
00000415 e6fa                 BSR 0x5, 0x2
00000416 c3b9                 LGOTO 0x446; main.o:_00448_DS_=0x446
00000417                      main.o:_00441_DS_:
00000417 e0fc                 BCR 0x3, 0x6
00000418 e2fa                 BCR 0x5, 0x2
00000419 feb4                 MOVR 0x4b, 0x0
0000041a f6fc                 BTRSS 0x3, 0x2
0000041b c3dc                 LGOTO 0x423; main.o:_00436_DS_=0x423
0000041c fa31                 INCR 0x4e, 0x1
0000041d def6                 MOVIA 0x9
0000041e fbb1                 SUBAR 0x4e, 0x0
0000041f f7fc                 BTRSS 0x3, 0x0
00000420 c3dc                 LGOTO 0x423; main.o:_00436_DS_=0x423
00000421 f9ad                 DECR 0x52, 0x0
00000422 ff31                 MOVAR 0x4e
00000423                      main.o:_00436_DS_:
00000423 dee1                 MOVIA 0x1e
00000424 e0fc                 BCR 0x3, 0x6
00000425 fbb4                 SUBAR 0x4b, 0x0
00000426 f3fc                 BTRSC 0x3, 0x0
00000427 c3d5                 LGOTO 0x42a; main.o:_00438_DS_=0x42a
00000428 e77a                 BSR 0x5, 0x1
00000429 c3d3                 LGOTO 0x42c; main.o:_00439_DS_=0x42c
0000042a                      main.o:_00438_DS_:
0000042a e0fc                 BCR 0x3, 0x6
0000042b e37a                 BCR 0x5, 0x1
0000042c                      main.o:_00439_DS_:
0000042c ffea                 IOSTR 0x5
0000042d e0fc                 BCR 0x3, 0x6
0000042e ff4d                 MOVAR 0x32
0000042f e3cd                 BCR 0x32, 0x0
00000430 fecd                 MOVR 0x32, 0x0
00000431 fffa                 IOST 0x5
00000432 e7fa                 BSR 0x5, 0x0
00000433 c3b9                 LGOTO 0x446; main.o:_00448_DS_=0x446
00000434                      main.o:_00446_DS_:
00000434 e0fc                 BCR 0x3, 0x6
00000435 e37a                 BCR 0x5, 0x1
00000436 e2fa                 BCR 0x5, 0x2
00000437 ffea                 IOSTR 0x5
00000438 ff4d                 MOVAR 0x32
00000439 e7cd                 BSR 0x32, 0x0
0000043a fecd                 MOVR 0x32, 0x0
0000043b fffa                 IOST 0x5
0000043c fd2c                 CLRR 0x53
0000043d fd2b                 CLRR 0x54
0000043e feb2                 MOVR 0x4d, 0x0
0000043f f6fc                 BTRSS 0x3, 0x2
00000440 c3bd                 LGOTO 0x442; main.o:_00006_DS_=0x442
00000441 fd31                 CLRR 0x4e
00000442                      main.o:_00006_DS_:
00000442 e0fc                 BCR 0x3, 0x6
00000443 fd19                 CLRR 0x66
00000444 fd2c                 CLRR 0x53
00000445 fd2b                 CLRR 0x54
00000446                      main.o:_00448_DS_:
00000446 ffef                 RET
00000447                      _keyRead:
00000447 e0fc                 BCR 0x3, 0x6
00000448 ff4e                 MOVAR 0x31
00000449 fece                 MOVR 0x31, 0x0
0000044a f2fc                 BTRSC 0x3, 0x2
0000044b c3a5                 LGOTO 0x45a; main.o:_00424_DS_=0x45a
0000044c fa33                 INCR 0x4c, 0x1
0000044d de9b                 MOVIA 0x64
0000044e fbb3                 SUBAR 0x4c, 0x0
0000044f f7fc                 BTRSS 0x3, 0x0
00000450 c392                 LGOTO 0x46d; main.o:_00425_DS_=0x46d
00000451 de9b                 MOVIA 0x64
00000452 ff33                 MOVAR 0x4c
00000453 fe9b                 MOVR 0x64, 0x0
00000454 f6fc                 BTRSS 0x3, 0x2
00000455 c392                 LGOTO 0x46d; main.o:_00425_DS_=0x46d
00000456 defe                 MOVIA 0x1
00000457 ff1b                 MOVAR 0x64
00000458 defd                 MOVIA 0x2
00000459 c391                 LGOTO 0x46e; main.o:_00426_DS_=0x46e
0000045a                      main.o:_00424_DS_:
0000045a de9b                 MOVIA 0x64
0000045b e0fc                 BCR 0x3, 0x6
0000045c fbb3                 SUBAR 0x4c, 0x0
0000045d f7fc                 BTRSS 0x3, 0x0
0000045e c39c                 LGOTO 0x463; main.o:_00421_DS_=0x463
0000045f fd33                 CLRR 0x4c
00000460 fd1b                 CLRR 0x64
00000461 deff                 MOVIA 0x0
00000462 c391                 LGOTO 0x46e; main.o:_00426_DS_=0x46e
00000463                      main.o:_00421_DS_:
00000463 def7                 MOVIA 0x8
00000464 e0fc                 BCR 0x3, 0x6
00000465 fbb3                 SUBAR 0x4c, 0x0
00000466 f7fc                 BTRSS 0x3, 0x0
00000467 c394                 LGOTO 0x46b; main.o:_00422_DS_=0x46b
00000468 fd33                 CLRR 0x4c
00000469 defe                 MOVIA 0x1
0000046a c391                 LGOTO 0x46e; main.o:_00426_DS_=0x46e
0000046b                      main.o:_00422_DS_:
0000046b e0fc                 BCR 0x3, 0x6
0000046c fd33                 CLRR 0x4c
0000046d                      main.o:_00425_DS_:
0000046d deff                 MOVIA 0x0
0000046e                      main.o:_00426_DS_:
0000046e ffef                 RET
0000046f                      _gotoSleep:
0000046f fd79                 CLRR 0x6
00000470 e0fc                 BCR 0x3, 0x6
00000471 fd7a                 CLRR 0x5
00000472 d2dd                 LCALL 0x522; _LedInput=0x522
00000473 e0fc                 BCR 0x3, 0x6
00000474 fd2a                 CLRR 0x55
00000475 fd29                 CLRR 0x56
00000476 d375                 LCALL 0x48a; _pwmStop=0x48a
00000477 e0fc                 BCR 0x3, 0x6
00000478 fd32                 CLRR 0x4d
00000479 de9f                 MOVIA 0x60
0000047a ff6a                 MOVAR 0x15
0000047b def4                 MOVIA 0xb
0000047c ff71                 MOVAR 0xe
0000047d dee7                 MOVIA 0x18
0000047e ff77                 MOVAR 0x8
0000047f fd70                 CLRR 0xf
00000480 fffd                 CLRWDT
00000481 fffb                 ENI
00000482 fffe                 SLEEP
00000483 fd6a                 CLRR 0x15
00000484 defe                 MOVIA 0x1
00000485 ff71                 MOVAR 0xe
00000486 fd70                 CLRR 0xf
00000487 de47                 MOVIA 0xb8
00000488 ff77                 MOVAR 0x8
00000489 ffef                 RET
0000048a                      _pwmStop:
0000048a fdff                 CLRA
0000048b ffb5                 SFUN 0xa
0000048c ffef                 RET
0000048d                      _pwmInit:
0000048d ff95                 SFUNR 0xa
0000048e e0fc                 BCR 0x3, 0x6
0000048f ff4f                 MOVAR 0x30
00000490 f04f                 BTRSC 0x30, 0x7
00000491 c366                 LGOTO 0x499; main.o:_00401_DS_=0x499
00000492 fd66                 CLRR 0x19
00000493 de7f                 MOVIA 0x80
00000494 ffb6                 SFUN 0x9
00000495 fdff                 CLRA
00000496 ffb4                 SFUN 0xb
00000497 de7c                 MOVIA 0x83
00000498 ffb5                 SFUN 0xa
00000499                      main.o:_00401_DS_:
00000499 ffef                 RET
0000049a                      _LED8ON:
0000049a ffe9                 IOSTR 0x6
0000049b e0fc                 BCR 0x3, 0x6
0000049c ff50                 MOVAR 0x2f
0000049d e3d0                 BCR 0x2f, 0x0
0000049e fed0                 MOVR 0x2f, 0x0
0000049f fff9                 IOST 0x6
000004a0 ffe9                 IOSTR 0x6
000004a1 ff50                 MOVAR 0x2f
000004a2 e250                 BCR 0x2f, 0x3
000004a3 fed0                 MOVR 0x2f, 0x0
000004a4 fff9                 IOST 0x6
000004a5 e7f9                 BSR 0x6, 0x0
000004a6 e279                 BCR 0x6, 0x3
000004a7 de9b                 MOVIA 0x64
000004a8 d410                 LCALL 0x3ef; _delay=0x3ef
000004a9 d2dd                 LCALL 0x522; _LedInput=0x522
000004aa ffef                 RET
000004ab                      _LED7ON:
000004ab ffe9                 IOSTR 0x6
000004ac e0fc                 BCR 0x3, 0x6
000004ad ff51                 MOVAR 0x2e
000004ae e3d1                 BCR 0x2e, 0x0
000004af fed1                 MOVR 0x2e, 0x0
000004b0 fff9                 IOST 0x6
000004b1 ffe9                 IOSTR 0x6
000004b2 ff51                 MOVAR 0x2e
000004b3 e251                 BCR 0x2e, 0x3
000004b4 fed1                 MOVR 0x2e, 0x0
000004b5 fff9                 IOST 0x6
000004b6 e679                 BSR 0x6, 0x3
000004b7 e3f9                 BCR 0x6, 0x0
000004b8 de9b                 MOVIA 0x64
000004b9 d410                 LCALL 0x3ef; _delay=0x3ef
000004ba d2dd                 LCALL 0x522; _LedInput=0x522
000004bb ffef                 RET
000004bc                      _LED6ON:
000004bc ffe9                 IOSTR 0x6
000004bd e0fc                 BCR 0x3, 0x6
000004be ff52                 MOVAR 0x2d
000004bf e3d2                 BCR 0x2d, 0x0
000004c0 fed2                 MOVR 0x2d, 0x0
000004c1 fff9                 IOST 0x6
000004c2 ffea                 IOSTR 0x5
000004c3 ff52                 MOVAR 0x2d
000004c4 e052                 BCR 0x2d, 0x7
000004c5 fed2                 MOVR 0x2d, 0x0
000004c6 fffa                 IOST 0x5
000004c7 e47a                 BSR 0x5, 0x7
000004c8 e3f9                 BCR 0x6, 0x0
000004c9 de9b                 MOVIA 0x64
000004ca d410                 LCALL 0x3ef; _delay=0x3ef
000004cb d2dd                 LCALL 0x522; _LedInput=0x522
000004cc ffef                 RET
000004cd                      _LED5ON:
000004cd ffe9                 IOSTR 0x6
000004ce e0fc                 BCR 0x3, 0x6
000004cf ff53                 MOVAR 0x2c
000004d0 e3d3                 BCR 0x2c, 0x0
000004d1 fed3                 MOVR 0x2c, 0x0
000004d2 fff9                 IOST 0x6
000004d3 ffea                 IOSTR 0x5
000004d4 ff53                 MOVAR 0x2c
000004d5 e053                 BCR 0x2c, 0x7
000004d6 fed3                 MOVR 0x2c, 0x0
000004d7 fffa                 IOST 0x5
000004d8 e7f9                 BSR 0x6, 0x0
000004d9 e07a                 BCR 0x5, 0x7
000004da de9b                 MOVIA 0x64
000004db d410                 LCALL 0x3ef; _delay=0x3ef
000004dc d2dd                 LCALL 0x522; _LedInput=0x522
000004dd ffef                 RET
000004de                      _LED4ON:
000004de ffe9                 IOSTR 0x6
000004df e0fc                 BCR 0x3, 0x6
000004e0 ff54                 MOVAR 0x2b
000004e1 e354                 BCR 0x2b, 0x1
000004e2 fed4                 MOVR 0x2b, 0x0
000004e3 fff9                 IOST 0x6
000004e4 ffe9                 IOSTR 0x6
000004e5 ff54                 MOVAR 0x2b
000004e6 e254                 BCR 0x2b, 0x3
000004e7 fed4                 MOVR 0x2b, 0x0
000004e8 fff9                 IOST 0x6
000004e9 e779                 BSR 0x6, 0x1
000004ea e279                 BCR 0x6, 0x3
000004eb de9b                 MOVIA 0x64
000004ec d410                 LCALL 0x3ef; _delay=0x3ef
000004ed d2dd                 LCALL 0x522; _LedInput=0x522
000004ee ffef                 RET
000004ef                      _LED3ON:
000004ef ffe9                 IOSTR 0x6
000004f0 e0fc                 BCR 0x3, 0x6
000004f1 ff55                 MOVAR 0x2a
000004f2 e355                 BCR 0x2a, 0x1
000004f3 fed5                 MOVR 0x2a, 0x0
000004f4 fff9                 IOST 0x6
000004f5 ffe9                 IOSTR 0x6
000004f6 ff55                 MOVAR 0x2a
000004f7 e255                 BCR 0x2a, 0x3
000004f8 fed5                 MOVR 0x2a, 0x0
000004f9 fff9                 IOST 0x6
000004fa e679                 BSR 0x6, 0x3
000004fb e379                 BCR 0x6, 0x1
000004fc de9b                 MOVIA 0x64
000004fd d410                 LCALL 0x3ef; _delay=0x3ef
000004fe d2dd                 LCALL 0x522; _LedInput=0x522
000004ff ffef                 RET
00000500                      _LED2ON:
00000500 ffea                 IOSTR 0x5
00000501 e0fc                 BCR 0x3, 0x6
00000502 ff56                 MOVAR 0x29
00000503 e056                 BCR 0x29, 0x7
00000504 fed6                 MOVR 0x29, 0x0
00000505 fffa                 IOST 0x5
00000506 ffe9                 IOSTR 0x6
00000507 ff56                 MOVAR 0x29
00000508 e356                 BCR 0x29, 0x1
00000509 fed6                 MOVR 0x29, 0x0
0000050a fff9                 IOST 0x6
0000050b e779                 BSR 0x6, 0x1
0000050c e07a                 BCR 0x5, 0x7
0000050d de9b                 MOVIA 0x64
0000050e d410                 LCALL 0x3ef; _delay=0x3ef
0000050f d2dd                 LCALL 0x522; _LedInput=0x522
00000510 ffef                 RET
00000511                      _LED1ON:
00000511 ffe9                 IOSTR 0x6
00000512 e0fc                 BCR 0x3, 0x6
00000513 ff57                 MOVAR 0x28
00000514 e357                 BCR 0x28, 0x1
00000515 fed7                 MOVR 0x28, 0x0
00000516 fff9                 IOST 0x6
00000517 ffea                 IOSTR 0x5
00000518 ff57                 MOVAR 0x28
00000519 e057                 BCR 0x28, 0x7
0000051a fed7                 MOVR 0x28, 0x0
0000051b fffa                 IOST 0x5
0000051c e47a                 BSR 0x5, 0x7
0000051d e379                 BCR 0x6, 0x1
0000051e de9b                 MOVIA 0x64
0000051f d410                 LCALL 0x3ef; _delay=0x3ef
00000520 d2dd                 LCALL 0x522; _LedInput=0x522
00000521 ffef                 RET
00000522                      _LedInput:
00000522 ffea                 IOSTR 0x5
00000523 e0fc                 BCR 0x3, 0x6
00000524 ff58                 MOVAR 0x27
00000525 e458                 BSR 0x27, 0x7
00000526 fed8                 MOVR 0x27, 0x0
00000527 fffa                 IOST 0x5
00000528 ffe9                 IOSTR 0x6
00000529 ff58                 MOVAR 0x27
0000052a def4                 MOVIA 0xb
0000052b ee58                 IORAR 0x27, 0x1
0000052c fed8                 MOVR 0x27, 0x0
0000052d fff9                 IOST 0x6
0000052e e07a                 BCR 0x5, 0x7
0000052f de0b                 MOVIA 0xf4
00000530 ef79                 ANDAR 0x6, 0x1
00000531 ffef                 RET
00000532                      _ledShow:
00000532 defa                 MOVIA 0x5
00000533 e0fc                 BCR 0x3, 0x6
00000534 fba3                 SUBAR 0x5c, 0x0
00000535 f7fc                 BTRSS 0x3, 0x0
00000536 c2bc                 LGOTO 0x543; main.o:_00268_DS_=0x543
00000537 feb2                 MOVR 0x4d, 0x0
00000538 f2fc                 BTRSC 0x3, 0x2
00000539 c2bc                 LGOTO 0x543; main.o:_00268_DS_=0x543
0000053a decd                 MOVIA 0x32
0000053b fba7                 SUBAR 0x58, 0x0
0000053c f3fc                 BTRSC 0x3, 0x0
0000053d c2be                 LGOTO 0x541; main.o:_00265_DS_=0x541
0000053e feb2                 MOVR 0x4d, 0x0
0000053f ff31                 MOVAR 0x4e
00000540 c2bc                 LGOTO 0x543; main.o:_00268_DS_=0x543
00000541                      main.o:_00265_DS_:
00000541 e0fc                 BCR 0x3, 0x6
00000542 fd31                 CLRR 0x4e
00000543                      main.o:_00268_DS_:
00000543 e0fc                 BCR 0x3, 0x6
00000544 fea2                 MOVR 0x5d, 0x0
00000545 f2fc                 BTRSC 0x3, 0x2
00000546 c2a7                 LGOTO 0x558; main.o:_00276_DS_=0x558
00000547 fead                 MOVR 0x52, 0x0
00000548 f2fc                 BTRSC 0x3, 0x2
00000549 c2a7                 LGOTO 0x558; main.o:_00276_DS_=0x558
0000054a fea2                 MOVR 0x5d, 0x0
0000054b dbfd                 XORIA 0x2
0000054c f6fc                 BTRSS 0x3, 0x2
0000054d c2a7                 LGOTO 0x558; main.o:_00276_DS_=0x558
0000054e def6                 MOVIA 0x9
0000054f fbad                 SUBAR 0x52, 0x0
00000550 f7fc                 BTRSS 0x3, 0x0
00000551 c2aa                 LGOTO 0x555; main.o:_00271_DS_=0x555
00000552 def7                 MOVIA 0x8
00000553 ff31                 MOVAR 0x4e
00000554 c2a7                 LGOTO 0x558; main.o:_00276_DS_=0x558
00000555                      main.o:_00271_DS_:
00000555 e0fc                 BCR 0x3, 0x6
00000556 fead                 MOVR 0x52, 0x0
00000557 ff31                 MOVAR 0x4e
00000558                      main.o:_00276_DS_:
00000558 e0fc                 BCR 0x3, 0x6
00000559 fe9f                 MOVR 0x60, 0x0
0000055a f2fc                 BTRSC 0x3, 0x2
0000055b c294                 LGOTO 0x56b; main.o:_00282_DS_=0x56b
0000055c feb2                 MOVR 0x4d, 0x0
0000055d f2fc                 BTRSC 0x3, 0x2
0000055e c294                 LGOTO 0x56b; main.o:_00282_DS_=0x56b
0000055f fead                 MOVR 0x52, 0x0
00000560 f6fc                 BTRSS 0x3, 0x2
00000561 c294                 LGOTO 0x56b; main.o:_00282_DS_=0x56b
00000562 decd                 MOVIA 0x32
00000563 fba7                 SUBAR 0x58, 0x0
00000564 f3fc                 BTRSC 0x3, 0x0
00000565 c296                 LGOTO 0x569; main.o:_00279_DS_=0x569
00000566 feb2                 MOVR 0x4d, 0x0
00000567 ff31                 MOVAR 0x4e
00000568 c294                 LGOTO 0x56b; main.o:_00282_DS_=0x56b
00000569                      main.o:_00279_DS_:
00000569 e0fc                 BCR 0x3, 0x6
0000056a fd31                 CLRR 0x4e
0000056b                      main.o:_00282_DS_:
0000056b e0fc                 BCR 0x3, 0x6
0000056c fe9f                 MOVR 0x60, 0x0
0000056d f6fc                 BTRSS 0x3, 0x2
0000056e c28a                 LGOTO 0x575; main.o:_00286_DS_=0x575
0000056f fead                 MOVR 0x52, 0x0
00000570 f6fc                 BTRSS 0x3, 0x2
00000571 c28a                 LGOTO 0x575; main.o:_00286_DS_=0x575
00000572 fd32                 CLRR 0x4d
00000573 fd31                 CLRR 0x4e
00000574 d375                 LCALL 0x48a; _pwmStop=0x48a
00000575                      main.o:_00286_DS_:
00000575 d2dd                 LCALL 0x522; _LedInput=0x522
00000576 def6                 MOVIA 0x9
00000577 e0fc                 BCR 0x3, 0x6
00000578 fbb1                 SUBAR 0x4e, 0x0
00000579 f3fc                 BTRSC 0x3, 0x0
0000057a c26a                 LGOTO 0x595; main.o:_00298_DS_=0x595
0000057b defa                 MOVIA 0x5
0000057c ff75                 MOVAR 0xa
0000057d feb1                 MOVR 0x4e, 0x0
0000057e da7d                 ADDIA 0x82
0000057f f3fc                 BTRSC 0x3, 0x0
00000580 fa75                 INCR 0xa, 0x1
00000581 ff7d                 MOVAR 0x2
00000582                      main.o:_00347_DS_:
00000582 c274                 LGOTO 0x58b; main.o:_00288_DS_=0x58b
00000583 c26b                 LGOTO 0x594; main.o:_00296_DS_=0x594
00000584 c26c                 LGOTO 0x593; main.o:_00295_DS_=0x593
00000585 c26d                 LGOTO 0x592; main.o:_00294_DS_=0x592
00000586 c26e                 LGOTO 0x591; main.o:_00293_DS_=0x591
00000587 c26f                 LGOTO 0x590; main.o:_00292_DS_=0x590
00000588 c270                 LGOTO 0x58f; main.o:_00291_DS_=0x58f
00000589 c271                 LGOTO 0x58e; main.o:_00290_DS_=0x58e
0000058a c272                 LGOTO 0x58d; main.o:_00289_DS_=0x58d
0000058b                      main.o:_00288_DS_:
0000058b d2dd                 LCALL 0x522; _LedInput=0x522
0000058c c26a                 LGOTO 0x595; main.o:_00298_DS_=0x595
0000058d                      main.o:_00289_DS_:
0000058d d365                 LCALL 0x49a; _LED8ON=0x49a
0000058e                      main.o:_00290_DS_:
0000058e d354                 LCALL 0x4ab; _LED7ON=0x4ab
0000058f                      main.o:_00291_DS_:
0000058f d343                 LCALL 0x4bc; _LED6ON=0x4bc
00000590                      main.o:_00292_DS_:
00000590 d332                 LCALL 0x4cd; _LED5ON=0x4cd
00000591                      main.o:_00293_DS_:
00000591 d321                 LCALL 0x4de; _LED4ON=0x4de
00000592                      main.o:_00294_DS_:
00000592 d310                 LCALL 0x4ef; _LED3ON=0x4ef
00000593                      main.o:_00295_DS_:
00000593 d2ff                 LCALL 0x500; _LED2ON=0x500
00000594                      main.o:_00296_DS_:
00000594 d2ee                 LCALL 0x511; _LED1ON=0x511
00000595                      main.o:_00298_DS_:
00000595 ffef                 RET
00000596                      _initSys:
00000596 ffec                 DISI
00000597 de87                 MOVIA 0x78
00000598 fffa                 IOST 0x5
00000599 fdff                 CLRA
0000059a fff9                 IOST 0x6
0000059b fd79                 CLRR 0x6
0000059c e0fc                 BCR 0x3, 0x6
0000059d fd7a                 CLRR 0x5
0000059e d2dd                 LCALL 0x522; _LedInput=0x522
0000059f de40                 MOVIA 0xbf
000005a0 fff6                 IOST 0x9
000005a1 de00                 MOVIA 0xff
000005a2 ff73                 MOVAR 0xc
000005a3 ff74                 MOVAR 0xb
000005a4 defe                 MOVIA 0x1
000005a5 ff71                 MOVAR 0xe
000005a6 fdff                 CLRA
000005a7 fff0                 IOST 0xf
000005a8 dec8                 MOVIA 0x37
000005a9 ff7e                 MOVAR 0x1
000005aa fdff                 CLRA
000005ab fffc                 T0MD
000005ac defe                 MOVIA 0x1
000005ad fff0                 IOST 0xf
000005ae de67                 MOVIA 0x98
000005af ff77                 MOVAR 0x8
000005b0 defe                 MOVIA 0x1
000005b1 fff0                 IOST 0xf
000005b2 fffb                 ENI
000005b3 ffef                 RET
000005b4                      _powerOff:
000005b4 e0fc                 BCR 0x3, 0x6
000005b5 fd32                 CLRR 0x4d
000005b6 d375                 LCALL 0x48a; _pwmStop=0x48a
000005b7 e0fc                 BCR 0x3, 0x6
000005b8 fd31                 CLRR 0x4e
000005b9 ffef                 RET
000005ba                      _keyCtr:
000005ba e0fc                 BCR 0x3, 0x6
000005bb f8fa                 COMR 0x5, 0x0
000005bc ff59                 MOVAR 0x26
000005bd debf                 MOVIA 0x40
000005be ef59                 ANDAR 0x26, 0x1
000005bf fed9                 MOVR 0x26, 0x0
000005c0 d3b8                 LCALL 0x447; _keyRead=0x447
000005c1 e0fc                 BCR 0x3, 0x6
000005c2 ff59                 MOVAR 0x26
000005c3 dbfe                 XORIA 0x1
000005c4 f6fc                 BTRSS 0x3, 0x2
000005c5 c1db                 LGOTO 0x624; main.o:_00249_DS_=0x624
000005c6 fd34                 CLRR 0x4b
000005c7 fd22                 CLRR 0x5d
000005c8 feb2                 MOVR 0x4d, 0x0
000005c9 f6fc                 BTRSS 0x3, 0x2
000005ca c230                 LGOTO 0x5cf; main.o:_00213_DS_=0x5cf
000005cb fd27                 CLRR 0x58
000005cc defd                 MOVIA 0x2
000005cd ff22                 MOVAR 0x5d
000005ce c1ba                 LGOTO 0x645; main.o:_00251_DS_=0x645
000005cf                      main.o:_00213_DS_:
000005cf e0fc                 BCR 0x3, 0x6
000005d0 fd24                 CLRR 0x5b
000005d1 fa32                 INCR 0x4d, 0x1
000005d2 def6                 MOVIA 0x9
000005d3 fbb2                 SUBAR 0x4d, 0x0
000005d4 f7fc                 BTRSS 0x3, 0x0
000005d5 c227                 LGOTO 0x5d8; main.o:_00215_DS_=0x5d8
000005d6 defe                 MOVIA 0x1
000005d7 ff32                 MOVAR 0x4d
000005d8                      main.o:_00215_DS_:
000005d8 def9                 MOVIA 0x6
000005d9 e0fc                 BCR 0x3, 0x6
000005da ff1f                 MOVAR 0x60
000005db feb2                 MOVR 0x4d, 0x0
000005dc dbfe                 XORIA 0x1
000005dd f6fc                 BTRSS 0x3, 0x2
000005de c21d                 LGOTO 0x5e2; main.o:_00237_DS_=0x5e2
000005df decc                 MOVIA 0x33
000005e0 ff2e                 MOVAR 0x51
000005e1 c1e6                 LGOTO 0x619; main.o:_00238_DS_=0x619
000005e2                      main.o:_00237_DS_:
000005e2 e0fc                 BCR 0x3, 0x6
000005e3 feb2                 MOVR 0x4d, 0x0
000005e4 dbfd                 XORIA 0x2
000005e5 f6fc                 BTRSS 0x3, 0x2
000005e6 c215                 LGOTO 0x5ea; main.o:_00234_DS_=0x5ea
000005e7 dec9                 MOVIA 0x36
000005e8 ff2e                 MOVAR 0x51
000005e9 c1e6                 LGOTO 0x619; main.o:_00238_DS_=0x619
000005ea                      main.o:_00234_DS_:
000005ea e0fc                 BCR 0x3, 0x6
000005eb feb2                 MOVR 0x4d, 0x0
000005ec dbfc                 XORIA 0x3
000005ed f6fc                 BTRSS 0x3, 0x2
000005ee c20d                 LGOTO 0x5f2; main.o:_00231_DS_=0x5f2
000005ef dec7                 MOVIA 0x38
000005f0 ff2e                 MOVAR 0x51
000005f1 c1e6                 LGOTO 0x619; main.o:_00238_DS_=0x619
000005f2                      main.o:_00231_DS_:
000005f2 e0fc                 BCR 0x3, 0x6
000005f3 feb2                 MOVR 0x4d, 0x0
000005f4 dbfb                 XORIA 0x4
000005f5 f6fc                 BTRSS 0x3, 0x2
000005f6 c205                 LGOTO 0x5fa; main.o:_00228_DS_=0x5fa
000005f7 dec4                 MOVIA 0x3b
000005f8 ff2e                 MOVAR 0x51
000005f9 c1e6                 LGOTO 0x619; main.o:_00238_DS_=0x619
000005fa                      main.o:_00228_DS_:
000005fa e0fc                 BCR 0x3, 0x6
000005fb feb2                 MOVR 0x4d, 0x0
000005fc dbfa                 XORIA 0x5
000005fd f6fc                 BTRSS 0x3, 0x2
000005fe c1fd                 LGOTO 0x602; main.o:_00225_DS_=0x602
000005ff dec2                 MOVIA 0x3d
00000600 ff2e                 MOVAR 0x51
00000601 c1e6                 LGOTO 0x619; main.o:_00238_DS_=0x619
00000602                      main.o:_00225_DS_:
00000602 e0fc                 BCR 0x3, 0x6
00000603 feb2                 MOVR 0x4d, 0x0
00000604 dbf9                 XORIA 0x6
00000605 f6fc                 BTRSS 0x3, 0x2
00000606 c1f5                 LGOTO 0x60a; main.o:_00222_DS_=0x60a
00000607 dec0                 MOVIA 0x3f
00000608 ff2e                 MOVAR 0x51
00000609 c1e6                 LGOTO 0x619; main.o:_00238_DS_=0x619
0000060a                      main.o:_00222_DS_:
0000060a e0fc                 BCR 0x3, 0x6
0000060b feb2                 MOVR 0x4d, 0x0
0000060c dbf8                 XORIA 0x7
0000060d f6fc                 BTRSS 0x3, 0x2
0000060e c1ed                 LGOTO 0x612; main.o:_00219_DS_=0x612
0000060f debe                 MOVIA 0x41
00000610 ff2e                 MOVAR 0x51
00000611 c1e6                 LGOTO 0x619; main.o:_00238_DS_=0x619
00000612                      main.o:_00219_DS_:
00000612 e0fc                 BCR 0x3, 0x6
00000613 feb2                 MOVR 0x4d, 0x0
00000614 dbf7                 XORIA 0x8
00000615 f6fc                 BTRSS 0x3, 0x2
00000616 c1e6                 LGOTO 0x619; main.o:_00238_DS_=0x619
00000617 debb                 MOVIA 0x44
00000618 ff2e                 MOVAR 0x51
00000619                      main.o:_00238_DS_:
00000619 e0fc                 BCR 0x3, 0x6
0000061a feb2                 MOVR 0x4d, 0x0
0000061b f2fc                 BTRSC 0x3, 0x2
0000061c c1df                 LGOTO 0x620; main.o:_00240_DS_=0x620
0000061d feae                 MOVR 0x51, 0x0
0000061e ffb3                 SFUN 0xc
0000061f d372                 LCALL 0x48d; _pwmInit=0x48d
00000620                      main.o:_00240_DS_:
00000620 e0fc                 BCR 0x3, 0x6
00000621 feb2                 MOVR 0x4d, 0x0
00000622 ff31                 MOVAR 0x4e
00000623 c1ba                 LGOTO 0x645; main.o:_00251_DS_=0x645
00000624                      main.o:_00249_DS_:
00000624 e0fc                 BCR 0x3, 0x6
00000625 fed9                 MOVR 0x26, 0x0
00000626 dbfd                 XORIA 0x2
00000627 f6fc                 BTRSS 0x3, 0x2
00000628 c1ba                 LGOTO 0x645; main.o:_00251_DS_=0x645
00000629 feb2                 MOVR 0x4d, 0x0
0000062a f2fc                 BTRSC 0x3, 0x2
0000062b c1d1                 LGOTO 0x62e; main.o:_00244_DS_=0x62e
0000062c d24b                 LCALL 0x5b4; _powerOff=0x5b4
0000062d c1bd                 LGOTO 0x642; main.o:_00245_DS_=0x642
0000062e                      main.o:_00244_DS_:
0000062e e0fc                 BCR 0x3, 0x6
0000062f fead                 MOVR 0x52, 0x0
00000630 dbf5                 XORIA 0xa
00000631 f6fc                 BTRSS 0x3, 0x2
00000632 c1c9                 LGOTO 0x636; main.o:_00242_DS_=0x636
00000633 fd2a                 CLRR 0x55
00000634 fd29                 CLRR 0x56
00000635 c1ba                 LGOTO 0x645; main.o:_00251_DS_=0x645
00000636                      main.o:_00242_DS_:
00000636 defe                 MOVIA 0x1
00000637 e0fc                 BCR 0x3, 0x6
00000638 ff32                 MOVAR 0x4d
00000639 de9b                 MOVIA 0x64
0000063a ffb3                 SFUN 0xc
0000063b ff21                 MOVAR 0x5e
0000063c decd                 MOVIA 0x32
0000063d ff2e                 MOVAR 0x51
0000063e d372                 LCALL 0x48d; _pwmInit=0x48d
0000063f deef                 MOVIA 0x10
00000640 e0fc                 BCR 0x3, 0x6
00000641 ff1f                 MOVAR 0x60
00000642                      main.o:_00245_DS_:
00000642 e0fc                 BCR 0x3, 0x6
00000643 feb2                 MOVR 0x4d, 0x0
00000644 ff31                 MOVAR 0x4e
00000645                      main.o:_00251_DS_:
00000645 ffef                 RET
00000646                      ___cinit_load__:
