00000000 c7fe                LGOTO    0x1; __nyc_ny8_startup=0x1
00000001                     __nyc_ny8_startup:
00000001 d3c5                LCALL    0x43a; ___cinit_load__=0x43a
00000002 c5c3                LGOTO    0x23c; _main=0x23c
00000003                     _powerOff:
00000003 e0fc                BCR      STATUS, BK0
00000004 fd11                CLRR     0x6e
00000005 d217                LCALL    0x5e8; _pwmStop=0x5e8
00000006 ffef                RET
00000008 c4be                LGOTO    0x341; _isr=0x341
00000009                     _chrgCtr:
00000009 e0fc                BCR      STATUS, BK0
0000000a f67a                BTRSS    PORTA, PA3
0000000b c71f                LGOTO    0xe0; main.o:_00477_DS_=0xe0
0000000c e615                BSR      0x6a, 0x3
0000000d fd11                CLRR     0x6e
0000000e fd09                CLRR     0x76
0000000f d217                LCALL    0x5e8; _pwmStop=0x5e8
00000010 def8                MOVIA    0x7
00000011 e0fc                BCR      STATUS, BK0
00000012 fb8e                SUBAR    0x71, ToAcc
00000013 f3fc                BTRSC    STATUS, C
00000014 c7e6                LGOTO    0x19; main.o:_00470_DS_=0x19
00000015 e4fc                BSR      STATUS, BK0
00000016 fedb                MOVR     0x24, ToAcc
00000017 f2fc                BTRSC    STATUS, Z
00000018 c7c5                LGOTO    0x3a; main.o:_00471_DS_=0x3a
00000019                     main.o:_00470_DS_:
00000019 def9                MOVIA    0x6
0000001a e4fc                BSR      STATUS, BK0
0000001b ff5f                MOVAR    0x20
0000001c e0fc                BCR      STATUS, BK0
0000001d ff10                MOVAR    0x6f
0000001e fa1f                INCR     0x60, ToReg
0000001f f2fc                BTRSC    STATUS, Z
00000020 fa1e                INCR     0x61, ToReg
00000021 def8                MOVIA    0x7
00000022 fb9e                SUBAR    0x61, ToAcc
00000023 f6fc                BTRSS    STATUS, Z
00000024 c7d8                LGOTO    0x27; main.o:_00542_DS_=0x27
00000025 de2f                MOVIA    0xd0
00000026 fb9f                SUBAR    0x60, ToAcc
00000027                     main.o:_00542_DS_:
00000027 f7fc                BTRSS    STATUS, C
00000028 c708                LGOTO    0xf7; main.o:_00479_DS_=0xf7
00000029 de2f                MOVIA    0xd0
0000002a e0fc                BCR      STATUS, BK0
0000002b ff1f                MOVAR    0x60
0000002c def8                MOVIA    0x7
0000002d ff1e                MOVAR    0x61
0000002e defe                MOVIA    0x1
0000002f e4fc                BSR      STATUS, BK0
00000030 ff5b                MOVAR    0x24
00000031 d214                LCALL    0x5eb; _pwm1Stop=0x5eb
00000032 e279                BCR      PORTB, PB3
00000033 ffe9                IOSTR    IOSTB
00000034 e0fc                BCR      STATUS, BK0
00000035 ff4f                MOVAR    0x30
00000036 e64f                BSR      0x30, 0x3
00000037 fecf                MOVR     0x30, ToAcc
00000038 fff9                IOST     IOSTB
00000039 c708                LGOTO    0xf7; main.o:_00479_DS_=0xf7
0000003a                     main.o:_00471_DS_:
0000003a ffe9                IOSTR    IOSTB
0000003b e0fc                BCR      STATUS, BK0
0000003c ff4f                MOVAR    0x30
0000003d e24f                BCR      0x30, 0x3
0000003e fecf                MOVR     0x30, ToAcc
0000003f fff9                IOST     IOSTB
00000040 fd1f                CLRR     0x60
00000041 fd1e                CLRR     0x61
00000042 fe93                MOVR     0x6c, ToAcc
00000043 f6fc                BTRSS    STATUS, Z
00000044 c781                LGOTO    0x7e; main.o:_00448_DS_=0x7e
00000045 def8                MOVIA    0x7
00000046 fb8e                SUBAR    0x71, ToAcc
00000047 f3fc                BTRSC    STATUS, C
00000048 c781                LGOTO    0x7e; main.o:_00448_DS_=0x7e
00000049 defa                MOVIA    0x5
0000004a fb80                SUBAR    0x7f, ToAcc
0000004b f3fc                BTRSC    STATUS, C
0000004c c781                LGOTO    0x7e; main.o:_00448_DS_=0x7e
0000004d fe8e                MOVR     0x71, ToAcc
0000004e ff4f                MOVAR    0x30
0000004f fd4e                CLRR     0x31
00000050 de00                MOVIA    0xff
00000051 fc4f                ADDAR    0x30, ToReg
00000052 f3fc                BTRSC    STATUS, C
00000053 c7aa                LGOTO    0x55; main.o:_00006_DS_=0x55
00000054 f94e                DECR     0x31, ToReg
00000055                     main.o:_00006_DS_:
00000055 e0fc                BCR      STATUS, BK0
00000056 fe80                MOVR     0x7f, ToAcc
00000057 ff4d                MOVAR    0x32
00000058 deff                MOVIA    0x0
00000059 da7f                ADDIA    0x80
0000005a ff4c                MOVAR    0x33
0000005b fece                MOVR     0x31, ToAcc
0000005c da7f                ADDIA    0x80
0000005d fbcc                SUBAR    0x33, ToAcc
0000005e f6fc                BTRSS    STATUS, Z
0000005f c79d                LGOTO    0x62; main.o:_00545_DS_=0x62
00000060 fecf                MOVR     0x30, ToAcc
00000061 fbcd                SUBAR    0x32, ToAcc
00000062                     main.o:_00545_DS_:
00000062 f3fc                BTRSC    STATUS, C
00000063 c78b                LGOTO    0x74; main.o:_00443_DS_=0x74
00000064 e0fc                BCR      STATUS, BK0
00000065 fe80                MOVR     0x7f, ToAcc
00000066 f6fc                BTRSS    STATUS, Z
00000067 c795                LGOTO    0x6a; main.o:_00439_DS_=0x6a
00000068 f98e                DECR     0x71, ToAcc
00000069 ff00                MOVAR    0x7f
0000006a                     main.o:_00439_DS_:
0000006a e4fc                BSR      STATUS, BK0
0000006b fa5a                INCR     0x25, ToReg
0000006c de9a                MOVIA    0x65
0000006d fbda                SUBAR    0x25, ToAcc
0000006e f7fc                BTRSS    STATUS, C
0000006f c789                LGOTO    0x76; main.o:_00444_DS_=0x76
00000070 e0fc                BCR      STATUS, BK0
00000071 f98e                DECR     0x71, ToAcc
00000072 ff00                MOVAR    0x7f
00000073 c789                LGOTO    0x76; main.o:_00444_DS_=0x76
00000074                     main.o:_00443_DS_:
00000074 e4fc                BSR      STATUS, BK0
00000075 fd5a                CLRR     0x25
00000076                     main.o:_00444_DS_:
00000076 e0fc                BCR      STATUS, BK0
00000077 fa10                INCR     0x6f, ToReg
00000078 def9                MOVIA    0x6
00000079 fb90                SUBAR    0x6f, ToAcc
0000007a f7fc                BTRSS    STATUS, C
0000007b c781                LGOTO    0x7e; main.o:_00448_DS_=0x7e
0000007c fe80                MOVR     0x7f, ToAcc
0000007d ff10                MOVAR    0x6f
0000007e                     main.o:_00448_DS_:
0000007e defa                MOVIA    0x5
0000007f e0fc                BCR      STATUS, BK0
00000080 fb80                SUBAR    0x7f, ToAcc
00000081 f7fc                BTRSS    STATUS, C
00000082 c77a                LGOTO    0x85; main.o:_00452_DS_=0x85
00000083 defa                MOVIA    0x5
00000084 ff10                MOVAR    0x6f
00000085                     main.o:_00452_DS_:
00000085 e4fc                BSR      STATUS, BK0
00000086 fedc                MOVR     0x23, ToAcc
00000087 ffbc                SFUN     PWM1DUTY
00000088 d24d                LCALL    0x5b2; _pwm1Init=0x5b2
00000089 def9                MOVIA    0x6
0000008a e0fc                BCR      STATUS, BK0
0000008b fb8d                SUBAR    0x72, ToAcc
0000008c f7fc                BTRSS    STATUS, C
0000008d c708                LGOTO    0xf7; main.o:_00479_DS_=0xf7
0000008e deff                MOVIA    0x0
0000008f fbde                SUBAR    0x21, ToAcc
00000090 f6fc                BTRSS    STATUS, Z
00000091 c76b                LGOTO    0x94; main.o:_00550_DS_=0x94
00000092 dee3                MOVIA    0x1c
00000093 fbdf                SUBAR    0x20, ToAcc
00000094                     main.o:_00550_DS_:
00000094 f3fc                BTRSC    STATUS, C
00000095 c759                LGOTO    0xa6; main.o:_00454_DS_=0xa6
00000096 e4fc                BSR      STATUS, BK0
00000097 fed7                MOVR     0x28, ToAcc
00000098 e0fc                BCR      STATUS, BK0
00000099 ff4f                MOVAR    0x30
0000009a fd4e                CLRR     0x31
0000009b deff                MOVIA    0x0
0000009c fbde                SUBAR    0x21, ToAcc
0000009d f6fc                BTRSS    STATUS, Z
0000009e c75e                LGOTO    0xa1; main.o:_00551_DS_=0xa1
0000009f fecf                MOVR     0x30, ToAcc
000000a0 fbdf                SUBAR    0x20, ToAcc
000000a1                     main.o:_00551_DS_:
000000a1 f7fc                BTRSS    STATUS, C
000000a2 c759                LGOTO    0xa6; main.o:_00454_DS_=0xa6
000000a3 e4fc                BSR      STATUS, BK0
000000a4 fd58                CLRR     0x27
000000a5 fd59                CLRR     0x26
000000a6                     main.o:_00454_DS_:
000000a6 deff                MOVIA    0x0
000000a7 e0fc                BCR      STATUS, BK0
000000a8 fbde                SUBAR    0x21, ToAcc
000000a9 f6fc                BTRSS    STATUS, Z
000000aa c752                LGOTO    0xad; main.o:_00552_DS_=0xad
000000ab dee3                MOVIA    0x1c
000000ac fbdf                SUBAR    0x20, ToAcc
000000ad                     main.o:_00552_DS_:
000000ad f7fc                BTRSS    STATUS, C
000000ae c741                LGOTO    0xbe; main.o:_00463_DS_=0xbe
000000af e4fc                BSR      STATUS, BK0
000000b0 fa58                INCR     0x27, ToReg
000000b1 fed8                MOVR     0x27, ToAcc
000000b2 fbd6                SUBAR    0x29, ToAcc
000000b3 f3fc                BTRSC    STATUS, C
000000b4 c744                LGOTO    0xbb; main.o:_00457_DS_=0xbb
000000b5 f95c                DECR     0x23, ToReg
000000b6 fd58                CLRR     0x27
000000b7 dee5                MOVIA    0x1a
000000b8 ff57                MOVAR    0x28
000000b9 de05                MOVIA    0xfa
000000ba ff56                MOVAR    0x29
000000bb                     main.o:_00457_DS_:
000000bb e4fc                BSR      STATUS, BK0
000000bc fd59                CLRR     0x26
000000bd c72a                LGOTO    0xd5; main.o:_00464_DS_=0xd5
000000be                     main.o:_00463_DS_:
000000be e4fc                BSR      STATUS, BK0
000000bf fed7                MOVR     0x28, ToAcc
000000c0 e0fc                BCR      STATUS, BK0
000000c1 ff4f                MOVAR    0x30
000000c2 fd4e                CLRR     0x31
000000c3 deff                MOVIA    0x0
000000c4 fbde                SUBAR    0x21, ToAcc
000000c5 f6fc                BTRSS    STATUS, Z
000000c6 c736                LGOTO    0xc9; main.o:_00554_DS_=0xc9
000000c7 fecf                MOVR     0x30, ToAcc
000000c8 fbdf                SUBAR    0x20, ToAcc
000000c9                     main.o:_00554_DS_:
000000c9 f3fc                BTRSC    STATUS, C
000000ca c72a                LGOTO    0xd5; main.o:_00464_DS_=0xd5
000000cb e4fc                BSR      STATUS, BK0
000000cc fa59                INCR     0x26, ToReg
000000cd fed9                MOVR     0x26, ToAcc
000000ce fbd6                SUBAR    0x29, ToAcc
000000cf f3fc                BTRSC    STATUS, C
000000d0 c72c                LGOTO    0xd3; main.o:_00459_DS_=0xd3
000000d1 fa5c                INCR     0x23, ToReg
000000d2 fd59                CLRR     0x26
000000d3                     main.o:_00459_DS_:
000000d3 e4fc                BSR      STATUS, BK0
000000d4 fd58                CLRR     0x27
000000d5                     main.o:_00464_DS_:
000000d5 e4fc                BSR      STATUS, BK0
000000d6 fedc                MOVR     0x23, ToAcc
000000d7 fbdd                SUBAR    0x22, ToAcc
000000d8 f3fc                BTRSC    STATUS, C
000000d9 c723                LGOTO    0xdc; main.o:_00466_DS_=0xdc
000000da fa5d                INCR     0x22, ToReg
000000db c708                LGOTO    0xf7; main.o:_00479_DS_=0xf7
000000dc                     main.o:_00466_DS_:
000000dc e4fc                BSR      STATUS, BK0
000000dd fedc                MOVR     0x23, ToAcc
000000de ff5d                MOVAR    0x22
000000df c708                LGOTO    0xf7; main.o:_00479_DS_=0xf7
000000e0                     main.o:_00477_DS_:
000000e0 deeb                MOVIA    0x14
000000e1 e4fc                BSR      STATUS, BK0
000000e2 ff56                MOVAR    0x29
000000e3 dee4                MOVIA    0x1b
000000e4 ff57                MOVAR    0x28
000000e5 fd5b                CLRR     0x24
000000e6 fd5d                CLRR     0x22
000000e7 fd5c                CLRR     0x23
000000e8 fd5f                CLRR     0x20
000000e9 e0fc                BCR      STATUS, BK0
000000ea fd00                CLRR     0x7f
000000eb fd25                CLRR     0x5a
000000ec fd24                CLRR     0x5b
000000ed d214                LCALL    0x5eb; _pwm1Stop=0x5eb
000000ee e0fc                BCR      STATUS, BK0
000000ef fe91                MOVR     0x6e, ToAcc
000000f0 f6fc                BTRSS    STATUS, Z
000000f1 c70c                LGOTO    0xf3; main.o:_00007_DS_=0xf3
000000f2 fd10                CLRR     0x6f
000000f3                     main.o:_00007_DS_:
000000f3 e0fc                BCR      STATUS, BK0
000000f4 e215                BCR      0x6a, 0x3
000000f5 fd25                CLRR     0x5a
000000f6 fd24                CLRR     0x5b
000000f7                     main.o:_00479_DS_:
000000f7 ffef                RET
000000f8                     _checkBatAD:
000000f8 e0fc                BCR      STATUS, BK0
000000f9 fd5a                CLRR     0x25
000000fa fd5d                CLRR     0x22
000000fb fd5c                CLRR     0x23
000000fc def7                MOVIA    0x8
000000fd d364                LCALL    0x49b; _F_AIN2_Convert=0x49b
000000fe e0fc                BCR      STATUS, BK0
000000ff eadc                SWAPR    0x23, ToAcc
00000100 dd0f                ANDIA    0xf0
00000101 ff5c                MOVAR    0x23
00000102 eadd                SWAPR    0x22, ToAcc
00000103 ff5d                MOVAR    0x22
00000104 ddf0                ANDIA    0xf
00000105 ee5c                IORAR    0x23, ToReg
00000106 ed5d                XORAR    0x22, ToReg
00000107 de0f                MOVIA    0xf0
00000108 ef5a                ANDAR    0x25, ToReg
00000109 feda                MOVR     0x25, ToAcc
0000010a ff49                MOVAR    0x36
0000010b deff                MOVIA    0x0
0000010c ff48                MOVAR    0x37
0000010d fec9                MOVR     0x36, ToAcc
0000010e fc5d                ADDAR    0x22, ToReg
0000010f fec8                MOVR     0x37, ToAcc
00000110 f3fc                BTRSC    STATUS, C
00000111 fac8                INCR     0x37, ToAcc
00000112 f2fc                BTRSC    STATUS, Z
00000113 c6ea                LGOTO    0x115; main.o:_00005_DS_=0x115
00000114 fc5c                ADDAR    0x23, ToReg
00000115                     main.o:_00005_DS_:
00000115 e3fc                BCR      STATUS, C
00000116 e0fc                BCR      STATUS, BK0
00000117 ec5c                RRR      0x23, ToReg
00000118 ec5d                RRR      0x22, ToReg
00000119 e3fc                BCR      STATUS, C
0000011a ec5c                RRR      0x23, ToReg
0000011b ec5d                RRR      0x22, ToReg
0000011c e3fc                BCR      STATUS, C
0000011d ec5c                RRR      0x23, ToReg
0000011e ec5d                RRR      0x22, ToReg
0000011f e4fc                BSR      STATUS, BK0
00000120 fed4                MOVR     0x2b, ToAcc
00000121 f2fc                BTRSC    STATUS, Z
00000122 c6d7                LGOTO    0x128; main.o:_00573_DS_=0x128
00000123 def1                MOVIA    0xe
00000124 e0fc                BCR      STATUS, BK0
00000125 ff5d                MOVAR    0x22
00000126 def9                MOVIA    0x6
00000127 ff5c                MOVAR    0x23
00000128                     main.o:_00573_DS_:
00000128 def9                MOVIA    0x6
00000129 e0fc                BCR      STATUS, BK0
0000012a fbdc                SUBAR    0x23, ToAcc
0000012b f6fc                BTRSS    STATUS, Z
0000012c c6d0                LGOTO    0x12f; main.o:_00641_DS_=0x12f
0000012d dedc                MOVIA    0x23
0000012e fbdd                SUBAR    0x22, ToAcc
0000012f                     main.o:_00641_DS_:
0000012f f7fc                BTRSS    STATUS, C
00000130 c6c9                LGOTO    0x136; main.o:_00595_DS_=0x136
00000131 e0fc                BCR      STATUS, BK0
00000132 fd04                CLRR     0x7b
00000133 def7                MOVIA    0x8
00000134 ff0e                MOVAR    0x71
00000135 c66c                LGOTO    0x193; main.o:_00596_DS_=0x193
00000136                     main.o:_00595_DS_:
00000136 defb                MOVIA    0x4
00000137 e0fc                BCR      STATUS, BK0
00000138 fbdc                SUBAR    0x23, ToAcc
00000139 f6fc                BTRSS    STATUS, Z
0000013a c6c2                LGOTO    0x13d; main.o:_00642_DS_=0x13d
0000013b de81                MOVIA    0x7e
0000013c fbdd                SUBAR    0x22, ToAcc
0000013d                     main.o:_00642_DS_:
0000013d f3fc                BTRSC    STATUS, C
0000013e c6b2                LGOTO    0x14d; main.o:_00592_DS_=0x14d
0000013f e0fc                BCR      STATUS, BK0
00000140 fa04                INCR     0x7b, ToReg
00000141 def5                MOVIA    0xa
00000142 fb84                SUBAR    0x7b, ToAcc
00000143 f7fc                BTRSS    STATUS, C
00000144 c653                LGOTO    0x1ac; main.o:_00603_DS_=0x1ac
00000145 def5                MOVIA    0xa
00000146 ff04                MOVAR    0x7b
00000147 fd0e                CLRR     0x71
00000148 de81                MOVIA    0x7e
00000149 ff5d                MOVAR    0x22
0000014a defb                MOVIA    0x4
0000014b ff5c                MOVAR    0x23
0000014c c66c                LGOTO    0x193; main.o:_00596_DS_=0x193
0000014d                     main.o:_00592_DS_:
0000014d e0fc                BCR      STATUS, BK0
0000014e fd04                CLRR     0x7b
0000014f fd06                CLRR     0x79
00000150 defb                MOVIA    0x4
00000151 fbdc                SUBAR    0x23, ToAcc
00000152 f6fc                BTRSS    STATUS, Z
00000153 c6a9                LGOTO    0x156; main.o:_00644_DS_=0x156
00000154 de09                MOVIA    0xf6
00000155 fbdd                SUBAR    0x22, ToAcc
00000156                     main.o:_00644_DS_:
00000156 f3fc                BTRSC    STATUS, C
00000157 c6a3                LGOTO    0x15c; main.o:_00589_DS_=0x15c
00000158 defe                MOVIA    0x1
00000159 e0fc                BCR      STATUS, BK0
0000015a ff0e                MOVAR    0x71
0000015b c66c                LGOTO    0x193; main.o:_00596_DS_=0x193
0000015c                     main.o:_00589_DS_:
0000015c defa                MOVIA    0x5
0000015d e0fc                BCR      STATUS, BK0
0000015e fbdc                SUBAR    0x23, ToAcc
0000015f f6fc                BTRSS    STATUS, Z
00000160 c69c                LGOTO    0x163; main.o:_00645_DS_=0x163
00000161 de91                MOVIA    0x6e
00000162 fbdd                SUBAR    0x22, ToAcc
00000163                     main.o:_00645_DS_:
00000163 f3fc                BTRSC    STATUS, C
00000164 c696                LGOTO    0x169; main.o:_00586_DS_=0x169
00000165 defd                MOVIA    0x2
00000166 e0fc                BCR      STATUS, BK0
00000167 ff0e                MOVAR    0x71
00000168 c66c                LGOTO    0x193; main.o:_00596_DS_=0x193
00000169                     main.o:_00586_DS_:
00000169 defa                MOVIA    0x5
0000016a e0fc                BCR      STATUS, BK0
0000016b fbdc                SUBAR    0x23, ToAcc
0000016c f6fc                BTRSS    STATUS, Z
0000016d c68f                LGOTO    0x170; main.o:_00646_DS_=0x170
0000016e de55                MOVIA    0xaa
0000016f fbdd                SUBAR    0x22, ToAcc
00000170                     main.o:_00646_DS_:
00000170 f3fc                BTRSC    STATUS, C
00000171 c689                LGOTO    0x176; main.o:_00583_DS_=0x176
00000172 defc                MOVIA    0x3
00000173 e0fc                BCR      STATUS, BK0
00000174 ff0e                MOVAR    0x71
00000175 c66c                LGOTO    0x193; main.o:_00596_DS_=0x193
00000176                     main.o:_00583_DS_:
00000176 defa                MOVIA    0x5
00000177 e0fc                BCR      STATUS, BK0
00000178 fbdc                SUBAR    0x23, ToAcc
00000179 f6fc                BTRSS    STATUS, Z
0000017a c682                LGOTO    0x17d; main.o:_00647_DS_=0x17d
0000017b de19                MOVIA    0xe6
0000017c fbdd                SUBAR    0x22, ToAcc
0000017d                     main.o:_00647_DS_:
0000017d f3fc                BTRSC    STATUS, C
0000017e c67c                LGOTO    0x183; main.o:_00580_DS_=0x183
0000017f defb                MOVIA    0x4
00000180 e0fc                BCR      STATUS, BK0
00000181 ff0e                MOVAR    0x71
00000182 c66c                LGOTO    0x193; main.o:_00596_DS_=0x193
00000183                     main.o:_00580_DS_:
00000183 def9                MOVIA    0x6
00000184 e0fc                BCR      STATUS, BK0
00000185 fbdc                SUBAR    0x23, ToAcc
00000186 f6fc                BTRSS    STATUS, Z
00000187 c675                LGOTO    0x18a; main.o:_00648_DS_=0x18a
00000188 defb                MOVIA    0x4
00000189 fbdd                SUBAR    0x22, ToAcc
0000018a                     main.o:_00648_DS_:
0000018a f3fc                BTRSC    STATUS, C
0000018b c66f                LGOTO    0x190; main.o:_00577_DS_=0x190
0000018c defa                MOVIA    0x5
0000018d e0fc                BCR      STATUS, BK0
0000018e ff0e                MOVAR    0x71
0000018f c66c                LGOTO    0x193; main.o:_00596_DS_=0x193
00000190                     main.o:_00577_DS_:
00000190 def9                MOVIA    0x6
00000191 e0fc                BCR      STATUS, BK0
00000192 ff0e                MOVAR    0x71
00000193                     main.o:_00596_DS_:
00000193 e4fc                BSR      STATUS, BK0
00000194 fede                MOVR     0x21, ToAcc
00000195 f2fc                BTRSC    STATUS, Z
00000196 c662                LGOTO    0x19d; main.o:_00597_DS_=0x19d
00000197 e0fc                BCR      STATUS, BK0
00000198 fe8e                MOVR     0x71, ToAcc
00000199 e4fc                BSR      STATUS, BK0
0000019a fbde                SUBAR    0x21, ToAcc
0000019b f3fc                BTRSC    STATUS, C
0000019c c65e                LGOTO    0x1a1; main.o:_00598_DS_=0x1a1
0000019d                     main.o:_00597_DS_:
0000019d e0fc                BCR      STATUS, BK0
0000019e fe8e                MOVR     0x71, ToAcc
0000019f e4fc                BSR      STATUS, BK0
000001a0 ff5e                MOVAR    0x21
000001a1                     main.o:_00598_DS_:
000001a1 e0fc                BCR      STATUS, BK0
000001a2 fe89                MOVR     0x76, ToAcc
000001a3 f2fc                BTRSC    STATUS, Z
000001a4 c653                LGOTO    0x1ac; main.o:_00603_DS_=0x1ac
000001a5 e4fc                BSR      STATUS, BK0
000001a6 fede                MOVR     0x21, ToAcc
000001a7 f2fc                BTRSC    STATUS, Z
000001a8 c653                LGOTO    0x1ac; main.o:_00603_DS_=0x1ac
000001a9 fede                MOVR     0x21, ToAcc
000001aa e0fc                BCR      STATUS, BK0
000001ab ff0e                MOVAR    0x71
000001ac                     main.o:_00603_DS_:
000001ac ffef                RET
000001ad                     _checkOutA:
000001ad e0fc                BCR      STATUS, BK0
000001ae fd5b                CLRR     0x24
000001af fd5f                CLRR     0x20
000001b0 fd5e                CLRR     0x21
000001b1 def7                MOVIA    0x8
000001b2 d33d                LCALL    0x4c2; _F_AIN4_Convert=0x4c2
000001b3 e0fc                BCR      STATUS, BK0
000001b4 eade                SWAPR    0x21, ToAcc
000001b5 dd0f                ANDIA    0xf0
000001b6 ff5e                MOVAR    0x21
000001b7 eadf                SWAPR    0x20, ToAcc
000001b8 ff5f                MOVAR    0x20
000001b9 ddf0                ANDIA    0xf
000001ba ee5e                IORAR    0x21, ToReg
000001bb ed5f                XORAR    0x20, ToReg
000001bc de0f                MOVIA    0xf0
000001bd ef5b                ANDAR    0x24, ToReg
000001be fedb                MOVR     0x24, ToAcc
000001bf ff47                MOVAR    0x38
000001c0 deff                MOVIA    0x0
000001c1 ff46                MOVAR    0x39
000001c2 fec7                MOVR     0x38, ToAcc
000001c3 fc5f                ADDAR    0x20, ToReg
000001c4 fec6                MOVR     0x39, ToAcc
000001c5 f3fc                BTRSC    STATUS, C
000001c6 fac6                INCR     0x39, ToAcc
000001c7 f2fc                BTRSC    STATUS, Z
000001c8 c635                LGOTO    0x1ca; main.o:_00003_DS_=0x1ca
000001c9 fc5e                ADDAR    0x21, ToReg
000001ca                     main.o:_00003_DS_:
000001ca e3fc                BCR      STATUS, C
000001cb e0fc                BCR      STATUS, BK0
000001cc ec5e                RRR      0x21, ToReg
000001cd ec5f                RRR      0x20, ToReg
000001ce e3fc                BCR      STATUS, C
000001cf ec5e                RRR      0x21, ToReg
000001d0 ec5f                RRR      0x20, ToReg
000001d1 e3fc                BCR      STATUS, C
000001d2 ec5e                RRR      0x21, ToReg
000001d3 ec5f                RRR      0x20, ToReg
000001d4 fedf                MOVR     0x20, ToAcc
000001d5 fc19                ADDAR    0x66, ToReg
000001d6 fede                MOVR     0x21, ToAcc
000001d7 f3fc                BTRSC    STATUS, C
000001d8 fade                INCR     0x21, ToAcc
000001d9 f2fc                BTRSC    STATUS, Z
000001da c623                LGOTO    0x1dc; main.o:_00004_DS_=0x1dc
000001db fc18                ADDAR    0x67, ToReg
000001dc                     main.o:_00004_DS_:
000001dc e4fc                BSR      STATUS, BK0
000001dd fa55                INCR     0x2a, ToReg
000001de def5                MOVIA    0xa
000001df fbd5                SUBAR    0x2a, ToAcc
000001e0 f7fc                BTRSS    STATUS, C
000001e1 c60d                LGOTO    0x1f2; main.o:_00654_DS_=0x1f2
000001e2 fd55                CLRR     0x2a
000001e3 def5                MOVIA    0xa
000001e4 ff3a                MOVAR    0x45
000001e5 deff                MOVIA    0x0
000001e6 ff39                MOVAR    0x46
000001e7 e0fc                BCR      STATUS, BK0
000001e8 fe99                MOVR     0x66, ToAcc
000001e9 ff38                MOVAR    0x47
000001ea fe98                MOVR     0x67, ToAcc
000001eb d40f                LCALL    0x3f0; __divuint=0x3f0
000001ec e0fc                BCR      STATUS, BK0
000001ed ff16                MOVAR    0x69
000001ee feb8                MOVR     0x47, ToAcc
000001ef ff17                MOVAR    0x68
000001f0 fd19                CLRR     0x66
000001f1 fd18                CLRR     0x67
000001f2                     main.o:_00654_DS_:
000001f2 def9                MOVIA    0x6
000001f3 e0fc                BCR      STATUS, BK0
000001f4 fb91                SUBAR    0x6e, ToAcc
000001f5 f3fc                BTRSC    STATUS, C
000001f6 c5f7                LGOTO    0x208; main.o:_00670_DS_=0x208
000001f7 deff                MOVIA    0x0
000001f8 fb96                SUBAR    0x69, ToAcc
000001f9 f6fc                BTRSS    STATUS, Z
000001fa c602                LGOTO    0x1fd; main.o:_00709_DS_=0x1fd
000001fb de36                MOVIA    0xc9
000001fc fb97                SUBAR    0x68, ToAcc
000001fd                     main.o:_00709_DS_:
000001fd f7fc                BTRSS    STATUS, C
000001fe c5f7                LGOTO    0x208; main.o:_00670_DS_=0x208
000001ff e0fc                BCR      STATUS, BK0
00000200 fa0a                INCR     0x75, ToReg
00000201 def9                MOVIA    0x6
00000202 fb8a                SUBAR    0x75, ToAcc
00000203 f7fc                BTRSS    STATUS, C
00000204 c5ca                LGOTO    0x235; main.o:_00671_DS_=0x235
00000205 defa                MOVIA    0x5
00000206 ff0a                MOVAR    0x75
00000207 c5ca                LGOTO    0x235; main.o:_00671_DS_=0x235
00000208                     main.o:_00670_DS_:
00000208 defe                MOVIA    0x1
00000209 e0fc                BCR      STATUS, BK0
0000020a fb96                SUBAR    0x69, ToAcc
0000020b f6fc                BTRSS    STATUS, Z
0000020c c5f0                LGOTO    0x20f; main.o:_00711_DS_=0x20f
0000020d de6e                MOVIA    0x91
0000020e fb97                SUBAR    0x68, ToAcc
0000020f                     main.o:_00711_DS_:
0000020f f7fc                BTRSS    STATUS, C
00000210 c5e5                LGOTO    0x21a; main.o:_00667_DS_=0x21a
00000211 e0fc                BCR      STATUS, BK0
00000212 fa0a                INCR     0x75, ToReg
00000213 def9                MOVIA    0x6
00000214 fb8a                SUBAR    0x75, ToAcc
00000215 f7fc                BTRSS    STATUS, C
00000216 c5ca                LGOTO    0x235; main.o:_00671_DS_=0x235
00000217 defa                MOVIA    0x5
00000218 ff0a                MOVAR    0x75
00000219 c5ca                LGOTO    0x235; main.o:_00671_DS_=0x235
0000021a                     main.o:_00667_DS_:
0000021a deff                MOVIA    0x0
0000021b e0fc                BCR      STATUS, BK0
0000021c fb96                SUBAR    0x69, ToAcc
0000021d f6fc                BTRSS    STATUS, Z
0000021e c5de                LGOTO    0x221; main.o:_00713_DS_=0x221
0000021f de8b                MOVIA    0x74
00000220 fb97                SUBAR    0x68, ToAcc
00000221                     main.o:_00713_DS_:
00000221 f7fc                BTRSS    STATUS, C
00000222 c5ce                LGOTO    0x231; main.o:_00664_DS_=0x231
00000223 e0fc                BCR      STATUS, BK0
00000224 fe8a                MOVR     0x75, ToAcc
00000225 f6fc                BTRSS    STATUS, Z
00000226 f90a                DECR     0x75, ToReg
00000227 def9                MOVIA    0x6
00000228 ff38                MOVAR    0x47
00000229 fe91                MOVR     0x6e, ToAcc
0000022a d2d3                LCALL    0x52c; __mulchar=0x52c
0000022b e0fc                BCR      STATUS, BK0
0000022c ff47                MOVAR    0x38
0000022d dea1                MOVIA    0x5e
0000022e fcc7                ADDAR    0x38, ToAcc
0000022f ff05                MOVAR    0x7a
00000230 c5ca                LGOTO    0x235; main.o:_00671_DS_=0x235
00000231                     main.o:_00664_DS_:
00000231 e0fc                BCR      STATUS, BK0
00000232 fe8a                MOVR     0x75, ToAcc
00000233 f6fc                BTRSS    STATUS, Z
00000234 f90a                DECR     0x75, ToReg
00000235                     main.o:_00671_DS_:
00000235 e0fc                BCR      STATUS, BK0
00000236 fe91                MOVR     0x6e, ToAcc
00000237 f2fc                BTRSC    STATUS, Z
00000238 c5c4                LGOTO    0x23b; main.o:_00675_DS_=0x23b
00000239 fe91                MOVR     0x6e, ToAcc
0000023a ff10                MOVAR    0x6f
0000023b                     main.o:_00675_DS_:
0000023b ffef                RET
0000023c                     _main:
0000023c d2f0                LCALL    0x50f; _initSys=0x50f
0000023d d225                LCALL    0x5da; _initAD=0x5da
0000023e                     main.o:_00167_DS_:
0000023e fffd                CLRWDT
0000023f d462                LCALL    0x39d; _ledShow=0x39d
00000240 e0fc                BCR      STATUS, BK0
00000241 fe91                MOVR     0x6e, ToAcc
00000242 f2fc                BTRSC    STATUS, Z
00000243 c5b2                LGOTO    0x24d; main.o:_00134_DS_=0x24d
00000244 fe88                MOVR     0x77, ToAcc
00000245 fb8f                SUBAR    0x70, ToAcc
00000246 f3fc                BTRSC    STATUS, C
00000247 c5b2                LGOTO    0x24d; main.o:_00134_DS_=0x24d
00000248 f908                DECR     0x77, ToReg
00000249 fe88                MOVR     0x77, ToAcc
0000024a ffb3                SFUN     PWM2DUTY
0000024b fe88                MOVR     0x77, ToAcc
0000024c ff03                MOVAR    0x7c
0000024d                     main.o:_00134_DS_:
0000024d e0fc                BCR      STATUS, BK0
0000024e f795                BTRSS    0x6a, 0x0
0000024f c5c1                LGOTO    0x23e; main.o:_00167_DS_=0x23e
00000250 e395                BCR      0x6a, 0x0
00000251 fe87                MOVR     0x78, ToAcc
00000252 f6fc                BTRSS    STATUS, Z
00000253 c593                LGOTO    0x26c; main.o:_00141_DS_=0x26c
00000254 fe8e                MOVR     0x71, ToAcc
00000255 f6fc                BTRSS    STATUS, Z
00000256 c593                LGOTO    0x26c; main.o:_00141_DS_=0x26c
00000257 fe91                MOVR     0x6e, ToAcc
00000258 f2fc                BTRSC    STATUS, Z
00000259 c593                LGOTO    0x26c; main.o:_00141_DS_=0x26c
0000025a fa1b                INCR     0x64, ToReg
0000025b f2fc                BTRSC    STATUS, Z
0000025c fa1a                INCR     0x65, ToReg
0000025d defc                MOVIA    0x3
0000025e fb9a                SUBAR    0x65, ToAcc
0000025f f6fc                BTRSS    STATUS, Z
00000260 c59c                LGOTO    0x263; main.o:_00235_DS_=0x263
00000261 de17                MOVIA    0xe8
00000262 fb9b                SUBAR    0x64, ToAcc
00000263                     main.o:_00235_DS_:
00000263 f7fc                BTRSS    STATUS, C
00000264 c590                LGOTO    0x26f; main.o:_00142_DS_=0x26f
00000265 e0fc                BCR      STATUS, BK0
00000266 fd1b                CLRR     0x64
00000267 fd1a                CLRR     0x65
00000268 fd11                CLRR     0x6e
00000269 fd10                CLRR     0x6f
0000026a d217                LCALL    0x5e8; _pwmStop=0x5e8
0000026b c590                LGOTO    0x26f; main.o:_00142_DS_=0x26f
0000026c                     main.o:_00141_DS_:
0000026c e0fc                BCR      STATUS, BK0
0000026d fd1b                CLRR     0x64
0000026e fd1a                CLRR     0x65
0000026f                     main.o:_00142_DS_:
0000026f defa                MOVIA    0x5
00000270 e0fc                BCR      STATUS, BK0
00000271 fb8a                SUBAR    0x75, ToAcc
00000272 f7fc                BTRSS    STATUS, C
00000273 c575                LGOTO    0x28a; main.o:_00148_DS_=0x28a
00000274 fe91                MOVR     0x6e, ToAcc
00000275 f2fc                BTRSC    STATUS, Z
00000276 c575                LGOTO    0x28a; main.o:_00148_DS_=0x28a
00000277 fa1d                INCR     0x62, ToReg
00000278 f2fc                BTRSC    STATUS, Z
00000279 fa1c                INCR     0x63, ToReg
0000027a defe                MOVIA    0x1
0000027b fb9c                SUBAR    0x63, ToAcc
0000027c f6fc                BTRSS    STATUS, Z
0000027d c57f                LGOTO    0x280; main.o:_00237_DS_=0x280
0000027e de0a                MOVIA    0xf5
0000027f fb9d                SUBAR    0x62, ToAcc
00000280                     main.o:_00237_DS_:
00000280 f7fc                BTRSS    STATUS, C
00000281 c572                LGOTO    0x28d; main.o:_00149_DS_=0x28d
00000282 e0fc                BCR      STATUS, BK0
00000283 fd0a                CLRR     0x75
00000284 fd1d                CLRR     0x62
00000285 fd1c                CLRR     0x63
00000286 dee6                MOVIA    0x19
00000287 ff01                MOVAR    0x7e
00000288 d7fc                LCALL    0x3; _powerOff=0x3
00000289 c572                LGOTO    0x28d; main.o:_00149_DS_=0x28d
0000028a                     main.o:_00148_DS_:
0000028a e0fc                BCR      STATUS, BK0
0000028b fd1d                CLRR     0x62
0000028c fd1c                CLRR     0x63
0000028d                     main.o:_00149_DS_:
0000028d e0fc                BCR      STATUS, BK0
0000028e f615                BTRSS    0x6a, 0x3
0000028f d53e                LCALL    0x2c1; _keyCtr=0x2c1
00000290                     main.o:_00152_DS_:
00000290 defc                MOVIA    0x3
00000291 e0fc                BCR      STATUS, BK0
00000292 fb8d                SUBAR    0x72, ToAcc
00000293 f7fc                BTRSS    STATUS, C
00000294 d707                LCALL    0xf8; _checkBatAD=0xf8
00000295 d652                LCALL    0x1ad; _checkOutA=0x1ad
00000296 d7f6                LCALL    0x9; _chrgCtr=0x9
00000297 e0fc                BCR      STATUS, BK0
00000298 fe91                MOVR     0x6e, ToAcc
00000299 f6fc                BTRSS    STATUS, Z
0000029a c54a                LGOTO    0x2b5; main.o:_00158_DS_=0x2b5
0000029b fe92                MOVR     0x6d, ToAcc
0000029c f6fc                BTRSS    STATUS, Z
0000029d c54a                LGOTO    0x2b5; main.o:_00158_DS_=0x2b5
0000029e f27a                BTRSC    PORTA, PA3
0000029f c54a                LGOTO    0x2b5; main.o:_00158_DS_=0x2b5
000002a0 fe89                MOVR     0x76, ToAcc
000002a1 f6fc                BTRSS    STATUS, Z
000002a2 c54a                LGOTO    0x2b5; main.o:_00158_DS_=0x2b5
000002a3 fe81                MOVR     0x7e, ToAcc
000002a4 f6fc                BTRSS    STATUS, Z
000002a5 c54a                LGOTO    0x2b5; main.o:_00158_DS_=0x2b5
000002a6 fe87                MOVR     0x78, ToAcc
000002a7 f6fc                BTRSS    STATUS, Z
000002a8 c54a                LGOTO    0x2b5; main.o:_00158_DS_=0x2b5
000002a9 fa23                INCR     0x5c, ToReg
000002aa f2fc                BTRSC    STATUS, Z
000002ab fa22                INCR     0x5d, ToReg
000002ac deff                MOVIA    0x0
000002ad fba2                SUBAR    0x5d, ToAcc
000002ae f6fc                BTRSS    STATUS, Z
000002af c54d                LGOTO    0x2b2; main.o:_00239_DS_=0x2b2
000002b0 deea                MOVIA    0x15
000002b1 fba3                SUBAR    0x5c, ToAcc
000002b2                     main.o:_00239_DS_:
000002b2 f7fc                BTRSS    STATUS, C
000002b3 c54a                LGOTO    0x2b5; main.o:_00158_DS_=0x2b5
000002b4 d390                LCALL    0x46f; _gotoSleep=0x46f
000002b5                     main.o:_00158_DS_:
000002b5 defc                MOVIA    0x3
000002b6 e0fc                BCR      STATUS, BK0
000002b7 fba0                SUBAR    0x5f, ToAcc
000002b8 f6fc                BTRSS    STATUS, Z
000002b9 c543                LGOTO    0x2bc; main.o:_00240_DS_=0x2bc
000002ba de7b                MOVIA    0x84
000002bb fba1                SUBAR    0x5e, ToAcc
000002bc                     main.o:_00240_DS_:
000002bc f7fc                BTRSS    STATUS, C
000002bd c5c1                LGOTO    0x23e; main.o:_00167_DS_=0x23e
000002be d7fc                LCALL    0x3; _powerOff=0x3
000002bf c5c1                LGOTO    0x23e; main.o:_00167_DS_=0x23e
000002c0 ffef                RET
000002c1                     _keyCtr:
000002c1 e0fc                BCR      STATUS, BK0
000002c2 f8fa                COMR     PORTA, ToAcc
000002c3 ff59                MOVAR    0x26
000002c4 de7f                MOVIA    0x80
000002c5 ef59                ANDAR    0x26, ToReg
000002c6 fed9                MOVR     0x26, ToAcc
000002c7 d316                LCALL    0x4e9; _keyRead=0x4e9
000002c8 e0fc                BCR      STATUS, BK0
000002c9 ff59                MOVAR    0x26
000002ca dbfe                XORIA    0x1
000002cb f6fc                BTRSS    STATUS, Z
000002cc c4e5                LGOTO    0x31a; main.o:_00277_DS_=0x31a
000002cd fd13                CLRR     0x6c
000002ce fd09                CLRR     0x76
000002cf fe91                MOVR     0x6e, ToAcc
000002d0 f6fc                BTRSS    STATUS, Z
000002d1 c527                LGOTO    0x2d8; main.o:_00246_DS_=0x2d8
000002d2 fd0c                CLRR     0x73
000002d3 defc                MOVIA    0x3
000002d4 ff09                MOVAR    0x76
000002d5 e4fc                BSR      STATUS, BK0
000002d6 fd5e                CLRR     0x21
000002d7 c4bf                LGOTO    0x340; main.o:_00279_DS_=0x340
000002d8                     main.o:_00246_DS_:
000002d8 e0fc                BCR      STATUS, BK0
000002d9 fd0b                CLRR     0x74
000002da fa11                INCR     0x6e, ToReg
000002db def9                MOVIA    0x6
000002dc fb91                SUBAR    0x6e, ToAcc
000002dd f7fc                BTRSS    STATUS, C
000002de c51e                LGOTO    0x2e1; main.o:_00248_DS_=0x2e1
000002df defe                MOVIA    0x1
000002e0 ff11                MOVAR    0x6e
000002e1                     main.o:_00248_DS_:
000002e1 e0fc                BCR      STATUS, BK0
000002e2 fe8e                MOVR     0x71, ToAcc
000002e3 f6fc                BTRSS    STATUS, Z
000002e4 c518                LGOTO    0x2e7; main.o:_00250_DS_=0x2e7
000002e5 def5                MOVIA    0xa
000002e6 ff07                MOVAR    0x78
000002e7                     main.o:_00250_DS_:
000002e7 e0fc                BCR      STATUS, BK0
000002e8 fe91                MOVR     0x6e, ToAcc
000002e9 dbfe                XORIA    0x1
000002ea f6fc                BTRSS    STATUS, Z
000002eb c50f                LGOTO    0x2f0; main.o:_00263_DS_=0x2f0
000002ec de98                MOVIA    0x67
000002ed ff0f                MOVAR    0x70
000002ee fd09                CLRR     0x76
000002ef c4f0                LGOTO    0x30f; main.o:_00264_DS_=0x30f
000002f0                     main.o:_00263_DS_:
000002f0 e0fc                BCR      STATUS, BK0
000002f1 fe91                MOVR     0x6e, ToAcc
000002f2 dbfd                XORIA    0x2
000002f3 f6fc                BTRSS    STATUS, Z
000002f4 c507                LGOTO    0x2f8; main.o:_00260_DS_=0x2f8
000002f5 de92                MOVIA    0x6d
000002f6 ff0f                MOVAR    0x70
000002f7 c4f0                LGOTO    0x30f; main.o:_00264_DS_=0x30f
000002f8                     main.o:_00260_DS_:
000002f8 e0fc                BCR      STATUS, BK0
000002f9 fe91                MOVR     0x6e, ToAcc
000002fa dbfc                XORIA    0x3
000002fb f6fc                BTRSS    STATUS, Z
000002fc c4ff                LGOTO    0x300; main.o:_00257_DS_=0x300
000002fd de8d                MOVIA    0x72
000002fe ff0f                MOVAR    0x70
000002ff c4f0                LGOTO    0x30f; main.o:_00264_DS_=0x30f
00000300                     main.o:_00257_DS_:
00000300 e0fc                BCR      STATUS, BK0
00000301 fe91                MOVR     0x6e, ToAcc
00000302 dbfb                XORIA    0x4
00000303 f6fc                BTRSS    STATUS, Z
00000304 c4f7                LGOTO    0x308; main.o:_00254_DS_=0x308
00000305 de88                MOVIA    0x77
00000306 ff0f                MOVAR    0x70
00000307 c4f0                LGOTO    0x30f; main.o:_00264_DS_=0x30f
00000308                     main.o:_00254_DS_:
00000308 e0fc                BCR      STATUS, BK0
00000309 fe91                MOVR     0x6e, ToAcc
0000030a dbfa                XORIA    0x5
0000030b f6fc                BTRSS    STATUS, Z
0000030c c4f0                LGOTO    0x30f; main.o:_00264_DS_=0x30f
0000030d de83                MOVIA    0x7c
0000030e ff0f                MOVAR    0x70
0000030f                     main.o:_00264_DS_:
0000030f e0fc                BCR      STATUS, BK0
00000310 fe91                MOVR     0x6e, ToAcc
00000311 f2fc                BTRSC    STATUS, Z
00000312 c4e9                LGOTO    0x316; main.o:_00266_DS_=0x316
00000313 fe8f                MOVR     0x70, ToAcc
00000314 ffb3                SFUN     PWM2DUTY
00000315 d23e                LCALL    0x5c1; _pwmInit=0x5c1
00000316                     main.o:_00266_DS_:
00000316 e0fc                BCR      STATUS, BK0
00000317 fe91                MOVR     0x6e, ToAcc
00000318 ff10                MOVAR    0x6f
00000319 c4bf                LGOTO    0x340; main.o:_00279_DS_=0x340
0000031a                     main.o:_00277_DS_:
0000031a e0fc                BCR      STATUS, BK0
0000031b fed9                MOVR     0x26, ToAcc
0000031c dbfd                XORIA    0x2
0000031d f6fc                BTRSS    STATUS, Z
0000031e c4bf                LGOTO    0x340; main.o:_00279_DS_=0x340
0000031f fe91                MOVR     0x6e, ToAcc
00000320 f2fc                BTRSC    STATUS, Z
00000321 c4db                LGOTO    0x324; main.o:_00272_DS_=0x324
00000322 d7fc                LCALL    0x3; _powerOff=0x3
00000323 c4c2                LGOTO    0x33d; main.o:_00273_DS_=0x33d
00000324                     main.o:_00272_DS_:
00000324 e0fc                BCR      STATUS, BK0
00000325 fe8e                MOVR     0x71, ToAcc
00000326 dbf5                XORIA    0xa
00000327 f6fc                BTRSS    STATUS, Z
00000328 c4d3                LGOTO    0x32c; main.o:_00268_DS_=0x32c
00000329 fd23                CLRR     0x5c
0000032a fd22                CLRR     0x5d
0000032b c4bf                LGOTO    0x340; main.o:_00279_DS_=0x340
0000032c                     main.o:_00268_DS_:
0000032c e0fc                BCR      STATUS, BK0
0000032d fd09                CLRR     0x76
0000032e defe                MOVIA    0x1
0000032f ff10                MOVAR    0x6f
00000330 ff11                MOVAR    0x6e
00000331 de87                MOVIA    0x78
00000332 ffb3                SFUN     PWM2DUTY
00000333 ff08                MOVAR    0x77
00000334 de98                MOVIA    0x67
00000335 ff0f                MOVAR    0x70
00000336 d23e                LCALL    0x5c1; _pwmInit=0x5c1
00000337 e0fc                BCR      STATUS, BK0
00000338 fe8e                MOVR     0x71, ToAcc
00000339 f6fc                BTRSS    STATUS, Z
0000033a c4c2                LGOTO    0x33d; main.o:_00273_DS_=0x33d
0000033b def5                MOVIA    0xa
0000033c ff07                MOVAR    0x78
0000033d                     main.o:_00273_DS_:
0000033d e0fc                BCR      STATUS, BK0
0000033e fe91                MOVR     0x6e, ToAcc
0000033f ff10                MOVAR    0x6f
00000340                     main.o:_00279_DS_:
00000340 ffef                RET
00000341                     _isr:
00000341 ff3d                MOVAR    0x42
00000342 eafc                SWAPR    STATUS, ToAcc
00000343 fd7c                CLRR     STATUS
00000344 ff3e                MOVAR    0x41
00000345 fef5                MOVR     PCHBUF, ToAcc
00000346 fd75                CLRR     PCHBUF
00000347 ff3f                MOVAR    0x40
00000348 fefb                MOVR     FSR, ToAcc
00000349 e0fc                BCR      STATUS, BK0
0000034a ff28                MOVAR    0x57
0000034b feb8                MOVR     0x47, ToAcc
0000034c ff27                MOVAR    0x58
0000034d feb9                MOVR     0x46, ToAcc
0000034e ff26                MOVAR    0x59
0000034f f7f0                BTRSS    INTF, T0IF
00000350 c476                LGOTO    0x389; main.o:_00126_DS_=0x389
00000351 dec8                MOVIA    0x37
00000352 fc7e                ADDAR    TMR0, ToReg
00000353 fa14                INCR     0x6b, ToReg
00000354 de9b                MOVIA    0x64
00000355 fb94                SUBAR    0x6b, ToAcc
00000356 f7fc                BTRSS    STATUS, C
00000357 c476                LGOTO    0x389; main.o:_00126_DS_=0x389
00000358 e795                BSR      0x6a, 0x0
00000359 fd14                CLRR     0x6b
0000035a fa13                INCR     0x6c, ToReg
0000035b ded7                MOVIA    0x28
0000035c fb93                SUBAR    0x6c, ToAcc
0000035d f3fc                BTRSC    STATUS, C
0000035e fd13                CLRR     0x6c
0000035f fa0d                INCR     0x72, ToReg
00000360 deeb                MOVIA    0x14
00000361 fb8d                SUBAR    0x72, ToAcc
00000362 f7fc                BTRSS    STATUS, C
00000363 c497                LGOTO    0x368; main.o:_00110_DS_=0x368
00000364 fd0d                CLRR     0x72
00000365 fe81                MOVR     0x7e, ToAcc
00000366 f6fc                BTRSS    STATUS, Z
00000367 f901                DECR     0x7e, ToReg
00000368                     main.o:_00110_DS_:
00000368 e0fc                BCR      STATUS, BK0
00000369 fa0c                INCR     0x73, ToReg
0000036a de9b                MOVIA    0x64
0000036b fb8c                SUBAR    0x73, ToAcc
0000036c f7fc                BTRSS    STATUS, C
0000036d c476                LGOTO    0x389; main.o:_00126_DS_=0x389
0000036e fd0c                CLRR     0x73
0000036f f615                BTRSS    0x6a, 0x3
00000370 c487                LGOTO    0x378; main.o:_00112_DS_=0x378
00000371 fe8e                MOVR     0x71, ToAcc
00000372 dbf9                XORIA    0x6
00000373 f6fc                BTRSS    STATUS, Z
00000374 c487                LGOTO    0x378; main.o:_00112_DS_=0x378
00000375 fa25                INCR     0x5a, ToReg
00000376 f2fc                BTRSC    STATUS, Z
00000377 fa24                INCR     0x5b, ToReg
00000378                     main.o:_00112_DS_:
00000378 e0fc                BCR      STATUS, BK0
00000379 fe89                MOVR     0x76, ToAcc
0000037a f6fc                BTRSS    STATUS, Z
0000037b f909                DECR     0x76, ToReg
0000037c fe87                MOVR     0x78, ToAcc
0000037d f6fc                BTRSS    STATUS, Z
0000037e f907                DECR     0x78, ToReg
0000037f fe91                MOVR     0x6e, ToAcc
00000380 f2fc                BTRSC    STATUS, Z
00000381 c479                LGOTO    0x386; main.o:_00119_DS_=0x386
00000382 fa21                INCR     0x5e, ToReg
00000383 f2fc                BTRSC    STATUS, Z
00000384 fa20                INCR     0x5f, ToReg
00000385 c476                LGOTO    0x389; main.o:_00126_DS_=0x389
00000386                     main.o:_00119_DS_:
00000386 e0fc                BCR      STATUS, BK0
00000387 fd21                CLRR     0x5e
00000388 fd20                CLRR     0x5f
00000389                     main.o:_00126_DS_:
00000389 f770                BTRSS    INTF, PABIF
0000038a c472                LGOTO    0x38d; main.o:_00128_DS_=0x38d
0000038b de02                MOVIA    0xfd
0000038c ff70                MOVAR    INTF
0000038d                     main.o:_00128_DS_:
0000038d fd70                CLRR     INTF
0000038e e0fc                BCR      STATUS, BK0
0000038f fea6                MOVR     0x59, ToAcc
00000390 ff39                MOVAR    0x46
00000391 fea7                MOVR     0x58, ToAcc
00000392 ff38                MOVAR    0x47
00000393 fea8                MOVR     0x57, ToAcc
00000394 ff7b                MOVAR    FSR
00000395 febf                MOVR     0x40, ToAcc
00000396 ff75                MOVAR    PCHBUF
00000397 fd7c                CLRR     STATUS
00000398 eabe                SWAPR    0x41, ToAcc
00000399 ff7c                MOVAR    STATUS
0000039a ea3d                SWAPR    0x42, ToReg
0000039b eabd                SWAPR    0x42, ToAcc
0000039c                     main.o:END_OF_INTERRUPT:
0000039c ffee                RETIE
0000039d                     _ledShow:
0000039d e0fc                BCR      STATUS, BK0
0000039e fe81                MOVR     0x7e, ToAcc
0000039f f2fc                BTRSC    STATUS, Z
000003a0 c454                LGOTO    0x3ab; main.o:_00296_DS_=0x3ab
000003a1 fe91                MOVR     0x6e, ToAcc
000003a2 f6fc                BTRSS    STATUS, Z
000003a3 c454                LGOTO    0x3ab; main.o:_00296_DS_=0x3ab
000003a4 f381                BTRSC    0x7e, 0x0
000003a5 c457                LGOTO    0x3a8; main.o:_00293_DS_=0x3a8
000003a6 fd10                CLRR     0x6f
000003a7 c454                LGOTO    0x3ab; main.o:_00296_DS_=0x3ab
000003a8                     main.o:_00293_DS_:
000003a8 e0fc                BCR      STATUS, BK0
000003a9 fe82                MOVR     0x7d, ToAcc
000003aa ff10                MOVAR    0x6f
000003ab                     main.o:_00296_DS_:
000003ab e0fc                BCR      STATUS, BK0
000003ac fe89                MOVR     0x76, ToAcc
000003ad f2fc                BTRSC    STATUS, Z
000003ae c440                LGOTO    0x3bf; main.o:_00304_DS_=0x3bf
000003af fe8e                MOVR     0x71, ToAcc
000003b0 f2fc                BTRSC    STATUS, Z
000003b1 c440                LGOTO    0x3bf; main.o:_00304_DS_=0x3bf
000003b2 fe89                MOVR     0x76, ToAcc
000003b3 f2fc                BTRSC    STATUS, Z
000003b4 c440                LGOTO    0x3bf; main.o:_00304_DS_=0x3bf
000003b5 def8                MOVIA    0x7
000003b6 fb8e                SUBAR    0x71, ToAcc
000003b7 f7fc                BTRSS    STATUS, C
000003b8 c443                LGOTO    0x3bc; main.o:_00299_DS_=0x3bc
000003b9 def9                MOVIA    0x6
000003ba ff10                MOVAR    0x6f
000003bb c440                LGOTO    0x3bf; main.o:_00304_DS_=0x3bf
000003bc                     main.o:_00299_DS_:
000003bc e0fc                BCR      STATUS, BK0
000003bd fe8e                MOVR     0x71, ToAcc
000003be ff10                MOVAR    0x6f
000003bf                     main.o:_00304_DS_:
000003bf e0fc                BCR      STATUS, BK0
000003c0 fe87                MOVR     0x78, ToAcc
000003c1 f2fc                BTRSC    STATUS, Z
000003c2 c42d                LGOTO    0x3d2; main.o:_00310_DS_=0x3d2
000003c3 fe91                MOVR     0x6e, ToAcc
000003c4 f2fc                BTRSC    STATUS, Z
000003c5 c42d                LGOTO    0x3d2; main.o:_00310_DS_=0x3d2
000003c6 fe8e                MOVR     0x71, ToAcc
000003c7 f6fc                BTRSS    STATUS, Z
000003c8 c42d                LGOTO    0x3d2; main.o:_00310_DS_=0x3d2
000003c9 decd                MOVIA    0x32
000003ca fb8c                SUBAR    0x73, ToAcc
000003cb f3fc                BTRSC    STATUS, C
000003cc c42f                LGOTO    0x3d0; main.o:_00307_DS_=0x3d0
000003cd fe91                MOVR     0x6e, ToAcc
000003ce ff10                MOVAR    0x6f
000003cf c42d                LGOTO    0x3d2; main.o:_00310_DS_=0x3d2
000003d0                     main.o:_00307_DS_:
000003d0 e0fc                BCR      STATUS, BK0
000003d1 fd10                CLRR     0x6f
000003d2                     main.o:_00310_DS_:
000003d2 d25d                LCALL    0x5a2; _LedInput=0x5a2
000003d3 def6                MOVIA    0x9
000003d4 e0fc                BCR      STATUS, BK0
000003d5 fb90                SUBAR    0x6f, ToAcc
000003d6 f3fc                BTRSC    STATUS, C
000003d7 c410                LGOTO    0x3ef; main.o:_00323_DS_=0x3ef
000003d8 defc                MOVIA    0x3
000003d9 ff75                MOVAR    PCHBUF
000003da fe90                MOVR     0x6f, ToAcc
000003db da20                ADDIA    0xdf
000003dc f3fc                BTRSC    STATUS, C
000003dd fa75                INCR     PCHBUF, ToReg
000003de ff7d                MOVAR    PCL
000003df                     main.o:_00364_DS_:
000003df c417                LGOTO    0x3e8; main.o:_00313_DS_=0x3e8
000003e0 c411                LGOTO    0x3ee; main.o:_00321_DS_=0x3ee
000003e1 c412                LGOTO    0x3ed; main.o:_00320_DS_=0x3ed
000003e2 c413                LGOTO    0x3ec; main.o:_00319_DS_=0x3ec
000003e3 c414                LGOTO    0x3eb; main.o:_00318_DS_=0x3eb
000003e4 c415                LGOTO    0x3ea; main.o:_00317_DS_=0x3ea
000003e5 c415                LGOTO    0x3ea; main.o:_00317_DS_=0x3ea
000003e6 c415                LGOTO    0x3ea; main.o:_00317_DS_=0x3ea
000003e7 c415                LGOTO    0x3ea; main.o:_00317_DS_=0x3ea
000003e8                     main.o:_00313_DS_:
000003e8 d25d                LCALL    0x5a2; _LedInput=0x5a2
000003e9 c410                LGOTO    0x3ef; main.o:_00323_DS_=0x3ef
000003ea                     main.o:_00317_DS_:
000003ea d26e                LCALL    0x591; _LED5ON=0x591
000003eb                     main.o:_00318_DS_:
000003eb d2ba                LCALL    0x545; _LED4ON=0x545
000003ec                     main.o:_00319_DS_:
000003ec d2a7                LCALL    0x558; _LED3ON=0x558
000003ed                     main.o:_00320_DS_:
000003ed d294                LCALL    0x56b; _LED2ON=0x56b
000003ee                     main.o:_00321_DS_:
000003ee d281                LCALL    0x57e; _LED1ON=0x57e
000003ef                     main.o:_00323_DS_:
000003ef ffef                RET
000003f0                     __divuint:
000003f0 e0fc                BCR      STATUS, BK0
000003f1 ff2f                MOVAR    0x50
000003f2 feb8                MOVR     0x47, ToAcc
000003f3 ff30                MOVAR    0x4f
000003f4 feb9                MOVR     0x46, ToAcc
000003f5 ff2d                MOVAR    0x52
000003f6 feba                MOVR     0x45, ToAcc
000003f7 ff2e                MOVAR    0x51
000003f8 fd2c                CLRR     0x53
000003f9 fd2b                CLRR     0x54
000003fa defe                MOVIA    0x1
000003fb ff2a                MOVAR    0x55
000003fc fd29                CLRR     0x56
000003fd feae                MOVR     0x51, ToAcc
000003fe eead                IORAR    0x52, ToAcc
000003ff f6fc                BTRSS    STATUS, Z
00000400 c3fb                LGOTO    0x404; _divuint.o:_00107_DS_=0x404
00000401 de00                MOVIA    0xff
00000402 ff38                MOVAR    0x47
00000403 c3c6                LGOTO    0x439; _divuint.o:_00115_DS_=0x439
00000404                     _divuint.o:_00107_DS_:
00000404 e0fc                BCR      STATUS, BK0
00000405 f02d                BTRSC    0x52, 0x7
00000406 c3f1                LGOTO    0x40e; _divuint.o:_00112_DS_=0x40e
00000407 e3fc                BCR      STATUS, C
00000408 eb2e                RLR      0x51, ToReg
00000409 eb2d                RLR      0x52, ToReg
0000040a e3fc                BCR      STATUS, C
0000040b eb2a                RLR      0x55, ToReg
0000040c eb29                RLR      0x56, ToReg
0000040d c3fb                LGOTO    0x404; _divuint.o:_00107_DS_=0x404
0000040e                     _divuint.o:_00112_DS_:
0000040e e0fc                BCR      STATUS, BK0
0000040f feaa                MOVR     0x55, ToAcc
00000410 eea9                IORAR    0x56, ToAcc
00000411 f2fc                BTRSC    STATUS, Z
00000412 c3ca                LGOTO    0x435; _divuint.o:_00114_DS_=0x435
00000413 fead                MOVR     0x52, ToAcc
00000414 fbaf                SUBAR    0x50, ToAcc
00000415 f6fc                BTRSS    STATUS, Z
00000416 c3e6                LGOTO    0x419; _divuint.o:_00135_DS_=0x419
00000417 feae                MOVR     0x51, ToAcc
00000418 fbb0                SUBAR    0x4f, ToAcc
00000419                     _divuint.o:_00135_DS_:
00000419 f7fc                BTRSS    STATUS, C
0000041a c3d2                LGOTO    0x42d; _divuint.o:_00002_DS_=0x42d
0000041b e0fc                BCR      STATUS, BK0
0000041c feaa                MOVR     0x55, ToAcc
0000041d fc2c                ADDAR    0x53, ToReg
0000041e fea9                MOVR     0x56, ToAcc
0000041f f3fc                BTRSC    STATUS, C
00000420 faa9                INCR     0x56, ToAcc
00000421 f2fc                BTRSC    STATUS, Z
00000422 c3db                LGOTO    0x424; _divuint.o:_00001_DS_=0x424
00000423 fc2b                ADDAR    0x54, ToReg
00000424                     _divuint.o:_00001_DS_:
00000424 e0fc                BCR      STATUS, BK0
00000425 feae                MOVR     0x51, ToAcc
00000426 fb30                SUBAR    0x4f, ToReg
00000427 fead                MOVR     0x52, ToAcc
00000428 f7fc                BTRSS    STATUS, C
00000429 faad                INCR     0x52, ToAcc
0000042a f2fc                BTRSC    STATUS, Z
0000042b c3d2                LGOTO    0x42d; _divuint.o:_00002_DS_=0x42d
0000042c fb2f                SUBAR    0x50, ToReg
0000042d                     _divuint.o:_00002_DS_:
0000042d e3fc                BCR      STATUS, C
0000042e e0fc                BCR      STATUS, BK0
0000042f ec2d                RRR      0x52, ToReg
00000430 ec2e                RRR      0x51, ToReg
00000431 e3fc                BCR      STATUS, C
00000432 ec29                RRR      0x56, ToReg
00000433 ec2a                RRR      0x55, ToReg
00000434 c3f1                LGOTO    0x40e; _divuint.o:_00112_DS_=0x40e
00000435                     _divuint.o:_00114_DS_:
00000435 e0fc                BCR      STATUS, BK0
00000436 feac                MOVR     0x53, ToAcc
00000437 ff38                MOVAR    0x47
00000438 feab                MOVR     0x54, ToAcc
00000439                     _divuint.o:_00115_DS_:
00000439 ffef                RET
0000043a                     ___cinit_load__:
0000043a e0fc                BCR      STATUS, BK0
0000043b fd15                CLRR     0x6a
0000043c fd14                CLRR     0x6b
0000043d fd13                CLRR     0x6c
0000043e fd12                CLRR     0x6d
0000043f fd11                CLRR     0x6e
00000440 fd10                CLRR     0x6f
00000441 fd0f                CLRR     0x70
00000442 fd0e                CLRR     0x71
00000443 fd25                CLRR     0x5a
00000444 fd24                CLRR     0x5b
00000445 fd23                CLRR     0x5c
00000446 fd22                CLRR     0x5d
00000447 fd0d                CLRR     0x72
00000448 fd0c                CLRR     0x73
00000449 fd21                CLRR     0x5e
0000044a fd20                CLRR     0x5f
0000044b fd0b                CLRR     0x74
0000044c fd0a                CLRR     0x75
0000044d fd09                CLRR     0x76
0000044e fd08                CLRR     0x77
0000044f fd1f                CLRR     0x60
00000450 fd1e                CLRR     0x61
00000451 fd07                CLRR     0x78
00000452 fd06                CLRR     0x79
00000453 fd05                CLRR     0x7a
00000454 fd04                CLRR     0x7b
00000455 fd03                CLRR     0x7c
00000456 fd02                CLRR     0x7d
00000457 fd1d                CLRR     0x62
00000458 fd1c                CLRR     0x63
00000459 fd01                CLRR     0x7e
0000045a fd00                CLRR     0x7f
0000045b fd1b                CLRR     0x64
0000045c fd1a                CLRR     0x65
0000045d fd19                CLRR     0x66
0000045e fd18                CLRR     0x67
0000045f fd17                CLRR     0x68
00000460 fd16                CLRR     0x69
00000461 e4fc                BSR      STATUS, BK0
00000462 fd5f                CLRR     0x20
00000463 fd5e                CLRR     0x21
00000464 fd5d                CLRR     0x22
00000465 fd5c                CLRR     0x23
00000466 fd5b                CLRR     0x24
00000467 fd5a                CLRR     0x25
00000468 fd59                CLRR     0x26
00000469 fd58                CLRR     0x27
0000046a fd57                CLRR     0x28
0000046b fd56                CLRR     0x29
0000046c fd55                CLRR     0x2a
0000046d fd54                CLRR     0x2b
0000046e ffef                RET
0000046f                     _gotoSleep:
0000046f e0fc                BCR      STATUS, BK0
00000470 fd21                CLRR     0x5e
00000471 fd20                CLRR     0x5f
00000472 d25d                LCALL    0x5a2; _LedInput=0x5a2
00000473 e0fc                BCR      STATUS, BK0
00000474 fd23                CLRR     0x5c
00000475 fd22                CLRR     0x5d
00000476 d217                LCALL    0x5e8; _pwmStop=0x5e8
00000477 d214                LCALL    0x5eb; _pwm1Stop=0x5eb
00000478 de37                MOVIA    0xc8
00000479 fffa                IOST     IOSTA
0000047a deb9                MOVIA    0x46
0000047b e0fc                BCR      STATUS, BK0
0000047c ff7a                MOVAR    PORTA
0000047d dec0                MOVIA    0x3f
0000047e fff6                IOST     APHCON
0000047f fd79                CLRR     PORTB
00000480 fd11                CLRR     0x6e
00000481 de77                MOVIA    0x88
00000482 ff6a                MOVAR    AWUCON
00000483 fd76                CLRR     BWUCON
00000484 e295                BCR      0x6a, 0x2
00000485 defd                MOVIA    0x2
00000486 ff71                MOVAR    INTE
00000487 dee7                MOVIA    0x18
00000488 ff77                MOVAR    PCON
00000489 fd70                CLRR     INTF
0000048a fffd                CLRWDT
0000048b fffb                ENI
0000048c fffe                SLEEP
0000048d fd6a                CLRR     AWUCON
0000048e de41                MOVIA    0xbe
0000048f fffa                IOST     IOSTA
00000490 fdff                CLRA
00000491 fff9                IOST     IOSTB
00000492 fd7a                CLRR     PORTA
00000493 de80                MOVIA    0x7f
00000494 fff6                IOST     APHCON
00000495 defe                MOVIA    0x1
00000496 ff71                MOVAR    INTE
00000497 fd70                CLRR     INTF
00000498 de47                MOVIA    0xb8
00000499 ff77                MOVAR    PCON
0000049a ffef                RET
0000049b                     _F_AIN2_Convert:
0000049b e0fc                BCR      STATUS, BK0
0000049c ff41                MOVAR    0x3e
0000049d fd5a                CLRR     0x25
0000049e fd5d                CLRR     0x22
0000049f fd5c                CLRR     0x23
000004a0 de6d                MOVIA    0x92
000004a1 ff6f                MOVAR    ADMD
000004a2 de37                MOVIA    0xc8
000004a3 d231                LCALL    0x5ce; _delay=0x5ce
000004a4 defe                MOVIA    0x1
000004a5 e0fc                BCR      STATUS, BK0
000004a6 ff40                MOVAR    0x3f
000004a7                     main.o:_00729_DS_:
000004a7 e0fc                BCR      STATUS, BK0
000004a8 fec0                MOVR     0x3f, ToAcc
000004a9 fbc1                SUBAR    0x3e, ToAcc
000004aa f7fc                BTRSS    STATUS, C
000004ab c33e                LGOTO    0x4c1; main.o:_00731_DS_=0x4c1
000004ac e4ef                BSR      ADMD, START
000004ad d21a                LCALL    0x5e5; _F_wait_eoc=0x5e5
000004ae def0                MOVIA    0xf
000004af efee                ANDAR    ADR, ToAcc
000004b0 e0fc                BCR      STATUS, BK0
000004b1 fc5a                ADDAR    0x25, ToReg
000004b2 feed                MOVR     ADD, ToAcc
000004b3 ff37                MOVAR    0x48
000004b4 deff                MOVIA    0x0
000004b5 ff36                MOVAR    0x49
000004b6 feb7                MOVR     0x48, ToAcc
000004b7 fc5d                ADDAR    0x22, ToReg
000004b8 feb6                MOVR     0x49, ToAcc
000004b9 f3fc                BTRSC    STATUS, C
000004ba fab6                INCR     0x49, ToAcc
000004bb f2fc                BTRSC    STATUS, Z
000004bc c341                LGOTO    0x4be; main.o:_00001_DS_=0x4be
000004bd fc5c                ADDAR    0x23, ToReg
000004be                     main.o:_00001_DS_:
000004be e0fc                BCR      STATUS, BK0
000004bf fa40                INCR     0x3f, ToReg
000004c0 c358                LGOTO    0x4a7; main.o:_00729_DS_=0x4a7
000004c1                     main.o:_00731_DS_:
000004c1 ffef                RET
000004c2                     _F_AIN4_Convert:
000004c2 e0fc                BCR      STATUS, BK0
000004c3 ff45                MOVAR    0x3a
000004c4 fd5b                CLRR     0x24
000004c5 fd5f                CLRR     0x20
000004c6 fd5e                CLRR     0x21
000004c7 de6b                MOVIA    0x94
000004c8 ff6f                MOVAR    ADMD
000004c9 de37                MOVIA    0xc8
000004ca d231                LCALL    0x5ce; _delay=0x5ce
000004cb defe                MOVIA    0x1
000004cc e0fc                BCR      STATUS, BK0
000004cd ff44                MOVAR    0x3b
000004ce                     main.o:_00720_DS_:
000004ce e0fc                BCR      STATUS, BK0
000004cf fec4                MOVR     0x3b, ToAcc
000004d0 fbc5                SUBAR    0x3a, ToAcc
000004d1 f7fc                BTRSS    STATUS, C
000004d2 c317                LGOTO    0x4e8; main.o:_00722_DS_=0x4e8
000004d3 e4ef                BSR      ADMD, START
000004d4 d21a                LCALL    0x5e5; _F_wait_eoc=0x5e5
000004d5 def0                MOVIA    0xf
000004d6 efee                ANDAR    ADR, ToAcc
000004d7 e0fc                BCR      STATUS, BK0
000004d8 fc5b                ADDAR    0x24, ToReg
000004d9 feed                MOVR     ADD, ToAcc
000004da ff43                MOVAR    0x3c
000004db deff                MOVIA    0x0
000004dc ff42                MOVAR    0x3d
000004dd fec3                MOVR     0x3c, ToAcc
000004de fc5f                ADDAR    0x20, ToReg
000004df fec2                MOVR     0x3d, ToAcc
000004e0 f3fc                BTRSC    STATUS, C
000004e1 fac2                INCR     0x3d, ToAcc
000004e2 f2fc                BTRSC    STATUS, Z
000004e3 c31a                LGOTO    0x4e5; main.o:_00002_DS_=0x4e5
000004e4 fc5e                ADDAR    0x21, ToReg
000004e5                     main.o:_00002_DS_:
000004e5 e0fc                BCR      STATUS, BK0
000004e6 fa44                INCR     0x3b, ToReg
000004e7 c331                LGOTO    0x4ce; main.o:_00720_DS_=0x4ce
000004e8                     main.o:_00722_DS_:
000004e8 ffef                RET
000004e9                     _keyRead:
000004e9 e0fc                BCR      STATUS, BK0
000004ea ff50                MOVAR    0x2f
000004eb fed0                MOVR     0x2f, ToAcc
000004ec f2fc                BTRSC    STATUS, Z
000004ed c305                LGOTO    0x4fa; main.o:_00429_DS_=0x4fa
000004ee fa12                INCR     0x6d, ToReg
000004ef de9b                MOVIA    0x64
000004f0 fb92                SUBAR    0x6d, ToAcc
000004f1 f7fc                BTRSS    STATUS, C
000004f2 c2f2                LGOTO    0x50d; main.o:_00430_DS_=0x50d
000004f3 de9b                MOVIA    0x64
000004f4 ff12                MOVAR    0x6d
000004f5 f315                BTRSC    0x6a, 0x1
000004f6 c2f2                LGOTO    0x50d; main.o:_00430_DS_=0x50d
000004f7 e715                BSR      0x6a, 0x1
000004f8 defd                MOVIA    0x2
000004f9 c2f1                LGOTO    0x50e; main.o:_00431_DS_=0x50e
000004fa                     main.o:_00429_DS_:
000004fa de9b                MOVIA    0x64
000004fb e0fc                BCR      STATUS, BK0
000004fc fb92                SUBAR    0x6d, ToAcc
000004fd f7fc                BTRSS    STATUS, C
000004fe c2fc                LGOTO    0x503; main.o:_00426_DS_=0x503
000004ff fd12                CLRR     0x6d
00000500 e315                BCR      0x6a, 0x1
00000501 deff                MOVIA    0x0
00000502 c2f1                LGOTO    0x50e; main.o:_00431_DS_=0x50e
00000503                     main.o:_00426_DS_:
00000503 defb                MOVIA    0x4
00000504 e0fc                BCR      STATUS, BK0
00000505 fb92                SUBAR    0x6d, ToAcc
00000506 f7fc                BTRSS    STATUS, C
00000507 c2f4                LGOTO    0x50b; main.o:_00427_DS_=0x50b
00000508 fd12                CLRR     0x6d
00000509 defe                MOVIA    0x1
0000050a c2f1                LGOTO    0x50e; main.o:_00431_DS_=0x50e
0000050b                     main.o:_00427_DS_:
0000050b e0fc                BCR      STATUS, BK0
0000050c fd12                CLRR     0x6d
0000050d                     main.o:_00430_DS_:
0000050d deff                MOVIA    0x0
0000050e                     main.o:_00431_DS_:
0000050e ffef                RET
0000050f                     _initSys:
0000050f ffec                DISI
00000510 de41                MOVIA    0xbe
00000511 fffa                IOST     IOSTA
00000512 def7                MOVIA    0x8
00000513 fff9                IOST     IOSTB
00000514 fd79                CLRR     PORTB
00000515 e0fc                BCR      STATUS, BK0
00000516 fd7a                CLRR     PORTA
00000517 d25d                LCALL    0x5a2; _LedInput=0x5a2
00000518 de80                MOVIA    0x7f
00000519 fff6                IOST     APHCON
0000051a de00                MOVIA    0xff
0000051b ff73                MOVAR    BPHCON
0000051c ff74                MOVAR    ABPLCON
0000051d defe                MOVIA    0x1
0000051e ff71                MOVAR    INTE
0000051f fdff                CLRA
00000520 fff0                IOST     PCON1
00000521 dec8                MOVIA    0x37
00000522 ff7e                MOVAR    TMR0
00000523 defe                MOVIA    0x1
00000524 fffc                T0MD
00000525 fff0                IOST     PCON1
00000526 de67                MOVIA    0x98
00000527 ff77                MOVAR    PCON
00000528 defe                MOVIA    0x1
00000529 fff0                IOST     PCON1
0000052a fffb                ENI
0000052b ffef                RET
0000052c                     __mulchar:
0000052c e0fc                BCR      STATUS, BK0
0000052d ff35                MOVAR    0x4a
0000052e feb8                MOVR     0x47, ToAcc
0000052f ff34                MOVAR    0x4b
00000530 fd33                CLRR     0x4c
00000531 def7                MOVIA    0x8
00000532 ff32                MOVAR    0x4d
00000533                     _mulchar.o:_00119_DS_:
00000533 e0fc                BCR      STATUS, BK0
00000534 f7b5                BTRSS    0x4a, 0x0
00000535 c2c7                LGOTO    0x538; _mulchar.o:_00114_DS_=0x538
00000536 feb4                MOVR     0x4b, ToAcc
00000537 fc33                ADDAR    0x4c, ToReg
00000538                     _mulchar.o:_00114_DS_:
00000538 e3fc                BCR      STATUS, C
00000539 e0fc                BCR      STATUS, BK0
0000053a ec35                RRR      0x4a, ToReg
0000053b e3fc                BCR      STATUS, C
0000053c eb34                RLR      0x4b, ToReg
0000053d f9b2                DECR     0x4d, ToAcc
0000053e ff31                MOVAR    0x4e
0000053f ff32                MOVAR    0x4d
00000540 feb1                MOVR     0x4e, ToAcc
00000541 f6fc                BTRSS    STATUS, Z
00000542 c2cc                LGOTO    0x533; _mulchar.o:_00119_DS_=0x533
00000543 feb3                MOVR     0x4c, ToAcc
00000544 ffef                RET
00000545                     _LED4ON:
00000545 ffe9                IOSTR    IOSTB
00000546 e0fc                BCR      STATUS, BK0
00000547 ff54                MOVAR    0x2b
00000548 de21                MOVIA    0xde
00000549 ef54                ANDAR    0x2b, ToReg
0000054a fed4                MOVR     0x2b, ToAcc
0000054b fff9                IOST     IOSTB
0000054c ffea                IOSTR    IOSTA
0000054d ff54                MOVAR    0x2b
0000054e e3d4                BCR      0x2b, 0x0
0000054f fed4                MOVR     0x2b, ToAcc
00000550 fffa                IOST     IOSTA
00000551 dede                MOVIA    0x21
00000552 ee79                IORAR    PORTB, ToReg
00000553 e3fa                BCR      PORTA, PA0
00000554 de9b                MOVIA    0x64
00000555 d231                LCALL    0x5ce; _delay=0x5ce
00000556 d25d                LCALL    0x5a2; _LedInput=0x5a2
00000557 ffef                RET
00000558                     _LED3ON:
00000558 ffe9                IOSTR    IOSTB
00000559 e0fc                BCR      STATUS, BK0
0000055a ff55                MOVAR    0x2a
0000055b de21                MOVIA    0xde
0000055c ef55                ANDAR    0x2a, ToReg
0000055d fed5                MOVR     0x2a, ToAcc
0000055e fff9                IOST     IOSTB
0000055f ffea                IOSTR    IOSTA
00000560 ff55                MOVAR    0x2a
00000561 e3d5                BCR      0x2a, 0x0
00000562 fed5                MOVR     0x2a, ToAcc
00000563 fffa                IOST     IOSTA
00000564 e7fa                BSR      PORTA, PA0
00000565 de21                MOVIA    0xde
00000566 ef79                ANDAR    PORTB, ToReg
00000567 de9b                MOVIA    0x64
00000568 d231                LCALL    0x5ce; _delay=0x5ce
00000569 d25d                LCALL    0x5a2; _LedInput=0x5a2
0000056a ffef                RET
0000056b                     _LED2ON:
0000056b ffe9                IOSTR    IOSTB
0000056c e0fc                BCR      STATUS, BK0
0000056d ff56                MOVAR    0x29
0000056e e356                BCR      0x29, 0x1
0000056f fed6                MOVR     0x29, ToAcc
00000570 fff9                IOST     IOSTB
00000571 ffe9                IOSTR    IOSTB
00000572 ff56                MOVAR    0x29
00000573 de21                MOVIA    0xde
00000574 ef56                ANDAR    0x29, ToReg
00000575 fed6                MOVR     0x29, ToAcc
00000576 fff9                IOST     IOSTB
00000577 e779                BSR      PORTB, PB1
00000578 de21                MOVIA    0xde
00000579 ef79                ANDAR    PORTB, ToReg
0000057a de9b                MOVIA    0x64
0000057b d231                LCALL    0x5ce; _delay=0x5ce
0000057c d25d                LCALL    0x5a2; _LedInput=0x5a2
0000057d ffef                RET
0000057e                     _LED1ON:
0000057e ffe9                IOSTR    IOSTB
0000057f e0fc                BCR      STATUS, BK0
00000580 ff57                MOVAR    0x28
00000581 de21                MOVIA    0xde
00000582 ef57                ANDAR    0x28, ToReg
00000583 fed7                MOVR     0x28, ToAcc
00000584 fff9                IOST     IOSTB
00000585 ffe9                IOSTR    IOSTB
00000586 ff57                MOVAR    0x28
00000587 e357                BCR      0x28, 0x1
00000588 fed7                MOVR     0x28, ToAcc
00000589 fff9                IOST     IOSTB
0000058a dede                MOVIA    0x21
0000058b ee79                IORAR    PORTB, ToReg
0000058c e379                BCR      PORTB, PB1
0000058d de9b                MOVIA    0x64
0000058e d231                LCALL    0x5ce; _delay=0x5ce
0000058f d25d                LCALL    0x5a2; _LedInput=0x5a2
00000590 ffef                RET
00000591                     _LED5ON:
00000591 ffea                IOSTR    IOSTA
00000592 e0fc                BCR      STATUS, BK0
00000593 ff53                MOVAR    0x2c
00000594 e3d3                BCR      0x2c, 0x0
00000595 fed3                MOVR     0x2c, ToAcc
00000596 fffa                IOST     IOSTA
00000597 ffe9                IOSTR    IOSTB
00000598 ff53                MOVAR    0x2c
00000599 e353                BCR      0x2c, 0x1
0000059a fed3                MOVR     0x2c, ToAcc
0000059b fff9                IOST     IOSTB
0000059c e7fa                BSR      PORTA, PA0
0000059d e379                BCR      PORTB, PB1
0000059e de9b                MOVIA    0x64
0000059f d231                LCALL    0x5ce; _delay=0x5ce
000005a0 d25d                LCALL    0x5a2; _LedInput=0x5a2
000005a1 ffef                RET
000005a2                     _LedInput:
000005a2 ffea                IOSTR    IOSTA
000005a3 e0fc                BCR      STATUS, BK0
000005a4 ff58                MOVAR    0x27
000005a5 e7d8                BSR      0x27, 0x0
000005a6 fed8                MOVR     0x27, ToAcc
000005a7 fffa                IOST     IOSTA
000005a8 ffe9                IOSTR    IOSTB
000005a9 ff58                MOVAR    0x27
000005aa dedc                MOVIA    0x23
000005ab ee58                IORAR    0x27, ToReg
000005ac fed8                MOVR     0x27, ToAcc
000005ad fff9                IOST     IOSTB
000005ae e3fa                BCR      PORTA, PA0
000005af de23                MOVIA    0xdc
000005b0 ef79                ANDAR    PORTB, ToReg
000005b1 ffef                RET
000005b2                     _pwm1Init:
000005b2 ff9e                SFUNR    T1CR1
000005b3 e0fc                BCR      STATUS, BK0
000005b4 ff52                MOVAR    0x2d
000005b5 f052                BTRSC    0x2d, 0x7
000005b6 c23f                LGOTO    0x5c0; main.o:_00395_DS_=0x5c0
000005b7 fd66                CLRR     TMRH
000005b8 deb9                MOVIA    0x46
000005b9 ffbf                SFUN     TMR1
000005ba fdff                CLRA
000005bb ffbd                SFUN     T1CR2
000005bc def7                MOVIA    0x8
000005bd ffbd                SFUN     T1CR2
000005be de7c                MOVIA    0x83
000005bf ffbe                SFUN     T1CR1
000005c0                     main.o:_00395_DS_:
000005c0 ffef                RET
000005c1                     _pwmInit:
000005c1 ff95                SFUNR    T2CR1
000005c2 e0fc                BCR      STATUS, BK0
000005c3 ff51                MOVAR    0x2e
000005c4 f051                BTRSC    0x2e, 0x7
000005c5 c232                LGOTO    0x5cd; main.o:_00406_DS_=0x5cd
000005c6 fd66                CLRR     TMRH
000005c7 de82                MOVIA    0x7d
000005c8 ffb6                SFUN     TMR2
000005c9 defe                MOVIA    0x1
000005ca ffb4                SFUN     T2CR2
000005cb de7c                MOVIA    0x83
000005cc ffb5                SFUN     T2CR1
000005cd                     main.o:_00406_DS_:
000005cd ffef                RET
000005ce                     _delay:
000005ce e0fc                BCR      STATUS, BK0
000005cf ff4b                MOVAR    0x34
000005d0 fd4a                CLRR     0x35
000005d1                     main.o:_00561_DS_:
000005d1 e0fc                BCR      STATUS, BK0
000005d2 fecb                MOVR     0x34, ToAcc
000005d3 fbca                SUBAR    0x35, ToAcc
000005d4 f3fc                BTRSC    STATUS, C
000005d5 c226                LGOTO    0x5d9; main.o:_00563_DS_=0x5d9
000005d6 ffff                NOP
000005d7 fa4a                INCR     0x35, ToReg
000005d8 c22e                LGOTO    0x5d1; main.o:_00561_DS_=0x5d1
000005d9                     main.o:_00563_DS_:
000005d9 ffef                RET
000005da                     _initAD:
000005da de7b                MOVIA    0x84
000005db ff6f                MOVAR    ADMD
000005dc fd6c                CLRR     ADVREFH
000005dd deef                MOVIA    0x10
000005de ff6e                MOVAR    ADR
000005df defc                MOVIA    0x3
000005e0 ff6b                MOVAR    ADCR
000005e1 e5ef                BSR      ADMD, GCHS
000005e2 de9b                MOVIA    0x64
000005e3 d231                LCALL    0x5ce; _delay=0x5ce
000005e4 ffef                RET
000005e5                     _F_wait_eoc:
000005e5 f56f                BTRSS    ADMD, EOC
000005e6 c21a                LGOTO    0x5e5; _F_wait_eoc=0x5e5
000005e7 ffef                RET
000005e8                     _pwmStop:
000005e8 fdff                CLRA
000005e9 ffb5                SFUN     T2CR1
000005ea ffef                RET
000005eb                     _pwm1Stop:
000005eb fdff                CLRA
000005ec ffbe                SFUN     T1CR1
000005ed ffef                RET

