00000000 c7fe                 LGOTO 0x1; crt0.o:initial_ram_cinit=0x1
00000001                      crt0.o:initial_ram_cinit:
00000001 d473                 LCALL 0x38c; ___cinit_load__=0x38c
00000002 c7b4                 LGOTO 0x4b; _main=0x4b
00000003                      main.o:_00524_DS_:
00000003 f56f                 BTRSS 0x10, 0x5
00000004 c7fc                 LGOTO 0x3; main.o:_00524_DS_=0x3
00000005 ffef                 RET
00000008 c7f6                 LGOTO 0x9; main.o:__sdcc_interrupt=0x9
00000009                      main.o:__sdcc_interrupt:
00000009 ff3d                 MOVAR 0x42
0000000a eafc                 SWAPR 0x3, 0x0
0000000b fd7c                 CLRR 0x3
0000000c ff3e                 MOVAR 0x41
0000000d fef5                 MOVR 0xa, 0x0
0000000e fd75                 CLRR 0xa
0000000f ff3f                 MOVAR 0x40
00000010 fefb                 MOVR 0x4, 0x0
00000011 e0fc                 BCR 0x3, 0x6
00000012 ff46                 MOVAR 0x39
00000013 feba                 MOVR 0x45, 0x0
00000014 ff45                 MOVAR 0x3a
00000015 febb                 MOVR 0x44, 0x0
00000016 ff44                 MOVAR 0x3b
00000017 f7f0                 BTRSS 0xf, 0x0
00000018 c7c8                 LGOTO 0x37; main.o:_00117_DS_=0x37
00000019 dec8                 MOVIA 0x37
0000001a fc7e                 ADDAR 0x1, 0x1
0000001b fa42                 INCR 0x3d, 0x1
0000001c fa42                 INCR 0x3d, 0x1
0000001d de9b                 MOVIA 0x64
0000001e fbc2                 SUBAR 0x3d, 0x0
0000001f f7fc                 BTRSS 0x3, 0x0
00000020 c7c8                 LGOTO 0x37; main.o:_00117_DS_=0x37
00000021 fd42                 CLRR 0x3d
00000022 defe                 MOVIA 0x1
00000023 ff41                 MOVAR 0x3e
00000024 fa26                 INCR 0x59, 0x1
00000025 decd                 MOVIA 0x32
00000026 fba6                 SUBAR 0x59, 0x0
00000027 f7fc                 BTRSS 0x3, 0x0
00000028 c7c8                 LGOTO 0x37; main.o:_00117_DS_=0x37
00000029 fd26                 CLRR 0x59
0000002a fea7                 MOVR 0x58, 0x0
0000002b f2fc                 BTRSC 0x3, 0x2
0000002c c7c8                 LGOTO 0x37; main.o:_00117_DS_=0x37
0000002d f3a7                 BTRSC 0x58, 0x0
0000002e c7ce                 LGOTO 0x31; main.o:_00106_DS_=0x31
0000002f e379                 BCR 0x6, 0x1
00000030 c7cd                 LGOTO 0x32; main.o:_00107_DS_=0x32
00000031                      main.o:_00106_DS_:
00000031 e779                 BSR 0x6, 0x1
00000032                      main.o:_00107_DS_:
00000032 e0fc                 BCR 0x3, 0x6
00000033 e827                 DECRSZ 0x58, 0x1
00000034 c7c8                 LGOTO 0x37; main.o:_00117_DS_=0x37
00000035 d723                 LCALL 0xdc; _closeStatus=0xdc
00000036 d6de                 LCALL 0x121; _gotoSleep=0x121
00000037                      main.o:_00117_DS_:
00000037 f770                 BTRSS 0xf, 0x1
00000038 c7c4                 LGOTO 0x3b; main.o:_00119_DS_=0x3b
00000039                      ___cinit_size__:
00000039 de02                 MOVIA 0xfd
0000003a ff70                 MOVAR 0xf
0000003b                      main.o:_00119_DS_:
0000003b fd70                 CLRR 0xf
0000003c e0fc                 BCR 0x3, 0x6
0000003d fec4                 MOVR 0x3b, 0x0
0000003e ff3b                 MOVAR 0x44
0000003f fec5                 MOVR 0x3a, 0x0
00000040 ff3a                 MOVAR 0x45
00000041 fec6                 MOVR 0x39, 0x0
00000042 ff7b                 MOVAR 0x4
00000043 febf                 MOVR 0x40, 0x0
00000044 ff75                 MOVAR 0xa
00000045 fd7c                 CLRR 0x3
00000046 eabe                 SWAPR 0x41, 0x0
00000047 ff7c                 MOVAR 0x3
00000048 ea3d                 SWAPR 0x42, 0x1
00000049 eabd                 SWAPR 0x42, 0x0
0000004a                      main.o:END_OF_INTERRUPT:
0000004a ffee                 RETIE
0000004b                      _main:
0000004b ffec                 DISI
0000004c dec1                 MOVIA 0x3e
0000004d fffa                 IOST 0x5
0000004e defe                 MOVIA 0x1
0000004f fff9                 IOST 0x6
00000050 fd79                 CLRR 0x6
00000051 fd7a                 CLRR 0x5
00000052 de00                 MOVIA 0xff
00000053 fff6                 IOST 0x9
00000054 de01                 MOVIA 0xfe
00000055 ff73                 MOVAR 0xc
00000056 de00                 MOVIA 0xff
00000057 ff74                 MOVAR 0xb
00000058 defe                 MOVIA 0x1
00000059 ff71                 MOVAR 0xe
0000005a fdff                 CLRA
0000005b fff0                 IOST 0xf
0000005c dec8                 MOVIA 0x37
0000005d ff7e                 MOVAR 0x1
0000005e fdff                 CLRA
0000005f fffc                 T0MD
00000060 defe                 MOVIA 0x1
00000061 fff0                 IOST 0xf
00000062 de67                 MOVIA 0x98
00000063 ff77                 MOVAR 0x8
00000064 defe                 MOVIA 0x1
00000065 fff0                 IOST 0xf
00000066 fffb                 ENI
00000067 d723                 LCALL 0xdc; _closeStatus=0xdc
00000068 d535                 LCALL 0x2ca; _initAD=0x2ca
00000069                      main.o:_00163_DS_:
00000069 fffd                 CLRWDT
0000006a f57a                 BTRSS 0x5, 0x5
0000006b c75e                 LGOTO 0xa1; main.o:_00149_DS_=0xa1
0000006c defd                 MOVIA 0x2
0000006d e0fc                 BCR 0x3, 0x6
0000006e fbb6                 SUBAR 0x49, 0x0
0000006f fd5f                 CLRR 0x20
00000070 f7fc                 BTRSS 0x3, 0x0
00000071 e7df                 BSR 0x20, 0x0
00000072 fedf                 MOVR 0x20, 0x0
00000073 f2fc                 BTRSC 0x3, 0x2
00000074 c775                 LGOTO 0x8a; main.o:_00134_DS_=0x8a
00000075 e0fa                 BCR 0x5, 0x6
00000076 feb6                 MOVR 0x49, 0x0
00000077 dbfe                 XORIA 0x1
00000078 f2fc                 BTRSC 0x3, 0x2
00000079 e779                 BSR 0x6, 0x1
0000007a feb4                 MOVR 0x4b, 0x0
0000007b f2fc                 BTRSC 0x3, 0x2
0000007c c777                 LGOTO 0x88; main.o:_00126_DS_=0x88
0000007d feb4                 MOVR 0x4b, 0x0
0000007e dbfd                 XORIA 0x2
0000007f f2fc                 BTRSC 0x3, 0x2
00000080 c777                 LGOTO 0x88; main.o:_00126_DS_=0x88
00000081 feb4                 MOVR 0x4b, 0x0
00000082 dbfc                 XORIA 0x3
00000083 f6fc                 BTRSS 0x3, 0x2
00000084 c76f                 LGOTO 0x90; main.o:_00135_DS_=0x90
00000085 fea7                 MOVR 0x58, 0x0
00000086 f6fc                 BTRSS 0x3, 0x2
00000087 c76f                 LGOTO 0x90; main.o:_00135_DS_=0x90
00000088                      main.o:_00126_DS_:
00000088 e779                 BSR 0x6, 0x1
00000089 c76f                 LGOTO 0x90; main.o:_00135_DS_=0x90
0000008a                      main.o:_00134_DS_:
0000008a e07a                 BCR 0x5, 0x7
0000008b e0fc                 BCR 0x3, 0x6
0000008c feb4                 MOVR 0x4b, 0x0
0000008d dbfc                 XORIA 0x3
0000008e f2fc                 BTRSC 0x3, 0x2
0000008f e0fa                 BCR 0x5, 0x6
00000090                      main.o:_00135_DS_:
00000090 e0fc                 BCR 0x3, 0x6
00000091 feb6                 MOVR 0x49, 0x0
00000092 f2fc                 BTRSC 0x3, 0x2
00000093 e6f9                 BSR 0x6, 0x2
00000094 feb3                 MOVR 0x4c, 0x0
00000095 dbfe                 XORIA 0x1
00000096 f6fc                 BTRSS 0x3, 0x2
00000097 c747                 LGOTO 0xb8; main.o:_00150_DS_=0xb8
00000098 feb5                 MOVR 0x4a, 0x0
00000099 f6fc                 BTRSS 0x3, 0x2
0000009a c747                 LGOTO 0xb8; main.o:_00150_DS_=0xb8
0000009b fedf                 MOVR 0x20, 0x0
0000009c f2fc                 BTRSC 0x3, 0x2
0000009d c747                 LGOTO 0xb8; main.o:_00150_DS_=0xb8
0000009e e7fa                 BSR 0x5, 0x0
0000009f e47a                 BSR 0x5, 0x7
000000a0 c747                 LGOTO 0xb8; main.o:_00150_DS_=0xb8
000000a1                      main.o:_00149_DS_:
000000a1 e0fc                 BCR 0x3, 0x6
000000a2 fd5f                 CLRR 0x20
000000a3 feb3                 MOVR 0x4c, 0x0
000000a4 dbfe                 XORIA 0x1
000000a5 f6fc                 BTRSS 0x3, 0x2
000000a6 c757                 LGOTO 0xa8; main.o:_00008_DS_=0xa8
000000a7 fa5f                 INCR 0x20, 0x1
000000a8                      main.o:_00008_DS_:
000000a8 e0fc                 BCR 0x3, 0x6
000000a9 fedf                 MOVR 0x20, 0x0
000000aa f6fc                 BTRSS 0x3, 0x2
000000ab e2f9                 BCR 0x6, 0x2
000000ac e07a                 BCR 0x5, 0x7
000000ad fd36                 CLRR 0x49
000000ae feb5                 MOVR 0x4a, 0x0
000000af f6fc                 BTRSS 0x3, 0x2
000000b0 c747                 LGOTO 0xb8; main.o:_00150_DS_=0xb8
000000b1 defc                 MOVIA 0x3
000000b2 fbb4                 SUBAR 0x4b, 0x0
000000b3 f3fc                 BTRSC 0x3, 0x0
000000b4 c747                 LGOTO 0xb8; main.o:_00150_DS_=0xb8
000000b5 fedf                 MOVR 0x20, 0x0
000000b6 f6fc                 BTRSS 0x3, 0x2
000000b7 e7fa                 BSR 0x5, 0x0
000000b8                      main.o:_00150_DS_:
000000b8 e0fc                 BCR 0x3, 0x6
000000b9 fec1                 MOVR 0x3e, 0x0
000000ba f2fc                 BTRSC 0x3, 0x2
000000bb c796                 LGOTO 0x69; main.o:_00163_DS_=0x69
000000bc fd41                 CLRR 0x3e
000000bd d528                 LCALL 0x2d7; _keyCtr=0x2d7
000000be d49c                 LCALL 0x363; _chrgWork=0x363
000000bf e0fc                 BCR 0x3, 0x6
000000c0 feb3                 MOVR 0x4c, 0x0
000000c1 dbfe                 XORIA 0x1
000000c2 f2fc                 BTRSC 0x3, 0x2
000000c3 d4f4                 LCALL 0x30b; _workCtr=0x30b
000000c4 f57a                 BTRSS 0x5, 0x5
000000c5 c734                 LGOTO 0xcb; main.o:_00160_DS_=0xcb
000000c6 e0fc                 BCR 0x3, 0x6
000000c7 feb6                 MOVR 0x49, 0x0
000000c8 dbfd                 XORIA 0x2
000000c9 f6fc                 BTRSS 0x3, 0x2
000000ca c796                 LGOTO 0x69; main.o:_00163_DS_=0x69
000000cb                      main.o:_00160_DS_:
000000cb e0fc                 BCR 0x3, 0x6
000000cc feb3                 MOVR 0x4c, 0x0
000000cd f6fc                 BTRSS 0x3, 0x2
000000ce c796                 LGOTO 0x69; main.o:_00163_DS_=0x69
000000cf feb7                 MOVR 0x48, 0x0
000000d0 f6fc                 BTRSS 0x3, 0x2
000000d1 c796                 LGOTO 0x69; main.o:_00163_DS_=0x69
000000d2 d723                 LCALL 0xdc; _closeStatus=0xdc
000000d3 e0fc                 BCR 0x3, 0x6
000000d4 fa40                 INCR 0x3f, 0x1
000000d5 decc                 MOVIA 0x33
000000d6 fbc0                 SUBAR 0x3f, 0x0
000000d7 f7fc                 BTRSS 0x3, 0x0
000000d8 c796                 LGOTO 0x69; main.o:_00163_DS_=0x69
000000d9 d6de                 LCALL 0x121; _gotoSleep=0x121
000000da c796                 LGOTO 0x69; main.o:_00163_DS_=0x69
000000db ffef                 RET
000000dc                      _closeStatus:
000000dc e679                 BSR 0x6, 0x3
000000dd e0fa                 BCR 0x5, 0x6
000000de e07a                 BCR 0x5, 0x7
000000df e779                 BSR 0x6, 0x1
000000e0 e6f9                 BSR 0x6, 0x2
000000e1 e3fa                 BCR 0x5, 0x0
000000e2 ffef                 RET
000000e3                      _keyRead:
000000e3 e0fc                 BCR 0x3, 0x6
000000e4 ff47                 MOVAR 0x38
000000e5 fec7                 MOVR 0x38, 0x0
000000e6 f2fc                 BTRSC 0x3, 0x2
000000e7 c709                 LGOTO 0xf6; main.o:_00557_DS_=0xf6
000000e8 fa37                 INCR 0x48, 0x1
000000e9 de37                 MOVIA 0xc8
000000ea fbb7                 SUBAR 0x48, 0x0
000000eb f7fc                 BTRSS 0x3, 0x0
000000ec c6f6                 LGOTO 0x109; main.o:_00558_DS_=0x109
000000ed de37                 MOVIA 0xc8
000000ee ff37                 MOVAR 0x48
000000ef feb8                 MOVR 0x47, 0x0
000000f0 f6fc                 BTRSS 0x3, 0x2
000000f1 c6f6                 LGOTO 0x109; main.o:_00558_DS_=0x109
000000f2 defe                 MOVIA 0x1
000000f3 ff38                 MOVAR 0x47
000000f4 defd                 MOVIA 0x2
000000f5 c6f5                 LGOTO 0x10a; main.o:_00559_DS_=0x10a
000000f6                      main.o:_00557_DS_:
000000f6 de37                 MOVIA 0xc8
000000f7 e0fc                 BCR 0x3, 0x6
000000f8 fbb7                 SUBAR 0x48, 0x0
000000f9 f7fc                 BTRSS 0x3, 0x0
000000fa c700                 LGOTO 0xff; main.o:_00554_DS_=0xff
000000fb fd37                 CLRR 0x48
000000fc fd38                 CLRR 0x47
000000fd deff                 MOVIA 0x0
000000fe c6f5                 LGOTO 0x10a; main.o:_00559_DS_=0x10a
000000ff                      main.o:_00554_DS_:
000000ff def7                 MOVIA 0x8
00000100 e0fc                 BCR 0x3, 0x6
00000101 fbb7                 SUBAR 0x48, 0x0
00000102 f7fc                 BTRSS 0x3, 0x0
00000103 c6f8                 LGOTO 0x107; main.o:_00555_DS_=0x107
00000104 fd37                 CLRR 0x48
00000105 defe                 MOVIA 0x1
00000106 c6f5                 LGOTO 0x10a; main.o:_00559_DS_=0x10a
00000107                      main.o:_00555_DS_:
00000107 e0fc                 BCR 0x3, 0x6
00000108 fd37                 CLRR 0x48
00000109                      main.o:_00558_DS_:
00000109 deff                 MOVIA 0x0
0000010a                      main.o:_00559_DS_:
0000010a ffef                 RET
0000010b                      _delay:
0000010b e0fc                 BCR 0x3, 0x6
0000010c ff4a                 MOVAR 0x35
0000010d feba                 MOVR 0x45, 0x0
0000010e ff4b                 MOVAR 0x34
0000010f fd49                 CLRR 0x36
00000110 fd48                 CLRR 0x37
00000111                      main.o:_00531_DS_:
00000111 e0fc                 BCR 0x3, 0x6
00000112 feca                 MOVR 0x35, 0x0
00000113 fbc8                 SUBAR 0x37, 0x0
00000114 f6fc                 BTRSS 0x3, 0x2
00000115 c6e7                 LGOTO 0x118; main.o:_00542_DS_=0x118
00000116 fecb                 MOVR 0x34, 0x0
00000117 fbc9                 SUBAR 0x36, 0x0
00000118                      main.o:_00542_DS_:
00000118 f3fc                 BTRSC 0x3, 0x0
00000119 c6df                 LGOTO 0x120; main.o:_00533_DS_=0x120
0000011a e0fc                 BCR 0x3, 0x6
0000011b fa49                 INCR 0x36, 0x1
0000011c f6fc                 BTRSS 0x3, 0x2
0000011d c6e0                 LGOTO 0x11f; main.o:_00001_DS_=0x11f
0000011e fa48                 INCR 0x37, 0x1
0000011f                      main.o:_00001_DS_:
0000011f c6ee                 LGOTO 0x111; main.o:_00531_DS_=0x111
00000120                      main.o:_00533_DS_:
00000120 ffef                 RET
00000121                      _gotoSleep:
00000121 e0fc                 BCR 0x3, 0x6
00000122 fd33                 CLRR 0x4c
00000123 fd36                 CLRR 0x49
00000124 fd25                 CLRR 0x5a
00000125 fd35                 CLRR 0x4a
00000126 fd40                 CLRR 0x3f
00000127 fd39                 CLRR 0x46
00000128 ded7                 MOVIA 0x28
00000129 ff6a                 MOVAR 0x15
0000012a defe                 MOVIA 0x1
0000012b ff76                 MOVAR 0x9
0000012c def4                 MOVIA 0xb
0000012d ff71                 MOVAR 0xe
0000012e dee7                 MOVIA 0x18
0000012f ff77                 MOVAR 0x8
00000130 fd70                 CLRR 0xf
00000131 fffd                 CLRWDT
00000132 fffb                 ENI
00000133 fffe                 SLEEP
00000134 fd6a                 CLRR 0x15
00000135 fd76                 CLRR 0x9
00000136 defe                 MOVIA 0x1
00000137 ff71                 MOVAR 0xe
00000138 fd70                 CLRR 0xf
00000139 de47                 MOVIA 0xb8
0000013a ff77                 MOVAR 0x8
0000013b ffef                 RET
0000013c                      _F_AIN4_Convert:
0000013c e0fc                 BCR 0x3, 0x6
0000013d ff4f                 MOVAR 0x30
0000013e fd29                 CLRR 0x56
0000013f fd2b                 CLRR 0x54
00000140 fd2a                 CLRR 0x55
00000141 de6b                 MOVIA 0x94
00000142 ff6f                 MOVAR 0x10
00000143 de37                 MOVIA 0xc8
00000144 ff3a                 MOVAR 0x45
00000145 deff                 MOVIA 0x0
00000146 d6f4                 LCALL 0x10b; _delay=0x10b
00000147 defe                 MOVIA 0x1
00000148 e0fc                 BCR 0x3, 0x6
00000149 ff4e                 MOVAR 0x31
0000014a                      main.o:_00513_DS_:
0000014a e0fc                 BCR 0x3, 0x6
0000014b fece                 MOVR 0x31, 0x0
0000014c fbcf                 SUBAR 0x30, 0x0
0000014d f7fc                 BTRSS 0x3, 0x0
0000014e c69b                 LGOTO 0x164; main.o:_00515_DS_=0x164
0000014f e4ef                 BSR 0x10, 0x6
00000150 d7fc                 LCALL 0x3; main.o:_00524_DS_=0x3
00000151 def0                 MOVIA 0xf
00000152 efee                 ANDAR 0x11, 0x0
00000153 e0fc                 BCR 0x3, 0x6
00000154 fc29                 ADDAR 0x56, 0x1
00000155 feed                 MOVR 0x12, 0x0
00000156 ff4d                 MOVAR 0x32
00000157 deff                 MOVIA 0x0
00000158 ff4c                 MOVAR 0x33
00000159 fecd                 MOVR 0x32, 0x0
0000015a fc2b                 ADDAR 0x54, 0x1
0000015b fecc                 MOVR 0x33, 0x0
0000015c f3fc                 BTRSC 0x3, 0x0
0000015d facc                 INCR 0x33, 0x0
0000015e f2fc                 BTRSC 0x3, 0x2
0000015f c69e                 LGOTO 0x161; main.o:_00002_DS_=0x161
00000160 fc2a                 ADDAR 0x55, 0x1
00000161                      main.o:_00002_DS_:
00000161 e0fc                 BCR 0x3, 0x6
00000162 fa4e                 INCR 0x31, 0x1
00000163 c6b5                 LGOTO 0x14a; main.o:_00513_DS_=0x14a
00000164                      main.o:_00515_DS_:
00000164 ffef                 RET
00000165                      _F_AIN2_Convert:
00000165 e0fc                 BCR 0x3, 0x6
00000166 ff53                 MOVAR 0x2c
00000167 fd2c                 CLRR 0x53
00000168 fd2e                 CLRR 0x51
00000169 fd2d                 CLRR 0x52
0000016a de6d                 MOVIA 0x92
0000016b ff6f                 MOVAR 0x10
0000016c de37                 MOVIA 0xc8
0000016d ff3a                 MOVAR 0x45
0000016e deff                 MOVIA 0x0
0000016f d6f4                 LCALL 0x10b; _delay=0x10b
00000170 defe                 MOVIA 0x1
00000171 e0fc                 BCR 0x3, 0x6
00000172 ff52                 MOVAR 0x2d
00000173                      main.o:_00504_DS_:
00000173 e0fc                 BCR 0x3, 0x6
00000174 fed2                 MOVR 0x2d, 0x0
00000175 fbd3                 SUBAR 0x2c, 0x0
00000176 f7fc                 BTRSS 0x3, 0x0
00000177 c672                 LGOTO 0x18d; main.o:_00506_DS_=0x18d
00000178 e4ef                 BSR 0x10, 0x6
00000179 d7fc                 LCALL 0x3; main.o:_00524_DS_=0x3
0000017a def0                 MOVIA 0xf
0000017b efee                 ANDAR 0x11, 0x0
0000017c e0fc                 BCR 0x3, 0x6
0000017d fc2c                 ADDAR 0x53, 0x1
0000017e feed                 MOVR 0x12, 0x0
0000017f ff51                 MOVAR 0x2e
00000180 deff                 MOVIA 0x0
00000181 ff50                 MOVAR 0x2f
00000182 fed1                 MOVR 0x2e, 0x0
00000183 fc2e                 ADDAR 0x51, 0x1
00000184 fed0                 MOVR 0x2f, 0x0
00000185 f3fc                 BTRSC 0x3, 0x0
00000186 fad0                 INCR 0x2f, 0x0
00000187 f2fc                 BTRSC 0x3, 0x2
00000188 c675                 LGOTO 0x18a; main.o:_00003_DS_=0x18a
00000189 fc2d                 ADDAR 0x52, 0x1
0000018a                      main.o:_00003_DS_:
0000018a e0fc                 BCR 0x3, 0x6
0000018b fa52                 INCR 0x2d, 0x1
0000018c c68c                 LGOTO 0x173; main.o:_00504_DS_=0x173
0000018d                      main.o:_00506_DS_:
0000018d ffef                 RET
0000018e                      _F_AIN1_Convert:
0000018e e0fc                 BCR 0x3, 0x6
0000018f ff57                 MOVAR 0x28
00000190 fd2f                 CLRR 0x50
00000191 fd31                 CLRR 0x4e
00000192 fd30                 CLRR 0x4f
00000193 de6e                 MOVIA 0x91
00000194 ff6f                 MOVAR 0x10
00000195 de37                 MOVIA 0xc8
00000196 ff3a                 MOVAR 0x45
00000197 deff                 MOVIA 0x0
00000198 d6f4                 LCALL 0x10b; _delay=0x10b
00000199 defe                 MOVIA 0x1
0000019a e0fc                 BCR 0x3, 0x6
0000019b ff56                 MOVAR 0x29
0000019c                      main.o:_00495_DS_:
0000019c e0fc                 BCR 0x3, 0x6
0000019d fed6                 MOVR 0x29, 0x0
0000019e fbd7                 SUBAR 0x28, 0x0
0000019f f7fc                 BTRSS 0x3, 0x0
000001a0 c649                 LGOTO 0x1b6; main.o:_00497_DS_=0x1b6
000001a1 e4ef                 BSR 0x10, 0x6
000001a2 d7fc                 LCALL 0x3; main.o:_00524_DS_=0x3
000001a3 def0                 MOVIA 0xf
000001a4 efee                 ANDAR 0x11, 0x0
000001a5 e0fc                 BCR 0x3, 0x6
000001a6 fc2f                 ADDAR 0x50, 0x1
000001a7 feed                 MOVR 0x12, 0x0
000001a8 ff55                 MOVAR 0x2a
000001a9 deff                 MOVIA 0x0
000001aa ff54                 MOVAR 0x2b
000001ab fed5                 MOVR 0x2a, 0x0
000001ac fc31                 ADDAR 0x4e, 0x1
000001ad fed4                 MOVR 0x2b, 0x0
000001ae f3fc                 BTRSC 0x3, 0x0
000001af fad4                 INCR 0x2b, 0x0
000001b0 f2fc                 BTRSC 0x3, 0x2
000001b1 c64c                 LGOTO 0x1b3; main.o:_00004_DS_=0x1b3
000001b2 fc30                 ADDAR 0x4f, 0x1
000001b3                      main.o:_00004_DS_:
000001b3 e0fc                 BCR 0x3, 0x6
000001b4 fa56                 INCR 0x29, 0x1
000001b5 c663                 LGOTO 0x19c; main.o:_00495_DS_=0x19c
000001b6                      main.o:_00497_DS_:
000001b6 ffef                 RET
000001b7                      _checkOutA:
000001b7 e0fc                 BCR 0x3, 0x6
000001b8 fd29                 CLRR 0x56
000001b9 fd2b                 CLRR 0x54
000001ba fd2a                 CLRR 0x55
000001bb def7                 MOVIA 0x8
000001bc d6c3                 LCALL 0x13c; _F_AIN4_Convert=0x13c
000001bd e0fc                 BCR 0x3, 0x6
000001be eaaa                 SWAPR 0x55, 0x0
000001bf dd0f                 ANDIA 0xf0
000001c0 ff2a                 MOVAR 0x55
000001c1 eaab                 SWAPR 0x54, 0x0
000001c2 ff2b                 MOVAR 0x54
000001c3 ddf0                 ANDIA 0xf
000001c4 ee2a                 IORAR 0x55, 0x1
000001c5 ed2b                 XORAR 0x54, 0x1
000001c6 de0f                 MOVIA 0xf0
000001c7 ef29                 ANDAR 0x56, 0x1
000001c8 fea9                 MOVR 0x56, 0x0
000001c9 ff59                 MOVAR 0x26
000001ca deff                 MOVIA 0x0
000001cb ff58                 MOVAR 0x27
000001cc fed9                 MOVR 0x26, 0x0
000001cd fc2b                 ADDAR 0x54, 0x1
000001ce fed8                 MOVR 0x27, 0x0
000001cf f3fc                 BTRSC 0x3, 0x0
000001d0 fad8                 INCR 0x27, 0x0
000001d1 f2fc                 BTRSC 0x3, 0x2
000001d2 c62b                 LGOTO 0x1d4; main.o:_00005_DS_=0x1d4
000001d3 fc2a                 ADDAR 0x55, 0x1
000001d4                      main.o:_00005_DS_:
000001d4 e3fc                 BCR 0x3, 0x0
000001d5 e0fc                 BCR 0x3, 0x6
000001d6 ec2a                 RRR 0x55, 0x1
000001d7 ec2b                 RRR 0x54, 0x1
000001d8 e3fc                 BCR 0x3, 0x0
000001d9 ec2a                 RRR 0x55, 0x1
000001da ec2b                 RRR 0x54, 0x1
000001db e3fc                 BCR 0x3, 0x0
000001dc ec2a                 RRR 0x55, 0x1
000001dd ec2b                 RRR 0x54, 0x1
000001de fec3                 MOVR 0x3c, 0x0
000001df f2fc                 BTRSC 0x3, 0x2
000001e0 c61b                 LGOTO 0x1e4; main.o:_00471_DS_=0x1e4
000001e1 deb3                 MOVIA 0x4c
000001e2 ff2b                 MOVAR 0x54
000001e3 fd2a                 CLRR 0x55
000001e4                      main.o:_00471_DS_:
000001e4 deff                 MOVIA 0x0
000001e5 e0fc                 BCR 0x3, 0x6
000001e6 fbaa                 SUBAR 0x55, 0x0
000001e7 f6fc                 BTRSS 0x3, 0x2
000001e8 c614                 LGOTO 0x1eb; main.o:_00488_DS_=0x1eb
000001e9 deb1                 MOVIA 0x4e
000001ea fbab                 SUBAR 0x54, 0x0
000001eb                      main.o:_00488_DS_:
000001eb f3fc                 BTRSC 0x3, 0x0
000001ec c60e                 LGOTO 0x1f1; main.o:_00473_DS_=0x1f1
000001ed e0fc                 BCR 0x3, 0x6
000001ee fd35                 CLRR 0x4a
000001ef fd28                 CLRR 0x57
000001f0 c60c                 LGOTO 0x1f3; main.o:_00474_DS_=0x1f3
000001f1                      main.o:_00473_DS_:
000001f1 e0fc                 BCR 0x3, 0x6
000001f2 fa28                 INCR 0x57, 0x1
000001f3                      main.o:_00474_DS_:
000001f3 e0fc                 BCR 0x3, 0x6
000001f4 fa28                 INCR 0x57, 0x1
000001f5 def5                 MOVIA 0xa
000001f6 fba8                 SUBAR 0x57, 0x0
000001f7 f7fc                 BTRSS 0x3, 0x0
000001f8 c5ff                 LGOTO 0x200; main.o:_00477_DS_=0x200
000001f9 def5                 MOVIA 0xa
000001fa ff28                 MOVAR 0x57
000001fb defe                 MOVIA 0x1
000001fc ff35                 MOVAR 0x4a
000001fd e3fa                 BCR 0x5, 0x0
000001fe e0fa                 BCR 0x5, 0x6
000001ff e07a                 BCR 0x5, 0x7
00000200                      main.o:_00477_DS_:
00000200 ffef                 RET
00000201                      _checkBat:
00000201 e0fc                 BCR 0x3, 0x6
00000202 fd2c                 CLRR 0x53
00000203 fd2e                 CLRR 0x51
00000204 fd2d                 CLRR 0x52
00000205 def7                 MOVIA 0x8
00000206 d69a                 LCALL 0x165; _F_AIN2_Convert=0x165
00000207 e0fc                 BCR 0x3, 0x6
00000208 eaad                 SWAPR 0x52, 0x0
00000209 dd0f                 ANDIA 0xf0
0000020a ff2d                 MOVAR 0x52
0000020b eaae                 SWAPR 0x51, 0x0
0000020c ff2e                 MOVAR 0x51
0000020d ddf0                 ANDIA 0xf
0000020e ee2d                 IORAR 0x52, 0x1
0000020f ed2e                 XORAR 0x51, 0x1
00000210 de0f                 MOVIA 0xf0
00000211 ef2c                 ANDAR 0x53, 0x1
00000212 feac                 MOVR 0x53, 0x0
00000213 ff5b                 MOVAR 0x24
00000214 deff                 MOVIA 0x0
00000215 ff5a                 MOVAR 0x25
00000216 fedb                 MOVR 0x24, 0x0
00000217 fc2e                 ADDAR 0x51, 0x1
00000218 feda                 MOVR 0x25, 0x0
00000219 f3fc                 BTRSC 0x3, 0x0
0000021a fada                 INCR 0x25, 0x0
0000021b f2fc                 BTRSC 0x3, 0x2
0000021c c5e1                 LGOTO 0x21e; main.o:_00006_DS_=0x21e
0000021d fc2d                 ADDAR 0x52, 0x1
0000021e                      main.o:_00006_DS_:
0000021e e3fc                 BCR 0x3, 0x0
0000021f e0fc                 BCR 0x3, 0x6
00000220 ec2d                 RRR 0x52, 0x1
00000221 ec2e                 RRR 0x51, 0x1
00000222 e3fc                 BCR 0x3, 0x0
00000223 ec2d                 RRR 0x52, 0x1
00000224 ec2e                 RRR 0x51, 0x1
00000225 e3fc                 BCR 0x3, 0x0
00000226 ec2d                 RRR 0x52, 0x1
00000227 ec2e                 RRR 0x51, 0x1
00000228 fec3                 MOVR 0x3c, 0x0
00000229 f2fc                 BTRSC 0x3, 0x2
0000022a c5d0                 LGOTO 0x22f; main.o:_00410_DS_=0x22f
0000022b de26                 MOVIA 0xd9
0000022c ff2e                 MOVAR 0x51
0000022d def1                 MOVIA 0xe
0000022e ff2d                 MOVAR 0x52
0000022f                      main.o:_00410_DS_:
0000022f def6                 MOVIA 0x9
00000230 e0fc                 BCR 0x3, 0x6
00000231 fbad                 SUBAR 0x52, 0x0
00000232 f6fc                 BTRSS 0x3, 0x2
00000233 c5c9                 LGOTO 0x236; main.o:_00460_DS_=0x236
00000234 de59                 MOVIA 0xa6
00000235 fbae                 SUBAR 0x51, 0x0
00000236                      main.o:_00460_DS_:
00000236 f3fc                 BTRSC 0x3, 0x0
00000237 c5be                 LGOTO 0x241; main.o:_00429_DS_=0x241
00000238 e0fc                 BCR 0x3, 0x6
00000239 fa23                 INCR 0x5c, 0x1
0000023a decc                 MOVIA 0x33
0000023b fba3                 SUBAR 0x5c, 0x0
0000023c f7fc                 BTRSS 0x3, 0x0
0000023d c57e                 LGOTO 0x281; main.o:_00431_DS_=0x281
0000023e defc                 MOVIA 0x3
0000023f ff34                 MOVAR 0x4b
00000240 c57e                 LGOTO 0x281; main.o:_00431_DS_=0x281
00000241                      main.o:_00429_DS_:
00000241 def5                 MOVIA 0xa
00000242 e0fc                 BCR 0x3, 0x6
00000243 fbad                 SUBAR 0x52, 0x0
00000244 f6fc                 BTRSS 0x3, 0x2
00000245 c5b7                 LGOTO 0x248; main.o:_00462_DS_=0x248
00000246 de54                 MOVIA 0xab
00000247 fbae                 SUBAR 0x51, 0x0
00000248                      main.o:_00462_DS_:
00000248 f3fc                 BTRSC 0x3, 0x0
00000249 c5a6                 LGOTO 0x259; main.o:_00426_DS_=0x259
0000024a defe                 MOVIA 0x1
0000024b e0fc                 BCR 0x3, 0x6
0000024c ff34                 MOVAR 0x4b
0000024d fd23                 CLRR 0x5c
0000024e def6                 MOVIA 0x9
0000024f fbad                 SUBAR 0x52, 0x0
00000250 f6fc                 BTRSS 0x3, 0x2
00000251 c5ab                 LGOTO 0x254; main.o:_00463_DS_=0x254
00000252 de3a                 MOVIA 0xc5
00000253 fbae                 SUBAR 0x51, 0x0
00000254                      main.o:_00463_DS_:
00000254 f7fc                 BTRSS 0x3, 0x0
00000255 c57e                 LGOTO 0x281; main.o:_00431_DS_=0x281
00000256 e0fc                 BCR 0x3, 0x6
00000257 fd25                 CLRR 0x5a
00000258 c57e                 LGOTO 0x281; main.o:_00431_DS_=0x281
00000259                      main.o:_00426_DS_:
00000259 def3                 MOVIA 0xc
0000025a e0fc                 BCR 0x3, 0x6
0000025b fbad                 SUBAR 0x52, 0x0
0000025c f6fc                 BTRSS 0x3, 0x2
0000025d c59f                 LGOTO 0x260; main.o:_00464_DS_=0x260
0000025e de63                 MOVIA 0x9c
0000025f fbae                 SUBAR 0x51, 0x0
00000260                      main.o:_00464_DS_:
00000260 f3fc                 BTRSC 0x3, 0x0
00000261 c583                 LGOTO 0x27c; main.o:_00423_DS_=0x27c
00000262 e0fc                 BCR 0x3, 0x6
00000263 feb4                 MOVR 0x4b, 0x0
00000264 dbfd                 XORIA 0x2
00000265 f6fc                 BTRSS 0x3, 0x2
00000266 c58c                 LGOTO 0x273; main.o:_00420_DS_=0x273
00000267 def3                 MOVIA 0xc
00000268 fbad                 SUBAR 0x52, 0x0
00000269 f6fc                 BTRSS 0x3, 0x2
0000026a c592                 LGOTO 0x26d; main.o:_00465_DS_=0x26d
0000026b de75                 MOVIA 0x8a
0000026c fbae                 SUBAR 0x51, 0x0
0000026d                      main.o:_00465_DS_:
0000026d f3fc                 BTRSC 0x3, 0x0
0000026e c57e                 LGOTO 0x281; main.o:_00431_DS_=0x281
0000026f e0fc                 BCR 0x3, 0x6
00000270 fd34                 CLRR 0x4b
00000271 fd25                 CLRR 0x5a
00000272 c57e                 LGOTO 0x281; main.o:_00431_DS_=0x281
00000273                      main.o:_00420_DS_:
00000273 e0fc                 BCR 0x3, 0x6
00000274 fa23                 INCR 0x5c, 0x1
00000275 decc                 MOVIA 0x33
00000276 fba3                 SUBAR 0x5c, 0x0
00000277 f7fc                 BTRSS 0x3, 0x0
00000278 c57e                 LGOTO 0x281; main.o:_00431_DS_=0x281
00000279 fd34                 CLRR 0x4b
0000027a fd25                 CLRR 0x5a
0000027b c57e                 LGOTO 0x281; main.o:_00431_DS_=0x281
0000027c                      main.o:_00423_DS_:
0000027c e0fc                 BCR 0x3, 0x6
0000027d fd23                 CLRR 0x5c
0000027e defd                 MOVIA 0x2
0000027f ff34                 MOVAR 0x4b
00000280 fd25                 CLRR 0x5a
00000281                      main.o:_00431_DS_:
00000281 ffef                 RET
00000282                      _checkInV:
00000282 e0fc                 BCR 0x3, 0x6
00000283 fd2f                 CLRR 0x50
00000284 fd31                 CLRR 0x4e
00000285 fd30                 CLRR 0x4f
00000286 def7                 MOVIA 0x8
00000287 d671                 LCALL 0x18e; _F_AIN1_Convert=0x18e
00000288 e0fc                 BCR 0x3, 0x6
00000289 eab0                 SWAPR 0x4f, 0x0
0000028a dd0f                 ANDIA 0xf0
0000028b ff30                 MOVAR 0x4f
0000028c eab1                 SWAPR 0x4e, 0x0
0000028d ff31                 MOVAR 0x4e
0000028e ddf0                 ANDIA 0xf
0000028f ee30                 IORAR 0x4f, 0x1
00000290 ed31                 XORAR 0x4e, 0x1
00000291 de0f                 MOVIA 0xf0
00000292 ef2f                 ANDAR 0x50, 0x1
00000293 feaf                 MOVR 0x50, 0x0
00000294 ff5d                 MOVAR 0x22
00000295 deff                 MOVIA 0x0
00000296 ff5c                 MOVAR 0x23
00000297 fedd                 MOVR 0x22, 0x0
00000298 fc31                 ADDAR 0x4e, 0x1
00000299 fedc                 MOVR 0x23, 0x0
0000029a f3fc                 BTRSC 0x3, 0x0
0000029b fadc                 INCR 0x23, 0x0
0000029c f2fc                 BTRSC 0x3, 0x2
0000029d c560                 LGOTO 0x29f; main.o:_00007_DS_=0x29f
0000029e fc30                 ADDAR 0x4f, 0x1
0000029f                      main.o:_00007_DS_:
0000029f e3fc                 BCR 0x3, 0x0
000002a0 e0fc                 BCR 0x3, 0x6
000002a1 ec30                 RRR 0x4f, 0x1
000002a2 ec31                 RRR 0x4e, 0x1
000002a3 e3fc                 BCR 0x3, 0x0
000002a4 ec30                 RRR 0x4f, 0x1
000002a5 ec31                 RRR 0x4e, 0x1
000002a6 e3fc                 BCR 0x3, 0x0
000002a7 ec30                 RRR 0x4f, 0x1
000002a8 ec31                 RRR 0x4e, 0x1
000002a9 fec3                 MOVR 0x3c, 0x0
000002aa f2fc                 BTRSC 0x3, 0x2
000002ab c54f                 LGOTO 0x2b0; main.o:_00387_DS_=0x2b0
000002ac deef                 MOVIA 0x10
000002ad ff31                 MOVAR 0x4e
000002ae def4                 MOVIA 0xb
000002af ff30                 MOVAR 0x4f
000002b0                      main.o:_00387_DS_:
000002b0 def4                 MOVIA 0xb
000002b1 e0fc                 BCR 0x3, 0x6
000002b2 fbb0                 SUBAR 0x4f, 0x0
000002b3 f6fc                 BTRSS 0x3, 0x2
000002b4 c548                 LGOTO 0x2b7; main.o:_00404_DS_=0x2b7
000002b5 def0                 MOVIA 0xf
000002b6 fbb1                 SUBAR 0x4e, 0x0
000002b7                      main.o:_00404_DS_:
000002b7 f3fc                 BTRSC 0x3, 0x0
000002b8 c543                 LGOTO 0x2bc; main.o:_00389_DS_=0x2bc
000002b9 e0fc                 BCR 0x3, 0x6
000002ba fa32                 INCR 0x4d, 0x1
000002bb c53f                 LGOTO 0x2c0; main.o:_00390_DS_=0x2c0
000002bc                      main.o:_00389_DS_:
000002bc e0fc                 BCR 0x3, 0x6
000002bd fd32                 CLRR 0x4d
000002be defe                 MOVIA 0x1
000002bf ff36                 MOVAR 0x49
000002c0                      main.o:_00390_DS_:
000002c0 def5                 MOVIA 0xa
000002c1 e0fc                 BCR 0x3, 0x6
000002c2 fbb2                 SUBAR 0x4d, 0x0
000002c3 f7fc                 BTRSS 0x3, 0x0
000002c4 c536                 LGOTO 0x2c9; main.o:_00393_DS_=0x2c9
000002c5 def5                 MOVIA 0xa
000002c6 ff32                 MOVAR 0x4d
000002c7 defd                 MOVIA 0x2
000002c8 ff36                 MOVAR 0x49
000002c9                      main.o:_00393_DS_:
000002c9 ffef                 RET
000002ca                      _initAD:
000002ca de74                 MOVIA 0x8b
000002cb ff6f                 MOVAR 0x10
000002cc fd6c                 CLRR 0x13
000002cd deef                 MOVIA 0x10
000002ce ff6e                 MOVAR 0x11
000002cf defc                 MOVIA 0x3
000002d0 ff6b                 MOVAR 0x14
000002d1 e5ef                 BSR 0x10, 0x4
000002d2 de9b                 MOVIA 0x64
000002d3 ff3a                 MOVAR 0x45
000002d4 deff                 MOVIA 0x0
000002d5 d6f4                 LCALL 0x10b; _delay=0x10b
000002d6 ffef                 RET
000002d7                      _keyCtr:
000002d7 e0fc                 BCR 0x3, 0x6
000002d8 feb6                 MOVR 0x49, 0x0
000002d9 dbfe                 XORIA 0x1
000002da f6fc                 BTRSS 0x3, 0x2
000002db c51d                 LGOTO 0x2e2; main.o:_00345_DS_=0x2e2
000002dc feb5                 MOVR 0x4a, 0x0
000002dd f6fc                 BTRSS 0x3, 0x2
000002de c51d                 LGOTO 0x2e2; main.o:_00345_DS_=0x2e2
000002df defe                 MOVIA 0x1
000002e0 ff33                 MOVAR 0x4c
000002e1 e47a                 BSR 0x5, 0x7
000002e2                      main.o:_00345_DS_:
000002e2 e0fc                 BCR 0x3, 0x6
000002e3 feb6                 MOVR 0x49, 0x0
000002e4 f2fc                 BTRSC 0x3, 0x2
000002e5 c511                 LGOTO 0x2ee; main.o:_00353_DS_=0x2ee
000002e6 feb6                 MOVR 0x49, 0x0
000002e7 dbfd                 XORIA 0x2
000002e8 f2fc                 BTRSC 0x3, 0x2
000002e9 c511                 LGOTO 0x2ee; main.o:_00353_DS_=0x2ee
000002ea feb5                 MOVR 0x4a, 0x0
000002eb dbfe                 XORIA 0x1
000002ec f6fc                 BTRSS 0x3, 0x2
000002ed c4f5                 LGOTO 0x30a; main.o:_00357_DS_=0x30a
000002ee                      main.o:_00353_DS_:
000002ee f8f9                 COMR 0x6, 0x0
000002ef e0fc                 BCR 0x3, 0x6
000002f0 ff5e                 MOVAR 0x21
000002f1 defe                 MOVIA 0x1
000002f2 ef5e                 ANDAR 0x21, 0x1
000002f3 fede                 MOVR 0x21, 0x0
000002f4 d71c                 LCALL 0xe3; _keyRead=0xe3
000002f5 e0fc                 BCR 0x3, 0x6
000002f6 ff5e                 MOVAR 0x21
000002f7 dbfd                 XORIA 0x2
000002f8 f6fc                 BTRSS 0x3, 0x2
000002f9 c4f5                 LGOTO 0x30a; main.o:_00357_DS_=0x30a
000002fa feb3                 MOVR 0x4c, 0x0
000002fb f2fc                 BTRSC 0x3, 0x2
000002fc c4fe                 LGOTO 0x301; main.o:_00347_DS_=0x301
000002fd feb5                 MOVR 0x4a, 0x0
000002fe dbfe                 XORIA 0x1
000002ff f6fc                 BTRSS 0x3, 0x2
00000300 c4f9                 LGOTO 0x306; main.o:_00348_DS_=0x306
00000301                      main.o:_00347_DS_:
00000301 e0fc                 BCR 0x3, 0x6
00000302 fd35                 CLRR 0x4a
00000303 defe                 MOVIA 0x1
00000304 ff33                 MOVAR 0x4c
00000305 c4f5                 LGOTO 0x30a; main.o:_00357_DS_=0x30a
00000306                      main.o:_00348_DS_:
00000306 e0fc                 BCR 0x3, 0x6
00000307 fd33                 CLRR 0x4c
00000308 d723                 LCALL 0xdc; _closeStatus=0xdc
00000309 d6de                 LCALL 0x121; _gotoSleep=0x121
0000030a                      main.o:_00357_DS_:
0000030a ffef                 RET
0000030b                      _workCtr:
0000030b f67a                 BTRSS 0x5, 0x3
0000030c c4f0                 LGOTO 0x30f; main.o:_00260_DS_=0x30f
0000030d e0fc                 BCR 0x3, 0x6
0000030e fd35                 CLRR 0x4a
0000030f                      main.o:_00260_DS_:
0000030f d5fe                 LCALL 0x201; _checkBat=0x201
00000310 f57a                 BTRSS 0x5, 0x5
00000311 c4d2                 LGOTO 0x32d; main.o:_00279_DS_=0x32d
00000312 e0fc                 BCR 0x3, 0x6
00000313 feb4                 MOVR 0x4b, 0x0
00000314 dbfd                 XORIA 0x2
00000315 f2fc                 BTRSC 0x3, 0x2
00000316 c4e4                 LGOTO 0x31b; main.o:_00261_DS_=0x31b
00000317 feb6                 MOVR 0x49, 0x0
00000318 dbfd                 XORIA 0x2
00000319 f6fc                 BTRSS 0x3, 0x2
0000031a c4e1                 LGOTO 0x31e; main.o:_00262_DS_=0x31e
0000031b                      main.o:_00261_DS_:
0000031b e679                 BSR 0x6, 0x3
0000031c e2f9                 BCR 0x6, 0x2
0000031d c4e0                 LGOTO 0x31f; main.o:_00263_DS_=0x31f
0000031e                      main.o:_00262_DS_:
0000031e e279                 BCR 0x6, 0x3
0000031f                      main.o:_00263_DS_:
0000031f e0fc                 BCR 0x3, 0x6
00000320 feb4                 MOVR 0x4b, 0x0
00000321 dbfe                 XORIA 0x1
00000322 f6fc                 BTRSS 0x3, 0x2
00000323 c4b9                 LGOTO 0x346; main.o:_00280_DS_=0x346
00000324 feb6                 MOVR 0x49, 0x0
00000325 dbfd                 XORIA 0x2
00000326 f6fc                 BTRSS 0x3, 0x2
00000327 c4b9                 LGOTO 0x346; main.o:_00280_DS_=0x346
00000328 feb5                 MOVR 0x4a, 0x0
00000329 f6fc                 BTRSS 0x3, 0x2
0000032a c4b9                 LGOTO 0x346; main.o:_00280_DS_=0x346
0000032b e379                 BCR 0x6, 0x1
0000032c c4b9                 LGOTO 0x346; main.o:_00280_DS_=0x346
0000032d                      main.o:_00279_DS_:
0000032d e679                 BSR 0x6, 0x3
0000032e e0fc                 BCR 0x3, 0x6
0000032f feb3                 MOVR 0x4c, 0x0
00000330 dbfe                 XORIA 0x1
00000331 f6fc                 BTRSS 0x3, 0x2
00000332 c4c8                 LGOTO 0x337; main.o:_00270_DS_=0x337
00000333 defc                 MOVIA 0x3
00000334 fbb4                 SUBAR 0x4b, 0x0
00000335 f7fc                 BTRSS 0x3, 0x0
00000336 e4fa                 BSR 0x5, 0x6
00000337                      main.o:_00270_DS_:
00000337 e0fc                 BCR 0x3, 0x6
00000338 feb4                 MOVR 0x4b, 0x0
00000339 dbfe                 XORIA 0x1
0000033a f6fc                 BTRSS 0x3, 0x2
0000033b c4c1                 LGOTO 0x33e; main.o:_00276_DS_=0x33e
0000033c e379                 BCR 0x6, 0x1
0000033d c4b9                 LGOTO 0x346; main.o:_00280_DS_=0x346
0000033e                      main.o:_00276_DS_:
0000033e e0fc                 BCR 0x3, 0x6
0000033f feb4                 MOVR 0x4b, 0x0
00000340 f2fc                 BTRSC 0x3, 0x2
00000341 c4ba                 LGOTO 0x345; main.o:_00272_DS_=0x345
00000342 feb4                 MOVR 0x4b, 0x0
00000343 dbfd                 XORIA 0x2
00000344 f2fc                 BTRSC 0x3, 0x2
00000345                      main.o:_00272_DS_:
00000345 e779                 BSR 0x6, 0x1
00000346                      main.o:_00280_DS_:
00000346 e0fc                 BCR 0x3, 0x6
00000347 feb4                 MOVR 0x4b, 0x0
00000348 dbfc                 XORIA 0x3
00000349 f6fc                 BTRSS 0x3, 0x2
0000034a c4a1                 LGOTO 0x35e; main.o:_00286_DS_=0x35e
0000034b feb6                 MOVR 0x49, 0x0
0000034c dbfe                 XORIA 0x1
0000034d f2fc                 BTRSC 0x3, 0x2
0000034e c4a1                 LGOTO 0x35e; main.o:_00286_DS_=0x35e
0000034f fa24                 INCR 0x5b, 0x1
00000350 def5                 MOVIA 0xa
00000351 fba4                 SUBAR 0x5b, 0x0
00000352 f7fc                 BTRSS 0x3, 0x0
00000353 c4a1                 LGOTO 0x35e; main.o:_00286_DS_=0x35e
00000354 fd24                 CLRR 0x5b
00000355 e3fa                 BCR 0x5, 0x0
00000356 fea5                 MOVR 0x5a, 0x0
00000357 f6fc                 BTRSS 0x3, 0x2
00000358 c4a4                 LGOTO 0x35b; main.o:_00282_DS_=0x35b
00000359 def9                 MOVIA 0x6
0000035a ff27                 MOVAR 0x58
0000035b                      main.o:_00282_DS_:
0000035b defe                 MOVIA 0x1
0000035c e0fc                 BCR 0x3, 0x6
0000035d ff25                 MOVAR 0x5a
0000035e                      main.o:_00286_DS_:
0000035e e0fc                 BCR 0x3, 0x6
0000035f feb5                 MOVR 0x4a, 0x0
00000360 f2fc                 BTRSC 0x3, 0x2
00000361 d648                 LCALL 0x1b7; _checkOutA=0x1b7
00000362 ffef                 RET
00000363                      _chrgWork:
00000363 e0fc                 BCR 0x3, 0x6
00000364 feb5                 MOVR 0x4a, 0x0
00000365 dbfe                 XORIA 0x1
00000366 f6fc                 BTRSS 0x3, 0x2
00000367 c493                 LGOTO 0x36c; main.o:_00241_DS_=0x36c
00000368 e0fa                 BCR 0x5, 0x6
00000369 e07a                 BCR 0x5, 0x7
0000036a e779                 BSR 0x6, 0x1
0000036b e3fa                 BCR 0x5, 0x0
0000036c                      main.o:_00241_DS_:
0000036c f57a                 BTRSS 0x5, 0x5
0000036d c474                 LGOTO 0x38b; main.o:_00254_DS_=0x38b
0000036e d57d                 LCALL 0x282; _checkInV=0x282
0000036f e0fc                 BCR 0x3, 0x6
00000370 feb6                 MOVR 0x49, 0x0
00000371 dbfd                 XORIA 0x2
00000372 f6fc                 BTRSS 0x3, 0x2
00000373 c478                 LGOTO 0x387; main.o:_00250_DS_=0x387
00000374 feb3                 MOVR 0x4c, 0x0
00000375 dbfe                 XORIA 0x1
00000376 f6fc                 BTRSS 0x3, 0x2
00000377 c47d                 LGOTO 0x382; main.o:_00243_DS_=0x382
00000378 defc                 MOVIA 0x3
00000379 fbb4                 SUBAR 0x4b, 0x0
0000037a f3fc                 BTRSC 0x3, 0x0
0000037b c47d                 LGOTO 0x382; main.o:_00243_DS_=0x382
0000037c feb5                 MOVR 0x4a, 0x0
0000037d f6fc                 BTRSS 0x3, 0x2
0000037e c47d                 LGOTO 0x382; main.o:_00243_DS_=0x382
0000037f e4fa                 BSR 0x5, 0x6
00000380 e7fa                 BSR 0x5, 0x0
00000381 c474                 LGOTO 0x38b; main.o:_00254_DS_=0x38b
00000382                      main.o:_00243_DS_:
00000382 e0fa                 BCR 0x5, 0x6
00000383 e07a                 BCR 0x5, 0x7
00000384 e779                 BSR 0x6, 0x1
00000385 e3fa                 BCR 0x5, 0x0
00000386 c474                 LGOTO 0x38b; main.o:_00254_DS_=0x38b
00000387                      main.o:_00250_DS_:
00000387 e0fc                 BCR 0x3, 0x6
00000388 feb5                 MOVR 0x4a, 0x0
00000389 f2fc                 BTRSC 0x3, 0x2
0000038a e47a                 BSR 0x5, 0x7
0000038b                      main.o:_00254_DS_:
0000038b ffef                 RET
0000038c                      ___cinit_load__:
