00000000 c7fe                LGOTO    0x1; __nyc_ny8_startup=0x1
00000001                     __nyc_ny8_startup:
00000001 d737                LCALL    0xc8; ___cinit_load__=0xc8
00000002 c7fc                LGOTO    0x3; _main=0x3
00000003                     _main:
00000003 de00                MOVIA    0xff
00000004 fffa                IOST     IOSTA
00000005 ff7a                MOVAR    PORTA
00000006 fd71                CLRR     INTE
00000007 de7f                MOVIA    0x80
00000008 ff6f                MOVAR    ADMD
00000009 defd                MOVIA    0x2
0000000a ff6c                MOVAR    ADVREFH
0000000b deef                MOVIA    0x10
0000000c ff6e                MOVAR    ADR
0000000d defc                MOVIA    0x3
0000000e ff6b                MOVAR    ADCR
0000000f defe                MOVIA    0x1
00000010 ff69                MOVAR    PACON
00000011 e5ef                BSR      ADMD, GCHS
00000012 decd                MOVIA    0x32
00000013 ff38                MOVAR    0x47
00000014 deff                MOVIA    0x0
00000015 d755                LCALL    0xaa; _delay=0xaa
00000016                     main.o:_00106_DS_:
00000016 fffd                CLRWDT
00000017 e0fc                BCR      STATUS, BK0
00000018 fd5a                CLRR     0x25
00000019 fd5d                CLRR     0x22
0000001a fd5c                CLRR     0x23
0000001b fd5b                CLRR     0x24
0000001c fd5f                CLRR     0x20
0000001d fd5e                CLRR     0x21
0000001e def7                MOVIA    0x8
0000001f d776                LCALL    0x89; _F_AIN0_Convert=0x89
00000020 e0fc                BCR      STATUS, BK0
00000021 eade                SWAPR    0x21, ToAcc
00000022 dd0f                ANDIA    0xf0
00000023 ff5e                MOVAR    0x21
00000024 eadf                SWAPR    0x20, ToAcc
00000025 ff5f                MOVAR    0x20
00000026 ddf0                ANDIA    0xf
00000027 ee5e                IORAR    0x21, ToReg
00000028 ed5f                XORAR    0x20, ToReg
00000029 de0f                MOVIA    0xf0
0000002a ef5b                ANDAR    0x24, ToReg
0000002b fedb                MOVR     0x24, ToAcc
0000002c ff59                MOVAR    0x26
0000002d deff                MOVIA    0x0
0000002e ff57                MOVAR    0x28
0000002f fed9                MOVR     0x26, ToAcc
00000030 ff58                MOVAR    0x27
00000031 fc5f                ADDAR    0x20, ToReg
00000032 fed7                MOVR     0x28, ToAcc
00000033 f3fc                BTRSC    STATUS, C
00000034 fad7                INCR     0x28, ToAcc
00000035 f2fc                BTRSC    STATUS, Z
00000036 c7c7                LGOTO    0x38; main.o:_00004_DS_=0x38
00000037 fc5e                ADDAR    0x21, ToReg
00000038                     main.o:_00004_DS_:
00000038 e3fc                BCR      STATUS, C
00000039 e0fc                BCR      STATUS, BK0
0000003a ec5e                RRR      0x21, ToReg
0000003b ec5f                RRR      0x20, ToReg
0000003c e3fc                BCR      STATUS, C
0000003d ec5e                RRR      0x21, ToReg
0000003e ec5f                RRR      0x20, ToReg
0000003f e3fc                BCR      STATUS, C
00000040 ec5e                RRR      0x21, ToReg
00000041 ec5f                RRR      0x20, ToReg
00000042 def7                MOVIA    0x8
00000043 d797                LCALL    0x68; _F_Quarter_VDD_Convert=0x68
00000044 e0fc                BCR      STATUS, BK0
00000045 eadc                SWAPR    0x23, ToAcc
00000046 dd0f                ANDIA    0xf0
00000047 ff5c                MOVAR    0x23
00000048 eadd                SWAPR    0x22, ToAcc
00000049 ff5d                MOVAR    0x22
0000004a ddf0                ANDIA    0xf
0000004b ee5c                IORAR    0x23, ToReg
0000004c ed5d                XORAR    0x22, ToReg
0000004d de0f                MOVIA    0xf0
0000004e ef5a                ANDAR    0x25, ToReg
0000004f feda                MOVR     0x25, ToAcc
00000050 ff58                MOVAR    0x27
00000051 ff59                MOVAR    0x26
00000052 deff                MOVIA    0x0
00000053 ff57                MOVAR    0x28
00000054 fed8                MOVR     0x27, ToAcc
00000055 fc5d                ADDAR    0x22, ToReg
00000056 fed7                MOVR     0x28, ToAcc
00000057 f3fc                BTRSC    STATUS, C
00000058 fad7                INCR     0x28, ToAcc
00000059 f2fc                BTRSC    STATUS, Z
0000005a c7a3                LGOTO    0x5c; main.o:_00005_DS_=0x5c
0000005b fc5c                ADDAR    0x23, ToReg
0000005c                     main.o:_00005_DS_:
0000005c e3fc                BCR      STATUS, C
0000005d e0fc                BCR      STATUS, BK0
0000005e ec5c                RRR      0x23, ToReg
0000005f ec5d                RRR      0x22, ToReg
00000060 e3fc                BCR      STATUS, C
00000061 ec5c                RRR      0x23, ToReg
00000062 ec5d                RRR      0x22, ToReg
00000063 e3fc                BCR      STATUS, C
00000064 ec5c                RRR      0x23, ToReg
00000065 ec5d                RRR      0x22, ToReg
00000066 c7e9                LGOTO    0x16; main.o:_00106_DS_=0x16
00000067 ffef                RET
00000068                     _F_Quarter_VDD_Convert:
00000068 e0fc                BCR      STATUS, BK0
00000069 ff52                MOVAR    0x2d
0000006a de64                MOVIA    0x9b
0000006b ff6f                MOVAR    ADMD
0000006c defe                MOVIA    0x1
0000006d ff51                MOVAR    0x2e
0000006e                     main.o:_00122_DS_:
0000006e e0fc                BCR      STATUS, BK0
0000006f fed1                MOVR     0x2e, ToAcc
00000070 fbd2                SUBAR    0x2d, ToAcc
00000071 f7fc                BTRSS    STATUS, C
00000072 c777                LGOTO    0x88; main.o:_00124_DS_=0x88
00000073 e4ef                BSR      ADMD, START
00000074 d73a                LCALL    0xc5; _F_wait_eoc=0xc5
00000075 def0                MOVIA    0xf
00000076 efee                ANDAR    ADR, ToAcc
00000077 e0fc                BCR      STATUS, BK0
00000078 fc5a                ADDAR    0x25, ToReg
00000079 feed                MOVR     ADD, ToAcc
0000007a ff50                MOVAR    0x2f
0000007b deff                MOVIA    0x0
0000007c ff4f                MOVAR    0x30
0000007d fed0                MOVR     0x2f, ToAcc
0000007e fc5d                ADDAR    0x22, ToReg
0000007f fecf                MOVR     0x30, ToAcc
00000080 f3fc                BTRSC    STATUS, C
00000081 facf                INCR     0x30, ToAcc
00000082 f2fc                BTRSC    STATUS, Z
00000083 c77a                LGOTO    0x85; main.o:_00002_DS_=0x85
00000084 fc5c                ADDAR    0x23, ToReg
00000085                     main.o:_00002_DS_:
00000085 e0fc                BCR      STATUS, BK0
00000086 fa51                INCR     0x2e, ToReg
00000087 c791                LGOTO    0x6e; main.o:_00122_DS_=0x6e
00000088                     main.o:_00124_DS_:
00000088 ffef                RET
00000089                     _F_AIN0_Convert:
00000089 e0fc                BCR      STATUS, BK0
0000008a ff56                MOVAR    0x29
0000008b de6f                MOVIA    0x90
0000008c ff6f                MOVAR    ADMD
0000008d defe                MOVIA    0x1
0000008e ff55                MOVAR    0x2a
0000008f                     main.o:_00113_DS_:
0000008f e0fc                BCR      STATUS, BK0
00000090 fed5                MOVR     0x2a, ToAcc
00000091 fbd6                SUBAR    0x29, ToAcc
00000092 f7fc                BTRSS    STATUS, C
00000093 c756                LGOTO    0xa9; main.o:_00115_DS_=0xa9
00000094 e4ef                BSR      ADMD, START
00000095 d73a                LCALL    0xc5; _F_wait_eoc=0xc5
00000096 def0                MOVIA    0xf
00000097 efee                ANDAR    ADR, ToAcc
00000098 e0fc                BCR      STATUS, BK0
00000099 fc5b                ADDAR    0x24, ToReg
0000009a feed                MOVR     ADD, ToAcc
0000009b ff54                MOVAR    0x2b
0000009c deff                MOVIA    0x0
0000009d ff53                MOVAR    0x2c
0000009e fed4                MOVR     0x2b, ToAcc
0000009f fc5f                ADDAR    0x20, ToReg
000000a0 fed3                MOVR     0x2c, ToAcc
000000a1 f3fc                BTRSC    STATUS, C
000000a2 fad3                INCR     0x2c, ToAcc
000000a3 f2fc                BTRSC    STATUS, Z
000000a4 c759                LGOTO    0xa6; main.o:_00003_DS_=0xa6
000000a5 fc5e                ADDAR    0x21, ToReg
000000a6                     main.o:_00003_DS_:
000000a6 e0fc                BCR      STATUS, BK0
000000a7 fa55                INCR     0x2a, ToReg
000000a8 c770                LGOTO    0x8f; main.o:_00113_DS_=0x8f
000000a9                     main.o:_00115_DS_:
000000a9 ffef                RET
000000aa                     _delay:
000000aa e0fc                BCR      STATUS, BK0
000000ab ff4d                MOVAR    0x32
000000ac feb8                MOVR     0x47, ToAcc
000000ad ff4e                MOVAR    0x31
000000ae defe                MOVIA    0x1
000000af ff4c                MOVAR    0x33
000000b0 fd4b                CLRR     0x34
000000b1                     main.o:_00136_DS_:
000000b1 e0fc                BCR      STATUS, BK0
000000b2 fecd                MOVR     0x32, ToAcc
000000b3 da7f                ADDIA    0x80
000000b4 ff4a                MOVAR    0x35
000000b5 fecb                MOVR     0x34, ToAcc
000000b6 da7f                ADDIA    0x80
000000b7 fbca                SUBAR    0x35, ToAcc
000000b8 f6fc                BTRSS    STATUS, Z
000000b9 c743                LGOTO    0xbc; main.o:_00147_DS_=0xbc
000000ba fecc                MOVR     0x33, ToAcc
000000bb fbce                SUBAR    0x31, ToAcc
000000bc                     main.o:_00147_DS_:
000000bc f7fc                BTRSS    STATUS, C
000000bd c73b                LGOTO    0xc4; main.o:_00138_DS_=0xc4
000000be e0fc                BCR      STATUS, BK0
000000bf fa4c                INCR     0x33, ToReg
000000c0 f6fc                BTRSS    STATUS, Z
000000c1 c73c                LGOTO    0xc3; main.o:_00001_DS_=0xc3
000000c2 fa4b                INCR     0x34, ToReg
000000c3                     main.o:_00001_DS_:
000000c3 c74e                LGOTO    0xb1; main.o:_00136_DS_=0xb1
000000c4                     main.o:_00138_DS_:
000000c4 ffef                RET
000000c5                     _F_wait_eoc:
000000c5 f56f                BTRSS    ADMD, EOC
000000c6 c73a                LGOTO    0xc5; _F_wait_eoc=0xc5
000000c7 ffef                RET
000000c8                     ___cinit_load__:
000000c8 ffef                RET

