00000000 c7fe                 LGOTO 0x1; __nyc_ny8_startup=0x1
00000001                      __nyc_ny8_startup:
00000001 d073                 LCALL 0x78c; ___cinit_load__=0x78c
00000002 c7ad                 LGOTO 0x52; _main=0x52
00000003                      main.o:_00545_DS_:
00000003 f56f                 BTRSS 0x10, 0x5
00000004 c7fc                 LGOTO 0x3; main.o:_00545_DS_=0x3
00000005 ffef                 RET
00000008 c7f6                 LGOTO 0x9; main.o:__sdcc_interrupt=0x9
00000009                      main.o:__sdcc_interrupt:
00000009 ff3d                 MOVAR 0x42
0000000a eafc                 SWAPR 0x3, 0x0
0000000b fd7c                 CLRR 0x3
0000000c ff3e                 MOVAR 0x41
0000000d fef5                 MOVR 0xa, 0x0
0000000e fd75                 CLRR 0xa
0000000f ff3f                 MOVAR 0x40
00000010 fefb                 MOVR 0x4, 0x0
00000011 e0fc                 BCR 0x3, 0x6
00000012 ff1f                 MOVAR 0x60
00000013 feb8                 MOVR 0x47, 0x0
00000014 ff1e                 MOVAR 0x61
00000015 feb9                 MOVR 0x46, 0x0
00000016 ff1d                 MOVAR 0x62
00000017 f7f0                 BTRSS 0xf, 0x0
00000018 c7c3                 LGOTO 0x3c; main.o:_00120_DS_=0x3c
00000019 dec8                 MOVIA 0x37
0000001a fc7e                 ADDAR 0x1, 0x1
0000001b fa1c                 INCR 0x63, 0x1
0000001c de9b                 MOVIA 0x64
0000001d fb9c                 SUBAR 0x63, 0x0
0000001e f7fc                 BTRSS 0x3, 0x0
0000001f c7c3                 LGOTO 0x3c; main.o:_00120_DS_=0x3c
00000020 defe                 MOVIA 0x1
00000021 ff1b                 MOVAR 0x64
00000022 fd1c                 CLRR 0x63
00000023 fa08                 INCR 0x77, 0x1
00000024 de9a                 MOVIA 0x65
00000025 fb88                 SUBAR 0x77, 0x0
00000026 f7fc                 BTRSS 0x3, 0x0
00000027 c7c3                 LGOTO 0x3c; main.o:_00120_DS_=0x3c
00000028 fd08                 CLRR 0x77
00000029 fe90                 MOVR 0x6f, 0x0
0000002a f2fc                 BTRSC 0x3, 0x2
0000002b c7d1                 LGOTO 0x2e; main.o:_00113_DS_=0x2e
0000002c f910                 DECR 0x6f, 0x1
0000002d c7c3                 LGOTO 0x3c; main.o:_00120_DS_=0x3c
0000002e                      main.o:_00113_DS_:
0000002e e0fc                 BCR 0x3, 0x6
0000002f fe91                 MOVR 0x6e, 0x0
00000030 f2fc                 BTRSC 0x3, 0x2
00000031 c7cb                 LGOTO 0x34; main.o:_00110_DS_=0x34
00000032 f911                 DECR 0x6e, 0x1
00000033 c7c3                 LGOTO 0x3c; main.o:_00120_DS_=0x3c
00000034                      main.o:_00110_DS_:
00000034 e0fc                 BCR 0x3, 0x6
00000035 fe85                 MOVR 0x7a, 0x0
00000036 f2fc                 BTRSC 0x3, 0x2
00000037 c7c3                 LGOTO 0x3c; main.o:_00120_DS_=0x3c
00000038 e805                 DECRSZ 0x7a, 0x1
00000039 c7c3                 LGOTO 0x3c; main.o:_00120_DS_=0x3c
0000003a defe                 MOVIA 0x1
0000003b ff03                 MOVAR 0x7c
0000003c                      main.o:_00120_DS_:
0000003c f770                 BTRSS 0xf, 0x1
0000003d c7bd                 LGOTO 0x42; main.o:_00122_DS_=0x42
0000003e de02                 MOVIA 0xfd
0000003f ff70                 MOVAR 0xf
00000040 e0fc                 BCR 0x3, 0x6
00000041 fa15                 INCR 0x6a, 0x1
00000042                      main.o:_00122_DS_:
00000042 fd70                 CLRR 0xf
00000043 e0fc                 BCR 0x3, 0x6
00000044 fe9d                 MOVR 0x62, 0x0
00000045 ff39                 MOVAR 0x46
00000046 fe9e                 MOVR 0x61, 0x0
00000047 ff38                 MOVAR 0x47
00000048 fe9f                 MOVR 0x60, 0x0
00000049 ff7b                 MOVAR 0x4
0000004a febf                 MOVR 0x40, 0x0
0000004b ff75                 MOVAR 0xa
0000004c fd7c                 CLRR 0x3
0000004d eabe                 SWAPR 0x41, 0x0
0000004e ff7c                 MOVAR 0x3
0000004f ea3d                 SWAPR 0x42, 0x1
00000050 eabd                 SWAPR 0x42, 0x0
00000051                      main.o:END_OF_INTERRUPT:
00000051 ffee                 RETIE
00000052                      _main:
00000052 d434                 LCALL 0x3cb; _initSys=0x3cb
00000053 d4f3                 LCALL 0x30c; _initAD=0x30c
00000054 de37                 MOVIA 0xc8
00000055 e4fc                 BSR 0x3, 0x6
00000056 ff5a                 MOVAR 0x25
00000057                      main.o:_00187_DS_:
00000057 fffd                 CLRWDT
00000058 e0fc                 BCR 0x3, 0x6
00000059 fe97                 MOVR 0x68, 0x0
0000005a f2fc                 BTRSC 0x3, 0x2
0000005b c7a1                 LGOTO 0x5e; main.o:_00135_DS_=0x5e
0000005c d416                 LCALL 0x3e9; _refreshNub=0x3e9
0000005d c783                 LGOTO 0x7c; main.o:_00136_DS_=0x7c
0000005e                      main.o:_00135_DS_:
0000005e e0fc                 BCR 0x3, 0x6
0000005f fe8e                 MOVR 0x71, 0x0
00000060 f2fc                 BTRSC 0x3, 0x2
00000061 c788                 LGOTO 0x77; main.o:_00131_DS_=0x77
00000062 fe92                 MOVR 0x6d, 0x0
00000063 dbfe                 XORIA 0x1
00000064 f6fc                 BTRSS 0x3, 0x2
00000065                      ___cinit_size__:
00000065 c788                 LGOTO 0x77; main.o:_00131_DS_=0x77
00000066 de9b                 MOVIA 0x64
00000067 fb8f                 SUBAR 0x70, 0x0
00000068 f7fc                 BTRSS 0x3, 0x0
00000069 c790                 LGOTO 0x6f; main.o:_00128_DS_=0x6f
0000006a defe                 MOVIA 0x1
0000006b ff1a                 MOVAR 0x65
0000006c fd18                 CLRR 0x67
0000006d fd19                 CLRR 0x66
0000006e c78a                 LGOTO 0x75; main.o:_00129_DS_=0x75
0000006f                      main.o:_00128_DS_:
0000006f e0fc                 BCR 0x3, 0x6
00000070 fd1a                 CLRR 0x65
00000071 fe82                 MOVR 0x7d, 0x0
00000072 ff19                 MOVAR 0x66
00000073 fe81                 MOVR 0x7e, 0x0
00000074 ff18                 MOVAR 0x67
00000075                      main.o:_00129_DS_:
00000075 d416                 LCALL 0x3e9; _refreshNub=0x3e9
00000076 c783                 LGOTO 0x7c; main.o:_00136_DS_=0x7c
00000077                      main.o:_00131_DS_:
00000077 e0fc                 BCR 0x3, 0x6
00000078 fd18                 CLRR 0x67
00000079 fd19                 CLRR 0x66
0000007a fd1a                 CLRR 0x65
0000007b d2ea                 LCALL 0x515; _setInput=0x515
0000007c                      main.o:_00136_DS_:
0000007c e0fc                 BCR 0x3, 0x6
0000007d fe9b                 MOVR 0x64, 0x0
0000007e f2fc                 BTRSC 0x3, 0x2
0000007f c7a8                 LGOTO 0x57; main.o:_00187_DS_=0x57
00000080 fd1b                 CLRR 0x64
00000081 def5                 MOVIA 0xa
00000082 ff38                 MOVAR 0x47
00000083 fe8f                 MOVR 0x70, 0x0
00000084 d10c                 LCALL 0x6f3; __divuchar=0x6f3
00000085 e0fc                 BCR 0x3, 0x6
00000086 ff02                 MOVAR 0x7d
00000087 def5                 MOVIA 0xa
00000088 ff38                 MOVAR 0x47
00000089 fe8f                 MOVR 0x70, 0x0
0000008a d0e3                 LCALL 0x71c; __moduchar=0x71c
0000008b e0fc                 BCR 0x3, 0x6
0000008c ff01                 MOVAR 0x7e
0000008d fe87                 MOVR 0x78, 0x0
0000008e ee86                 IORAR 0x79, 0x0
0000008f f2fc                 BTRSC 0x3, 0x2
00000090 c769                 LGOTO 0x96; main.o:_00168_DS_=0x96
00000091 de00                 MOVIA 0xff
00000092 fc07                 ADDAR 0x78, 0x1
00000093 f7fc                 BTRSS 0x3, 0x0
00000094 f906                 DECR 0x79, 0x1
00000095 c6ea                 LGOTO 0x115; main.o:_00169_DS_=0x115
00000096                      main.o:_00168_DS_:
00000096 e0fc                 BCR 0x3, 0x6
00000097 fe92                 MOVR 0x6d, 0x0
00000098 f2fc                 BTRSC 0x3, 0x2
00000099 c6ea                 LGOTO 0x115; main.o:_00169_DS_=0x115
0000009a fa00                 INCR 0x7f, 0x1
0000009b def5                 MOVIA 0xa
0000009c fb80                 SUBAR 0x7f, 0x0
0000009d f7fc                 BTRSS 0x3, 0x0
0000009e c6ea                 LGOTO 0x115; main.o:_00169_DS_=0x115
0000009f fd00                 CLRR 0x7f
000000a0 e4fc                 BSR 0x3, 0x6
000000a1 fd59                 CLRR 0x26
000000a2 e0fc                 BCR 0x3, 0x6
000000a3 fd15                 CLRR 0x6a
000000a4 e779                 BSR 0x6, 0x1
000000a5 defe                 MOVIA 0x1
000000a6 ffb9                 SFUN 0x6
000000a7 def5                 MOVIA 0xa
000000a8 d6b2                 LCALL 0x14d; _delay=0x14d
000000a9 e0fc                 BCR 0x3, 0x6
000000aa e4fa                 BSR 0x5, 0x6
000000ab fd5c                 CLRR 0x23
000000ac                      main.o:_00189_DS_:
000000ac def5                 MOVIA 0xa
000000ad d6b2                 LCALL 0x14d; _delay=0x14d
000000ae e0fc                 BCR 0x3, 0x6
000000af fa5c                 INCR 0x23, 0x1
000000b0 def9                 MOVIA 0x6
000000b1 fbdc                 SUBAR 0x23, 0x0
000000b2 f7fc                 BTRSS 0x3, 0x0
000000b3 c753                 LGOTO 0xac; main.o:_00189_DS_=0xac
000000b4 e379                 BCR 0x6, 0x1
000000b5 fdff                 CLRA
000000b6 ffb9                 SFUN 0x6
000000b7 e0fa                 BCR 0x5, 0x6
000000b8 def9                 MOVIA 0x6
000000b9 fb95                 SUBAR 0x6a, 0x0
000000ba f7fc                 BTRSS 0x3, 0x0
000000bb c6f3                 LGOTO 0x10c; main.o:_00161_DS_=0x10c
000000bc fd15                 CLRR 0x6a
000000bd dee1                 MOVIA 0x1e
000000be d6b2                 LCALL 0x14d; _delay=0x14d
000000bf e779                 BSR 0x6, 0x1
000000c0 defe                 MOVIA 0x1
000000c1 ffb9                 SFUN 0x6
000000c2 def5                 MOVIA 0xa
000000c3 d6b2                 LCALL 0x14d; _delay=0x14d
000000c4 e0fc                 BCR 0x3, 0x6
000000c5 e4fa                 BSR 0x5, 0x6
000000c6 e4fc                 BSR 0x3, 0x6
000000c7 fd59                 CLRR 0x26
000000c8 e0fc                 BCR 0x3, 0x6
000000c9 fd5c                 CLRR 0x23
000000ca                      main.o:_00140_DS_:
000000ca e0fc                 BCR 0x3, 0x6
000000cb fd5b                 CLRR 0x24
000000cc f279                 BTRSC 0x6, 0x3
000000cd fa5b                 INCR 0x24, 0x1
000000ce fedb                 MOVR 0x24, 0x0
000000cf dbfe                 XORIA 0x1
000000d0 f6fc                 BTRSS 0x3, 0x2
000000d1 c72a                 LGOTO 0xd5; main.o:_00192_DS_=0xd5
000000d2 e4fc                 BSR 0x3, 0x6
000000d3 fa59                 INCR 0x26, 0x1
000000d4 c735                 LGOTO 0xca; main.o:_00140_DS_=0xca
000000d5                      main.o:_00192_DS_:
000000d5 e0fc                 BCR 0x3, 0x6
000000d6 fa5c                 INCR 0x23, 0x1
000000d7 decd                 MOVIA 0x32
000000d8 fbdc                 SUBAR 0x23, 0x0
000000d9 f7fc                 BTRSS 0x3, 0x0
000000da c735                 LGOTO 0xca; main.o:_00140_DS_=0xca
000000db e0fa                 BCR 0x5, 0x6
000000dc d3e7                 LCALL 0x418; _checkIRKey=0x418
000000dd e379                 BCR 0x6, 0x1
000000de fdff                 CLRA
000000df ffb9                 SFUN 0x6
000000e0 e0fc                 BCR 0x3, 0x6
000000e1 fe84                 MOVR 0x7b, 0x0
000000e2 dbfe                 XORIA 0x1
000000e3 f6fc                 BTRSS 0x3, 0x2
000000e4 c701                 LGOTO 0xfe; main.o:_00153_DS_=0xfe
000000e5 fe93                 MOVR 0x6c, 0x0
000000e6 dbfe                 XORIA 0x1
000000e7 f6fc                 BTRSS 0x3, 0x2
000000e8 c712                 LGOTO 0xed; main.o:_00150_DS_=0xed
000000e9 decd                 MOVIA 0x32
000000ea ff07                 MOVAR 0x78
000000eb fd06                 CLRR 0x79
000000ec c701                 LGOTO 0xfe; main.o:_00153_DS_=0xfe
000000ed                      main.o:_00150_DS_:
000000ed e0fc                 BCR 0x3, 0x6
000000ee fe93                 MOVR 0x6c, 0x0
000000ef dbfd                 XORIA 0x2
000000f0 f6fc                 BTRSS 0x3, 0x2
000000f1 c709                 LGOTO 0xf6; main.o:_00147_DS_=0xf6
000000f2 de9b                 MOVIA 0x64
000000f3 ff07                 MOVAR 0x78
000000f4 fd06                 CLRR 0x79
000000f5 c701                 LGOTO 0xfe; main.o:_00153_DS_=0xfe
000000f6                      main.o:_00147_DS_:
000000f6 e0fc                 BCR 0x3, 0x6
000000f7 fe93                 MOVR 0x6c, 0x0
000000f8 dbfc                 XORIA 0x3
000000f9 f6fc                 BTRSS 0x3, 0x2
000000fa c701                 LGOTO 0xfe; main.o:_00153_DS_=0xfe
000000fb de69                 MOVIA 0x96
000000fc ff07                 MOVAR 0x78
000000fd fd06                 CLRR 0x79
000000fe                      main.o:_00153_DS_:
000000fe def9                 MOVIA 0x6
000000ff e4fc                 BSR 0x3, 0x6
00000100 fbd9                 SUBAR 0x26, 0x0
00000101 f7fc                 BTRSS 0x3, 0x0
00000102 c6ec                 LGOTO 0x113; main.o:_00162_DS_=0x113
00000103 e0fc                 BCR 0x3, 0x6
00000104 fa04                 INCR 0x7b, 0x1
00000105 ded6                 MOVIA 0x29
00000106 fb84                 SUBAR 0x7b, 0x0
00000107 f7fc                 BTRSS 0x3, 0x0
00000108 c6ec                 LGOTO 0x113; main.o:_00162_DS_=0x113
00000109 ded7                 MOVIA 0x28
0000010a ff04                 MOVAR 0x7b
0000010b c6ec                 LGOTO 0x113; main.o:_00162_DS_=0x113
0000010c                      main.o:_00161_DS_:
0000010c defd                 MOVIA 0x2
0000010d e0fc                 BCR 0x3, 0x6
0000010e fb95                 SUBAR 0x6a, 0x0
0000010f f3fc                 BTRSC 0x3, 0x0
00000110 c6ec                 LGOTO 0x113; main.o:_00162_DS_=0x113
00000111 fd04                 CLRR 0x7b
00000112 fd16                 CLRR 0x69
00000113                      main.o:_00162_DS_:
00000113 defa                 MOVIA 0x5
00000114 d6b2                 LCALL 0x14d; _delay=0x14d
00000115                      main.o:_00169_DS_:
00000115 d4e8                 LCALL 0x317; _keyCtr=0x317
00000116 e4fc                 BSR 0x3, 0x6
00000117 fa5d                 INCR 0x22, 0x1
00000118 deeb                 MOVIA 0x14
00000119 fbdd                 SUBAR 0x22, 0x0
0000011a f7fc                 BTRSS 0x3, 0x0
0000011b c6de                 LGOTO 0x121; main.o:_00173_DS_=0x121
0000011c fd5d                 CLRR 0x22
0000011d e0fc                 BCR 0x3, 0x6
0000011e fe94                 MOVR 0x6b, 0x0
0000011f f2fc                 BTRSC 0x3, 0x2
00000120 d685                 LCALL 0x17a; _checkBat=0x17a
00000121                      main.o:_00173_DS_:
00000121 d3bb                 LCALL 0x444; _chrgCtr=0x444
00000122 e0fc                 BCR 0x3, 0x6
00000123 fefa                 MOVR 0x5, 0x0
00000124 ff5c                 MOVAR 0x23
00000125 fd5b                 CLRR 0x24
00000126 f8dc                 COMR 0x23, 0x0
00000127 ff5c                 MOVAR 0x23
00000128 f8db                 COMR 0x24, 0x0
00000129 ff5b                 MOVAR 0x24
0000012a f55c                 BTRSS 0x23, 0x5
0000012b c6ba                 LGOTO 0x145; main.o:_00177_DS_=0x145
0000012c fe8e                 MOVR 0x71, 0x0
0000012d f6fc                 BTRSS 0x3, 0x2
0000012e c6ba                 LGOTO 0x145; main.o:_00177_DS_=0x145
0000012f fe92                 MOVR 0x6d, 0x0
00000130 f6fc                 BTRSS 0x3, 0x2
00000131 c6ba                 LGOTO 0x145; main.o:_00177_DS_=0x145
00000132 fe90                 MOVR 0x6f, 0x0
00000133 f6fc                 BTRSS 0x3, 0x2
00000134 c6ba                 LGOTO 0x145; main.o:_00177_DS_=0x145
00000135 fe91                 MOVR 0x6e, 0x0
00000136 f6fc                 BTRSS 0x3, 0x2
00000137 c6ba                 LGOTO 0x145; main.o:_00177_DS_=0x145
00000138 fe85                 MOVR 0x7a, 0x0
00000139 f6fc                 BTRSS 0x3, 0x2
0000013a c6ba                 LGOTO 0x145; main.o:_00177_DS_=0x145
0000013b e4fc                 BSR 0x3, 0x6
0000013c feda                 MOVR 0x25, 0x0
0000013d f6fc                 BTRSS 0x3, 0x2
0000013e c6ba                 LGOTO 0x145; main.o:_00177_DS_=0x145
0000013f e0fc                 BCR 0x3, 0x6
00000140 fa0c                 INCR 0x73, 0x1
00000141 de9a                 MOVIA 0x65
00000142 fb8c                 SUBAR 0x73, 0x0
00000143 f3fc                 BTRSC 0x3, 0x0
00000144 d45b                 LCALL 0x3a4; _gotoSleep=0x3a4
00000145                      main.o:_00177_DS_:
00000145 e0fc                 BCR 0x3, 0x6
00000146 fe83                 MOVR 0x7c, 0x0
00000147 f6fc                 BTRSS 0x3, 0x2
00000148 d45b                 LCALL 0x3a4; _gotoSleep=0x3a4
00000149 de9b                 MOVIA 0x64
0000014a d6b2                 LCALL 0x14d; _delay=0x14d
0000014b c7a8                 LGOTO 0x57; main.o:_00187_DS_=0x57
0000014c ffef                 RET
0000014d                      _delay:
0000014d e0fc                 BCR 0x3, 0x6
0000014e ff49                 MOVAR 0x36
0000014f defe                 MOVIA 0x1
00000150 ff48                 MOVAR 0x37
00000151                      main.o:_00552_DS_:
00000151 e0fc                 BCR 0x3, 0x6
00000152 fec8                 MOVR 0x37, 0x0
00000153 fbc9                 SUBAR 0x36, 0x0
00000154 f7fc                 BTRSS 0x3, 0x0
00000155 c6a7                 LGOTO 0x158; main.o:_00554_DS_=0x158
00000156 fa48                 INCR 0x37, 0x1
00000157 c6ae                 LGOTO 0x151; main.o:_00552_DS_=0x151
00000158                      main.o:_00554_DS_:
00000158 ffef                 RET
00000159                      _F_Quarter_VDD_Convert:
00000159 e0fc                 BCR 0x3, 0x6
0000015a ff4d                 MOVAR 0x32
0000015b de64                 MOVIA 0x9b
0000015c ff6f                 MOVAR 0x10
0000015d defe                 MOVIA 0x1
0000015e ff4c                 MOVAR 0x33
0000015f                      main.o:_00538_DS_:
0000015f e0fc                 BCR 0x3, 0x6
00000160 fecc                 MOVR 0x33, 0x0
00000161 fbcd                 SUBAR 0x32, 0x0
00000162 f7fc                 BTRSS 0x3, 0x0
00000163 c686                 LGOTO 0x179; main.o:_00540_DS_=0x179
00000164 e4ef                 BSR 0x10, 0x6
00000165 d7fc                 LCALL 0x3; main.o:_00545_DS_=0x3
00000166 def0                 MOVIA 0xf
00000167 efee                 ANDAR 0x11, 0x0
00000168 e0fc                 BCR 0x3, 0x6
00000169 fc5d                 ADDAR 0x22, 0x1
0000016a feed                 MOVR 0x12, 0x0
0000016b ff4b                 MOVAR 0x34
0000016c deff                 MOVIA 0x0
0000016d ff4a                 MOVAR 0x35
0000016e fecb                 MOVR 0x34, 0x0
0000016f fc5f                 ADDAR 0x20, 0x1
00000170 feca                 MOVR 0x35, 0x0
00000171 f3fc                 BTRSC 0x3, 0x0
00000172 faca                 INCR 0x35, 0x0
00000173 f2fc                 BTRSC 0x3, 0x2
00000174 c689                 LGOTO 0x176; main.o:_00001_DS_=0x176
00000175 fc5e                 ADDAR 0x21, 0x1
00000176                      main.o:_00001_DS_:
00000176 e0fc                 BCR 0x3, 0x6
00000177 fa4c                 INCR 0x33, 0x1
00000178 c6a0                 LGOTO 0x15f; main.o:_00538_DS_=0x15f
00000179                      main.o:_00540_DS_:
00000179 ffef                 RET
0000017a                      _checkBat:
0000017a e0fc                 BCR 0x3, 0x6
0000017b fd5d                 CLRR 0x22
0000017c fd5f                 CLRR 0x20
0000017d fd5e                 CLRR 0x21
0000017e def7                 MOVIA 0x8
0000017f d6a6                 LCALL 0x159; _F_Quarter_VDD_Convert=0x159
00000180 e0fc                 BCR 0x3, 0x6
00000181 eade                 SWAPR 0x21, 0x0
00000182 dd0f                 ANDIA 0xf0
00000183 ff5e                 MOVAR 0x21
00000184 eadf                 SWAPR 0x20, 0x0
00000185 ff5f                 MOVAR 0x20
00000186 ddf0                 ANDIA 0xf
00000187 ee5e                 IORAR 0x21, 0x1
00000188 ed5f                 XORAR 0x20, 0x1
00000189 de0f                 MOVIA 0xf0
0000018a ef5d                 ANDAR 0x22, 0x1
0000018b fedd                 MOVR 0x22, 0x0
0000018c ff51                 MOVAR 0x2e
0000018d ff53                 MOVAR 0x2c
0000018e fd52                 CLRR 0x2d
0000018f deff                 MOVIA 0x0
00000190 ff50                 MOVAR 0x2f
00000191 fed1                 MOVR 0x2e, 0x0
00000192 fc5f                 ADDAR 0x20, 0x1
00000193 fed0                 MOVR 0x2f, 0x0
00000194 f3fc                 BTRSC 0x3, 0x0
00000195 fad0                 INCR 0x2f, 0x0
00000196 f2fc                 BTRSC 0x3, 0x2
00000197 c666                 LGOTO 0x199; main.o:_00002_DS_=0x199
00000198 fc5e                 ADDAR 0x21, 0x1
00000199                      main.o:_00002_DS_:
00000199 e3fc                 BCR 0x3, 0x0
0000019a e0fc                 BCR 0x3, 0x6
0000019b ec5e                 RRR 0x21, 0x1
0000019c ec5f                 RRR 0x20, 0x1
0000019d e3fc                 BCR 0x3, 0x0
0000019e ec5e                 RRR 0x21, 0x1
0000019f ec5f                 RRR 0x20, 0x1
000001a0 e3fc                 BCR 0x3, 0x0
000001a1 ec5e                 RRR 0x21, 0x1
000001a2 ec5f                 RRR 0x20, 0x1
000001a3 def7                 MOVIA 0x8
000001a4 fbde                 SUBAR 0x21, 0x0
000001a5 f6fc                 BTRSS 0x3, 0x2
000001a6 c656                 LGOTO 0x1a9; main.o:_00513_DS_=0x1a9
000001a7 deca                 MOVIA 0x35
000001a8 fbdf                 SUBAR 0x20, 0x0
000001a9                      main.o:_00513_DS_:
000001a9 f7fc                 BTRSS 0x3, 0x0
000001aa c648                 LGOTO 0x1b7; main.o:_00443_DS_=0x1b7
000001ab e4fc                 BSR 0x3, 0x6
000001ac fa5c                 INCR 0x23, 0x1
000001ad de36                 MOVIA 0xc9
000001ae fbdc                 SUBAR 0x23, 0x0
000001af f7fc                 BTRSS 0x3, 0x0
000001b0 c4f4                 LGOTO 0x30b; main.o:_00445_DS_=0x30b
000001b1 defe                 MOVIA 0x1
000001b2 e0fc                 BCR 0x3, 0x6
000001b3 ff0b                 MOVAR 0x74
000001b4 de9b                 MOVIA 0x64
000001b5 ff0f                 MOVAR 0x70
000001b6 c4f4                 LGOTO 0x30b; main.o:_00445_DS_=0x30b
000001b7                      main.o:_00443_DS_:
000001b7 def9                 MOVIA 0x6
000001b8 e0fc                 BCR 0x3, 0x6
000001b9 fbde                 SUBAR 0x21, 0x0
000001ba f6fc                 BTRSS 0x3, 0x2
000001bb c641                 LGOTO 0x1be; main.o:_00515_DS_=0x1be
000001bc def1                 MOVIA 0xe
000001bd fbdf                 SUBAR 0x20, 0x0
000001be                      main.o:_00515_DS_:
000001be f3fc                 BTRSC 0x3, 0x0
000001bf c632                 LGOTO 0x1cd; main.o:_00440_DS_=0x1cd
000001c0 e0fc                 BCR 0x3, 0x6
000001c1 fd0f                 CLRR 0x70
000001c2 e4fc                 BSR 0x3, 0x6
000001c3 fd5c                 CLRR 0x23
000001c4 e0fc                 BCR 0x3, 0x6
000001c5 f17a                 BTRSC 0x5, 0x5
000001c6 c4f4                 LGOTO 0x30b; main.o:_00445_DS_=0x30b
000001c7 fd12                 CLRR 0x6d
000001c8 fd13                 CLRR 0x6c
000001c9 fd11                 CLRR 0x6e
000001ca fd10                 CLRR 0x6f
000001cb fd05                 CLRR 0x7a
000001cc c4f4                 LGOTO 0x30b; main.o:_00445_DS_=0x30b
000001cd                      main.o:_00440_DS_:
000001cd e4fc                 BSR 0x3, 0x6
000001ce fd5c                 CLRR 0x23
000001cf def7                 MOVIA 0x8
000001d0 e0fc                 BCR 0x3, 0x6
000001d1 fbde                 SUBAR 0x21, 0x0
000001d2 f6fc                 BTRSS 0x3, 0x2
000001d3 c629                 LGOTO 0x1d6; main.o:_00516_DS_=0x1d6
000001d4 defd                 MOVIA 0x2
000001d5 fbdf                 SUBAR 0x20, 0x0
000001d6                      main.o:_00516_DS_:
000001d6 f7fc                 BTRSS 0x3, 0x0
000001d7 c61a                 LGOTO 0x1e5; main.o:_00402_DS_=0x1e5
000001d8 deb6                 MOVIA 0x49
000001d9 e0fc                 BCR 0x3, 0x6
000001da fcdf                 ADDAR 0x20, 0x0
000001db ff53                 MOVAR 0x2c
000001dc de07                 MOVIA 0xf8
000001dd ff52                 MOVAR 0x2d
000001de fede                 MOVR 0x21, 0x0
000001df f3fc                 BTRSC 0x3, 0x0
000001e0 fade                 INCR 0x21, 0x0
000001e1 f2fc                 BTRSC 0x3, 0x2
000001e2 c61b                 LGOTO 0x1e4; main.o:_00003_DS_=0x1e4
000001e3 fc52                 ADDAR 0x2d, 0x1
000001e4                      main.o:_00003_DS_:
000001e4 c5af                 LGOTO 0x250; main.o:_00403_DS_=0x250
000001e5                      main.o:_00402_DS_:
000001e5 def8                 MOVIA 0x7
000001e6 e0fc                 BCR 0x3, 0x6
000001e7 fbde                 SUBAR 0x21, 0x0
000001e8 f6fc                 BTRSS 0x3, 0x2
000001e9 c613                 LGOTO 0x1ec; main.o:_00517_DS_=0x1ec
000001ea de31                 MOVIA 0xce
000001eb fbdf                 SUBAR 0x20, 0x0
000001ec                      main.o:_00517_DS_:
000001ec f7fc                 BTRSS 0x3, 0x0
000001ed c5f7                 LGOTO 0x208; main.o:_00399_DS_=0x208
000001ee decd                 MOVIA 0x32
000001ef e0fc                 BCR 0x3, 0x6
000001f0 fcdf                 ADDAR 0x20, 0x0
000001f1 ff51                 MOVAR 0x2e
000001f2 de07                 MOVIA 0xf8
000001f3 ff50                 MOVAR 0x2f
000001f4 fede                 MOVR 0x21, 0x0
000001f5 f3fc                 BTRSC 0x3, 0x0
000001f6 fade                 INCR 0x21, 0x0
000001f7 f2fc                 BTRSC 0x3, 0x2
000001f8 c605                 LGOTO 0x1fa; main.o:_00004_DS_=0x1fa
000001f9 fc50                 ADDAR 0x2f, 0x1
000001fa                      main.o:_00004_DS_:
000001fa e3fc                 BCR 0x3, 0x0
000001fb e0fc                 BCR 0x3, 0x6
000001fc ecd0                 RRR 0x2f, 0x0
000001fd ff4e                 MOVAR 0x31
000001fe ecd1                 RRR 0x2e, 0x0
000001ff ff4f                 MOVAR 0x30
00000200 dece                 MOVIA 0x31
00000201 fccf                 ADDAR 0x30, 0x0
00000202 ff53                 MOVAR 0x2c
00000203 fd52                 CLRR 0x2d
00000204 eb52                 RLR 0x2d, 0x1
00000205 fece                 MOVR 0x31, 0x0
00000206 fc52                 ADDAR 0x2d, 0x1
00000207 c5af                 LGOTO 0x250; main.o:_00403_DS_=0x250
00000208                      main.o:_00399_DS_:
00000208 def8                 MOVIA 0x7
00000209 e0fc                 BCR 0x3, 0x6
0000020a fbde                 SUBAR 0x21, 0x0
0000020b f6fc                 BTRSS 0x3, 0x2
0000020c c5f0                 LGOTO 0x20f; main.o:_00518_DS_=0x20f
0000020d dea1                 MOVIA 0x5e
0000020e fbdf                 SUBAR 0x20, 0x0
0000020f                      main.o:_00518_DS_:
0000020f f7fc                 BTRSS 0x3, 0x0
00000210 c5d1                 LGOTO 0x22e; main.o:_00396_DS_=0x22e
00000211 de5d                 MOVIA 0xa2
00000212 e0fc                 BCR 0x3, 0x6
00000213 fcdf                 ADDAR 0x20, 0x0
00000214 ff51                 MOVAR 0x2e
00000215 de07                 MOVIA 0xf8
00000216 ff50                 MOVAR 0x2f
00000217 fede                 MOVR 0x21, 0x0
00000218 f3fc                 BTRSC 0x3, 0x0
00000219 fade                 INCR 0x21, 0x0
0000021a f2fc                 BTRSC 0x3, 0x2
0000021b c5e2                 LGOTO 0x21d; main.o:_00005_DS_=0x21d
0000021c fc50                 ADDAR 0x2f, 0x1
0000021d                      main.o:_00005_DS_:
0000021d e3fc                 BCR 0x3, 0x0
0000021e e0fc                 BCR 0x3, 0x6
0000021f ecd0                 RRR 0x2f, 0x0
00000220 ff4e                 MOVAR 0x31
00000221 ecd1                 RRR 0x2e, 0x0
00000222 ff4f                 MOVAR 0x30
00000223 e3fc                 BCR 0x3, 0x0
00000224 ec4e                 RRR 0x31, 0x1
00000225 ec4f                 RRR 0x30, 0x1
00000226 deea                 MOVIA 0x15
00000227 fccf                 ADDAR 0x30, 0x0
00000228 ff53                 MOVAR 0x2c
00000229 fd52                 CLRR 0x2d
0000022a eb52                 RLR 0x2d, 0x1
0000022b fece                 MOVR 0x31, 0x0
0000022c fc52                 ADDAR 0x2d, 0x1
0000022d c5af                 LGOTO 0x250; main.o:_00403_DS_=0x250
0000022e                      main.o:_00396_DS_:
0000022e def9                 MOVIA 0x6
0000022f e0fc                 BCR 0x3, 0x6
00000230 fbde                 SUBAR 0x21, 0x0
00000231 f6fc                 BTRSS 0x3, 0x2
00000232 c5ca                 LGOTO 0x235; main.o:_00519_DS_=0x235
00000233 def0                 MOVIA 0xf
00000234 fbdf                 SUBAR 0x20, 0x0
00000235                      main.o:_00519_DS_:
00000235 f7fc                 BTRSS 0x3, 0x0
00000236 c5b2                 LGOTO 0x24d; main.o:_00393_DS_=0x24d
00000237 de0d                 MOVIA 0xf2
00000238 e0fc                 BCR 0x3, 0x6
00000239 fcdf                 ADDAR 0x20, 0x0
0000023a ff51                 MOVAR 0x2e
0000023b de06                 MOVIA 0xf9
0000023c ff50                 MOVAR 0x2f
0000023d fede                 MOVR 0x21, 0x0
0000023e f3fc                 BTRSC 0x3, 0x0
0000023f fade                 INCR 0x21, 0x0
00000240 f2fc                 BTRSC 0x3, 0x2
00000241 c5bc                 LGOTO 0x243; main.o:_00006_DS_=0x243
00000242 fc50                 ADDAR 0x2f, 0x1
00000243                      main.o:_00006_DS_:
00000243 e0fc                 BCR 0x3, 0x6
00000244 ead1                 SWAPR 0x2e, 0x0
00000245 ddf0                 ANDIA 0xf
00000246 ff53                 MOVAR 0x2c
00000247 ead0                 SWAPR 0x2f, 0x0
00000248 ff52                 MOVAR 0x2d
00000249 dd0f                 ANDIA 0xf0
0000024a ee53                 IORAR 0x2c, 0x1
0000024b ed52                 XORAR 0x2d, 0x1
0000024c c5af                 LGOTO 0x250; main.o:_00403_DS_=0x250
0000024d                      main.o:_00393_DS_:
0000024d e0fc                 BCR 0x3, 0x6
0000024e fd53                 CLRR 0x2c
0000024f fd52                 CLRR 0x2d
00000250                      main.o:_00403_DS_:
00000250 e0fc                 BCR 0x3, 0x6
00000251 f57a                 BTRSS 0x5, 0x5
00000252 c524                 LGOTO 0x2db; main.o:_00437_DS_=0x2db
00000253 deff                 MOVIA 0x0
00000254 fbd2                 SUBAR 0x2d, 0x0
00000255 f6fc                 BTRSS 0x3, 0x2
00000256 c5a6                 LGOTO 0x259; main.o:_00520_DS_=0x259
00000257 defa                 MOVIA 0x5
00000258 fbd3                 SUBAR 0x2c, 0x0
00000259                      main.o:_00520_DS_:
00000259 f3fc                 BTRSC 0x3, 0x0
0000025a c59f                 LGOTO 0x260; main.o:_00422_DS_=0x260
0000025b defe                 MOVIA 0x1
0000025c e0fc                 BCR 0x3, 0x6
0000025d ff53                 MOVAR 0x2c
0000025e fd52                 CLRR 0x2d
0000025f c540                 LGOTO 0x2bf; main.o:_00012_DS_=0x2bf
00000260                      main.o:_00422_DS_:
00000260 deff                 MOVIA 0x0
00000261 e0fc                 BCR 0x3, 0x6
00000262 fbd2                 SUBAR 0x2d, 0x0
00000263 f6fc                 BTRSS 0x3, 0x2
00000264 c598                 LGOTO 0x267; main.o:_00521_DS_=0x267
00000265 deeb                 MOVIA 0x14
00000266 fbd3                 SUBAR 0x2c, 0x0
00000267                      main.o:_00521_DS_:
00000267 f3fc                 BTRSC 0x3, 0x0
00000268 c58f                 LGOTO 0x270; main.o:_00419_DS_=0x270
00000269 de04                 MOVIA 0xfb
0000026a e0fc                 BCR 0x3, 0x6
0000026b fc53                 ADDAR 0x2c, 0x1
0000026c f3fc                 BTRSC 0x3, 0x0
0000026d c590                 LGOTO 0x26f; main.o:_00007_DS_=0x26f
0000026e f952                 DECR 0x2d, 0x1
0000026f                      main.o:_00007_DS_:
0000026f c540                 LGOTO 0x2bf; main.o:_00012_DS_=0x2bf
00000270                      main.o:_00419_DS_:
00000270 deff                 MOVIA 0x0
00000271 e0fc                 BCR 0x3, 0x6
00000272 fbd2                 SUBAR 0x2d, 0x0
00000273 f6fc                 BTRSS 0x3, 0x2
00000274 c588                 LGOTO 0x277; main.o:_00522_DS_=0x277
00000275 dee1                 MOVIA 0x1e
00000276 fbd3                 SUBAR 0x2c, 0x0
00000277                      main.o:_00522_DS_:
00000277 f3fc                 BTRSC 0x3, 0x0
00000278 c57f                 LGOTO 0x280; main.o:_00416_DS_=0x280
00000279 de09                 MOVIA 0xf6
0000027a e0fc                 BCR 0x3, 0x6
0000027b fc53                 ADDAR 0x2c, 0x1
0000027c f3fc                 BTRSC 0x3, 0x0
0000027d c580                 LGOTO 0x27f; main.o:_00008_DS_=0x27f
0000027e f952                 DECR 0x2d, 0x1
0000027f                      main.o:_00008_DS_:
0000027f c540                 LGOTO 0x2bf; main.o:_00012_DS_=0x2bf
00000280                      main.o:_00416_DS_:
00000280 deff                 MOVIA 0x0
00000281 e0fc                 BCR 0x3, 0x6
00000282 fbd2                 SUBAR 0x2d, 0x0
00000283 f6fc                 BTRSS 0x3, 0x2
00000284 c578                 LGOTO 0x287; main.o:_00523_DS_=0x287
00000285 ded7                 MOVIA 0x28
00000286 fbd3                 SUBAR 0x2c, 0x0
00000287                      main.o:_00523_DS_:
00000287 f3fc                 BTRSC 0x3, 0x0
00000288 c56f                 LGOTO 0x290; main.o:_00413_DS_=0x290
00000289 de0e                 MOVIA 0xf1
0000028a e0fc                 BCR 0x3, 0x6
0000028b fc53                 ADDAR 0x2c, 0x1
0000028c f3fc                 BTRSC 0x3, 0x0
0000028d c570                 LGOTO 0x28f; main.o:_00009_DS_=0x28f
0000028e f952                 DECR 0x2d, 0x1
0000028f                      main.o:_00009_DS_:
0000028f c540                 LGOTO 0x2bf; main.o:_00012_DS_=0x2bf
00000290                      main.o:_00413_DS_:
00000290 deff                 MOVIA 0x0
00000291 e0fc                 BCR 0x3, 0x6
00000292 fbd2                 SUBAR 0x2d, 0x0
00000293 f6fc                 BTRSS 0x3, 0x2
00000294 c568                 LGOTO 0x297; main.o:_00524_DS_=0x297
00000295 decd                 MOVIA 0x32
00000296 fbd3                 SUBAR 0x2c, 0x0
00000297                      main.o:_00524_DS_:
00000297 f3fc                 BTRSC 0x3, 0x0
00000298 c55f                 LGOTO 0x2a0; main.o:_00410_DS_=0x2a0
00000299 de14                 MOVIA 0xeb
0000029a e0fc                 BCR 0x3, 0x6
0000029b fc53                 ADDAR 0x2c, 0x1
0000029c f3fc                 BTRSC 0x3, 0x0
0000029d c560                 LGOTO 0x29f; main.o:_00010_DS_=0x29f
0000029e f952                 DECR 0x2d, 0x1
0000029f                      main.o:_00010_DS_:
0000029f c540                 LGOTO 0x2bf; main.o:_00012_DS_=0x2bf
000002a0                      main.o:_00410_DS_:
000002a0 deff                 MOVIA 0x0
000002a1 e0fc                 BCR 0x3, 0x6
000002a2 fbd2                 SUBAR 0x2d, 0x0
000002a3 f6fc                 BTRSS 0x3, 0x2
000002a4 c558                 LGOTO 0x2a7; main.o:_00525_DS_=0x2a7
000002a5 deb9                 MOVIA 0x46
000002a6 fbd3                 SUBAR 0x2c, 0x0
000002a7                      main.o:_00525_DS_:
000002a7 f3fc                 BTRSC 0x3, 0x0
000002a8 c54f                 LGOTO 0x2b0; main.o:_00407_DS_=0x2b0
000002a9 de15                 MOVIA 0xea
000002aa e0fc                 BCR 0x3, 0x6
000002ab fc53                 ADDAR 0x2c, 0x1
000002ac f3fc                 BTRSC 0x3, 0x0
000002ad c550                 LGOTO 0x2af; main.o:_00011_DS_=0x2af
000002ae f952                 DECR 0x2d, 0x1
000002af                      main.o:_00011_DS_:
000002af c540                 LGOTO 0x2bf; main.o:_00012_DS_=0x2bf
000002b0                      main.o:_00407_DS_:
000002b0 deff                 MOVIA 0x0
000002b1 e0fc                 BCR 0x3, 0x6
000002b2 fbd2                 SUBAR 0x2d, 0x0
000002b3 f6fc                 BTRSS 0x3, 0x2
000002b4 c548                 LGOTO 0x2b7; main.o:_00526_DS_=0x2b7
000002b5 de87                 MOVIA 0x78
000002b6 fbd3                 SUBAR 0x2c, 0x0
000002b7                      main.o:_00526_DS_:
000002b7 f3fc                 BTRSC 0x3, 0x0
000002b8 c540                 LGOTO 0x2bf; main.o:_00012_DS_=0x2bf
000002b9 de16                 MOVIA 0xe9
000002ba e0fc                 BCR 0x3, 0x6
000002bb fc53                 ADDAR 0x2c, 0x1
000002bc f3fc                 BTRSC 0x3, 0x0
000002bd c540                 LGOTO 0x2bf; main.o:_00012_DS_=0x2bf
000002be f952                 DECR 0x2d, 0x1
000002bf                      main.o:_00012_DS_:
000002bf deff                 MOVIA 0x0
000002c0 e0fc                 BCR 0x3, 0x6
000002c1 fbd2                 SUBAR 0x2d, 0x0
000002c2 f6fc                 BTRSS 0x3, 0x2
000002c3 c539                 LGOTO 0x2c6; main.o:_00527_DS_=0x2c6
000002c4 de9b                 MOVIA 0x64
000002c5 fbd3                 SUBAR 0x2c, 0x0
000002c6                      main.o:_00527_DS_:
000002c6 f7fc                 BTRSS 0x3, 0x0
000002c7 c533                 LGOTO 0x2cc; main.o:_00425_DS_=0x2cc
000002c8 de9b                 MOVIA 0x64
000002c9 e0fc                 BCR 0x3, 0x6
000002ca ff53                 MOVAR 0x2c
000002cb fd52                 CLRR 0x2d
000002cc                      main.o:_00425_DS_:
000002cc e0fc                 BCR 0x3, 0x6
000002cd fe8f                 MOVR 0x70, 0x0
000002ce ff51                 MOVAR 0x2e
000002cf fd50                 CLRR 0x2f
000002d0 fed2                 MOVR 0x2d, 0x0
000002d1 fbd0                 SUBAR 0x2f, 0x0
000002d2 f6fc                 BTRSS 0x3, 0x2
000002d3 c529                 LGOTO 0x2d6; main.o:_00528_DS_=0x2d6
000002d4 fed3                 MOVR 0x2c, 0x0
000002d5 fbd1                 SUBAR 0x2e, 0x0
000002d6                      main.o:_00528_DS_:
000002d6 f3fc                 BTRSC 0x3, 0x0
000002d7 c4f4                 LGOTO 0x30b; main.o:_00445_DS_=0x30b
000002d8 e0fc                 BCR 0x3, 0x6
000002d9 fa0f                 INCR 0x70, 0x1
000002da c4f4                 LGOTO 0x30b; main.o:_00445_DS_=0x30b
000002db                      main.o:_00437_DS_:
000002db deff                 MOVIA 0x0
000002dc e0fc                 BCR 0x3, 0x6
000002dd fbd2                 SUBAR 0x2d, 0x0
000002de f6fc                 BTRSS 0x3, 0x2
000002df c51d                 LGOTO 0x2e2; main.o:_00529_DS_=0x2e2
000002e0 de9a                 MOVIA 0x65
000002e1 fbd3                 SUBAR 0x2c, 0x0
000002e2                      main.o:_00529_DS_:
000002e2 f7fc                 BTRSS 0x3, 0x0
000002e3 c517                 LGOTO 0x2e8; main.o:_00429_DS_=0x2e8
000002e4 de9b                 MOVIA 0x64
000002e5 e0fc                 BCR 0x3, 0x6
000002e6 ff53                 MOVAR 0x2c
000002e7 fd52                 CLRR 0x2d
000002e8                      main.o:_00429_DS_:
000002e8 e0fc                 BCR 0x3, 0x6
000002e9 fe8f                 MOVR 0x70, 0x0
000002ea f6fc                 BTRSS 0x3, 0x2
000002eb c511                 LGOTO 0x2ee; main.o:_00431_DS_=0x2ee
000002ec fed3                 MOVR 0x2c, 0x0
000002ed ff0f                 MOVAR 0x70
000002ee                      main.o:_00431_DS_:
000002ee e0fc                 BCR 0x3, 0x6
000002ef fe8f                 MOVR 0x70, 0x0
000002f0 ff51                 MOVAR 0x2e
000002f1 fd50                 CLRR 0x2f
000002f2 deff                 MOVIA 0x0
000002f3 fbd2                 SUBAR 0x2d, 0x0
000002f4 f6fc                 BTRSS 0x3, 0x2
000002f5 c507                 LGOTO 0x2f8; main.o:_00530_DS_=0x2f8
000002f6 fed1                 MOVR 0x2e, 0x0
000002f7 fbd3                 SUBAR 0x2c, 0x0
000002f8                      main.o:_00530_DS_:
000002f8 f3fc                 BTRSC 0x3, 0x0
000002f9 c4f4                 LGOTO 0x30b; main.o:_00445_DS_=0x30b
000002fa e4fc                 BSR 0x3, 0x6
000002fb fa5f                 INCR 0x20, 0x1
000002fc f2fc                 BTRSC 0x3, 0x2
000002fd fa5e                 INCR 0x21, 0x1
000002fe deff                 MOVIA 0x0
000002ff fbde                 SUBAR 0x21, 0x0
00000300 f6fc                 BTRSS 0x3, 0x2
00000301 c4fb                 LGOTO 0x304; main.o:_00531_DS_=0x304
00000302 def4                 MOVIA 0xb
00000303 fbdf                 SUBAR 0x20, 0x0
00000304                      main.o:_00531_DS_:
00000304 f7fc                 BTRSS 0x3, 0x0
00000305 c4f4                 LGOTO 0x30b; main.o:_00445_DS_=0x30b
00000306 e4fc                 BSR 0x3, 0x6
00000307 fd5f                 CLRR 0x20
00000308 fd5e                 CLRR 0x21
00000309 e0fc                 BCR 0x3, 0x6
0000030a f90f                 DECR 0x70, 0x1
0000030b                      main.o:_00445_DS_:
0000030b ffef                 RET
0000030c                      _initAD:
0000030c de7f                 MOVIA 0x80
0000030d ff6f                 MOVAR 0x10
0000030e fd6c                 CLRR 0x13
0000030f deef                 MOVIA 0x10
00000310 ff6e                 MOVAR 0x11
00000311 defc                 MOVIA 0x3
00000312 ff6b                 MOVAR 0x14
00000313 e5ef                 BSR 0x10, 0x4
00000314 decd                 MOVIA 0x32
00000315 d6b2                 LCALL 0x14d; _delay=0x14d
00000316 ffef                 RET
00000317                      _keyCtr:
00000317 e0fc                 BCR 0x3, 0x6
00000318 f8fa                 COMR 0x5, 0x0
00000319 ff54                 MOVAR 0x2b
0000031a de7f                 MOVIA 0x80
0000031b ef54                 ANDAR 0x2b, 0x1
0000031c fed4                 MOVR 0x2b, 0x0
0000031d d494                 LCALL 0x36b; _keyRead=0x36b
0000031e e0fc                 BCR 0x3, 0x6
0000031f ff54                 MOVAR 0x2b
00000320 dbfe                 XORIA 0x1
00000321 f6fc                 BTRSS 0x3, 0x2
00000322 c4b6                 LGOTO 0x349; main.o:_00377_DS_=0x349
00000323 d685                 LCALL 0x17a; _checkBat=0x17a
00000324 e0fc                 BCR 0x3, 0x6
00000325 fe92                 MOVR 0x6d, 0x0
00000326 f2fc                 BTRSC 0x3, 0x2
00000327 c495                 LGOTO 0x36a; main.o:_00379_DS_=0x36a
00000328 fe8f                 MOVR 0x70, 0x0
00000329 f2fc                 BTRSC 0x3, 0x2
0000032a c495                 LGOTO 0x36a; main.o:_00379_DS_=0x36a
0000032b fe97                 MOVR 0x68, 0x0
0000032c f6fc                 BTRSS 0x3, 0x2
0000032d c4cd                 LGOTO 0x332; main.o:_00362_DS_=0x332
0000032e defc                 MOVIA 0x3
0000032f ff11                 MOVAR 0x6e
00000330 fd05                 CLRR 0x7a
00000331 c495                 LGOTO 0x36a; main.o:_00379_DS_=0x36a
00000332                      main.o:_00362_DS_:
00000332 e0fc                 BCR 0x3, 0x6
00000333 fe90                 MOVR 0x6f, 0x0
00000334 f6fc                 BTRSS 0x3, 0x2
00000335 c4c4                 LGOTO 0x33b; main.o:_00359_DS_=0x33b
00000336 fd11                 CLRR 0x6e
00000337 defd                 MOVIA 0x2
00000338 ff10                 MOVAR 0x6f
00000339 fd05                 CLRR 0x7a
0000033a c495                 LGOTO 0x36a; main.o:_00379_DS_=0x36a
0000033b                      main.o:_00359_DS_:
0000033b e0fc                 BCR 0x3, 0x6
0000033c fd11                 CLRR 0x6e
0000033d fa13                 INCR 0x6c, 0x1
0000033e defb                 MOVIA 0x4
0000033f fb93                 SUBAR 0x6c, 0x0
00000340 f7fc                 BTRSS 0x3, 0x0
00000341 c4bb                 LGOTO 0x344; main.o:_00357_DS_=0x344
00000342 defe                 MOVIA 0x1
00000343 ff13                 MOVAR 0x6c
00000344                      main.o:_00357_DS_:
00000344 defd                 MOVIA 0x2
00000345 e0fc                 BCR 0x3, 0x6
00000346 ff10                 MOVAR 0x6f
00000347 fd05                 CLRR 0x7a
00000348 c495                 LGOTO 0x36a; main.o:_00379_DS_=0x36a
00000349                      main.o:_00377_DS_:
00000349 e0fc                 BCR 0x3, 0x6
0000034a fed4                 MOVR 0x2b, 0x0
0000034b dbfd                 XORIA 0x2
0000034c f6fc                 BTRSS 0x3, 0x2
0000034d c495                 LGOTO 0x36a; main.o:_00379_DS_=0x36a
0000034e d685                 LCALL 0x17a; _checkBat=0x17a
0000034f e0fc                 BCR 0x3, 0x6
00000350 fe92                 MOVR 0x6d, 0x0
00000351 f2fc                 BTRSC 0x3, 0x2
00000352 c4a5                 LGOTO 0x35a; main.o:_00372_DS_=0x35a
00000353 fd12                 CLRR 0x6d
00000354 fd13                 CLRR 0x6c
00000355 fd11                 CLRR 0x6e
00000356 fd10                 CLRR 0x6f
00000357 defa                 MOVIA 0x5
00000358 ff05                 MOVAR 0x7a
00000359 c495                 LGOTO 0x36a; main.o:_00379_DS_=0x36a
0000035a                      main.o:_00372_DS_:
0000035a e0fc                 BCR 0x3, 0x6
0000035b fe8f                 MOVR 0x70, 0x0
0000035c f2fc                 BTRSC 0x3, 0x2
0000035d c495                 LGOTO 0x36a; main.o:_00379_DS_=0x36a
0000035e defe                 MOVIA 0x1
0000035f ff12                 MOVAR 0x6d
00000360 defc                 MOVIA 0x3
00000361 ff11                 MOVAR 0x6e
00000362 defd                 MOVIA 0x2
00000363 ff10                 MOVAR 0x6f
00000364 fd05                 CLRR 0x7a
00000365 fe93                 MOVR 0x6c, 0x0
00000366 f6fc                 BTRSS 0x3, 0x2
00000367 c495                 LGOTO 0x36a; main.o:_00379_DS_=0x36a
00000368 defe                 MOVIA 0x1
00000369 ff13                 MOVAR 0x6c
0000036a                      main.o:_00379_DS_:
0000036a ffef                 RET
0000036b                      _keyRead:
0000036b e0fc                 BCR 0x3, 0x6
0000036c ff55                 MOVAR 0x2a
0000036d fed5                 MOVR 0x2a, 0x0
0000036e f2fc                 BTRSC 0x3, 0x2
0000036f c481                 LGOTO 0x37e; main.o:_00349_DS_=0x37e
00000370 fa0e                 INCR 0x71, 0x1
00000371 de37                 MOVIA 0xc8
00000372 fb8e                 SUBAR 0x71, 0x0
00000373 f7fc                 BTRSS 0x3, 0x0
00000374 c46e                 LGOTO 0x391; main.o:_00350_DS_=0x391
00000375 de37                 MOVIA 0xc8
00000376 ff0e                 MOVAR 0x71
00000377 fe8d                 MOVR 0x72, 0x0
00000378 f6fc                 BTRSS 0x3, 0x2
00000379 c46e                 LGOTO 0x391; main.o:_00350_DS_=0x391
0000037a defe                 MOVIA 0x1
0000037b ff0d                 MOVAR 0x72
0000037c defd                 MOVIA 0x2
0000037d c46d                 LGOTO 0x392; main.o:_00351_DS_=0x392
0000037e                      main.o:_00349_DS_:
0000037e de37                 MOVIA 0xc8
0000037f e0fc                 BCR 0x3, 0x6
00000380 fb8e                 SUBAR 0x71, 0x0
00000381 f7fc                 BTRSS 0x3, 0x0
00000382 c478                 LGOTO 0x387; main.o:_00346_DS_=0x387
00000383 fd0e                 CLRR 0x71
00000384 fd0d                 CLRR 0x72
00000385 deff                 MOVIA 0x0
00000386 c46d                 LGOTO 0x392; main.o:_00351_DS_=0x392
00000387                      main.o:_00346_DS_:
00000387 defb                 MOVIA 0x4
00000388 e0fc                 BCR 0x3, 0x6
00000389 fb8e                 SUBAR 0x71, 0x0
0000038a f7fc                 BTRSS 0x3, 0x0
0000038b c470                 LGOTO 0x38f; main.o:_00347_DS_=0x38f
0000038c fd0e                 CLRR 0x71
0000038d defe                 MOVIA 0x1
0000038e c46d                 LGOTO 0x392; main.o:_00351_DS_=0x392
0000038f                      main.o:_00347_DS_:
0000038f e0fc                 BCR 0x3, 0x6
00000390 fd0e                 CLRR 0x71
00000391                      main.o:_00350_DS_:
00000391 deff                 MOVIA 0x0
00000392                      main.o:_00351_DS_:
00000392 ffef                 RET
00000393                      _pwmStop:
00000393 fdff                 CLRA
00000394 ffb5                 SFUN 0xa
00000395 ffef                 RET
00000396                      _pwmInit:
00000396 ff95                 SFUNR 0xa
00000397 e0fc                 BCR 0x3, 0x6
00000398 ff56                 MOVAR 0x29
00000399 f056                 BTRSC 0x29, 0x7
0000039a c45c                 LGOTO 0x3a3; main.o:_00330_DS_=0x3a3
0000039b fd66                 CLRR 0x19
0000039c de9b                 MOVIA 0x64
0000039d ffb6                 SFUN 0x9
0000039e ffb3                 SFUN 0xc
0000039f defe                 MOVIA 0x1
000003a0 ffb4                 SFUN 0xb
000003a1 de7c                 MOVIA 0x83
000003a2 ffb5                 SFUN 0xa
000003a3                      main.o:_00330_DS_:
000003a3 ffef                 RET
000003a4                      _gotoSleep:
000003a4 e0fc                 BCR 0x3, 0x6
000003a5 fd03                 CLRR 0x7c
000003a6 fd07                 CLRR 0x78
000003a7 fd06                 CLRR 0x79
000003a8 d2ea                 LCALL 0x515; _setInput=0x515
000003a9 e0fc                 BCR 0x3, 0x6
000003aa fd0c                 CLRR 0x73
000003ab fd12                 CLRR 0x6d
000003ac d46c                 LCALL 0x393; _pwmStop=0x393
000003ad de5f                 MOVIA 0xa0
000003ae ff6a                 MOVAR 0x15
000003af def7                 MOVIA 0x8
000003b0 fff9                 IOST 0x6
000003b1 e0fc                 BCR 0x3, 0x6
000003b2 fd7a                 CLRR 0x5
000003b3 fd79                 CLRR 0x6
000003b4 defd                 MOVIA 0x2
000003b5 ff71                 MOVAR 0xe
000003b6 dee7                 MOVIA 0x18
000003b7 ff77                 MOVAR 0x8
000003b8 fd70                 CLRR 0xf
000003b9 fffd                 CLRWDT
000003ba fffb                 ENI
000003bb f17a                 BTRSC 0x5, 0x5
000003bc c441                 LGOTO 0x3be; main.o:_00323_DS_=0x3be
000003bd fffe                 SLEEP
000003be                      main.o:_00323_DS_:
000003be fd6a                 CLRR 0x15
000003bf de5f                 MOVIA 0xa0
000003c0 fffa                 IOST 0x5
000003c1 def7                 MOVIA 0x8
000003c2 fff9                 IOST 0x6
000003c3 e0fc                 BCR 0x3, 0x6
000003c4 fd7a                 CLRR 0x5
000003c5 defc                 MOVIA 0x3
000003c6 ff71                 MOVAR 0xe
000003c7 fd70                 CLRR 0xf
000003c8 de47                 MOVIA 0xb8
000003c9 ff77                 MOVAR 0x8
000003ca ffef                 RET
000003cb                      _initSys:
000003cb ffec                 DISI
000003cc de5f                 MOVIA 0xa0
000003cd fffa                 IOST 0x5
000003ce def7                 MOVIA 0x8
000003cf fff9                 IOST 0x6
000003d0 fd79                 CLRR 0x6
000003d1 e0fc                 BCR 0x3, 0x6
000003d2 fd7a                 CLRR 0x5
000003d3 d2ea                 LCALL 0x515; _setInput=0x515
000003d4 de80                 MOVIA 0x7f
000003d5 fff6                 IOST 0x9
000003d6 de00                 MOVIA 0xff
000003d7 ff73                 MOVAR 0xc
000003d8 ff74                 MOVAR 0xb
000003d9 defc                 MOVIA 0x3
000003da ff71                 MOVAR 0xe
000003db fdff                 CLRA
000003dc fff0                 IOST 0xf
000003dd dec8                 MOVIA 0x37
000003de ff7e                 MOVAR 0x1
000003df fdff                 CLRA
000003e0 fffc                 T0MD
000003e1 defe                 MOVIA 0x1
000003e2 fff0                 IOST 0xf
000003e3 de67                 MOVIA 0x98
000003e4 ff77                 MOVAR 0x8
000003e5 defe                 MOVIA 0x1
000003e6 fff0                 IOST 0xf
000003e7 fffb                 ENI
000003e8 ffef                 RET
000003e9                      _refreshNub:
000003e9 e0fc                 BCR 0x3, 0x6
000003ea fe9a                 MOVR 0x65, 0x0
000003eb da58                 ADDIA 0xa7
000003ec ff58                 MOVAR 0x27
000003ed deff                 MOVIA 0x0
000003ee f3fc                 BTRSC 0x3, 0x0
000003ef dafe                 ADDIA 0x1
000003f0 ff57                 MOVAR 0x28
000003f1 fed8                 MOVR 0x27, 0x0
000003f2 ff39                 MOVAR 0x46
000003f3 fed7                 MOVR 0x28, 0x0
000003f4 ff38                 MOVAR 0x47
000003f5 deff                 MOVIA 0x0
000003f6 d086                 LCALL 0x779; __gptrget=0x779
000003f7 d1aa                 LCALL 0x655; _showNubBaiwei=0x655
000003f8 e0fc                 BCR 0x3, 0x6
000003f9 fe99                 MOVR 0x66, 0x0
000003fa da58                 ADDIA 0xa7
000003fb ff58                 MOVAR 0x27
000003fc deff                 MOVIA 0x0
000003fd f3fc                 BTRSC 0x3, 0x0
000003fe dafe                 ADDIA 0x1
000003ff ff57                 MOVAR 0x28
00000400 fed8                 MOVR 0x27, 0x0
00000401 ff39                 MOVAR 0x46
00000402 fed7                 MOVR 0x28, 0x0
00000403 ff38                 MOVAR 0x47
00000404 deff                 MOVIA 0x0
00000405 d086                 LCALL 0x779; __gptrget=0x779
00000406 d12a                 LCALL 0x6d5; _showNubShiwei=0x6d5
00000407 e0fc                 BCR 0x3, 0x6
00000408 fe98                 MOVR 0x67, 0x0
00000409 da58                 ADDIA 0xa7
0000040a ff58                 MOVAR 0x27
0000040b deff                 MOVIA 0x0
0000040c f3fc                 BTRSC 0x3, 0x0
0000040d dafe                 ADDIA 0x1
0000040e ff57                 MOVAR 0x28
0000040f fed8                 MOVR 0x27, 0x0
00000410 ff39                 MOVAR 0x46
00000411 fed7                 MOVR 0x28, 0x0
00000412 ff38                 MOVAR 0x47
00000413 deff                 MOVIA 0x0
00000414 d086                 LCALL 0x779; __gptrget=0x779
00000415 d16a                 LCALL 0x695; _showNubGewei=0x695
00000416 d2ea                 LCALL 0x515; _setInput=0x515
00000417 ffef                 RET
00000418                      _checkIRKey:
00000418 e0fc                 BCR 0x3, 0x6
00000419 fe92                 MOVR 0x6d, 0x0
0000041a f6fc                 BTRSS 0x3, 0x2
0000041b c3e1                 LGOTO 0x41e; main.o:_00297_DS_=0x41e
0000041c fd16                 CLRR 0x69
0000041d c3bc                 LGOTO 0x443; main.o:_00309_DS_=0x443
0000041e                      main.o:_00297_DS_:
0000041e def9                 MOVIA 0x6
0000041f e4fc                 BSR 0x3, 0x6
00000420 fbd9                 SUBAR 0x26, 0x0
00000421 f7fc                 BTRSS 0x3, 0x0
00000422 c3bc                 LGOTO 0x443; main.o:_00309_DS_=0x443
00000423 e0fc                 BCR 0x3, 0x6
00000424 fe96                 MOVR 0x69, 0x0
00000425 f6fc                 BTRSS 0x3, 0x2
00000426 c3bc                 LGOTO 0x443; main.o:_00309_DS_=0x443
00000427 fe93                 MOVR 0x6c, 0x0
00000428 dbfe                 XORIA 0x1
00000429 f6fc                 BTRSS 0x3, 0x2
0000042a c3d1                 LGOTO 0x42e; main.o:_00304_DS_=0x42e
0000042b decd                 MOVIA 0x32
0000042c ff14                 MOVAR 0x6b
0000042d c3c2                 LGOTO 0x43d; main.o:_00305_DS_=0x43d
0000042e                      main.o:_00304_DS_:
0000042e e0fc                 BCR 0x3, 0x6
0000042f fe93                 MOVR 0x6c, 0x0
00000430 dbfd                 XORIA 0x2
00000431 f6fc                 BTRSS 0x3, 0x2
00000432 c3c9                 LGOTO 0x436; main.o:_00301_DS_=0x436
00000433 deaf                 MOVIA 0x50
00000434 ff14                 MOVAR 0x6b
00000435 c3c2                 LGOTO 0x43d; main.o:_00305_DS_=0x43d
00000436                      main.o:_00301_DS_:
00000436 e0fc                 BCR 0x3, 0x6
00000437 fe93                 MOVR 0x6c, 0x0
00000438 dbfc                 XORIA 0x3
00000439 f6fc                 BTRSS 0x3, 0x2
0000043a c3c2                 LGOTO 0x43d; main.o:_00305_DS_=0x43d
0000043b de87                 MOVIA 0x78
0000043c ff14                 MOVAR 0x6b
0000043d                      main.o:_00305_DS_:
0000043d de9b                 MOVIA 0x64
0000043e e4fc                 BSR 0x3, 0x6
0000043f ff5b                 MOVAR 0x24
00000440 defe                 MOVIA 0x1
00000441 e0fc                 BCR 0x3, 0x6
00000442 ff16                 MOVAR 0x69
00000443                      main.o:_00309_DS_:
00000443 ffef                 RET
00000444                      _chrgCtr:
00000444 e0fc                 BCR 0x3, 0x6
00000445 f17a                 BTRSC 0x5, 0x5
00000446 c3b7                 LGOTO 0x448; main.o:_00198_DS_=0x448
00000447 fd0b                 CLRR 0x74
00000448                      main.o:_00198_DS_:
00000448 e6f3                 BSR 0xc, 0x2
00000449 ffe9                 IOSTR 0x6
0000044a e0fc                 BCR 0x3, 0x6
0000044b ff5a                 MOVAR 0x25
0000044c e2da                 BCR 0x25, 0x2
0000044d feda                 MOVR 0x25, 0x0
0000044e fff9                 IOST 0x6
0000044f fe94                 MOVR 0x6b, 0x0
00000450 f2fc                 BTRSC 0x3, 0x2
00000451 c3a9                 LGOTO 0x456; main.o:_00200_DS_=0x456
00000452 d469                 LCALL 0x396; _pwmInit=0x396
00000453 e0fc                 BCR 0x3, 0x6
00000454 f914                 DECR 0x6b, 0x1
00000455 c3a7                 LGOTO 0x458; main.o:_00201_DS_=0x458
00000456                      main.o:_00200_DS_:
00000456 d46c                 LCALL 0x393; _pwmStop=0x393
00000457 e2f9                 BCR 0x6, 0x2
00000458                      main.o:_00201_DS_:
00000458 e4fc                 BSR 0x3, 0x6
00000459 feda                 MOVR 0x25, 0x0
0000045a f2fc                 BTRSC 0x3, 0x2
0000045b c398                 LGOTO 0x467; main.o:_00236_DS_=0x467
0000045c d685                 LCALL 0x17a; _checkBat=0x17a
0000045d e4fc                 BSR 0x3, 0x6
0000045e f95a                 DECR 0x25, 0x1
0000045f defe                 MOVIA 0x1
00000460 e0fc                 BCR 0x3, 0x6
00000461 ff17                 MOVAR 0x68
00000462 def7                 MOVIA 0x8
00000463 ff19                 MOVAR 0x66
00000464 ff1a                 MOVAR 0x65
00000465 ff18                 MOVAR 0x67
00000466 c2f7                 LGOTO 0x508; main.o:_00238_DS_=0x508
00000467                      main.o:_00236_DS_:
00000467 e0fc                 BCR 0x3, 0x6
00000468 fe90                 MOVR 0x6f, 0x0
00000469 f2fc                 BTRSC 0x3, 0x2
0000046a c38d                 LGOTO 0x472; main.o:_00233_DS_=0x472
0000046b defe                 MOVIA 0x1
0000046c ff17                 MOVAR 0x68
0000046d fd19                 CLRR 0x66
0000046e fd1a                 CLRR 0x65
0000046f fe93                 MOVR 0x6c, 0x0
00000470 ff18                 MOVAR 0x67
00000471 c2f7                 LGOTO 0x508; main.o:_00238_DS_=0x508
00000472                      main.o:_00233_DS_:
00000472 e0fc                 BCR 0x3, 0x6
00000473 fe91                 MOVR 0x6e, 0x0
00000474 f6fc                 BTRSS 0x3, 0x2
00000475 c386                 LGOTO 0x479; main.o:_00228_DS_=0x479
00000476 fe94                 MOVR 0x6b, 0x0
00000477 f2fc                 BTRSC 0x3, 0x2
00000478 c36b                 LGOTO 0x494; main.o:_00229_DS_=0x494
00000479                      main.o:_00228_DS_:
00000479 defe                 MOVIA 0x1
0000047a e0fc                 BCR 0x3, 0x6
0000047b ff17                 MOVAR 0x68
0000047c de9b                 MOVIA 0x64
0000047d fb8f                 SUBAR 0x70, 0x0
0000047e f7fc                 BTRSS 0x3, 0x0
0000047f c37a                 LGOTO 0x485; main.o:_00203_DS_=0x485
00000480 defe                 MOVIA 0x1
00000481 ff1a                 MOVAR 0x65
00000482 fd18                 CLRR 0x67
00000483 fd19                 CLRR 0x66
00000484 c2f7                 LGOTO 0x508; main.o:_00238_DS_=0x508
00000485                      main.o:_00203_DS_:
00000485 e0fc                 BCR 0x3, 0x6
00000486 fd1a                 CLRR 0x65
00000487 def5                 MOVIA 0xa
00000488 ff38                 MOVAR 0x47
00000489 fe8f                 MOVR 0x70, 0x0
0000048a d10c                 LCALL 0x6f3; __divuchar=0x6f3
0000048b e0fc                 BCR 0x3, 0x6
0000048c ff19                 MOVAR 0x66
0000048d def5                 MOVIA 0xa
0000048e ff38                 MOVAR 0x47
0000048f fe8f                 MOVR 0x70, 0x0
00000490 d0e3                 LCALL 0x71c; __moduchar=0x71c
00000491 e0fc                 BCR 0x3, 0x6
00000492 ff18                 MOVAR 0x67
00000493 c2f7                 LGOTO 0x508; main.o:_00238_DS_=0x508
00000494                      main.o:_00229_DS_:
00000494 def9                 MOVIA 0x6
00000495 e0fc                 BCR 0x3, 0x6
00000496 fb8f                 SUBAR 0x70, 0x0
00000497 f3fc                 BTRSC 0x3, 0x0
00000498 c32d                 LGOTO 0x4d2; main.o:_00223_DS_=0x4d2
00000499 fe85                 MOVR 0x7a, 0x0
0000049a f6fc                 BTRSS 0x3, 0x2
0000049b c32d                 LGOTO 0x4d2; main.o:_00223_DS_=0x4d2
0000049c f17a                 BTRSC 0x5, 0x5
0000049d c32d                 LGOTO 0x4d2; main.o:_00223_DS_=0x4d2
0000049e fe92                 MOVR 0x6d, 0x0
0000049f f2fc                 BTRSC 0x3, 0x2
000004a0 c32d                 LGOTO 0x4d2; main.o:_00223_DS_=0x4d2
000004a1 defe                 MOVIA 0x1
000004a2 ff17                 MOVAR 0x68
000004a3 fa0a                 INCR 0x75, 0x1
000004a4 f2fc                 BTRSC 0x3, 0x2
000004a5 fa09                 INCR 0x76, 0x1
000004a6 defe                 MOVIA 0x1
000004a7 fb89                 SUBAR 0x76, 0x0
000004a8 f6fc                 BTRSS 0x3, 0x2
000004a9 c353                 LGOTO 0x4ac; main.o:_00290_DS_=0x4ac
000004aa de0a                 MOVIA 0xf5
000004ab fb8a                 SUBAR 0x75, 0x0
000004ac                      main.o:_00290_DS_:
000004ac f7fc                 BTRSS 0x3, 0x0
000004ad c34d                 LGOTO 0x4b2; main.o:_00206_DS_=0x4b2
000004ae e0fc                 BCR 0x3, 0x6
000004af fd0a                 CLRR 0x75
000004b0 fd09                 CLRR 0x76
000004b1 fd17                 CLRR 0x68
000004b2                      main.o:_00206_DS_:
000004b2 de9b                 MOVIA 0x64
000004b3 ff3a                 MOVAR 0x45
000004b4 deff                 MOVIA 0x0
000004b5 ff39                 MOVAR 0x46
000004b6 e0fc                 BCR 0x3, 0x6
000004b7 fe8a                 MOVR 0x75, 0x0
000004b8 ff38                 MOVAR 0x47
000004b9 fe89                 MOVR 0x76, 0x0
000004ba d0bf                 LCALL 0x740; __moduint=0x740
000004bb e0fc                 BCR 0x3, 0x6
000004bc ff59                 MOVAR 0x26
000004bd feb8                 MOVR 0x47, 0x0
000004be ff5a                 MOVAR 0x25
000004bf deff                 MOVIA 0x0
000004c0 fbd9                 SUBAR 0x26, 0x0
000004c1 f6fc                 BTRSS 0x3, 0x2
000004c2 c33a                 LGOTO 0x4c5; main.o:_00291_DS_=0x4c5
000004c3 decd                 MOVIA 0x32
000004c4 fbda                 SUBAR 0x25, 0x0
000004c5                      main.o:_00291_DS_:
000004c5 f3fc                 BTRSC 0x3, 0x0
000004c6 c330                 LGOTO 0x4cf; main.o:_00208_DS_=0x4cf
000004c7 defe                 MOVIA 0x1
000004c8 e0fc                 BCR 0x3, 0x6
000004c9 ff17                 MOVAR 0x68
000004ca fd1a                 CLRR 0x65
000004cb fd19                 CLRR 0x66
000004cc fe8f                 MOVR 0x70, 0x0
000004cd ff18                 MOVAR 0x67
000004ce c2f7                 LGOTO 0x508; main.o:_00238_DS_=0x508
000004cf                      main.o:_00208_DS_:
000004cf e0fc                 BCR 0x3, 0x6
000004d0 fd17                 CLRR 0x68
000004d1 c2f7                 LGOTO 0x508; main.o:_00238_DS_=0x508
000004d2                      main.o:_00223_DS_:
000004d2 e0fc                 BCR 0x3, 0x6
000004d3 fe85                 MOVR 0x7a, 0x0
000004d4 f2fc                 BTRSC 0x3, 0x2
000004d5 c322                 LGOTO 0x4dd; main.o:_00220_DS_=0x4dd
000004d6 defe                 MOVIA 0x1
000004d7 ff17                 MOVAR 0x68
000004d8 fd1a                 CLRR 0x65
000004d9 def5                 MOVIA 0xa
000004da ff19                 MOVAR 0x66
000004db ff18                 MOVAR 0x67
000004dc c2f7                 LGOTO 0x508; main.o:_00238_DS_=0x508
000004dd                      main.o:_00220_DS_:
000004dd e0fc                 BCR 0x3, 0x6
000004de f57a                 BTRSS 0x5, 0x5
000004df c2f9                 LGOTO 0x506; main.o:_00217_DS_=0x506
000004e0 defe                 MOVIA 0x1
000004e1 ff17                 MOVAR 0x68
000004e2 fe8b                 MOVR 0x74, 0x0
000004e3 f2fc                 BTRSC 0x3, 0x2
000004e4 c314                 LGOTO 0x4eb; main.o:_00214_DS_=0x4eb
000004e5 defe                 MOVIA 0x1
000004e6 ff0b                 MOVAR 0x74
000004e7 ff1a                 MOVAR 0x65
000004e8 fd18                 CLRR 0x67
000004e9 fd19                 CLRR 0x66
000004ea c2f7                 LGOTO 0x508; main.o:_00238_DS_=0x508
000004eb                      main.o:_00214_DS_:
000004eb e0fc                 BCR 0x3, 0x6
000004ec fe8f                 MOVR 0x70, 0x0
000004ed db9b                 XORIA 0x64
000004ee f6fc                 BTRSS 0x3, 0x2
000004ef c308                 LGOTO 0x4f7; main.o:_00211_DS_=0x4f7
000004f0 defe                 MOVIA 0x1
000004f1 ff0b                 MOVAR 0x74
000004f2 fd1a                 CLRR 0x65
000004f3 def6                 MOVIA 0x9
000004f4 ff19                 MOVAR 0x66
000004f5 ff18                 MOVAR 0x67
000004f6 c2f7                 LGOTO 0x508; main.o:_00238_DS_=0x508
000004f7                      main.o:_00211_DS_:
000004f7 e0fc                 BCR 0x3, 0x6
000004f8 fd1a                 CLRR 0x65
000004f9 def5                 MOVIA 0xa
000004fa ff38                 MOVAR 0x47
000004fb fe8f                 MOVR 0x70, 0x0
000004fc d10c                 LCALL 0x6f3; __divuchar=0x6f3
000004fd e0fc                 BCR 0x3, 0x6
000004fe ff19                 MOVAR 0x66
000004ff def5                 MOVIA 0xa
00000500 ff38                 MOVAR 0x47
00000501 fe8f                 MOVR 0x70, 0x0
00000502 d0e3                 LCALL 0x71c; __moduchar=0x71c
00000503 e0fc                 BCR 0x3, 0x6
00000504 ff18                 MOVAR 0x67
00000505 c2f7                 LGOTO 0x508; main.o:_00238_DS_=0x508
00000506                      main.o:_00217_DS_:
00000506 e0fc                 BCR 0x3, 0x6
00000507 fd17                 CLRR 0x68
00000508                      main.o:_00238_DS_:
00000508 ffef                 RET
00000509                      _delayms:
00000509 e0fc                 BCR 0x3, 0x6
0000050a ff2d                 MOVAR 0x52
0000050b fd2c                 CLRR 0x53
0000050c                      number.o:_00400_DS_:
0000050c e0fc                 BCR 0x3, 0x6
0000050d fead                 MOVR 0x52, 0x0
0000050e fbac                 SUBAR 0x53, 0x0
0000050f f3fc                 BTRSC 0x3, 0x0
00000510 c2eb                 LGOTO 0x514; number.o:_00402_DS_=0x514
00000511 ffff                 NOP
00000512 fa2c                 INCR 0x53, 0x1
00000513 c2f3                 LGOTO 0x50c; number.o:_00400_DS_=0x50c
00000514                      number.o:_00402_DS_:
00000514 ffef                 RET
00000515                      _setInput:
00000515 e3f9                 BCR 0x6, 0x0
00000516 de1f                 MOVIA 0xe0
00000517 e0fc                 BCR 0x3, 0x6
00000518 ef7a                 ANDAR 0x5, 0x1
00000519 de40                 MOVIA 0xbf
0000051a fffa                 IOST 0x5
0000051b ffe9                 IOSTR 0x6
0000051c ff2e                 MOVAR 0x51
0000051d e7ae                 BSR 0x51, 0x0
0000051e feae                 MOVR 0x51, 0x0
0000051f fff9                 IOST 0x6
00000520 ffef                 RET
00000521                      _setOutput:
00000521 e0fc                 BCR 0x3, 0x6
00000522 ff2f                 MOVAR 0x50
00000523 defe                 MOVIA 0x1
00000524 fbaf                 SUBAR 0x50, 0x0
00000525 f7fc                 BTRSS 0x3, 0x0
00000526 c29d                 LGOTO 0x562; number.o:_00379_DS_=0x562
00000527 def8                 MOVIA 0x7
00000528 fbaf                 SUBAR 0x50, 0x0
00000529 f3fc                 BTRSC 0x3, 0x0
0000052a c29d                 LGOTO 0x562; number.o:_00379_DS_=0x562
0000052b f92f                 DECR 0x50, 0x1
0000052c defa                 MOVIA 0x5
0000052d ff75                 MOVAR 0xa
0000052e feaf                 MOVR 0x50, 0x0
0000052f dacc                 ADDIA 0x33
00000530 f3fc                 BTRSC 0x3, 0x0
00000531 fa75                 INCR 0xa, 0x1
00000532 ff7d                 MOVAR 0x2
00000533                      number.o:_00389_DS_:
00000533 c2c6                 LGOTO 0x539; number.o:_00372_DS_=0x539
00000534 c2bf                 LGOTO 0x540; number.o:_00373_DS_=0x540
00000535 c2b8                 LGOTO 0x547; number.o:_00374_DS_=0x547
00000536 c2b1                 LGOTO 0x54e; number.o:_00375_DS_=0x54e
00000537 c2aa                 LGOTO 0x555; number.o:_00376_DS_=0x555
00000538 c2a3                 LGOTO 0x55c; number.o:_00377_DS_=0x55c
00000539                      number.o:_00372_DS_:
00000539 ffe9                 IOSTR 0x6
0000053a e0fc                 BCR 0x3, 0x6
0000053b ff2f                 MOVAR 0x50
0000053c e3af                 BCR 0x50, 0x0
0000053d feaf                 MOVR 0x50, 0x0
0000053e fff9                 IOST 0x6
0000053f c29d                 LGOTO 0x562; number.o:_00379_DS_=0x562
00000540                      number.o:_00373_DS_:
00000540 ffea                 IOSTR 0x5
00000541 e0fc                 BCR 0x3, 0x6
00000542 ff2f                 MOVAR 0x50
00000543 e3af                 BCR 0x50, 0x0
00000544 feaf                 MOVR 0x50, 0x0
00000545 fffa                 IOST 0x5
00000546 c29d                 LGOTO 0x562; number.o:_00379_DS_=0x562
00000547                      number.o:_00374_DS_:
00000547 ffea                 IOSTR 0x5
00000548 e0fc                 BCR 0x3, 0x6
00000549 ff2f                 MOVAR 0x50
0000054a e32f                 BCR 0x50, 0x1
0000054b feaf                 MOVR 0x50, 0x0
0000054c fffa                 IOST 0x5
0000054d c29d                 LGOTO 0x562; number.o:_00379_DS_=0x562
0000054e                      number.o:_00375_DS_:
0000054e ffea                 IOSTR 0x5
0000054f e0fc                 BCR 0x3, 0x6
00000550 ff2f                 MOVAR 0x50
00000551 e2af                 BCR 0x50, 0x2
00000552 feaf                 MOVR 0x50, 0x0
00000553 fffa                 IOST 0x5
00000554 c29d                 LGOTO 0x562; number.o:_00379_DS_=0x562
00000555                      number.o:_00376_DS_:
00000555 ffea                 IOSTR 0x5
00000556 e0fc                 BCR 0x3, 0x6
00000557 ff2f                 MOVAR 0x50
00000558 e22f                 BCR 0x50, 0x3
00000559 feaf                 MOVR 0x50, 0x0
0000055a fffa                 IOST 0x5
0000055b c29d                 LGOTO 0x562; number.o:_00379_DS_=0x562
0000055c                      number.o:_00377_DS_:
0000055c ffea                 IOSTR 0x5
0000055d e0fc                 BCR 0x3, 0x6
0000055e ff2f                 MOVAR 0x50
0000055f e1af                 BCR 0x50, 0x4
00000560 feaf                 MOVR 0x50, 0x0
00000561 fffa                 IOST 0x5
00000562                      number.o:_00379_DS_:
00000562 ffef                 RET
00000563                      _setlowOutput:
00000563 e0fc                 BCR 0x3, 0x6
00000564 ff30                 MOVAR 0x4f
00000565 defe                 MOVIA 0x1
00000566 fbb0                 SUBAR 0x4f, 0x0
00000567 f7fc                 BTRSS 0x3, 0x0
00000568 c274                 LGOTO 0x58b; number.o:_00357_DS_=0x58b
00000569 def8                 MOVIA 0x7
0000056a fbb0                 SUBAR 0x4f, 0x0
0000056b f3fc                 BTRSC 0x3, 0x0
0000056c c274                 LGOTO 0x58b; number.o:_00357_DS_=0x58b
0000056d f930                 DECR 0x4f, 0x1
0000056e defa                 MOVIA 0x5
0000056f ff75                 MOVAR 0xa
00000570 feb0                 MOVR 0x4f, 0x0
00000571 da8a                 ADDIA 0x75
00000572 f3fc                 BTRSC 0x3, 0x0
00000573 fa75                 INCR 0xa, 0x1
00000574 ff7d                 MOVAR 0x2
00000575                      number.o:_00367_DS_:
00000575 c284                 LGOTO 0x57b; number.o:_00350_DS_=0x57b
00000576 c282                 LGOTO 0x57d; number.o:_00351_DS_=0x57d
00000577 c27f                 LGOTO 0x580; number.o:_00352_DS_=0x580
00000578 c27c                 LGOTO 0x583; number.o:_00353_DS_=0x583
00000579 c279                 LGOTO 0x586; number.o:_00354_DS_=0x586
0000057a c276                 LGOTO 0x589; number.o:_00355_DS_=0x589
0000057b                      number.o:_00350_DS_:
0000057b e3f9                 BCR 0x6, 0x0
0000057c c274                 LGOTO 0x58b; number.o:_00357_DS_=0x58b
0000057d                      number.o:_00351_DS_:
0000057d e0fc                 BCR 0x3, 0x6
0000057e e3fa                 BCR 0x5, 0x0
0000057f c274                 LGOTO 0x58b; number.o:_00357_DS_=0x58b
00000580                      number.o:_00352_DS_:
00000580 e0fc                 BCR 0x3, 0x6
00000581 e37a                 BCR 0x5, 0x1
00000582 c274                 LGOTO 0x58b; number.o:_00357_DS_=0x58b
00000583                      number.o:_00353_DS_:
00000583 e0fc                 BCR 0x3, 0x6
00000584 e2fa                 BCR 0x5, 0x2
00000585 c274                 LGOTO 0x58b; number.o:_00357_DS_=0x58b
00000586                      number.o:_00354_DS_:
00000586 e0fc                 BCR 0x3, 0x6
00000587 e27a                 BCR 0x5, 0x3
00000588 c274                 LGOTO 0x58b; number.o:_00357_DS_=0x58b
00000589                      number.o:_00355_DS_:
00000589 e0fc                 BCR 0x3, 0x6
0000058a e1fa                 BCR 0x5, 0x4
0000058b                      number.o:_00357_DS_:
0000058b ffef                 RET
0000058c                      _setHightOutput:
0000058c e0fc                 BCR 0x3, 0x6
0000058d ff31                 MOVAR 0x4e
0000058e defe                 MOVIA 0x1
0000058f fbb1                 SUBAR 0x4e, 0x0
00000590 f7fc                 BTRSS 0x3, 0x0
00000591 c24b                 LGOTO 0x5b4; number.o:_00335_DS_=0x5b4
00000592 def8                 MOVIA 0x7
00000593 fbb1                 SUBAR 0x4e, 0x0
00000594 f3fc                 BTRSC 0x3, 0x0
00000595 c24b                 LGOTO 0x5b4; number.o:_00335_DS_=0x5b4
00000596 f931                 DECR 0x4e, 0x1
00000597 defa                 MOVIA 0x5
00000598 ff75                 MOVAR 0xa
00000599 feb1                 MOVR 0x4e, 0x0
0000059a da61                 ADDIA 0x9e
0000059b f3fc                 BTRSC 0x3, 0x0
0000059c fa75                 INCR 0xa, 0x1
0000059d ff7d                 MOVAR 0x2
0000059e                      number.o:_00345_DS_:
0000059e c25b                 LGOTO 0x5a4; number.o:_00328_DS_=0x5a4
0000059f c259                 LGOTO 0x5a6; number.o:_00329_DS_=0x5a6
000005a0 c256                 LGOTO 0x5a9; number.o:_00330_DS_=0x5a9
000005a1 c253                 LGOTO 0x5ac; number.o:_00331_DS_=0x5ac
000005a2 c250                 LGOTO 0x5af; number.o:_00332_DS_=0x5af
000005a3 c24d                 LGOTO 0x5b2; number.o:_00333_DS_=0x5b2
000005a4                      number.o:_00328_DS_:
000005a4 e7f9                 BSR 0x6, 0x0
000005a5 c24b                 LGOTO 0x5b4; number.o:_00335_DS_=0x5b4
000005a6                      number.o:_00329_DS_:
000005a6 e0fc                 BCR 0x3, 0x6
000005a7 e7fa                 BSR 0x5, 0x0
000005a8 c24b                 LGOTO 0x5b4; number.o:_00335_DS_=0x5b4
000005a9                      number.o:_00330_DS_:
000005a9 e0fc                 BCR 0x3, 0x6
000005aa e77a                 BSR 0x5, 0x1
000005ab c24b                 LGOTO 0x5b4; number.o:_00335_DS_=0x5b4
000005ac                      number.o:_00331_DS_:
000005ac e0fc                 BCR 0x3, 0x6
000005ad e6fa                 BSR 0x5, 0x2
000005ae c24b                 LGOTO 0x5b4; number.o:_00335_DS_=0x5b4
000005af                      number.o:_00332_DS_:
000005af e0fc                 BCR 0x3, 0x6
000005b0 e67a                 BSR 0x5, 0x3
000005b1 c24b                 LGOTO 0x5b4; number.o:_00335_DS_=0x5b4
000005b2                      number.o:_00333_DS_:
000005b2 e0fc                 BCR 0x3, 0x6
000005b3 e5fa                 BSR 0x5, 0x4
000005b4                      number.o:_00335_DS_:
000005b4 ffef                 RET
000005b5                      _showNub:
000005b5 e0fc                 BCR 0x3, 0x6
000005b6 ff33                 MOVAR 0x4c
000005b7 feb8                 MOVR 0x47, 0x0
000005b8 ff32                 MOVAR 0x4d
000005b9 d2ea                 LCALL 0x515; _setInput=0x515
000005ba e0fc                 BCR 0x3, 0x6
000005bb feb3                 MOVR 0x4c, 0x0
000005bc d2de                 LCALL 0x521; _setOutput=0x521
000005bd e0fc                 BCR 0x3, 0x6
000005be feb3                 MOVR 0x4c, 0x0
000005bf d273                 LCALL 0x58c; _setHightOutput=0x58c
000005c0 e0fc                 BCR 0x3, 0x6
000005c1 feb2                 MOVR 0x4d, 0x0
000005c2 d2de                 LCALL 0x521; _setOutput=0x521
000005c3 e0fc                 BCR 0x3, 0x6
000005c4 feb2                 MOVR 0x4d, 0x0
000005c5 d29c                 LCALL 0x563; _setlowOutput=0x563
000005c6 deeb                 MOVIA 0x14
000005c7 d2f6                 LCALL 0x509; _delayms=0x509
000005c8 fffd                 CLRWDT
000005c9 ffef                 RET
000005ca                      _G3:
000005ca defe                 MOVIA 0x1
000005cb ff38                 MOVAR 0x47
000005cc defa                 MOVIA 0x5
000005cd d24a                 LCALL 0x5b5; _showNub=0x5b5
000005ce ffef                 RET
000005cf                      _F3:
000005cf def9                 MOVIA 0x6
000005d0 ff38                 MOVAR 0x47
000005d1 defb                 MOVIA 0x4
000005d2 d24a                 LCALL 0x5b5; _showNub=0x5b5
000005d3 ffef                 RET
000005d4                      _E3:
000005d4 defa                 MOVIA 0x5
000005d5 ff38                 MOVAR 0x47
000005d6 defb                 MOVIA 0x4
000005d7 d24a                 LCALL 0x5b5; _showNub=0x5b5
000005d8 ffef                 RET
000005d9                      _D3:
000005d9 defc                 MOVIA 0x3
000005da ff38                 MOVAR 0x47
000005db defb                 MOVIA 0x4
000005dc d24a                 LCALL 0x5b5; _showNub=0x5b5
000005dd ffef                 RET
000005de                      _C3:
000005de defd                 MOVIA 0x2
000005df ff38                 MOVAR 0x47
000005e0 defb                 MOVIA 0x4
000005e1 d24a                 LCALL 0x5b5; _showNub=0x5b5
000005e2 ffef                 RET
000005e3                      _B3:
000005e3 defe                 MOVIA 0x1
000005e4 ff38                 MOVAR 0x47
000005e5 defb                 MOVIA 0x4
000005e6 d24a                 LCALL 0x5b5; _showNub=0x5b5
000005e7 ffef                 RET
000005e8                      _A3:
000005e8 def9                 MOVIA 0x6
000005e9 ff38                 MOVAR 0x47
000005ea defc                 MOVIA 0x3
000005eb d24a                 LCALL 0x5b5; _showNub=0x5b5
000005ec ffef                 RET
000005ed                      _G2:
000005ed defa                 MOVIA 0x5
000005ee ff38                 MOVAR 0x47
000005ef defc                 MOVIA 0x3
000005f0 d24a                 LCALL 0x5b5; _showNub=0x5b5
000005f1 ffef                 RET
000005f2                      _F2:
000005f2 defb                 MOVIA 0x4
000005f3 ff38                 MOVAR 0x47
000005f4 defc                 MOVIA 0x3
000005f5 d24a                 LCALL 0x5b5; _showNub=0x5b5
000005f6 ffef                 RET
000005f7                      _E2:
000005f7 defd                 MOVIA 0x2
000005f8 ff38                 MOVAR 0x47
000005f9 defc                 MOVIA 0x3
000005fa d24a                 LCALL 0x5b5; _showNub=0x5b5
000005fb ffef                 RET
000005fc                      _D2:
000005fc defe                 MOVIA 0x1
000005fd ff38                 MOVAR 0x47
000005fe defc                 MOVIA 0x3
000005ff d24a                 LCALL 0x5b5; _showNub=0x5b5
00000600 ffef                 RET
00000601                      _C2:
00000601 def9                 MOVIA 0x6
00000602 ff38                 MOVAR 0x47
00000603 defd                 MOVIA 0x2
00000604 d24a                 LCALL 0x5b5; _showNub=0x5b5
00000605 ffef                 RET
00000606                      _B2:
00000606 defa                 MOVIA 0x5
00000607 ff38                 MOVAR 0x47
00000608 defd                 MOVIA 0x2
00000609 d24a                 LCALL 0x5b5; _showNub=0x5b5
0000060a ffef                 RET
0000060b                      _A2:
0000060b defb                 MOVIA 0x4
0000060c ff38                 MOVAR 0x47
0000060d defd                 MOVIA 0x2
0000060e d24a                 LCALL 0x5b5; _showNub=0x5b5
0000060f ffef                 RET
00000610                      _G1:
00000610 defc                 MOVIA 0x3
00000611 ff38                 MOVAR 0x47
00000612 defd                 MOVIA 0x2
00000613 d24a                 LCALL 0x5b5; _showNub=0x5b5
00000614 ffef                 RET
00000615                      _F1:
00000615 defe                 MOVIA 0x1
00000616 ff38                 MOVAR 0x47
00000617 defd                 MOVIA 0x2
00000618 d24a                 LCALL 0x5b5; _showNub=0x5b5
00000619 ffef                 RET
0000061a                      _E1:
0000061a def9                 MOVIA 0x6
0000061b ff38                 MOVAR 0x47
0000061c defe                 MOVIA 0x1
0000061d d24a                 LCALL 0x5b5; _showNub=0x5b5
0000061e ffef                 RET
0000061f                      _D1:
0000061f defa                 MOVIA 0x5
00000620 ff38                 MOVAR 0x47
00000621 defe                 MOVIA 0x1
00000622 d24a                 LCALL 0x5b5; _showNub=0x5b5
00000623 ffef                 RET
00000624                      _C1:
00000624 defb                 MOVIA 0x4
00000625 ff38                 MOVAR 0x47
00000626 defe                 MOVIA 0x1
00000627 d24a                 LCALL 0x5b5; _showNub=0x5b5
00000628 ffef                 RET
00000629                      _B1:
00000629 defc                 MOVIA 0x3
0000062a ff38                 MOVAR 0x47
0000062b defe                 MOVIA 0x1
0000062c d24a                 LCALL 0x5b5; _showNub=0x5b5
0000062d ffef                 RET
0000062e                      _A1:
0000062e defd                 MOVIA 0x2
0000062f ff38                 MOVAR 0x47
00000630 defe                 MOVIA 0x1
00000631 d24a                 LCALL 0x5b5; _showNub=0x5b5
00000632 ffef                 RET
00000633                      _showNubBaiwei2:
00000633 e0fc                 BCR 0x3, 0x6
00000634 ff34                 MOVAR 0x4b
00000635 def8                 MOVIA 0x7
00000636 fbb4                 SUBAR 0x4b, 0x0
00000637 f3fc                 BTRSC 0x3, 0x0
00000638 c1ab                 LGOTO 0x654; number.o:_00229_DS_=0x654
00000639 def9                 MOVIA 0x6
0000063a ff75                 MOVAR 0xa
0000063b feb4                 MOVR 0x4b, 0x0
0000063c dabf                 ADDIA 0x40
0000063d f3fc                 BTRSC 0x3, 0x0
0000063e fa75                 INCR 0xa, 0x1
0000063f ff7d                 MOVAR 0x2
00000640                      number.o:_00235_DS_:
00000640 c1b8                 LGOTO 0x647; number.o:_00221_DS_=0x647
00000641 c1b6                 LGOTO 0x649; number.o:_00222_DS_=0x649
00000642 c1b4                 LGOTO 0x64b; number.o:_00223_DS_=0x64b
00000643 c1b2                 LGOTO 0x64d; number.o:_00224_DS_=0x64d
00000644 c1b0                 LGOTO 0x64f; number.o:_00225_DS_=0x64f
00000645 c1ae                 LGOTO 0x651; number.o:_00226_DS_=0x651
00000646 c1ac                 LGOTO 0x653; number.o:_00227_DS_=0x653
00000647                      number.o:_00221_DS_:
00000647 d1d1                 LCALL 0x62e; _A1=0x62e
00000648 c1ab                 LGOTO 0x654; number.o:_00229_DS_=0x654
00000649                      number.o:_00222_DS_:
00000649 d1d6                 LCALL 0x629; _B1=0x629
0000064a c1ab                 LGOTO 0x654; number.o:_00229_DS_=0x654
0000064b                      number.o:_00223_DS_:
0000064b d1db                 LCALL 0x624; _C1=0x624
0000064c c1ab                 LGOTO 0x654; number.o:_00229_DS_=0x654
0000064d                      number.o:_00224_DS_:
0000064d d1e0                 LCALL 0x61f; _D1=0x61f
0000064e c1ab                 LGOTO 0x654; number.o:_00229_DS_=0x654
0000064f                      number.o:_00225_DS_:
0000064f d1e5                 LCALL 0x61a; _E1=0x61a
00000650 c1ab                 LGOTO 0x654; number.o:_00229_DS_=0x654
00000651                      number.o:_00226_DS_:
00000651 d1ea                 LCALL 0x615; _F1=0x615
00000652 c1ab                 LGOTO 0x654; number.o:_00229_DS_=0x654
00000653                      number.o:_00227_DS_:
00000653 d1ef                 LCALL 0x610; _G1=0x610
00000654                      number.o:_00229_DS_:
00000654 ffef                 RET
00000655                      _showNubBaiwei:
00000655 e0fc                 BCR 0x3, 0x6
00000656 ff37                 MOVAR 0x48
00000657 fd36                 CLRR 0x49
00000658                      number.o:_00200_DS_:
00000658 def8                 MOVIA 0x7
00000659 e0fc                 BCR 0x3, 0x6
0000065a fbb6                 SUBAR 0x49, 0x0
0000065b f3fc                 BTRSC 0x3, 0x0
0000065c c18d                 LGOTO 0x672; number.o:_00202_DS_=0x672
0000065d feb7                 MOVR 0x48, 0x0
0000065e ff35                 MOVAR 0x4a
0000065f feb6                 MOVR 0x49, 0x0
00000660 d8ff                 SUBIA 0x0
00000661 f2fc                 BTRSC 0x3, 0x2
00000662 c197                 LGOTO 0x668; number.o:_00216_DS_=0x668
00000663                      number.o:_00215_DS_:
00000663 e0fc                 BCR 0x3, 0x6
00000664 ec35                 RRR 0x4a, 0x1
00000665 dafe                 ADDIA 0x1
00000666 f7fc                 BTRSS 0x3, 0x0
00000667 c19c                 LGOTO 0x663; number.o:_00215_DS_=0x663
00000668                      number.o:_00216_DS_:
00000668 e0fc                 BCR 0x3, 0x6
00000669 f7b5                 BTRSS 0x4a, 0x0
0000066a c191                 LGOTO 0x66e; number.o:_00196_DS_=0x66e
0000066b feb6                 MOVR 0x49, 0x0
0000066c d1cc                 LCALL 0x633; _showNubBaiwei2=0x633
0000066d c190                 LGOTO 0x66f; number.o:_00201_DS_=0x66f
0000066e                      number.o:_00196_DS_:
0000066e d2ea                 LCALL 0x515; _setInput=0x515
0000066f                      number.o:_00201_DS_:
0000066f e0fc                 BCR 0x3, 0x6
00000670 fa36                 INCR 0x49, 0x1
00000671 c1a7                 LGOTO 0x658; number.o:_00200_DS_=0x658
00000672                      number.o:_00202_DS_:
00000672 ffef                 RET
00000673                      _showNubGewei2:
00000673 e0fc                 BCR 0x3, 0x6
00000674 ff40                 MOVAR 0x3f
00000675 def8                 MOVIA 0x7
00000676 fbc0                 SUBAR 0x3f, 0x0
00000677 f3fc                 BTRSC 0x3, 0x0
00000678 c16b                 LGOTO 0x694; number.o:_00184_DS_=0x694
00000679 def9                 MOVIA 0x6
0000067a ff75                 MOVAR 0xa
0000067b fec0                 MOVR 0x3f, 0x0
0000067c da7f                 ADDIA 0x80
0000067d f3fc                 BTRSC 0x3, 0x0
0000067e fa75                 INCR 0xa, 0x1
0000067f ff7d                 MOVAR 0x2
00000680                      number.o:_00190_DS_:
00000680 c178                 LGOTO 0x687; number.o:_00176_DS_=0x687
00000681 c176                 LGOTO 0x689; number.o:_00177_DS_=0x689
00000682 c174                 LGOTO 0x68b; number.o:_00178_DS_=0x68b
00000683 c172                 LGOTO 0x68d; number.o:_00179_DS_=0x68d
00000684 c170                 LGOTO 0x68f; number.o:_00180_DS_=0x68f
00000685 c16e                 LGOTO 0x691; number.o:_00181_DS_=0x691
00000686 c16c                 LGOTO 0x693; number.o:_00182_DS_=0x693
00000687                      number.o:_00176_DS_:
00000687 d217                 LCALL 0x5e8; _A3=0x5e8
00000688 c16b                 LGOTO 0x694; number.o:_00184_DS_=0x694
00000689                      number.o:_00177_DS_:
00000689 d21c                 LCALL 0x5e3; _B3=0x5e3
0000068a c16b                 LGOTO 0x694; number.o:_00184_DS_=0x694
0000068b                      number.o:_00178_DS_:
0000068b d221                 LCALL 0x5de; _C3=0x5de
0000068c c16b                 LGOTO 0x694; number.o:_00184_DS_=0x694
0000068d                      number.o:_00179_DS_:
0000068d d226                 LCALL 0x5d9; _D3=0x5d9
0000068e c16b                 LGOTO 0x694; number.o:_00184_DS_=0x694
0000068f                      number.o:_00180_DS_:
0000068f d22b                 LCALL 0x5d4; _E3=0x5d4
00000690 c16b                 LGOTO 0x694; number.o:_00184_DS_=0x694
00000691                      number.o:_00181_DS_:
00000691 d230                 LCALL 0x5cf; _F3=0x5cf
00000692 c16b                 LGOTO 0x694; number.o:_00184_DS_=0x694
00000693                      number.o:_00182_DS_:
00000693 d235                 LCALL 0x5ca; _G3=0x5ca
00000694                      number.o:_00184_DS_:
00000694 ffef                 RET
00000695                      _showNubGewei:
00000695 e0fc                 BCR 0x3, 0x6
00000696 ff43                 MOVAR 0x3c
00000697 fd42                 CLRR 0x3d
00000698                      number.o:_00155_DS_:
00000698 def8                 MOVIA 0x7
00000699 e0fc                 BCR 0x3, 0x6
0000069a fbc2                 SUBAR 0x3d, 0x0
0000069b f3fc                 BTRSC 0x3, 0x0
0000069c c14d                 LGOTO 0x6b2; number.o:_00157_DS_=0x6b2
0000069d fec3                 MOVR 0x3c, 0x0
0000069e ff41                 MOVAR 0x3e
0000069f fec2                 MOVR 0x3d, 0x0
000006a0 d8ff                 SUBIA 0x0
000006a1 f2fc                 BTRSC 0x3, 0x2
000006a2 c157                 LGOTO 0x6a8; number.o:_00171_DS_=0x6a8
000006a3                      number.o:_00170_DS_:
000006a3 e0fc                 BCR 0x3, 0x6
000006a4 ec41                 RRR 0x3e, 0x1
000006a5 dafe                 ADDIA 0x1
000006a6 f7fc                 BTRSS 0x3, 0x0
000006a7 c15c                 LGOTO 0x6a3; number.o:_00170_DS_=0x6a3
000006a8                      number.o:_00171_DS_:
000006a8 e0fc                 BCR 0x3, 0x6
000006a9 f7c1                 BTRSS 0x3e, 0x0
000006aa c151                 LGOTO 0x6ae; number.o:_00151_DS_=0x6ae
000006ab fec2                 MOVR 0x3d, 0x0
000006ac d18c                 LCALL 0x673; _showNubGewei2=0x673
000006ad c150                 LGOTO 0x6af; number.o:_00156_DS_=0x6af
000006ae                      number.o:_00151_DS_:
000006ae d2ea                 LCALL 0x515; _setInput=0x515
000006af                      number.o:_00156_DS_:
000006af e0fc                 BCR 0x3, 0x6
000006b0 fa42                 INCR 0x3d, 0x1
000006b1 c167                 LGOTO 0x698; number.o:_00155_DS_=0x698
000006b2                      number.o:_00157_DS_:
000006b2 ffef                 RET
000006b3                      _showNubShiwei2:
000006b3 e0fc                 BCR 0x3, 0x6
000006b4 ff44                 MOVAR 0x3b
000006b5 def8                 MOVIA 0x7
000006b6 fbc4                 SUBAR 0x3b, 0x0
000006b7 f3fc                 BTRSC 0x3, 0x0
000006b8 c12b                 LGOTO 0x6d4; number.o:_00139_DS_=0x6d4
000006b9 def9                 MOVIA 0x6
000006ba ff75                 MOVAR 0xa
000006bb fec4                 MOVR 0x3b, 0x0
000006bc da3f                 ADDIA 0xc0
000006bd f3fc                 BTRSC 0x3, 0x0
000006be fa75                 INCR 0xa, 0x1
000006bf ff7d                 MOVAR 0x2
000006c0                      number.o:_00145_DS_:
000006c0 c138                 LGOTO 0x6c7; number.o:_00131_DS_=0x6c7
000006c1 c136                 LGOTO 0x6c9; number.o:_00132_DS_=0x6c9
000006c2 c134                 LGOTO 0x6cb; number.o:_00133_DS_=0x6cb
000006c3 c132                 LGOTO 0x6cd; number.o:_00134_DS_=0x6cd
000006c4 c130                 LGOTO 0x6cf; number.o:_00135_DS_=0x6cf
000006c5 c12e                 LGOTO 0x6d1; number.o:_00136_DS_=0x6d1
000006c6 c12c                 LGOTO 0x6d3; number.o:_00137_DS_=0x6d3
000006c7                      number.o:_00131_DS_:
000006c7 d1f4                 LCALL 0x60b; _A2=0x60b
000006c8 c12b                 LGOTO 0x6d4; number.o:_00139_DS_=0x6d4
000006c9                      number.o:_00132_DS_:
000006c9 d1f9                 LCALL 0x606; _B2=0x606
000006ca c12b                 LGOTO 0x6d4; number.o:_00139_DS_=0x6d4
000006cb                      number.o:_00133_DS_:
000006cb d1fe                 LCALL 0x601; _C2=0x601
000006cc c12b                 LGOTO 0x6d4; number.o:_00139_DS_=0x6d4
000006cd                      number.o:_00134_DS_:
000006cd d203                 LCALL 0x5fc; _D2=0x5fc
000006ce c12b                 LGOTO 0x6d4; number.o:_00139_DS_=0x6d4
000006cf                      number.o:_00135_DS_:
000006cf d208                 LCALL 0x5f7; _E2=0x5f7
000006d0 c12b                 LGOTO 0x6d4; number.o:_00139_DS_=0x6d4
000006d1                      number.o:_00136_DS_:
000006d1 d20d                 LCALL 0x5f2; _F2=0x5f2
000006d2 c12b                 LGOTO 0x6d4; number.o:_00139_DS_=0x6d4
000006d3                      number.o:_00137_DS_:
000006d3 d212                 LCALL 0x5ed; _G2=0x5ed
000006d4                      number.o:_00139_DS_:
000006d4 ffef                 RET
000006d5                      _showNubShiwei:
000006d5 e0fc                 BCR 0x3, 0x6
000006d6 ff47                 MOVAR 0x38
000006d7 fd46                 CLRR 0x39
000006d8                      number.o:_00110_DS_:
000006d8 def8                 MOVIA 0x7
000006d9 e0fc                 BCR 0x3, 0x6
000006da fbc6                 SUBAR 0x39, 0x0
000006db f3fc                 BTRSC 0x3, 0x0
000006dc c10d                 LGOTO 0x6f2; number.o:_00112_DS_=0x6f2
000006dd fec7                 MOVR 0x38, 0x0
000006de ff45                 MOVAR 0x3a
000006df fec6                 MOVR 0x39, 0x0
000006e0 d8ff                 SUBIA 0x0
000006e1 f2fc                 BTRSC 0x3, 0x2
000006e2 c117                 LGOTO 0x6e8; number.o:_00126_DS_=0x6e8
000006e3                      number.o:_00125_DS_:
000006e3 e0fc                 BCR 0x3, 0x6
000006e4 ec45                 RRR 0x3a, 0x1
000006e5 dafe                 ADDIA 0x1
000006e6 f7fc                 BTRSS 0x3, 0x0
000006e7 c11c                 LGOTO 0x6e3; number.o:_00125_DS_=0x6e3
000006e8                      number.o:_00126_DS_:
000006e8 e0fc                 BCR 0x3, 0x6
000006e9 f7c5                 BTRSS 0x3a, 0x0
000006ea c111                 LGOTO 0x6ee; number.o:_00106_DS_=0x6ee
000006eb fec6                 MOVR 0x39, 0x0
000006ec d14c                 LCALL 0x6b3; _showNubShiwei2=0x6b3
000006ed c110                 LGOTO 0x6ef; number.o:_00111_DS_=0x6ef
000006ee                      number.o:_00106_DS_:
000006ee d2ea                 LCALL 0x515; _setInput=0x515
000006ef                      number.o:_00111_DS_:
000006ef e0fc                 BCR 0x3, 0x6
000006f0 fa46                 INCR 0x39, 0x1
000006f1 c127                 LGOTO 0x6d8; number.o:_00110_DS_=0x6d8
000006f2                      number.o:_00112_DS_:
000006f2 ffef                 RET
000006f3                      __divuchar:
000006f3 e0fc                 BCR 0x3, 0x6
000006f4 ff2b                 MOVAR 0x54
000006f5 feb8                 MOVR 0x47, 0x0
000006f6 ff2a                 MOVAR 0x55
000006f7 fd29                 CLRR 0x56
000006f8 defe                 MOVIA 0x1
000006f9 ff28                 MOVAR 0x57
000006fa feaa                 MOVR 0x55, 0x0
000006fb f6fc                 BTRSS 0x3, 0x2
000006fc c100                 LGOTO 0x6ff; _divuchar.o:_00107_DS_=0x6ff
000006fd de00                 MOVIA 0xff
000006fe c0e4                 LGOTO 0x71b; _divuchar.o:_00115_DS_=0x71b
000006ff                      _divuchar.o:_00107_DS_:
000006ff e0fc                 BCR 0x3, 0x6
00000700 f02a                 BTRSC 0x55, 0x7
00000701 c0f8                 LGOTO 0x707; _divuchar.o:_00112_DS_=0x707
00000702 e3fc                 BCR 0x3, 0x0
00000703 eb2a                 RLR 0x55, 0x1
00000704 e3fc                 BCR 0x3, 0x0
00000705 eb28                 RLR 0x57, 0x1
00000706 c100                 LGOTO 0x6ff; _divuchar.o:_00107_DS_=0x6ff
00000707                      _divuchar.o:_00112_DS_:
00000707 e0fc                 BCR 0x3, 0x6
00000708 fea8                 MOVR 0x57, 0x0
00000709 f2fc                 BTRSC 0x3, 0x2
0000070a c0e6                 LGOTO 0x719; _divuchar.o:_00114_DS_=0x719
0000070b feaa                 MOVR 0x55, 0x0
0000070c fbab                 SUBAR 0x54, 0x0
0000070d f7fc                 BTRSS 0x3, 0x0
0000070e c0ec                 LGOTO 0x713; _divuchar.o:_00111_DS_=0x713
0000070f fea8                 MOVR 0x57, 0x0
00000710 fc29                 ADDAR 0x56, 0x1
00000711 feaa                 MOVR 0x55, 0x0
00000712 fb2b                 SUBAR 0x54, 0x1
00000713                      _divuchar.o:_00111_DS_:
00000713 e3fc                 BCR 0x3, 0x0
00000714 e0fc                 BCR 0x3, 0x6
00000715 ec2a                 RRR 0x55, 0x1
00000716 e3fc                 BCR 0x3, 0x0
00000717 ec28                 RRR 0x57, 0x1
00000718 c0f8                 LGOTO 0x707; _divuchar.o:_00112_DS_=0x707
00000719                      _divuchar.o:_00114_DS_:
00000719 e0fc                 BCR 0x3, 0x6
0000071a fea9                 MOVR 0x56, 0x0
0000071b                      _divuchar.o:_00115_DS_:
0000071b ffef                 RET
0000071c                      __moduchar:
0000071c e0fc                 BCR 0x3, 0x6
0000071d ff27                 MOVAR 0x58
0000071e feb8                 MOVR 0x47, 0x0
0000071f ff26                 MOVAR 0x59
00000720 f6fc                 BTRSS 0x3, 0x2
00000721 c0db                 LGOTO 0x724; _moduchar.o:_00119_DS_=0x724
00000722 de00                 MOVIA 0xff
00000723 c0c0                 LGOTO 0x73f; _moduchar.o:_00115_DS_=0x73f
00000724                      _moduchar.o:_00119_DS_:
00000724 defe                 MOVIA 0x1
00000725 e0fc                 BCR 0x3, 0x6
00000726 ff25                 MOVAR 0x5a
00000727                      _moduchar.o:_00107_DS_:
00000727 e0fc                 BCR 0x3, 0x6
00000728 f026                 BTRSC 0x59, 0x7
00000729 c0d1                 LGOTO 0x72e; _moduchar.o:_00112_DS_=0x72e
0000072a e3fc                 BCR 0x3, 0x0
0000072b eb26                 RLR 0x59, 0x1
0000072c fa25                 INCR 0x5a, 0x1
0000072d c0d8                 LGOTO 0x727; _moduchar.o:_00107_DS_=0x727
0000072e                      _moduchar.o:_00112_DS_:
0000072e e0fc                 BCR 0x3, 0x6
0000072f fea5                 MOVR 0x5a, 0x0
00000730 f2fc                 BTRSC 0x3, 0x2
00000731 c0c2                 LGOTO 0x73d; _moduchar.o:_00114_DS_=0x73d
00000732 fea6                 MOVR 0x59, 0x0
00000733 fba7                 SUBAR 0x58, 0x0
00000734 f7fc                 BTRSS 0x3, 0x0
00000735 c0c7                 LGOTO 0x738; _moduchar.o:_00111_DS_=0x738
00000736 fea6                 MOVR 0x59, 0x0
00000737 fb27                 SUBAR 0x58, 0x1
00000738                      _moduchar.o:_00111_DS_:
00000738 e3fc                 BCR 0x3, 0x0
00000739 e0fc                 BCR 0x3, 0x6
0000073a ec26                 RRR 0x59, 0x1
0000073b f925                 DECR 0x5a, 0x1
0000073c c0d1                 LGOTO 0x72e; _moduchar.o:_00112_DS_=0x72e
0000073d                      _moduchar.o:_00114_DS_:
0000073d e0fc                 BCR 0x3, 0x6
0000073e fea7                 MOVR 0x58, 0x0
0000073f                      _moduchar.o:_00115_DS_:
0000073f ffef                 RET
00000740                      __moduint:
00000740 e0fc                 BCR 0x3, 0x6
00000741 ff23                 MOVAR 0x5c
00000742 feb8                 MOVR 0x47, 0x0
00000743 ff24                 MOVAR 0x5b
00000744 feb9                 MOVR 0x46, 0x0
00000745 ff21                 MOVAR 0x5e
00000746 feba                 MOVR 0x45, 0x0
00000747 ff22                 MOVAR 0x5d
00000748 eea1                 IORAR 0x5e, 0x0
00000749 f6fc                 BTRSS 0x3, 0x2
0000074a c0b1                 LGOTO 0x74e; _moduint.o:_00119_DS_=0x74e
0000074b de00                 MOVIA 0xff
0000074c ff38                 MOVAR 0x47
0000074d c087                 LGOTO 0x778; _moduint.o:_00115_DS_=0x778
0000074e                      _moduint.o:_00119_DS_:
0000074e defe                 MOVIA 0x1
0000074f e0fc                 BCR 0x3, 0x6
00000750 ff20                 MOVAR 0x5f
00000751                      _moduint.o:_00107_DS_:
00000751 e0fc                 BCR 0x3, 0x6
00000752 f021                 BTRSC 0x5e, 0x7
00000753 c0a6                 LGOTO 0x759; _moduint.o:_00112_DS_=0x759
00000754 e3fc                 BCR 0x3, 0x0
00000755 eb22                 RLR 0x5d, 0x1
00000756 eb21                 RLR 0x5e, 0x1
00000757 fa20                 INCR 0x5f, 0x1
00000758 c0ae                 LGOTO 0x751; _moduint.o:_00107_DS_=0x751
00000759                      _moduint.o:_00112_DS_:
00000759 e0fc                 BCR 0x3, 0x6
0000075a fea0                 MOVR 0x5f, 0x0
0000075b f2fc                 BTRSC 0x3, 0x2
0000075c c08b                 LGOTO 0x774; _moduint.o:_00114_DS_=0x774
0000075d fea1                 MOVR 0x5e, 0x0
0000075e fba3                 SUBAR 0x5c, 0x0
0000075f f6fc                 BTRSS 0x3, 0x2
00000760 c09c                 LGOTO 0x763; _moduint.o:_00137_DS_=0x763
00000761 fea2                 MOVR 0x5d, 0x0
00000762 fba4                 SUBAR 0x5b, 0x0
00000763                      _moduint.o:_00137_DS_:
00000763 f7fc                 BTRSS 0x3, 0x0
00000764 c091                 LGOTO 0x76e; _moduint.o:_00001_DS_=0x76e
00000765 e0fc                 BCR 0x3, 0x6
00000766 fea2                 MOVR 0x5d, 0x0
00000767 fb24                 SUBAR 0x5b, 0x1
00000768 fea1                 MOVR 0x5e, 0x0
00000769 f7fc                 BTRSS 0x3, 0x0
0000076a faa1                 INCR 0x5e, 0x0
0000076b f2fc                 BTRSC 0x3, 0x2
0000076c c091                 LGOTO 0x76e; _moduint.o:_00001_DS_=0x76e
0000076d fb23                 SUBAR 0x5c, 0x1
0000076e                      _moduint.o:_00001_DS_:
0000076e e3fc                 BCR 0x3, 0x0
0000076f e0fc                 BCR 0x3, 0x6
00000770 ec21                 RRR 0x5e, 0x1
00000771 ec22                 RRR 0x5d, 0x1
00000772 f920                 DECR 0x5f, 0x1
00000773 c0a6                 LGOTO 0x759; _moduint.o:_00112_DS_=0x759
00000774                      _moduint.o:_00114_DS_:
00000774 e0fc                 BCR 0x3, 0x6
00000775 fea4                 MOVR 0x5b, 0x0
00000776 ff38                 MOVAR 0x47
00000777 fea3                 MOVR 0x5c, 0x0
00000778                      _moduint.o:_00115_DS_:
00000778 ffef                 RET
00000779                      __gptrget:
00000779 dbff                 XORIA 0x0
0000077a f2fc                 BTRSC 0x3, 0x2
0000077b c07f                 LGOTO 0x780; _gptrget1.o:__dataptrget1=0x780
0000077c db7f                 XORIA 0x80
0000077d f2fc                 BTRSC 0x3, 0x2
0000077e c078                 LGOTO 0x787; __codeptrget1=0x787
0000077f dfff                 RETIA 0x0
00000780                      _gptrget1.o:__dataptrget1:
00000780 feb9                 MOVR 0x46, 0x0
00000781 ff7b                 MOVAR 0x4
00000782 e0fc                 BCR 0x3, 0x6
00000783 f039                 BTRSC 0x46, 0x7
00000784 e4fc                 BSR 0x3, 0x6
00000785 feff                 MOVR 0x0, 0x0
00000786 ffef                 RET
00000787                      __codeptrget1:
00000787 feb8                 MOVR 0x47, 0x0
00000788 ffb8                 SFUN 0x7
00000789 feb9                 MOVR 0x46, 0x0
0000078a fdee                 TABLEA
0000078b ffef                 RET
0000078c                      ___cinit_load__:
