00000000 c7f6                 LGOTO 0x9; crt0.o:initial_ram_bss=0x9
00000001                      main.o:_00368_DS_:
00000001 f56f                 BTRSS 0x10, 0x5
00000002 c7fe                 LGOTO 0x1; main.o:_00368_DS_=0x1
00000003 ffef                 RET
00000008 c7e2                 LGOTO 0x1d; main.o:__sdcc_interrupt=0x1d
00000009                      crt0.o:initial_ram_bss:
00000015                      crt0.o:initial_ram_cinit:
00000017                      crt0.o:startup_exit:
0000001d                      main.o:__sdcc_interrupt:
0000001d ff3d                 MOVAR 0x42
0000001e eafc                 SWAPR 0x3, 0x0
0000001f fd7c                 CLRR 0x3
00000020 ff3e                 MOVAR 0x41
00000021 fef5                 MOVR 0xa, 0x0
00000022 fd75                 CLRR 0xa
00000023 ff3f                 MOVAR 0x40
00000024 fefb                 MOVR 0x4, 0x0
00000025 e0fc                 BCR 0x3, 0x6
00000026 ff49                 MOVAR 0x36
00000027 feb0                 MOVR 0x4f, 0x0
00000028 ff48                 MOVAR 0x37
00000029 feb1                 MOVR 0x4e, 0x0
0000002a ff47                 MOVAR 0x38
0000002b f7f0                 BTRSS 0xf, 0x0
0000002c c7b5                 LGOTO 0x4a; main.o:_00113_DS_=0x4a
0000002d dec8                 MOVIA 0x37
0000002e fc7e                 ADDAR 0x1, 0x1
0000002f fa46                 INCR 0x39, 0x1
00000030 fec6                 MOVR 0x39, 0x0
00000031 db9b                 XORIA 0x64
00000032 f6fc                 BTRSS 0x3, 0x2
00000033 c7b5                 LGOTO 0x4a; main.o:_00113_DS_=0x4a
00000034 fd46                 CLRR 0x39
00000035 defe                 MOVIA 0x1
00000036 ff45                 MOVAR 0x3a
00000037 fa44                 INCR 0x3b, 0x1
00000038 f2fc                 BTRSC 0x3, 0x2
00000039 fa43                 INCR 0x3c, 0x1
0000003a fa2e                 INCR 0x51, 0x1
0000003b def5                 MOVIA 0xa
0000003c fbae                 SUBAR 0x51, 0x0
0000003d f7fc                 BTRSS 0x3, 0x0
0000003e c7b5                 LGOTO 0x4a; main.o:_00113_DS_=0x4a
0000003f fd2e                 CLRR 0x51
00000040 feaf                 MOVR 0x50, 0x0
00000041 f2fc                 BTRSC 0x3, 0x2
00000042 c7b8                 LGOTO 0x47; main.o:_00106_DS_=0x47
00000043 fa41                 INCR 0x3e, 0x1
00000044 f2fc                 BTRSC 0x3, 0x2
00000045 fa40                 INCR 0x3f, 0x1
00000046 c7b5                 LGOTO 0x4a; main.o:_00113_DS_=0x4a
00000047                      main.o:_00106_DS_:
00000047 e0fc                 BCR 0x3, 0x6
00000048 fd41                 CLRR 0x3e
00000049 fd40                 CLRR 0x3f
0000004a                      main.o:_00113_DS_:
0000004a fd70                 CLRR 0xf
0000004b e0fc                 BCR 0x3, 0x6
0000004c fec7                 MOVR 0x38, 0x0
0000004d ff31                 MOVAR 0x4e
0000004e fec8                 MOVR 0x37, 0x0
0000004f ff30                 MOVAR 0x4f
00000050 fec9                 MOVR 0x36, 0x0
00000051 ff7b                 MOVAR 0x4
00000052 febf                 MOVR 0x40, 0x0
00000053 ff75                 MOVAR 0xa
00000054 fd7c                 CLRR 0x3
00000055 eabe                 SWAPR 0x41, 0x0
00000056 ff7c                 MOVAR 0x3
00000057 ea3d                 SWAPR 0x42, 0x1
00000058 eabd                 SWAPR 0x42, 0x0
00000059                      main.o:END_OF_INTERRUPT:
00000059 ffee                 RETIE
0000005a                      _main:
0000005a d584                 LCALL 0x27b; _initTimer0=0x27b
0000005b d611                 LCALL 0x1ee; _initAD=0x1ee
0000005c                      main.o:_00121_DS_:
0000005c fffd                 CLRWDT
0000005d e0fc                 BCR 0x3, 0x6
0000005e fec5                 MOVR 0x3a, 0x0
0000005f f2fc                 BTRSC 0x3, 0x2
00000060 c7a3                 LGOTO 0x5c; main.o:_00121_DS_=0x5c
00000061 fd45                 CLRR 0x3a
00000062 d564                 LCALL 0x29b; _workCon=0x29b
00000063 d672                 LCALL 0x18d; _checkA=0x18d
00000064 c7a3                 LGOTO 0x5c; main.o:_00121_DS_=0x5c
00000065 ffef                 RET
00000066                      _delay:
00000066 e0fc                 BCR 0x3, 0x6
00000067 ff4c                 MOVAR 0x33
00000068 feb0                 MOVR 0x4f, 0x0
00000069 ff4d                 MOVAR 0x32
0000006a fd4b                 CLRR 0x34
0000006b fd4a                 CLRR 0x35
0000006c                      main.o:_00375_DS_:
0000006c e0fc                 BCR 0x3, 0x6
0000006d fecc                 MOVR 0x33, 0x0
0000006e fbca                 SUBAR 0x35, 0x0
0000006f f6fc                 BTRSS 0x3, 0x2
00000070 c78c                 LGOTO 0x73; main.o:_00386_DS_=0x73
00000071 fecd                 MOVR 0x32, 0x0
00000072 fbcb                 SUBAR 0x34, 0x0
00000073                      main.o:_00386_DS_:
00000073 f3fc                 BTRSC 0x3, 0x0
00000074 c784                 LGOTO 0x7b; main.o:_00377_DS_=0x7b
00000075 e0fc                 BCR 0x3, 0x6
00000076 fa4b                 INCR 0x34, 0x1
00000077 f6fc                 BTRSS 0x3, 0x2
00000078 c785                 LGOTO 0x7a; main.o:_00001_DS_=0x7a
00000079 fa4a                 INCR 0x35, 0x1
0000007a                      main.o:_00001_DS_:
0000007a c793                 LGOTO 0x6c; main.o:_00375_DS_=0x6c
0000007b                      main.o:_00377_DS_:
0000007b ffef                 RET
0000007c                      _F_AIN0_Convert:
0000007c e0fc                 BCR 0x3, 0x6
0000007d ff51                 MOVAR 0x2e
0000007e de6f                 MOVIA 0x90
0000007f ff6f                 MOVAR 0x10
00000080 de9b                 MOVIA 0x64
00000081 ff30                 MOVAR 0x4f
00000082 deff                 MOVIA 0x0
00000083 d799                 LCALL 0x66; _delay=0x66
00000084 defe                 MOVIA 0x1
00000085 e0fc                 BCR 0x3, 0x6
00000086 ff50                 MOVAR 0x2f
00000087                      main.o:_00361_DS_:
00000087 e0fc                 BCR 0x3, 0x6
00000088 fed0                 MOVR 0x2f, 0x0
00000089 fbd1                 SUBAR 0x2e, 0x0
0000008a f7fc                 BTRSS 0x3, 0x0
0000008b c75a                 LGOTO 0xa5; main.o:_00363_DS_=0xa5
0000008c e4ef                 BSR 0x10, 0x6
0000008d d7fe                 LCALL 0x1; main.o:_00368_DS_=0x1
0000008e defa                 MOVIA 0x5
0000008f e0fc                 BCR 0x3, 0x6
00000090 fbd0                 SUBAR 0x2f, 0x0
00000091 f7fc                 BTRSS 0x3, 0x0
00000092 c75d                 LGOTO 0xa2; main.o:_00002_DS_=0xa2
00000093 def0                 MOVIA 0xf
00000094 efee                 ANDAR 0x11, 0x0
00000095 fc5d                 ADDAR 0x22, 0x1
00000096 feed                 MOVR 0x12, 0x0
00000097 ff4f                 MOVAR 0x30
00000098 deff                 MOVIA 0x0
00000099 ff4e                 MOVAR 0x31
0000009a fecf                 MOVR 0x30, 0x0
0000009b fc5f                 ADDAR 0x20, 0x1
0000009c fece                 MOVR 0x31, 0x0
0000009d f3fc                 BTRSC 0x3, 0x0
0000009e face                 INCR 0x31, 0x0
0000009f f2fc                 BTRSC 0x3, 0x2
000000a0 c75d                 LGOTO 0xa2; main.o:_00002_DS_=0xa2
000000a1 fc5e                 ADDAR 0x21, 0x1
000000a2                      main.o:_00002_DS_:
000000a2 e0fc                 BCR 0x3, 0x6
000000a3 fa50                 INCR 0x2f, 0x1
000000a4 c778                 LGOTO 0x87; main.o:_00361_DS_=0x87
000000a5                      main.o:_00363_DS_:
000000a5 ffef                 RET
000000a6                      _F_AIN7_Convert:
000000a6 e0fc                 BCR 0x3, 0x6
000000a7 ff55                 MOVAR 0x2a
000000a8 de68                 MOVIA 0x97
000000a9 ff6f                 MOVAR 0x10
000000aa de9b                 MOVIA 0x64
000000ab ff30                 MOVAR 0x4f
000000ac deff                 MOVIA 0x0
000000ad d799                 LCALL 0x66; _delay=0x66
000000ae defe                 MOVIA 0x1
000000af e0fc                 BCR 0x3, 0x6
000000b0 ff54                 MOVAR 0x2b
000000b1                      main.o:_00350_DS_:
000000b1 e0fc                 BCR 0x3, 0x6
000000b2 fed4                 MOVR 0x2b, 0x0
000000b3 fbd5                 SUBAR 0x2a, 0x0
000000b4 f7fc                 BTRSS 0x3, 0x0
000000b5 c730                 LGOTO 0xcf; main.o:_00352_DS_=0xcf
000000b6 e4ef                 BSR 0x10, 0x6
000000b7 d7fe                 LCALL 0x1; main.o:_00368_DS_=0x1
000000b8 defa                 MOVIA 0x5
000000b9 e0fc                 BCR 0x3, 0x6
000000ba fbd4                 SUBAR 0x2b, 0x0
000000bb f7fc                 BTRSS 0x3, 0x0
000000bc c733                 LGOTO 0xcc; main.o:_00003_DS_=0xcc
000000bd def0                 MOVIA 0xf
000000be efee                 ANDAR 0x11, 0x0
000000bf fc5a                 ADDAR 0x25, 0x1
000000c0 feed                 MOVR 0x12, 0x0
000000c1 ff53                 MOVAR 0x2c
000000c2 deff                 MOVIA 0x0
000000c3 ff52                 MOVAR 0x2d
000000c4 fed3                 MOVR 0x2c, 0x0
000000c5 fc5c                 ADDAR 0x23, 0x1
000000c6 fed2                 MOVR 0x2d, 0x0
000000c7 f3fc                 BTRSC 0x3, 0x0
000000c8 fad2                 INCR 0x2d, 0x0
000000c9 f2fc                 BTRSC 0x3, 0x2
000000ca c733                 LGOTO 0xcc; main.o:_00003_DS_=0xcc
000000cb fc5b                 ADDAR 0x24, 0x1
000000cc                      main.o:_00003_DS_:
000000cc e0fc                 BCR 0x3, 0x6
000000cd fa54                 INCR 0x2b, 0x1
000000ce c74e                 LGOTO 0xb1; main.o:_00350_DS_=0xb1
000000cf                      main.o:_00352_DS_:
000000cf ffef                 RET
000000d0                      _checkV:
000000d0 de7f                 MOVIA 0x80
000000d1 ff69                 MOVAR 0x16
000000d2 e0fc                 BCR 0x3, 0x6
000000d3 fd5a                 CLRR 0x25
000000d4 fd5c                 CLRR 0x23
000000d5 fd5b                 CLRR 0x24
000000d6 def3                 MOVIA 0xc
000000d7 d759                 LCALL 0xa6; _F_AIN7_Convert=0xa6
000000d8 e0fc                 BCR 0x3, 0x6
000000d9 eadb                 SWAPR 0x24, 0x0
000000da dd0f                 ANDIA 0xf0
000000db ff5b                 MOVAR 0x24
000000dc eadc                 SWAPR 0x23, 0x0
000000dd ff5c                 MOVAR 0x23
000000de ddf0                 ANDIA 0xf
000000df ee5b                 IORAR 0x24, 0x1
000000e0 ed5c                 XORAR 0x23, 0x1
000000e1 de0f                 MOVIA 0xf0
000000e2 ef5a                 ANDAR 0x25, 0x1
000000e3 feda                 MOVR 0x25, 0x0
000000e4 ff57                 MOVAR 0x28
000000e5 deff                 MOVIA 0x0
000000e6 ff56                 MOVAR 0x29
000000e7 fed7                 MOVR 0x28, 0x0
000000e8 fc5c                 ADDAR 0x23, 0x1
000000e9 fed6                 MOVR 0x29, 0x0
000000ea f3fc                 BTRSC 0x3, 0x0
000000eb fad6                 INCR 0x29, 0x0
000000ec f2fc                 BTRSC 0x3, 0x2
000000ed c710                 LGOTO 0xef; main.o:_00004_DS_=0xef
000000ee fc5b                 ADDAR 0x24, 0x1
000000ef                      main.o:_00004_DS_:
000000ef e3fc                 BCR 0x3, 0x0
000000f0 e0fc                 BCR 0x3, 0x6
000000f1 ec5b                 RRR 0x24, 0x1
000000f2 ec5c                 RRR 0x23, 0x1
000000f3 e3fc                 BCR 0x3, 0x0
000000f4 ec5b                 RRR 0x24, 0x1
000000f5 ec5c                 RRR 0x23, 0x1
000000f6 e3fc                 BCR 0x3, 0x0
000000f7 ec5b                 RRR 0x24, 0x1
000000f8 ec5c                 RRR 0x23, 0x1
000000f9 feaa                 MOVR 0x55, 0x0
000000fa f6fc                 BTRSS 0x3, 0x2
000000fb c673                 LGOTO 0x18c; main.o:_00302_DS_=0x18c
000000fc defd                 MOVIA 0x2
000000fd fbdb                 SUBAR 0x24, 0x0
000000fe f6fc                 BTRSS 0x3, 0x2
000000ff c6fd                 LGOTO 0x102; main.o:_00334_DS_=0x102
00000100 dec2                 MOVIA 0x3d
00000101 fbdc                 SUBAR 0x23, 0x0
00000102                      main.o:_00334_DS_:
00000102 f3fc                 BTRSC 0x3, 0x0
00000103 c6ee                 LGOTO 0x111; main.o:_00300_DS_=0x111
00000104 defd                 MOVIA 0x2
00000105 e0fc                 BCR 0x3, 0x6
00000106 ff42                 MOVAR 0x3d
00000107 deb3                 MOVIA 0x4c
00000108 ee7a                 IORAR 0x5, 0x1
00000109 defc                 MOVIA 0x3
0000010a ee79                 IORAR 0x6, 0x1
0000010b fd2f                 CLRR 0x50
0000010c e279                 BCR 0x6, 0x3
0000010d e07a                 BCR 0x5, 0x7
0000010e e4fa                 BSR 0x5, 0x6
0000010f fd2d                 CLRR 0x52
00000110 c673                 LGOTO 0x18c; main.o:_00302_DS_=0x18c
00000111                      main.o:_00300_DS_:
00000111 def9                 MOVIA 0x6
00000112 e0fc                 BCR 0x3, 0x6
00000113 fbdb                 SUBAR 0x24, 0x0
00000114 f6fc                 BTRSS 0x3, 0x2
00000115 c6e7                 LGOTO 0x118; main.o:_00335_DS_=0x118
00000116 ded6                 MOVIA 0x29
00000117 fbdc                 SUBAR 0x23, 0x0
00000118                      main.o:_00335_DS_:
00000118 f3fc                 BTRSC 0x3, 0x0
00000119 c6cd                 LGOTO 0x132; main.o:_00297_DS_=0x132
0000011a de69                 MOVIA 0x96
0000011b e0fc                 BCR 0x3, 0x6
0000011c ff2b                 MOVAR 0x54
0000011d deff                 MOVIA 0x0
0000011e fbc3                 SUBAR 0x3c, 0x0
0000011f f6fc                 BTRSS 0x3, 0x2
00000120 c6dc                 LGOTO 0x123; main.o:_00336_DS_=0x123
00000121 de69                 MOVIA 0x96
00000122 fbc4                 SUBAR 0x3b, 0x0
00000123                      main.o:_00336_DS_:
00000123 f3fc                 BTRSC 0x3, 0x0
00000124 c6d6                 LGOTO 0x129; main.o:_00281_DS_=0x129
00000125 de69                 MOVIA 0x96
00000126 e0fc                 BCR 0x3, 0x6
00000127 ff44                 MOVAR 0x3b
00000128 fd43                 CLRR 0x3c
00000129                      main.o:_00281_DS_:
00000129 defe                 MOVIA 0x1
0000012a e0fc                 BCR 0x3, 0x6
0000012b ff42                 MOVAR 0x3d
0000012c fd2f                 CLRR 0x50
0000012d e279                 BCR 0x6, 0x3
0000012e e07a                 BCR 0x5, 0x7
0000012f e4fa                 BSR 0x5, 0x6
00000130 fd2d                 CLRR 0x52
00000131 c673                 LGOTO 0x18c; main.o:_00302_DS_=0x18c
00000132                      main.o:_00297_DS_:
00000132 def7                 MOVIA 0x8
00000133 e0fc                 BCR 0x3, 0x6
00000134 fbdb                 SUBAR 0x24, 0x0
00000135 f6fc                 BTRSS 0x3, 0x2
00000136 c6c6                 LGOTO 0x139; main.o:_00337_DS_=0x139
00000137 de99                 MOVIA 0x66
00000138 fbdc                 SUBAR 0x23, 0x0
00000139                      main.o:_00337_DS_:
00000139 f3fc                 BTRSC 0x3, 0x0
0000013a c6ac                 LGOTO 0x153; main.o:_00294_DS_=0x153
0000013b de9b                 MOVIA 0x64
0000013c e0fc                 BCR 0x3, 0x6
0000013d ff2b                 MOVAR 0x54
0000013e deff                 MOVIA 0x0
0000013f fbc3                 SUBAR 0x3c, 0x0
00000140 f6fc                 BTRSS 0x3, 0x2
00000141 c6bb                 LGOTO 0x144; main.o:_00338_DS_=0x144
00000142 de9b                 MOVIA 0x64
00000143 fbc4                 SUBAR 0x3b, 0x0
00000144                      main.o:_00338_DS_:
00000144 f3fc                 BTRSC 0x3, 0x0
00000145 c6b5                 LGOTO 0x14a; main.o:_00283_DS_=0x14a
00000146 de9b                 MOVIA 0x64
00000147 e0fc                 BCR 0x3, 0x6
00000148 ff44                 MOVAR 0x3b
00000149 fd43                 CLRR 0x3c
0000014a                      main.o:_00283_DS_:
0000014a defe                 MOVIA 0x1
0000014b e0fc                 BCR 0x3, 0x6
0000014c ff42                 MOVAR 0x3d
0000014d fd2f                 CLRR 0x50
0000014e e279                 BCR 0x6, 0x3
0000014f e07a                 BCR 0x5, 0x7
00000150 e4fa                 BSR 0x5, 0x6
00000151 fd2d                 CLRR 0x52
00000152 c673                 LGOTO 0x18c; main.o:_00302_DS_=0x18c
00000153                      main.o:_00294_DS_:
00000153 def5                 MOVIA 0xa
00000154 e0fc                 BCR 0x3, 0x6
00000155 fbdb                 SUBAR 0x24, 0x0
00000156 f6fc                 BTRSS 0x3, 0x2
00000157 c6a5                 LGOTO 0x15a; main.o:_00339_DS_=0x15a
00000158 de70                 MOVIA 0x8f
00000159 fbdc                 SUBAR 0x23, 0x0
0000015a                      main.o:_00339_DS_:
0000015a f3fc                 BTRSC 0x3, 0x0
0000015b c68b                 LGOTO 0x174; main.o:_00291_DS_=0x174
0000015c decd                 MOVIA 0x32
0000015d e0fc                 BCR 0x3, 0x6
0000015e ff2b                 MOVAR 0x54
0000015f deff                 MOVIA 0x0
00000160 fbc3                 SUBAR 0x3c, 0x0
00000161 f6fc                 BTRSS 0x3, 0x2
00000162 c69a                 LGOTO 0x165; main.o:_00340_DS_=0x165
00000163 decd                 MOVIA 0x32
00000164 fbc4                 SUBAR 0x3b, 0x0
00000165                      main.o:_00340_DS_:
00000165 f3fc                 BTRSC 0x3, 0x0
00000166 c694                 LGOTO 0x16b; main.o:_00285_DS_=0x16b
00000167 decd                 MOVIA 0x32
00000168 e0fc                 BCR 0x3, 0x6
00000169 ff44                 MOVAR 0x3b
0000016a fd43                 CLRR 0x3c
0000016b                      main.o:_00285_DS_:
0000016b defe                 MOVIA 0x1
0000016c e0fc                 BCR 0x3, 0x6
0000016d ff42                 MOVAR 0x3d
0000016e fd2f                 CLRR 0x50
0000016f e279                 BCR 0x6, 0x3
00000170 e07a                 BCR 0x5, 0x7
00000171 e4fa                 BSR 0x5, 0x6
00000172 fd2d                 CLRR 0x52
00000173 c673                 LGOTO 0x18c; main.o:_00302_DS_=0x18c
00000174                      main.o:_00291_DS_:
00000174 def5                 MOVIA 0xa
00000175 e0fc                 BCR 0x3, 0x6
00000176 fbdb                 SUBAR 0x24, 0x0
00000177 f6fc                 BTRSS 0x3, 0x2
00000178 c684                 LGOTO 0x17b; main.o:_00341_DS_=0x17b
00000179 de6f                 MOVIA 0x90
0000017a fbdc                 SUBAR 0x23, 0x0
0000017b                      main.o:_00341_DS_:
0000017b f7fc                 BTRSS 0x3, 0x0
0000017c c673                 LGOTO 0x18c; main.o:_00302_DS_=0x18c
0000017d e0fc                 BCR 0x3, 0x6
0000017e fd2b                 CLRR 0x54
0000017f e3fc                 BCR 0x3, 0x0
00000180 f7fc                 BTRSS 0x3, 0x0
00000181 c67b                 LGOTO 0x184; main.o:_00287_DS_=0x184
00000182 fd44                 CLRR 0x3b
00000183 fd43                 CLRR 0x3c
00000184                      main.o:_00287_DS_:
00000184 defe                 MOVIA 0x1
00000185 e0fc                 BCR 0x3, 0x6
00000186 ff42                 MOVAR 0x3d
00000187 fd2f                 CLRR 0x50
00000188 e279                 BCR 0x6, 0x3
00000189 e07a                 BCR 0x5, 0x7
0000018a e4fa                 BSR 0x5, 0x6
0000018b fd2d                 CLRR 0x52
0000018c                      main.o:_00302_DS_:
0000018c ffef                 RET
0000018d                      _checkA:
0000018d defe                 MOVIA 0x1
0000018e ff69                 MOVAR 0x16
0000018f e0fc                 BCR 0x3, 0x6
00000190 fd5d                 CLRR 0x22
00000191 fd5f                 CLRR 0x20
00000192 fd5e                 CLRR 0x21
00000193 def3                 MOVIA 0xc
00000194 d783                 LCALL 0x7c; _F_AIN0_Convert=0x7c
00000195 e0fc                 BCR 0x3, 0x6
00000196 eade                 SWAPR 0x21, 0x0
00000197 dd0f                 ANDIA 0xf0
00000198 ff5e                 MOVAR 0x21
00000199 eadf                 SWAPR 0x20, 0x0
0000019a ff5f                 MOVAR 0x20
0000019b ddf0                 ANDIA 0xf
0000019c ee5e                 IORAR 0x21, 0x1
0000019d ed5f                 XORAR 0x20, 0x1
0000019e de0f                 MOVIA 0xf0
0000019f ef5d                 ANDAR 0x22, 0x1
000001a0 fedd                 MOVR 0x22, 0x0
000001a1 ff59                 MOVAR 0x26
000001a2 deff                 MOVIA 0x0
000001a3 ff58                 MOVAR 0x27
000001a4 fed9                 MOVR 0x26, 0x0
000001a5 fc5f                 ADDAR 0x20, 0x1
000001a6 fed8                 MOVR 0x27, 0x0
000001a7 f3fc                 BTRSC 0x3, 0x0
000001a8 fad8                 INCR 0x27, 0x0
000001a9 f2fc                 BTRSC 0x3, 0x2
000001aa c653                 LGOTO 0x1ac; main.o:_00005_DS_=0x1ac
000001ab fc5e                 ADDAR 0x21, 0x1
000001ac                      main.o:_00005_DS_:
000001ac e3fc                 BCR 0x3, 0x0
000001ad e0fc                 BCR 0x3, 0x6
000001ae ec5e                 RRR 0x21, 0x1
000001af ec5f                 RRR 0x20, 0x1
000001b0 e3fc                 BCR 0x3, 0x0
000001b1 ec5e                 RRR 0x21, 0x1
000001b2 ec5f                 RRR 0x20, 0x1
000001b3 e3fc                 BCR 0x3, 0x0
000001b4 ec5e                 RRR 0x21, 0x1
000001b5 ec5f                 RRR 0x20, 0x1
000001b6 deff                 MOVIA 0x0
000001b7 fbde                 SUBAR 0x21, 0x0
000001b8 f6fc                 BTRSS 0x3, 0x2
000001b9 c643                 LGOTO 0x1bc; main.o:_00272_DS_=0x1bc
000001ba def4                 MOVIA 0xb
000001bb fbdf                 SUBAR 0x20, 0x0
000001bc                      main.o:_00272_DS_:
000001bc f3fc                 BTRSC 0x3, 0x0
000001bd c639                 LGOTO 0x1c6; main.o:_00253_DS_=0x1c6
000001be e0fc                 BCR 0x3, 0x6
000001bf fd2f                 CLRR 0x50
000001c0 dea3                 MOVIA 0x5c
000001c1 ee7a                 IORAR 0x5, 0x1
000001c2 defc                 MOVIA 0x3
000001c3 ee79                 IORAR 0x6, 0x1
000001c4 e0fa                 BCR 0x5, 0x6
000001c5 c612                 LGOTO 0x1ed; main.o:_00255_DS_=0x1ed
000001c6                      main.o:_00253_DS_:
000001c6 deff                 MOVIA 0x0
000001c7 e0fc                 BCR 0x3, 0x6
000001c8 fbde                 SUBAR 0x21, 0x0
000001c9 f6fc                 BTRSS 0x3, 0x2
000001ca c632                 LGOTO 0x1cd; main.o:_00273_DS_=0x1cd
000001cb de84                 MOVIA 0x7b
000001cc fbdf                 SUBAR 0x20, 0x0
000001cd                      main.o:_00273_DS_:
000001cd f3fc                 BTRSC 0x3, 0x0
000001ce c616                 LGOTO 0x1e9; main.o:_00250_DS_=0x1e9
000001cf e0fc                 BCR 0x3, 0x6
000001d0 fead                 MOVR 0x52, 0x0
000001d1 f6fc                 BTRSS 0x3, 0x2
000001d2 c612                 LGOTO 0x1ed; main.o:_00255_DS_=0x1ed
000001d3 fa2c                 INCR 0x53, 0x1
000001d4 de36                 MOVIA 0xc9
000001d5 fbac                 SUBAR 0x53, 0x0
000001d6 f7fc                 BTRSS 0x3, 0x0
000001d7 c612                 LGOTO 0x1ed; main.o:_00255_DS_=0x1ed
000001d8 defc                 MOVIA 0x3
000001d9 ff42                 MOVAR 0x3d
000001da e679                 BSR 0x6, 0x3
000001db e07a                 BCR 0x5, 0x7
000001dc dea3                 MOVIA 0x5c
000001dd ee7a                 IORAR 0x5, 0x1
000001de defc                 MOVIA 0x3
000001df ee79                 IORAR 0x6, 0x1
000001e0 e4fa                 BSR 0x5, 0x6
000001e1 feaf                 MOVR 0x50, 0x0
000001e2 f6fc                 BTRSS 0x3, 0x2
000001e3 c612                 LGOTO 0x1ed; main.o:_00255_DS_=0x1ed
000001e4 defe                 MOVIA 0x1
000001e5 ff2f                 MOVAR 0x50
000001e6 fd41                 CLRR 0x3e
000001e7 fd40                 CLRR 0x3f
000001e8 c612                 LGOTO 0x1ed; main.o:_00255_DS_=0x1ed
000001e9                      main.o:_00250_DS_:
000001e9 e0fc                 BCR 0x3, 0x6
000001ea fd2d                 CLRR 0x52
000001eb fd2c                 CLRR 0x53
000001ec d72f                 LCALL 0xd0; _checkV=0xd0
000001ed                      main.o:_00255_DS_:
000001ed ffef                 RET
000001ee                      _initAD:
000001ee de7f                 MOVIA 0x80
000001ef ff6f                 MOVAR 0x10
000001f0 fd6c                 CLRR 0x13
000001f1 deef                 MOVIA 0x10
000001f2 ff6e                 MOVAR 0x11
000001f3 defc                 MOVIA 0x3
000001f4 ff6b                 MOVAR 0x14
000001f5 de7f                 MOVIA 0x80
000001f6 ff69                 MOVAR 0x16
000001f7 e5ef                 BSR 0x10, 0x4
000001f8 de9b                 MOVIA 0x64
000001f9 ff30                 MOVAR 0x4f
000001fa deff                 MOVIA 0x0
000001fb d799                 LCALL 0x66; _delay=0x66
000001fc ffef                 RET
000001fd                      _ledCon2:
000001fd defe                 MOVIA 0x1
000001fe e0fc                 BCR 0x3, 0x6
000001ff ff2a                 MOVAR 0x55
00000200 deff                 MOVIA 0x0
00000201 fbc3                 SUBAR 0x3c, 0x0
00000202 f6fc                 BTRSS 0x3, 0x2
00000203 c5f9                 LGOTO 0x206; main.o:_00232_DS_=0x206
00000204 decd                 MOVIA 0x32
00000205 fbc4                 SUBAR 0x3b, 0x0
00000206                      main.o:_00232_DS_:
00000206 f3fc                 BTRSC 0x3, 0x0
00000207 c5f5                 LGOTO 0x20a; main.o:_00219_DS_=0x20a
00000208 e5fa                 BSR 0x5, 0x4
00000209 c5dc                 LGOTO 0x223; main.o:_00221_DS_=0x223
0000020a                      main.o:_00219_DS_:
0000020a deff                 MOVIA 0x0
0000020b e0fc                 BCR 0x3, 0x6
0000020c fbc3                 SUBAR 0x3c, 0x0
0000020d f6fc                 BTRSS 0x3, 0x2
0000020e c5ee                 LGOTO 0x211; main.o:_00233_DS_=0x211
0000020f de9b                 MOVIA 0x64
00000210 fbc4                 SUBAR 0x3b, 0x0
00000211                      main.o:_00233_DS_:
00000211 f3fc                 BTRSC 0x3, 0x0
00000212 c5ea                 LGOTO 0x215; main.o:_00216_DS_=0x215
00000213 e1fa                 BCR 0x5, 0x4
00000214 c5dc                 LGOTO 0x223; main.o:_00221_DS_=0x223
00000215                      main.o:_00216_DS_:
00000215 deff                 MOVIA 0x0
00000216 e0fc                 BCR 0x3, 0x6
00000217 fbc3                 SUBAR 0x3c, 0x0
00000218 f6fc                 BTRSS 0x3, 0x2
00000219 c5e3                 LGOTO 0x21c; main.o:_00234_DS_=0x21c
0000021a de98                 MOVIA 0x67
0000021b fbc4                 SUBAR 0x3b, 0x0
0000021c                      main.o:_00234_DS_:
0000021c f7fc                 BTRSS 0x3, 0x0
0000021d c5de                 LGOTO 0x221; main.o:_00214_DS_=0x221
0000021e e0fc                 BCR 0x3, 0x6
0000021f fd44                 CLRR 0x3b
00000220 fd43                 CLRR 0x3c
00000221                      main.o:_00214_DS_:
00000221 e0fc                 BCR 0x3, 0x6
00000222 fd2a                 CLRR 0x55
00000223                      main.o:_00221_DS_:
00000223 ffef                 RET
00000224                      _ledCon:
00000224 defe                 MOVIA 0x1
00000225 e0fc                 BCR 0x3, 0x6
00000226 ff2a                 MOVAR 0x55
00000227 deff                 MOVIA 0x0
00000228 fbc3                 SUBAR 0x3c, 0x0
00000229 f6fc                 BTRSS 0x3, 0x2
0000022a c5d2                 LGOTO 0x22d; main.o:_00202_DS_=0x22d
0000022b decc                 MOVIA 0x33
0000022c fbc4                 SUBAR 0x3b, 0x0
0000022d                      main.o:_00202_DS_:
0000022d f7fc                 BTRSS 0x3, 0x0
0000022e c5ce                 LGOTO 0x231; main.o:_00171_DS_=0x231
0000022f e779                 BSR 0x6, 0x1
00000230 c5cd                 LGOTO 0x232; main.o:_00172_DS_=0x232
00000231                      main.o:_00171_DS_:
00000231 e379                 BCR 0x6, 0x1
00000232                      main.o:_00172_DS_:
00000232 deff                 MOVIA 0x0
00000233 e0fc                 BCR 0x3, 0x6
00000234 fbc3                 SUBAR 0x3c, 0x0
00000235 f6fc                 BTRSS 0x3, 0x2
00000236 c5c6                 LGOTO 0x239; main.o:_00203_DS_=0x239
00000237 de9a                 MOVIA 0x65
00000238 fbc4                 SUBAR 0x3b, 0x0
00000239                      main.o:_00203_DS_:
00000239 f7fc                 BTRSS 0x3, 0x0
0000023a c5c2                 LGOTO 0x23d; main.o:_00173_DS_=0x23d
0000023b e7f9                 BSR 0x6, 0x0
0000023c c5c1                 LGOTO 0x23e; main.o:_00174_DS_=0x23e
0000023d                      main.o:_00173_DS_:
0000023d e3f9                 BCR 0x6, 0x0
0000023e                      main.o:_00174_DS_:
0000023e deff                 MOVIA 0x0
0000023f e0fc                 BCR 0x3, 0x6
00000240 fbc3                 SUBAR 0x3c, 0x0
00000241 f6fc                 BTRSS 0x3, 0x2
00000242 c5ba                 LGOTO 0x245; main.o:_00204_DS_=0x245
00000243 de68                 MOVIA 0x97
00000244 fbc4                 SUBAR 0x3b, 0x0
00000245                      main.o:_00204_DS_:
00000245 f7fc                 BTRSS 0x3, 0x0
00000246 c5b6                 LGOTO 0x249; main.o:_00175_DS_=0x249
00000247 e6fa                 BSR 0x5, 0x2
00000248 c5b5                 LGOTO 0x24a; main.o:_00176_DS_=0x24a
00000249                      main.o:_00175_DS_:
00000249 e2fa                 BCR 0x5, 0x2
0000024a                      main.o:_00176_DS_:
0000024a deff                 MOVIA 0x0
0000024b e0fc                 BCR 0x3, 0x6
0000024c fbc3                 SUBAR 0x3c, 0x0
0000024d f6fc                 BTRSS 0x3, 0x2
0000024e c5ae                 LGOTO 0x251; main.o:_00205_DS_=0x251
0000024f de36                 MOVIA 0xc9
00000250 fbc4                 SUBAR 0x3b, 0x0
00000251                      main.o:_00205_DS_:
00000251 f7fc                 BTRSS 0x3, 0x0
00000252 c5aa                 LGOTO 0x255; main.o:_00177_DS_=0x255
00000253 e67a                 BSR 0x5, 0x3
00000254 c5a9                 LGOTO 0x256; main.o:_00178_DS_=0x256
00000255                      main.o:_00177_DS_:
00000255 e27a                 BCR 0x5, 0x3
00000256                      main.o:_00178_DS_:
00000256 deff                 MOVIA 0x0
00000257 e0fc                 BCR 0x3, 0x6
00000258 fbc3                 SUBAR 0x3c, 0x0
00000259 f6fc                 BTRSS 0x3, 0x2
0000025a c5a2                 LGOTO 0x25d; main.o:_00206_DS_=0x25d
0000025b de04                 MOVIA 0xfb
0000025c fbc4                 SUBAR 0x3b, 0x0
0000025d                      main.o:_00206_DS_:
0000025d f7fc                 BTRSS 0x3, 0x0
0000025e c59e                 LGOTO 0x261; main.o:_00179_DS_=0x261
0000025f e5fa                 BSR 0x5, 0x4
00000260 c59d                 LGOTO 0x262; main.o:_00180_DS_=0x262
00000261                      main.o:_00179_DS_:
00000261 e1fa                 BCR 0x5, 0x4
00000262                      main.o:_00180_DS_:
00000262 defe                 MOVIA 0x1
00000263 e0fc                 BCR 0x3, 0x6
00000264 fbc3                 SUBAR 0x3c, 0x0
00000265 f6fc                 BTRSS 0x3, 0x2
00000266 c596                 LGOTO 0x269; main.o:_00207_DS_=0x269
00000267 ded2                 MOVIA 0x2d
00000268 fbc4                 SUBAR 0x3b, 0x0
00000269                      main.o:_00207_DS_:
00000269 f7fc                 BTRSS 0x3, 0x0
0000026a c585                 LGOTO 0x27a; main.o:_00169_DS_=0x27a
0000026b defe                 MOVIA 0x1
0000026c e0fc                 BCR 0x3, 0x6
0000026d fbc3                 SUBAR 0x3c, 0x0
0000026e f6fc                 BTRSS 0x3, 0x2
0000026f c58d                 LGOTO 0x272; main.o:_00208_DS_=0x272
00000270 dec8                 MOVIA 0x37
00000271 fbc4                 SUBAR 0x3b, 0x0
00000272                      main.o:_00208_DS_:
00000272 f7fc                 BTRSS 0x3, 0x0
00000273 c587                 LGOTO 0x278; main.o:_00166_DS_=0x278
00000274 e0fc                 BCR 0x3, 0x6
00000275 feab                 MOVR 0x54, 0x0
00000276 ff44                 MOVAR 0x3b
00000277 fd43                 CLRR 0x3c
00000278                      main.o:_00166_DS_:
00000278 e0fc                 BCR 0x3, 0x6
00000279 fd2a                 CLRR 0x55
0000027a                      main.o:_00169_DS_:
0000027a ffef                 RET
0000027b                      _initTimer0:
0000027b dedc                 MOVIA 0x23
0000027c ff7a                 MOVAR 0x5
0000027d de07                 MOVIA 0xf8
0000027e ff79                 MOVAR 0x6
0000027f de01                 MOVIA 0xfe
00000280 ff73                 MOVAR 0xc
00000281 defe                 MOVIA 0x1
00000282 fffa                 IOST 0x5
00000283 defb                 MOVIA 0x4
00000284 fff9                 IOST 0x6
00000285 de57                 MOVIA 0xa8
00000286 ff77                 MOVAR 0x8
00000287 defe                 MOVIA 0x1
00000288 ff71                 MOVAR 0xe
00000289 fd70                 CLRR 0xf
0000028a fdff                 CLRA
0000028b fff0                 IOST 0xf
0000028c dec8                 MOVIA 0x37
0000028d ff7e                 MOVAR 0x1
0000028e fdff                 CLRA
0000028f fffc                 T0MD
00000290 deee                 MOVIA 0x11
00000291 fff0                 IOST 0xf
00000292 dedc                 MOVIA 0x23
00000293 ef7a                 ANDAR 0x5, 0x1
00000294 de07                 MOVIA 0xf8
00000295 ef79                 ANDAR 0x6, 0x1
00000296 e279                 BCR 0x6, 0x3
00000297 e07a                 BCR 0x5, 0x7
00000298 e0fa                 BCR 0x5, 0x6
00000299 fffb                 ENI
0000029a ffef                 RET
0000029b                      _workCon:
0000029b e0fc                 BCR 0x3, 0x6
0000029c fec2                 MOVR 0x3d, 0x0
0000029d dbfe                 XORIA 0x1
0000029e f6fc                 BTRSS 0x3, 0x2
0000029f c55d                 LGOTO 0x2a2; main.o:_00137_DS_=0x2a2
000002a0 d5db                 LCALL 0x224; _ledCon=0x224
000002a1 c531                 LGOTO 0x2ce; main.o:_00139_DS_=0x2ce
000002a2                      main.o:_00137_DS_:
000002a2 e0fc                 BCR 0x3, 0x6
000002a3 fec2                 MOVR 0x3d, 0x0
000002a4 dbfd                 XORIA 0x2
000002a5 f6fc                 BTRSS 0x3, 0x2
000002a6 c556                 LGOTO 0x2a9; main.o:_00134_DS_=0x2a9
000002a7 d602                 LCALL 0x1fd; _ledCon2=0x1fd
000002a8 c531                 LGOTO 0x2ce; main.o:_00139_DS_=0x2ce
000002a9                      main.o:_00134_DS_:
000002a9 e0fc                 BCR 0x3, 0x6
000002aa fec2                 MOVR 0x3d, 0x0
000002ab f6fc                 BTRSS 0x3, 0x2
000002ac c54d                 LGOTO 0x2b2; main.o:_00131_DS_=0x2b2
000002ad de5c                 MOVIA 0xa3
000002ae ef7a                 ANDAR 0x5, 0x1
000002af de03                 MOVIA 0xfc
000002b0 ef79                 ANDAR 0x6, 0x1
000002b1 c531                 LGOTO 0x2ce; main.o:_00139_DS_=0x2ce
000002b2                      main.o:_00131_DS_:
000002b2 e0fc                 BCR 0x3, 0x6
000002b3 fec2                 MOVR 0x3d, 0x0
000002b4 dbfc                 XORIA 0x3
000002b5 f6fc                 BTRSS 0x3, 0x2
000002b6 c538                 LGOTO 0x2c7; main.o:_00127_DS_=0x2c7
000002b7 ded5                 MOVIA 0x2a
000002b8 fbc0                 SUBAR 0x3f, 0x0
000002b9 f6fc                 BTRSS 0x3, 0x2
000002ba c542                 LGOTO 0x2bd; main.o:_00156_DS_=0x2bd
000002bb dece                 MOVIA 0x31
000002bc fbc1                 SUBAR 0x3e, 0x0
000002bd                      main.o:_00156_DS_:
000002bd f7fc                 BTRSS 0x3, 0x0
000002be c538                 LGOTO 0x2c7; main.o:_00127_DS_=0x2c7
000002bf e0fc                 BCR 0x3, 0x6
000002c0 fd41                 CLRR 0x3e
000002c1 fd40                 CLRR 0x3f
000002c2 fd42                 CLRR 0x3d
000002c3 e0fa                 BCR 0x5, 0x6
000002c4 defe                 MOVIA 0x1
000002c5 ff2d                 MOVAR 0x52
000002c6 c531                 LGOTO 0x2ce; main.o:_00139_DS_=0x2ce
000002c7                      main.o:_00127_DS_:
000002c7 e0fc                 BCR 0x3, 0x6
000002c8 fd2d                 CLRR 0x52
000002c9 fd2a                 CLRR 0x55
000002ca dea3                 MOVIA 0x5c
000002cb ee7a                 IORAR 0x5, 0x1
000002cc defc                 MOVIA 0x3
000002cd ee79                 IORAR 0x6, 0x1
000002ce                      main.o:_00139_DS_:
000002ce ffef                 RET
000002cf                      ___cinit_load__:
