00000000 c7fe                 LGOTO 0x1; __nyc_ny8_startup=0x1
00000001                      __nyc_ny8_startup:
00000001 d192                 LCALL 0x66d; ___cinit_load__=0x66d
00000002 c793                 LGOTO 0x6c; _main=0x6c
00000003                      main.o:_00918_DS_:
00000003 f56f                 BTRSS 0x10, 0x5
00000004 c7fc                 LGOTO 0x3; main.o:_00918_DS_=0x3
00000005 ffef                 RET
00000008 c7f6                 LGOTO 0x9; main.o:__sdcc_interrupt=0x9
00000009                      main.o:__sdcc_interrupt:
00000009 ff3d                 MOVAR 0x42
0000000a eafc                 SWAPR 0x3, 0x0
0000000b fd7c                 CLRR 0x3
0000000c ff3e                 MOVAR 0x41
0000000d fef5                 MOVR 0xa, 0x0
0000000e fd75                 CLRR 0xa
0000000f ff3f                 MOVAR 0x40
00000010 fefb                 MOVR 0x4, 0x0
00000011 e0fc                 BCR 0x3, 0x6
00000012 ff2b                 MOVAR 0x54
00000013 feb8                 MOVR 0x47, 0x0
00000014 ff2a                 MOVAR 0x55
00000015 feb9                 MOVR 0x46, 0x0
00000016 ff29                 MOVAR 0x56
00000017 f7f0                 BTRSS 0xf, 0x0
00000018 c7a7                 LGOTO 0x58; main.o:_00128_DS_=0x58
00000019 dec8                 MOVIA 0x37
0000001a fc7e                 ADDAR 0x1, 0x1
0000001b fa27                 INCR 0x58, 0x1
0000001c de9b                 MOVIA 0x64
0000001d fba7                 SUBAR 0x58, 0x0
0000001e f7fc                 BTRSS 0x3, 0x0
0000001f c7a7                 LGOTO 0x58; main.o:_00128_DS_=0x58
00000020 e7a8                 BSR 0x57, 0x0
00000021 fd27                 CLRR 0x58
00000022 fea4                 MOVR 0x5b, 0x0
00000023 f2fc                 BTRSC 0x3, 0x2
00000024 c7d7                 LGOTO 0x28; main.o:_00106_DS_=0x28
00000025 fa22                 INCR 0x5d, 0x1
00000026 f2fc                 BTRSC 0x3, 0x2
00000027 fa21                 INCR 0x5e, 0x1
00000028                      main.o:_00106_DS_:
00000028 e0fc                 BCR 0x3, 0x6
00000029 fa26                 INCR 0x59, 0x1
0000002a ded7                 MOVIA 0x28
0000002b fba6                 SUBAR 0x59, 0x0
0000002c f3fc                 BTRSC 0x3, 0x0
0000002d fd26                 CLRR 0x59
0000002e fa18                 INCR 0x67, 0x1
0000002f deeb                 MOVIA 0x14
00000030 fb98                 SUBAR 0x67, 0x0
00000031 f7fc                 BTRSS 0x3, 0x0
00000032 c7c8                 LGOTO 0x37; main.o:_00112_DS_=0x37
00000033 fd18                 CLRR 0x67
00000034 fe88                 MOVR 0x77, 0x0
00000035 f6fc                 BTRSS 0x3, 0x2
00000036 f908                 DECR 0x77, 0x1
00000037                      main.o:_00112_DS_:
00000037 e0fc                 BCR 0x3, 0x6
00000038 fa17                 INCR 0x68, 0x1
00000039 de9b                 MOVIA 0x64
0000003a fb97                 SUBAR 0x68, 0x0
0000003b f7fc                 BTRSS 0x3, 0x0
0000003c c7a7                 LGOTO 0x58; main.o:_00128_DS_=0x58
0000003d fd17                 CLRR 0x68
0000003e f628                 BTRSS 0x57, 0x3
0000003f c7b8                 LGOTO 0x47; main.o:_00114_DS_=0x47
00000040 fe9d                 MOVR 0x62, 0x0
00000041 dbf9                 XORIA 0x6
00000042 f6fc                 BTRSS 0x3, 0x2
00000043 c7b8                 LGOTO 0x47; main.o:_00114_DS_=0x47
00000044 fa1c                 INCR 0x63, 0x1
00000045 f2fc                 BTRSC 0x3, 0x2
00000046 fa1b                 INCR 0x64, 0x1
00000047                      main.o:_00114_DS_:
00000047 e0fc                 BCR 0x3, 0x6
00000048 fe92                 MOVR 0x6d, 0x0
00000049 f6fc                 BTRSS 0x3, 0x2
0000004a f912                 DECR 0x6d, 0x1
0000004b fe8e                 MOVR 0x71, 0x0
0000004c f6fc                 BTRSS 0x3, 0x2
0000004d f90e                 DECR 0x71, 0x1
0000004e fea4                 MOVR 0x5b, 0x0
0000004f f2fc                 BTRSC 0x3, 0x2
00000050 c7aa                 LGOTO 0x55; main.o:_00121_DS_=0x55
00000051                      ___cinit_size__:
00000051 fa16                 INCR 0x69, 0x1
00000052 f2fc                 BTRSC 0x3, 0x2
00000053 fa15                 INCR 0x6a, 0x1
00000054 c7a7                 LGOTO 0x58; main.o:_00128_DS_=0x58
00000055                      main.o:_00121_DS_:
00000055 e0fc                 BCR 0x3, 0x6
00000056 fd16                 CLRR 0x69
00000057 fd15                 CLRR 0x6a
00000058                      main.o:_00128_DS_:
00000058 f770                 BTRSS 0xf, 0x1
00000059 c7a3                 LGOTO 0x5c; main.o:_00130_DS_=0x5c
0000005a de02                 MOVIA 0xfd
0000005b ff70                 MOVAR 0xf
0000005c                      main.o:_00130_DS_:
0000005c fd70                 CLRR 0xf
0000005d e0fc                 BCR 0x3, 0x6
0000005e fea9                 MOVR 0x56, 0x0
0000005f ff39                 MOVAR 0x46
00000060 feaa                 MOVR 0x55, 0x0
00000061 ff38                 MOVAR 0x47
00000062 feab                 MOVR 0x54, 0x0
00000063 ff7b                 MOVAR 0x4
00000064 febf                 MOVR 0x40, 0x0
00000065 ff75                 MOVAR 0xa
00000066 fd7c                 CLRR 0x3
00000067 eabe                 SWAPR 0x41, 0x0
00000068 ff7c                 MOVAR 0x3
00000069 ea3d                 SWAPR 0x42, 0x1
0000006a eabd                 SWAPR 0x42, 0x0
0000006b                      main.o:END_OF_INTERRUPT:
0000006b ffee                 RETIE
0000006c                      _main:
0000006c d239                 LCALL 0x5c6; _initSys=0x5c6
0000006d d448                 LCALL 0x3b7; _initAD=0x3b7
0000006e                      main.o:_00174_DS_:
0000006e fffd                 CLRWDT
0000006f d28d                 LCALL 0x572; _ledShow=0x572
00000070 e0fc                 BCR 0x3, 0x6
00000071 f7a8                 BTRSS 0x57, 0x0
00000072 c791                 LGOTO 0x6e; main.o:_00174_DS_=0x6e
00000073 e3a8                 BCR 0x57, 0x0
00000074 fe8e                 MOVR 0x71, 0x0
00000075 f6fc                 BTRSS 0x3, 0x2
00000076 c770                 LGOTO 0x8f; main.o:_00140_DS_=0x8f
00000077 fe9d                 MOVR 0x62, 0x0
00000078 f6fc                 BTRSS 0x3, 0x2
00000079 c770                 LGOTO 0x8f; main.o:_00140_DS_=0x8f
0000007a fea4                 MOVR 0x5b, 0x0
0000007b f2fc                 BTRSC 0x3, 0x2
0000007c c770                 LGOTO 0x8f; main.o:_00140_DS_=0x8f
0000007d fa06                 INCR 0x79, 0x1
0000007e f2fc                 BTRSC 0x3, 0x2
0000007f fa05                 INCR 0x7a, 0x1
00000080 defc                 MOVIA 0x3
00000081 fb85                 SUBAR 0x7a, 0x0
00000082 f6fc                 BTRSS 0x3, 0x2
00000083 c779                 LGOTO 0x86; main.o:_00247_DS_=0x86
00000084 de17                 MOVIA 0xe8
00000085 fb86                 SUBAR 0x79, 0x0
00000086                      main.o:_00247_DS_:
00000086 f7fc                 BTRSS 0x3, 0x0
00000087 c76d                 LGOTO 0x92; main.o:_00141_DS_=0x92
00000088 e0fc                 BCR 0x3, 0x6
00000089 fd06                 CLRR 0x79
0000008a fd05                 CLRR 0x7a
0000008b fd24                 CLRR 0x5b
0000008c fd23                 CLRR 0x5c
0000008d d323                 LCALL 0x4dc; _pwmStop=0x4dc
0000008e c76d                 LGOTO 0x92; main.o:_00141_DS_=0x92
0000008f                      main.o:_00140_DS_:
0000008f e0fc                 BCR 0x3, 0x6
00000090 fd06                 CLRR 0x79
00000091 fd05                 CLRR 0x7a
00000092                      main.o:_00141_DS_:
00000092 defa                 MOVIA 0x5
00000093 e0fc                 BCR 0x3, 0x6
00000094 fb93                 SUBAR 0x6c, 0x0
00000095 f7fc                 BTRSS 0x3, 0x0
00000096 c752                 LGOTO 0xad; main.o:_00147_DS_=0xad
00000097 fea4                 MOVR 0x5b, 0x0
00000098 f2fc                 BTRSC 0x3, 0x2
00000099 c752                 LGOTO 0xad; main.o:_00147_DS_=0xad
0000009a fa0a                 INCR 0x75, 0x1
0000009b f2fc                 BTRSC 0x3, 0x2
0000009c fa09                 INCR 0x76, 0x1
0000009d defe                 MOVIA 0x1
0000009e fb89                 SUBAR 0x76, 0x0
0000009f f6fc                 BTRSS 0x3, 0x2
000000a0 c75c                 LGOTO 0xa3; main.o:_00249_DS_=0xa3
000000a1 de0a                 MOVIA 0xf5
000000a2 fb8a                 SUBAR 0x75, 0x0
000000a3                      main.o:_00249_DS_:
000000a3 f7fc                 BTRSS 0x3, 0x0
000000a4 c74f                 LGOTO 0xb0; main.o:_00148_DS_=0xb0
000000a5 e0fc                 BCR 0x3, 0x6
000000a6 fd13                 CLRR 0x6c
000000a7 fd0a                 CLRR 0x75
000000a8 fd09                 CLRR 0x76
000000a9 dee6                 MOVIA 0x19
000000aa ff08                 MOVAR 0x77
000000ab d21c                 LCALL 0x5e3; _powerOff=0x5e3
000000ac c74f                 LGOTO 0xb0; main.o:_00148_DS_=0xb0
000000ad                      main.o:_00147_DS_:
000000ad e0fc                 BCR 0x3, 0x6
000000ae fd0a                 CLRR 0x75
000000af fd09                 CLRR 0x76
000000b0                      main.o:_00148_DS_:
000000b0 e0fc                 BCR 0x3, 0x6
000000b1 f628                 BTRSS 0x57, 0x3
000000b2 d218                 LCALL 0x5e7; _keyCtr=0x5e7
000000b3                      main.o:_00151_DS_:
000000b3 defa                 MOVIA 0x5
000000b4 e0fc                 BCR 0x3, 0x6
000000b5 fb98                 SUBAR 0x67, 0x0
000000b6 f3fc                 BTRSC 0x3, 0x0
000000b7 c745                 LGOTO 0xba; main.o:_00160_DS_=0xba
000000b8 d5f6                 LCALL 0x209; _checkBatAD=0x209
000000b9 c731                 LGOTO 0xce; main.o:_00161_DS_=0xce
000000ba                      main.o:_00160_DS_:
000000ba def6                 MOVIA 0x9
000000bb e0fc                 BCR 0x3, 0x6
000000bc fb98                 SUBAR 0x67, 0x0
000000bd f7fc                 BTRSS 0x3, 0x0
000000be c73a                 LGOTO 0xc5; main.o:_00156_DS_=0xc5
000000bf def4                 MOVIA 0xb
000000c0 fb98                 SUBAR 0x67, 0x0
000000c1 f3fc                 BTRSC 0x3, 0x0
000000c2 c73a                 LGOTO 0xc5; main.o:_00156_DS_=0xc5
000000c3 d691                 LCALL 0x16e; _checkOutA=0x16e
000000c4 c731                 LGOTO 0xce; main.o:_00161_DS_=0xce
000000c5                      main.o:_00156_DS_:
000000c5 def1                 MOVIA 0xe
000000c6 e0fc                 BCR 0x3, 0x6
000000c7 fb98                 SUBAR 0x67, 0x0
000000c8 f7fc                 BTRSS 0x3, 0x0
000000c9 c731                 LGOTO 0xce; main.o:_00161_DS_=0xce
000000ca deef                 MOVIA 0x10
000000cb fb98                 SUBAR 0x67, 0x0
000000cc f7fc                 BTRSS 0x3, 0x0
000000cd d61e                 LCALL 0x1e1; _checkChrgV=0x1e1
000000ce                      main.o:_00161_DS_:
000000ce d431                 LCALL 0x3ce; _chrgCtr=0x3ce
000000cf e0fc                 BCR 0x3, 0x6
000000d0 fea4                 MOVR 0x5b, 0x0
000000d1 f6fc                 BTRSS 0x3, 0x2
000000d2 c712                 LGOTO 0xed; main.o:_00165_DS_=0xed
000000d3 fea5                 MOVR 0x5a, 0x0
000000d4 f6fc                 BTRSS 0x3, 0x2
000000d5 c712                 LGOTO 0xed; main.o:_00165_DS_=0xed
000000d6 f27a                 BTRSC 0x5, 0x3
000000d7 c712                 LGOTO 0xed; main.o:_00165_DS_=0xed
000000d8 fe92                 MOVR 0x6d, 0x0
000000d9 f6fc                 BTRSS 0x3, 0x2
000000da c712                 LGOTO 0xed; main.o:_00165_DS_=0xed
000000db fe88                 MOVR 0x77, 0x0
000000dc f6fc                 BTRSS 0x3, 0x2
000000dd c712                 LGOTO 0xed; main.o:_00165_DS_=0xed
000000de fe8e                 MOVR 0x71, 0x0
000000df f6fc                 BTRSS 0x3, 0x2
000000e0 c712                 LGOTO 0xed; main.o:_00165_DS_=0xed
000000e1 fa1a                 INCR 0x65, 0x1
000000e2 f2fc                 BTRSC 0x3, 0x2
000000e3 fa19                 INCR 0x66, 0x1
000000e4 deff                 MOVIA 0x0
000000e5 fb99                 SUBAR 0x66, 0x0
000000e6 f6fc                 BTRSS 0x3, 0x2
000000e7 c715                 LGOTO 0xea; main.o:_00255_DS_=0xea
000000e8 deea                 MOVIA 0x15
000000e9 fb9a                 SUBAR 0x65, 0x0
000000ea                      main.o:_00255_DS_:
000000ea f7fc                 BTRSS 0x3, 0x0
000000eb c712                 LGOTO 0xed; main.o:_00165_DS_=0xed
000000ec d350                 LCALL 0x4af; _gotoSleep=0x4af
000000ed                      main.o:_00165_DS_:
000000ed defc                 MOVIA 0x3
000000ee e0fc                 BCR 0x3, 0x6
000000ef fb95                 SUBAR 0x6a, 0x0
000000f0 f6fc                 BTRSS 0x3, 0x2
000000f1 c70b                 LGOTO 0xf4; main.o:_00256_DS_=0xf4
000000f2 de7b                 MOVIA 0x84
000000f3 fb96                 SUBAR 0x69, 0x0
000000f4                      main.o:_00256_DS_:
000000f4 f7fc                 BTRSS 0x3, 0x0
000000f5 c791                 LGOTO 0x6e; main.o:_00174_DS_=0x6e
000000f6 d21c                 LCALL 0x5e3; _powerOff=0x5e3
000000f7 c791                 LGOTO 0x6e; main.o:_00174_DS_=0x6e
000000f8 ffef                 RET
000000f9                      _F_AIN2_Convert:
000000f9 e0fc                 BCR 0x3, 0x6
000000fa ff2f                 MOVAR 0x50
000000fb fd57                 CLRR 0x28
000000fc fd59                 CLRR 0x26
000000fd fd58                 CLRR 0x27
000000fe de6d                 MOVIA 0x92
000000ff ff6f                 MOVAR 0x10
00000100 de37                 MOVIA 0xc8
00000101 d43d                 LCALL 0x3c2; _delay=0x3c2
00000102 defe                 MOVIA 0x1
00000103 e0fc                 BCR 0x3, 0x6
00000104 ff2e                 MOVAR 0x51
00000105                      main.o:_00911_DS_:
00000105 e0fc                 BCR 0x3, 0x6
00000106 feae                 MOVR 0x51, 0x0
00000107 fbaf                 SUBAR 0x50, 0x0
00000108 f7fc                 BTRSS 0x3, 0x0
00000109 c6e0                 LGOTO 0x11f; main.o:_00913_DS_=0x11f
0000010a e4ef                 BSR 0x10, 0x6
0000010b d7fc                 LCALL 0x3; main.o:_00918_DS_=0x3
0000010c def0                 MOVIA 0xf
0000010d efee                 ANDAR 0x11, 0x0
0000010e e0fc                 BCR 0x3, 0x6
0000010f fc57                 ADDAR 0x28, 0x1
00000110 feed                 MOVR 0x12, 0x0
00000111 ff2d                 MOVAR 0x52
00000112 deff                 MOVIA 0x0
00000113 ff2c                 MOVAR 0x53
00000114 fead                 MOVR 0x52, 0x0
00000115 fc59                 ADDAR 0x26, 0x1
00000116 feac                 MOVR 0x53, 0x0
00000117 f3fc                 BTRSC 0x3, 0x0
00000118 faac                 INCR 0x53, 0x0
00000119 f2fc                 BTRSC 0x3, 0x2
0000011a c6e3                 LGOTO 0x11c; main.o:_00001_DS_=0x11c
0000011b fc58                 ADDAR 0x27, 0x1
0000011c                      main.o:_00001_DS_:
0000011c e0fc                 BCR 0x3, 0x6
0000011d fa2e                 INCR 0x51, 0x1
0000011e c6fa                 LGOTO 0x105; main.o:_00911_DS_=0x105
0000011f                      main.o:_00913_DS_:
0000011f ffef                 RET
00000120                      _F_AIN3_Convert:
00000120 e0fc                 BCR 0x3, 0x6
00000121 ff33                 MOVAR 0x4c
00000122 fd5a                 CLRR 0x25
00000123 fd5c                 CLRR 0x23
00000124 fd5b                 CLRR 0x24
00000125 de6c                 MOVIA 0x93
00000126 ff6f                 MOVAR 0x10
00000127 de37                 MOVIA 0xc8
00000128 d43d                 LCALL 0x3c2; _delay=0x3c2
00000129 defe                 MOVIA 0x1
0000012a e0fc                 BCR 0x3, 0x6
0000012b ff32                 MOVAR 0x4d
0000012c                      main.o:_00902_DS_:
0000012c e0fc                 BCR 0x3, 0x6
0000012d feb2                 MOVR 0x4d, 0x0
0000012e fbb3                 SUBAR 0x4c, 0x0
0000012f f7fc                 BTRSS 0x3, 0x0
00000130 c6b9                 LGOTO 0x146; main.o:_00904_DS_=0x146
00000131 e4ef                 BSR 0x10, 0x6
00000132 d7fc                 LCALL 0x3; main.o:_00918_DS_=0x3
00000133 def0                 MOVIA 0xf
00000134 efee                 ANDAR 0x11, 0x0
00000135 e0fc                 BCR 0x3, 0x6
00000136 fc5a                 ADDAR 0x25, 0x1
00000137 feed                 MOVR 0x12, 0x0
00000138 ff31                 MOVAR 0x4e
00000139 deff                 MOVIA 0x0
0000013a ff30                 MOVAR 0x4f
0000013b feb1                 MOVR 0x4e, 0x0
0000013c fc5c                 ADDAR 0x23, 0x1
0000013d feb0                 MOVR 0x4f, 0x0
0000013e f3fc                 BTRSC 0x3, 0x0
0000013f fab0                 INCR 0x4f, 0x0
00000140 f2fc                 BTRSC 0x3, 0x2
00000141 c6bc                 LGOTO 0x143; main.o:_00002_DS_=0x143
00000142 fc5b                 ADDAR 0x24, 0x1
00000143                      main.o:_00002_DS_:
00000143 e0fc                 BCR 0x3, 0x6
00000144 fa32                 INCR 0x4d, 0x1
00000145 c6d3                 LGOTO 0x12c; main.o:_00902_DS_=0x12c
00000146                      main.o:_00904_DS_:
00000146 ffef                 RET
00000147                      _F_AIN4_Convert:
00000147 e0fc                 BCR 0x3, 0x6
00000148 ff37                 MOVAR 0x48
00000149 fd5d                 CLRR 0x22
0000014a fd5f                 CLRR 0x20
0000014b fd5e                 CLRR 0x21
0000014c de6b                 MOVIA 0x94
0000014d ff6f                 MOVAR 0x10
0000014e de37                 MOVIA 0xc8
0000014f d43d                 LCALL 0x3c2; _delay=0x3c2
00000150 defe                 MOVIA 0x1
00000151 e0fc                 BCR 0x3, 0x6
00000152 ff36                 MOVAR 0x49
00000153                      main.o:_00893_DS_:
00000153 e0fc                 BCR 0x3, 0x6
00000154 feb6                 MOVR 0x49, 0x0
00000155 fbb7                 SUBAR 0x48, 0x0
00000156 f7fc                 BTRSS 0x3, 0x0
00000157 c692                 LGOTO 0x16d; main.o:_00895_DS_=0x16d
00000158 e4ef                 BSR 0x10, 0x6
00000159 d7fc                 LCALL 0x3; main.o:_00918_DS_=0x3
0000015a def0                 MOVIA 0xf
0000015b efee                 ANDAR 0x11, 0x0
0000015c e0fc                 BCR 0x3, 0x6
0000015d fc5d                 ADDAR 0x22, 0x1
0000015e feed                 MOVR 0x12, 0x0
0000015f ff35                 MOVAR 0x4a
00000160 deff                 MOVIA 0x0
00000161 ff34                 MOVAR 0x4b
00000162 feb5                 MOVR 0x4a, 0x0
00000163 fc5f                 ADDAR 0x20, 0x1
00000164 feb4                 MOVR 0x4b, 0x0
00000165 f3fc                 BTRSC 0x3, 0x0
00000166 fab4                 INCR 0x4b, 0x0
00000167 f2fc                 BTRSC 0x3, 0x2
00000168 c695                 LGOTO 0x16a; main.o:_00003_DS_=0x16a
00000169 fc5e                 ADDAR 0x21, 0x1
0000016a                      main.o:_00003_DS_:
0000016a e0fc                 BCR 0x3, 0x6
0000016b fa36                 INCR 0x49, 0x1
0000016c c6ac                 LGOTO 0x153; main.o:_00893_DS_=0x153
0000016d                      main.o:_00895_DS_:
0000016d ffef                 RET
0000016e                      _checkOutA:
0000016e e0fc                 BCR 0x3, 0x6
0000016f fd5d                 CLRR 0x22
00000170 fd5f                 CLRR 0x20
00000171 fd5e                 CLRR 0x21
00000172 def7                 MOVIA 0x8
00000173 d6b8                 LCALL 0x147; _F_AIN4_Convert=0x147
00000174 e0fc                 BCR 0x3, 0x6
00000175 eade                 SWAPR 0x21, 0x0
00000176 dd0f                 ANDIA 0xf0
00000177 ff5e                 MOVAR 0x21
00000178 eadf                 SWAPR 0x20, 0x0
00000179 ff5f                 MOVAR 0x20
0000017a ddf0                 ANDIA 0xf
0000017b ee5e                 IORAR 0x21, 0x1
0000017c ed5f                 XORAR 0x20, 0x1
0000017d de0f                 MOVIA 0xf0
0000017e ef5d                 ANDAR 0x22, 0x1
0000017f fedd                 MOVR 0x22, 0x0
00000180 ff41                 MOVAR 0x3e
00000181 deff                 MOVIA 0x0
00000182 ff40                 MOVAR 0x3f
00000183 fec1                 MOVR 0x3e, 0x0
00000184 fc5f                 ADDAR 0x20, 0x1
00000185 fec0                 MOVR 0x3f, 0x0
00000186 f3fc                 BTRSC 0x3, 0x0
00000187 fac0                 INCR 0x3f, 0x0
00000188 f2fc                 BTRSC 0x3, 0x2
00000189 c674                 LGOTO 0x18b; main.o:_00004_DS_=0x18b
0000018a fc5e                 ADDAR 0x21, 0x1
0000018b                      main.o:_00004_DS_:
0000018b e3fc                 BCR 0x3, 0x0
0000018c e0fc                 BCR 0x3, 0x6
0000018d ec5e                 RRR 0x21, 0x1
0000018e ec5f                 RRR 0x20, 0x1
0000018f e3fc                 BCR 0x3, 0x0
00000190 ec5e                 RRR 0x21, 0x1
00000191 ec5f                 RRR 0x20, 0x1
00000192 e3fc                 BCR 0x3, 0x0
00000193 ec5e                 RRR 0x21, 0x1
00000194 ec5f                 RRR 0x20, 0x1
00000195 fe82                 MOVR 0x7d, 0x0
00000196 f2fc                 BTRSC 0x3, 0x2
00000197 c663                 LGOTO 0x19c; main.o:_00828_DS_=0x19c
00000198 ded2                 MOVIA 0x2d
00000199 ff5f                 MOVAR 0x20
0000019a defe                 MOVIA 0x1
0000019b ff5e                 MOVAR 0x21
0000019c                      main.o:_00828_DS_:
0000019c def9                 MOVIA 0x6
0000019d e0fc                 BCR 0x3, 0x6
0000019e fba4                 SUBAR 0x5b, 0x0
0000019f f3fc                 BTRSC 0x3, 0x0
000001a0 c64b                 LGOTO 0x1b4; main.o:_00846_DS_=0x1b4
000001a1 deff                 MOVIA 0x0
000001a2 fbde                 SUBAR 0x21, 0x0
000001a3 f6fc                 BTRSS 0x3, 0x2
000001a4 c658                 LGOTO 0x1a7; main.o:_00882_DS_=0x1a7
000001a5 de36                 MOVIA 0xc9
000001a6 fbdf                 SUBAR 0x20, 0x0
000001a7                      main.o:_00882_DS_:
000001a7 f7fc                 BTRSS 0x3, 0x0
000001a8 c64b                 LGOTO 0x1b4; main.o:_00846_DS_=0x1b4
000001a9 e0fc                 BCR 0x3, 0x6
000001aa fa13                 INCR 0x6c, 0x1
000001ab def9                 MOVIA 0x6
000001ac fb93                 SUBAR 0x6c, 0x0
000001ad f7fc                 BTRSS 0x3, 0x0
000001ae c61f                 LGOTO 0x1e0; main.o:_00849_DS_=0x1e0
000001af defa                 MOVIA 0x5
000001b0 ff13                 MOVAR 0x6c
000001b1 fea4                 MOVR 0x5b, 0x0
000001b2 ff0b                 MOVAR 0x74
000001b3 c61f                 LGOTO 0x1e0; main.o:_00849_DS_=0x1e0
000001b4                      main.o:_00846_DS_:
000001b4 defe                 MOVIA 0x1
000001b5 e0fc                 BCR 0x3, 0x6
000001b6 fbde                 SUBAR 0x21, 0x0
000001b7 f6fc                 BTRSS 0x3, 0x2
000001b8 c644                 LGOTO 0x1bb; main.o:_00884_DS_=0x1bb
000001b9 de6e                 MOVIA 0x91
000001ba fbdf                 SUBAR 0x20, 0x0
000001bb                      main.o:_00884_DS_:
000001bb f7fc                 BTRSS 0x3, 0x0
000001bc c637                 LGOTO 0x1c8; main.o:_00843_DS_=0x1c8
000001bd e0fc                 BCR 0x3, 0x6
000001be fa13                 INCR 0x6c, 0x1
000001bf def9                 MOVIA 0x6
000001c0 fb93                 SUBAR 0x6c, 0x0
000001c1 f7fc                 BTRSS 0x3, 0x0
000001c2 c61f                 LGOTO 0x1e0; main.o:_00849_DS_=0x1e0
000001c3 defa                 MOVIA 0x5
000001c4 ff13                 MOVAR 0x6c
000001c5 fea4                 MOVR 0x5b, 0x0
000001c6 ff0b                 MOVAR 0x74
000001c7 c61f                 LGOTO 0x1e0; main.o:_00849_DS_=0x1e0
000001c8                      main.o:_00843_DS_:
000001c8 deff                 MOVIA 0x0
000001c9 e0fc                 BCR 0x3, 0x6
000001ca fbde                 SUBAR 0x21, 0x0
000001cb f6fc                 BTRSS 0x3, 0x2
000001cc c630                 LGOTO 0x1cf; main.o:_00886_DS_=0x1cf
000001cd ded1                 MOVIA 0x2e
000001ce fbdf                 SUBAR 0x20, 0x0
000001cf                      main.o:_00886_DS_:
000001cf f7fc                 BTRSS 0x3, 0x0
000001d0 c628                 LGOTO 0x1d7; main.o:_00840_DS_=0x1d7
000001d1 e0fc                 BCR 0x3, 0x6
000001d2 fe93                 MOVR 0x6c, 0x0
000001d3 f2fc                 BTRSC 0x3, 0x2
000001d4 c61f                 LGOTO 0x1e0; main.o:_00849_DS_=0x1e0
000001d5 f913                 DECR 0x6c, 0x1
000001d6 c61f                 LGOTO 0x1e0; main.o:_00849_DS_=0x1e0
000001d7                      main.o:_00840_DS_:
000001d7 e0fc                 BCR 0x3, 0x6
000001d8 fe93                 MOVR 0x6c, 0x0
000001d9 f6fc                 BTRSS 0x3, 0x2
000001da f913                 DECR 0x6c, 0x1
000001db fea4                 MOVR 0x5b, 0x0
000001dc f2fc                 BTRSC 0x3, 0x2
000001dd c61f                 LGOTO 0x1e0; main.o:_00849_DS_=0x1e0
000001de fea4                 MOVR 0x5b, 0x0
000001df ff23                 MOVAR 0x5c
000001e0                      main.o:_00849_DS_:
000001e0 ffef                 RET
000001e1                      _checkChrgV:
000001e1 e0fc                 BCR 0x3, 0x6
000001e2 fd5a                 CLRR 0x25
000001e3 fd5c                 CLRR 0x23
000001e4 fd5b                 CLRR 0x24
000001e5 def7                 MOVIA 0x8
000001e6 d6df                 LCALL 0x120; _F_AIN3_Convert=0x120
000001e7 e0fc                 BCR 0x3, 0x6
000001e8 eadb                 SWAPR 0x24, 0x0
000001e9 dd0f                 ANDIA 0xf0
000001ea ff5b                 MOVAR 0x24
000001eb eadc                 SWAPR 0x23, 0x0
000001ec ff5c                 MOVAR 0x23
000001ed ddf0                 ANDIA 0xf
000001ee ee5b                 IORAR 0x24, 0x1
000001ef ed5c                 XORAR 0x23, 0x1
000001f0 de0f                 MOVIA 0xf0
000001f1 ef5a                 ANDAR 0x25, 0x1
000001f2 feda                 MOVR 0x25, 0x0
000001f3 ff43                 MOVAR 0x3c
000001f4 deff                 MOVIA 0x0
000001f5 ff42                 MOVAR 0x3d
000001f6 fec3                 MOVR 0x3c, 0x0
000001f7 fc5c                 ADDAR 0x23, 0x1
000001f8 fec2                 MOVR 0x3d, 0x0
000001f9 f3fc                 BTRSC 0x3, 0x0
000001fa fac2                 INCR 0x3d, 0x0
000001fb f2fc                 BTRSC 0x3, 0x2
000001fc c601                 LGOTO 0x1fe; main.o:_00005_DS_=0x1fe
000001fd fc5b                 ADDAR 0x24, 0x1
000001fe                      main.o:_00005_DS_:
000001fe e3fc                 BCR 0x3, 0x0
000001ff e0fc                 BCR 0x3, 0x6
00000200 ec5b                 RRR 0x24, 0x1
00000201 ec5c                 RRR 0x23, 0x1
00000202 e3fc                 BCR 0x3, 0x0
00000203 ec5b                 RRR 0x24, 0x1
00000204 ec5c                 RRR 0x23, 0x1
00000205 e3fc                 BCR 0x3, 0x0
00000206 ec5b                 RRR 0x24, 0x1
00000207 ec5c                 RRR 0x23, 0x1
00000208 ffef                 RET
00000209                      _checkBatAD:
00000209 e0fc                 BCR 0x3, 0x6
0000020a fd57                 CLRR 0x28
0000020b fd59                 CLRR 0x26
0000020c fd58                 CLRR 0x27
0000020d def7                 MOVIA 0x8
0000020e d706                 LCALL 0xf9; _F_AIN2_Convert=0xf9
0000020f e0fc                 BCR 0x3, 0x6
00000210 ead8                 SWAPR 0x27, 0x0
00000211 dd0f                 ANDIA 0xf0
00000212 ff58                 MOVAR 0x27
00000213 ead9                 SWAPR 0x26, 0x0
00000214 ff59                 MOVAR 0x26
00000215 ddf0                 ANDIA 0xf
00000216 ee58                 IORAR 0x27, 0x1
00000217 ed59                 XORAR 0x26, 0x1
00000218 de0f                 MOVIA 0xf0
00000219 ef57                 ANDAR 0x28, 0x1
0000021a fed7                 MOVR 0x28, 0x0
0000021b ff45                 MOVAR 0x3a
0000021c deff                 MOVIA 0x0
0000021d ff44                 MOVAR 0x3b
0000021e fec5                 MOVR 0x3a, 0x0
0000021f fc59                 ADDAR 0x26, 0x1
00000220 fec4                 MOVR 0x3b, 0x0
00000221 f3fc                 BTRSC 0x3, 0x0
00000222 fac4                 INCR 0x3b, 0x0
00000223 f2fc                 BTRSC 0x3, 0x2
00000224 c5d9                 LGOTO 0x226; main.o:_00006_DS_=0x226
00000225 fc58                 ADDAR 0x27, 0x1
00000226                      main.o:_00006_DS_:
00000226 e3fc                 BCR 0x3, 0x0
00000227 e0fc                 BCR 0x3, 0x6
00000228 ec58                 RRR 0x27, 0x1
00000229 ec59                 RRR 0x26, 0x1
0000022a e3fc                 BCR 0x3, 0x0
0000022b ec58                 RRR 0x27, 0x1
0000022c ec59                 RRR 0x26, 0x1
0000022d e3fc                 BCR 0x3, 0x0
0000022e ec58                 RRR 0x27, 0x1
0000022f ec59                 RRR 0x26, 0x1
00000230 fe82                 MOVR 0x7d, 0x0
00000231 f2fc                 BTRSC 0x3, 0x2
00000232 c5c8                 LGOTO 0x237; main.o:_00579_DS_=0x237
00000233 def1                 MOVIA 0xe
00000234 ff59                 MOVAR 0x26
00000235 def9                 MOVIA 0x6
00000236 ff58                 MOVAR 0x27
00000237                      main.o:_00579_DS_:
00000237 def9                 MOVIA 0x6
00000238 e0fc                 BCR 0x3, 0x6
00000239 fbd8                 SUBAR 0x27, 0x0
0000023a f6fc                 BTRSS 0x3, 0x2
0000023b c5c1                 LGOTO 0x23e; main.o:_00790_DS_=0x23e
0000023c def0                 MOVIA 0xf
0000023d fbd9                 SUBAR 0x26, 0x0
0000023e                      main.o:_00790_DS_:
0000023e f7fc                 BTRSS 0x3, 0x0
0000023f c5bc                 LGOTO 0x243; main.o:_00586_DS_=0x243
00000240 e0fc                 BCR 0x3, 0x6
00000241 fd0c                 CLRR 0x73
00000242 c5a2                 LGOTO 0x25d; main.o:_00587_DS_=0x25d
00000243                      main.o:_00586_DS_:
00000243 defb                 MOVIA 0x4
00000244 e0fc                 BCR 0x3, 0x6
00000245 fbd8                 SUBAR 0x27, 0x0
00000246 f6fc                 BTRSS 0x3, 0x2
00000247 c5b5                 LGOTO 0x24a; main.o:_00791_DS_=0x24a
00000248 de81                 MOVIA 0x7e
00000249 fbd9                 SUBAR 0x26, 0x0
0000024a                      main.o:_00791_DS_:
0000024a f3fc                 BTRSC 0x3, 0x0
0000024b c5a5                 LGOTO 0x25a; main.o:_00583_DS_=0x25a
0000024c e0fc                 BCR 0x3, 0x6
0000024d fa0c                 INCR 0x73, 0x1
0000024e def5                 MOVIA 0xa
0000024f fb8c                 SUBAR 0x73, 0x0
00000250 f7fc                 BTRSS 0x3, 0x0
00000251 c449                 LGOTO 0x3b6; main.o:_00668_DS_=0x3b6
00000252 def5                 MOVIA 0xa
00000253 ff0c                 MOVAR 0x73
00000254 fd1d                 CLRR 0x62
00000255 de81                 MOVIA 0x7e
00000256 ff59                 MOVAR 0x26
00000257 defb                 MOVIA 0x4
00000258 ff58                 MOVAR 0x27
00000259 c5a2                 LGOTO 0x25d; main.o:_00587_DS_=0x25d
0000025a                      main.o:_00583_DS_:
0000025a e0fc                 BCR 0x3, 0x6
0000025b fd0c                 CLRR 0x73
0000025c fd0d                 CLRR 0x72
0000025d                      main.o:_00587_DS_:
0000025d e0fc                 BCR 0x3, 0x6
0000025e fe83                 MOVR 0x7c, 0x0
0000025f f6fc                 BTRSS 0x3, 0x2
00000260 c59c                 LGOTO 0x263; main.o:_00589_DS_=0x263
00000261 fe9d                 MOVR 0x62, 0x0
00000262 ff03                 MOVAR 0x7c
00000263                      main.o:_00589_DS_:
00000263 de7d                 MOVIA 0x82
00000264 e0fc                 BCR 0x3, 0x6
00000265 fc59                 ADDAR 0x26, 0x1
00000266 de04                 MOVIA 0xfb
00000267 f3fc                 BTRSC 0x3, 0x0
00000268 de03                 MOVIA 0xfc
00000269 fc58                 ADDAR 0x27, 0x1
0000026a defe                 MOVIA 0x1
0000026b fbd8                 SUBAR 0x27, 0x0
0000026c f6fc                 BTRSS 0x3, 0x2
0000026d c58f                 LGOTO 0x270; main.o:_00793_DS_=0x270
0000026e de6a                 MOVIA 0x95
0000026f fbd9                 SUBAR 0x26, 0x0
00000270                      main.o:_00793_DS_:
00000270 f7fc                 BTRSS 0x3, 0x0
00000271 c58a                 LGOTO 0x275; main.o:_00591_DS_=0x275
00000272 def8                 MOVIA 0x7
00000273 e0fc                 BCR 0x3, 0x6
00000274 ff1d                 MOVAR 0x62
00000275                      main.o:_00591_DS_:
00000275 defe                 MOVIA 0x1
00000276 e0fc                 BCR 0x3, 0x6
00000277 fbd8                 SUBAR 0x27, 0x0
00000278 f6fc                 BTRSS 0x3, 0x2
00000279 c583                 LGOTO 0x27c; main.o:_00794_DS_=0x27c
0000027a de60                 MOVIA 0x9f
0000027b fbd9                 SUBAR 0x26, 0x0
0000027c                      main.o:_00794_DS_:
0000027c f7fc                 BTRSS 0x3, 0x0
0000027d c57d                 LGOTO 0x282; main.o:_00663_DS_=0x282
0000027e def7                 MOVIA 0x8
0000027f e0fc                 BCR 0x3, 0x6
00000280 ff1d                 MOVAR 0x62
00000281 c452                 LGOTO 0x3ad; main.o:_00664_DS_=0x3ad
00000282                      main.o:_00663_DS_:
00000282 defe                 MOVIA 0x1
00000283 e0fc                 BCR 0x3, 0x6
00000284 fbd8                 SUBAR 0x27, 0x0
00000285 f6fc                 BTRSS 0x3, 0x2
00000286 c576                 LGOTO 0x289; main.o:_00795_DS_=0x289
00000287 dea0                 MOVIA 0x5f
00000288 fbd9                 SUBAR 0x26, 0x0
00000289                      main.o:_00795_DS_:
00000289 f7fc                 BTRSS 0x3, 0x0
0000028a c531                 LGOTO 0x2ce; main.o:_00660_DS_=0x2ce
0000028b def9                 MOVIA 0x6
0000028c e0fc                 BCR 0x3, 0x6
0000028d fb9d                 SUBAR 0x62, 0x0
0000028e f3fc                 BTRSC 0x3, 0x0
0000028f c561                 LGOTO 0x29e; main.o:_00598_DS_=0x29e
00000290 fd10                 CLRR 0x6f
00000291 fd0f                 CLRR 0x70
00000292 defe                 MOVIA 0x1
00000293 fbd8                 SUBAR 0x27, 0x0
00000294 f6fc                 BTRSS 0x3, 0x2
00000295 c567                 LGOTO 0x298; main.o:_00797_DS_=0x298
00000296 de9b                 MOVIA 0x64
00000297 fbd9                 SUBAR 0x26, 0x0
00000298                      main.o:_00797_DS_:
00000298 f7fc                 BTRSS 0x3, 0x0
00000299 c54f                 LGOTO 0x2b0; main.o:_00599_DS_=0x2b0
0000029a def9                 MOVIA 0x6
0000029b e0fc                 BCR 0x3, 0x6
0000029c ff1d                 MOVAR 0x62
0000029d c54f                 LGOTO 0x2b0; main.o:_00599_DS_=0x2b0
0000029e                      main.o:_00598_DS_:
0000029e e0fc                 BCR 0x3, 0x6
0000029f fe9c                 MOVR 0x63, 0x0
000002a0 ee9b                 IORAR 0x64, 0x0
000002a1 f6fc                 BTRSS 0x3, 0x2
000002a2 c54f                 LGOTO 0x2b0; main.o:_00599_DS_=0x2b0
000002a3 defe                 MOVIA 0x1
000002a4 fbd8                 SUBAR 0x27, 0x0
000002a5 f6fc                 BTRSS 0x3, 0x2
000002a6 c556                 LGOTO 0x2a9; main.o:_00798_DS_=0x2a9
000002a7 de73                 MOVIA 0x8c
000002a8 fbd9                 SUBAR 0x26, 0x0
000002a9                      main.o:_00798_DS_:
000002a9 f3fc                 BTRSC 0x3, 0x0
000002aa c54f                 LGOTO 0x2b0; main.o:_00599_DS_=0x2b0
000002ab def9                 MOVIA 0x6
000002ac e0fc                 BCR 0x3, 0x6
000002ad ff1d                 MOVAR 0x62
000002ae fd10                 CLRR 0x6f
000002af fd0f                 CLRR 0x70
000002b0                      main.o:_00599_DS_:
000002b0 e0fc                 BCR 0x3, 0x6
000002b1 fe9c                 MOVR 0x63, 0x0
000002b2 ee9b                 IORAR 0x64, 0x0
000002b3 f2fc                 BTRSC 0x3, 0x2
000002b4 c452                 LGOTO 0x3ad; main.o:_00664_DS_=0x3ad
000002b5 defe                 MOVIA 0x1
000002b6 fbd8                 SUBAR 0x27, 0x0
000002b7 f6fc                 BTRSS 0x3, 0x2
000002b8 c544                 LGOTO 0x2bb; main.o:_00799_DS_=0x2bb
000002b9 de73                 MOVIA 0x8c
000002ba fbd9                 SUBAR 0x26, 0x0
000002bb                      main.o:_00799_DS_:
000002bb f7fc                 BTRSS 0x3, 0x0
000002bc c452                 LGOTO 0x3ad; main.o:_00664_DS_=0x3ad
000002bd defd                 MOVIA 0x2
000002be e0fc                 BCR 0x3, 0x6
000002bf fb9b                 SUBAR 0x64, 0x0
000002c0 f6fc                 BTRSS 0x3, 0x2
000002c1 c53b                 LGOTO 0x2c4; main.o:_00800_DS_=0x2c4
000002c2 dea6                 MOVIA 0x59
000002c3 fb9c                 SUBAR 0x63, 0x0
000002c4                      main.o:_00800_DS_:
000002c4 f7fc                 BTRSS 0x3, 0x0
000002c5 c452                 LGOTO 0x3ad; main.o:_00664_DS_=0x3ad
000002c6 dea7                 MOVIA 0x58
000002c7 e0fc                 BCR 0x3, 0x6
000002c8 ff1c                 MOVAR 0x63
000002c9 defd                 MOVIA 0x2
000002ca ff1b                 MOVAR 0x64
000002cb def8                 MOVIA 0x7
000002cc ff1d                 MOVAR 0x62
000002cd c452                 LGOTO 0x3ad; main.o:_00664_DS_=0x3ad
000002ce                      main.o:_00660_DS_:
000002ce defe                 MOVIA 0x1
000002cf e0fc                 BCR 0x3, 0x6
000002d0 fbd8                 SUBAR 0x27, 0x0
000002d1 f6fc                 BTRSS 0x3, 0x2
000002d2 c52a                 LGOTO 0x2d5; main.o:_00801_DS_=0x2d5
000002d3 deb9                 MOVIA 0x46
000002d4 fbd9                 SUBAR 0x26, 0x0
000002d5                      main.o:_00801_DS_:
000002d5 f7fc                 BTRSS 0x3, 0x0
000002d6 c500                 LGOTO 0x2ff; main.o:_00657_DS_=0x2ff
000002d7 e0fc                 BCR 0x3, 0x6
000002d8 fe9d                 MOVR 0x62, 0x0
000002d9 dbfb                 XORIA 0x4
000002da f6fc                 BTRSS 0x3, 0x2
000002db c518                 LGOTO 0x2e7; main.o:_00607_DS_=0x2e7
000002dc defe                 MOVIA 0x1
000002dd fbd8                 SUBAR 0x27, 0x0
000002de f6fc                 BTRSS 0x3, 0x2
000002df c51d                 LGOTO 0x2e2; main.o:_00802_DS_=0x2e2
000002e0 deb4                 MOVIA 0x4b
000002e1 fbd9                 SUBAR 0x26, 0x0
000002e2                      main.o:_00802_DS_:
000002e2 f7fc                 BTRSS 0x3, 0x0
000002e3 c518                 LGOTO 0x2e7; main.o:_00607_DS_=0x2e7
000002e4 defa                 MOVIA 0x5
000002e5 e0fc                 BCR 0x3, 0x6
000002e6 ff1d                 MOVAR 0x62
000002e7                      main.o:_00607_DS_:
000002e7 def9                 MOVIA 0x6
000002e8 e0fc                 BCR 0x3, 0x6
000002e9 fb9d                 SUBAR 0x62, 0x0
000002ea f7fc                 BTRSS 0x3, 0x0
000002eb c507                 LGOTO 0x2f8; main.o:_00611_DS_=0x2f8
000002ec defe                 MOVIA 0x1
000002ed fbd8                 SUBAR 0x27, 0x0
000002ee f6fc                 BTRSS 0x3, 0x2
000002ef c50d                 LGOTO 0x2f2; main.o:_00804_DS_=0x2f2
000002f0 de92                 MOVIA 0x6d
000002f1 fbd9                 SUBAR 0x26, 0x0
000002f2                      main.o:_00804_DS_:
000002f2 f3fc                 BTRSC 0x3, 0x0
000002f3 c504                 LGOTO 0x2fb; main.o:_00612_DS_=0x2fb
000002f4 defa                 MOVIA 0x5
000002f5 e0fc                 BCR 0x3, 0x6
000002f6 ff1d                 MOVAR 0x62
000002f7 c504                 LGOTO 0x2fb; main.o:_00612_DS_=0x2fb
000002f8                      main.o:_00611_DS_:
000002f8 defa                 MOVIA 0x5
000002f9 e0fc                 BCR 0x3, 0x6
000002fa ff1d                 MOVAR 0x62
000002fb                      main.o:_00612_DS_:
000002fb e0fc                 BCR 0x3, 0x6
000002fc fd1c                 CLRR 0x63
000002fd fd1b                 CLRR 0x64
000002fe c452                 LGOTO 0x3ad; main.o:_00664_DS_=0x3ad
000002ff                      main.o:_00657_DS_:
000002ff defe                 MOVIA 0x1
00000300 e0fc                 BCR 0x3, 0x6
00000301 fbd8                 SUBAR 0x27, 0x0
00000302 f6fc                 BTRSS 0x3, 0x2
00000303 c4f9                 LGOTO 0x306; main.o:_00805_DS_=0x306
00000304 defa                 MOVIA 0x5
00000305 fbd9                 SUBAR 0x26, 0x0
00000306                      main.o:_00805_DS_:
00000306 f7fc                 BTRSS 0x3, 0x0
00000307 c4cf                 LGOTO 0x330; main.o:_00654_DS_=0x330
00000308 e0fc                 BCR 0x3, 0x6
00000309 fe9d                 MOVR 0x62, 0x0
0000030a dbfc                 XORIA 0x3
0000030b f6fc                 BTRSS 0x3, 0x2
0000030c c4e7                 LGOTO 0x318; main.o:_00616_DS_=0x318
0000030d defe                 MOVIA 0x1
0000030e fbd8                 SUBAR 0x27, 0x0
0000030f f6fc                 BTRSS 0x3, 0x2
00000310 c4ec                 LGOTO 0x313; main.o:_00806_DS_=0x313
00000311 def5                 MOVIA 0xa
00000312 fbd9                 SUBAR 0x26, 0x0
00000313                      main.o:_00806_DS_:
00000313 f7fc                 BTRSS 0x3, 0x0
00000314 c4e7                 LGOTO 0x318; main.o:_00616_DS_=0x318
00000315 defb                 MOVIA 0x4
00000316 e0fc                 BCR 0x3, 0x6
00000317 ff1d                 MOVAR 0x62
00000318                      main.o:_00616_DS_:
00000318 defa                 MOVIA 0x5
00000319 e0fc                 BCR 0x3, 0x6
0000031a fb9d                 SUBAR 0x62, 0x0
0000031b f7fc                 BTRSS 0x3, 0x0
0000031c c4d6                 LGOTO 0x329; main.o:_00620_DS_=0x329
0000031d defe                 MOVIA 0x1
0000031e fbd8                 SUBAR 0x27, 0x0
0000031f f6fc                 BTRSS 0x3, 0x2
00000320 c4dc                 LGOTO 0x323; main.o:_00808_DS_=0x323
00000321 debf                 MOVIA 0x40
00000322 fbd9                 SUBAR 0x26, 0x0
00000323                      main.o:_00808_DS_:
00000323 f3fc                 BTRSC 0x3, 0x0
00000324 c4d3                 LGOTO 0x32c; main.o:_00621_DS_=0x32c
00000325 defb                 MOVIA 0x4
00000326 e0fc                 BCR 0x3, 0x6
00000327 ff1d                 MOVAR 0x62
00000328 c4d3                 LGOTO 0x32c; main.o:_00621_DS_=0x32c
00000329                      main.o:_00620_DS_:
00000329 defb                 MOVIA 0x4
0000032a e0fc                 BCR 0x3, 0x6
0000032b ff1d                 MOVAR 0x62
0000032c                      main.o:_00621_DS_:
0000032c e0fc                 BCR 0x3, 0x6
0000032d fd1c                 CLRR 0x63
0000032e fd1b                 CLRR 0x64
0000032f c452                 LGOTO 0x3ad; main.o:_00664_DS_=0x3ad
00000330                      main.o:_00654_DS_:
00000330 deff                 MOVIA 0x0
00000331 e0fc                 BCR 0x3, 0x6
00000332 fbd8                 SUBAR 0x27, 0x0
00000333 f6fc                 BTRSS 0x3, 0x2
00000334 c4c8                 LGOTO 0x337; main.o:_00809_DS_=0x337
00000335 de36                 MOVIA 0xc9
00000336 fbd9                 SUBAR 0x26, 0x0
00000337                      main.o:_00809_DS_:
00000337 f7fc                 BTRSS 0x3, 0x0
00000338 c49e                 LGOTO 0x361; main.o:_00651_DS_=0x361
00000339 e0fc                 BCR 0x3, 0x6
0000033a fe9d                 MOVR 0x62, 0x0
0000033b dbfd                 XORIA 0x2
0000033c f6fc                 BTRSS 0x3, 0x2
0000033d c4b6                 LGOTO 0x349; main.o:_00625_DS_=0x349
0000033e deff                 MOVIA 0x0
0000033f fbd8                 SUBAR 0x27, 0x0
00000340 f6fc                 BTRSS 0x3, 0x2
00000341 c4bb                 LGOTO 0x344; main.o:_00810_DS_=0x344
00000342 de2c                 MOVIA 0xd3
00000343 fbd9                 SUBAR 0x26, 0x0
00000344                      main.o:_00810_DS_:
00000344 f7fc                 BTRSS 0x3, 0x0
00000345 c4b6                 LGOTO 0x349; main.o:_00625_DS_=0x349
00000346 defc                 MOVIA 0x3
00000347 e0fc                 BCR 0x3, 0x6
00000348 ff1d                 MOVAR 0x62
00000349                      main.o:_00625_DS_:
00000349 defb                 MOVIA 0x4
0000034a e0fc                 BCR 0x3, 0x6
0000034b fb9d                 SUBAR 0x62, 0x0
0000034c f7fc                 BTRSS 0x3, 0x0
0000034d c4a5                 LGOTO 0x35a; main.o:_00629_DS_=0x35a
0000034e defe                 MOVIA 0x1
0000034f fbd8                 SUBAR 0x27, 0x0
00000350 f6fc                 BTRSS 0x3, 0x2
00000351 c4ab                 LGOTO 0x354; main.o:_00812_DS_=0x354
00000352 defb                 MOVIA 0x4
00000353 fbd9                 SUBAR 0x26, 0x0
00000354                      main.o:_00812_DS_:
00000354 f3fc                 BTRSC 0x3, 0x0
00000355 c4a2                 LGOTO 0x35d; main.o:_00630_DS_=0x35d
00000356 defc                 MOVIA 0x3
00000357 e0fc                 BCR 0x3, 0x6
00000358 ff1d                 MOVAR 0x62
00000359 c4a2                 LGOTO 0x35d; main.o:_00630_DS_=0x35d
0000035a                      main.o:_00629_DS_:
0000035a defc                 MOVIA 0x3
0000035b e0fc                 BCR 0x3, 0x6
0000035c ff1d                 MOVAR 0x62
0000035d                      main.o:_00630_DS_:
0000035d e0fc                 BCR 0x3, 0x6
0000035e fd1c                 CLRR 0x63
0000035f fd1b                 CLRR 0x64
00000360 c452                 LGOTO 0x3ad; main.o:_00664_DS_=0x3ad
00000361                      main.o:_00651_DS_:
00000361 deff                 MOVIA 0x0
00000362 e0fc                 BCR 0x3, 0x6
00000363 fbd8                 SUBAR 0x27, 0x0
00000364 f6fc                 BTRSS 0x3, 0x2
00000365 c497                 LGOTO 0x368; main.o:_00813_DS_=0x368
00000366 de9a                 MOVIA 0x65
00000367 fbd9                 SUBAR 0x26, 0x0
00000368                      main.o:_00813_DS_:
00000368 f7fc                 BTRSS 0x3, 0x0
00000369 c46d                 LGOTO 0x392; main.o:_00648_DS_=0x392
0000036a e0fc                 BCR 0x3, 0x6
0000036b fe9d                 MOVR 0x62, 0x0
0000036c dbfe                 XORIA 0x1
0000036d f6fc                 BTRSS 0x3, 0x2
0000036e c485                 LGOTO 0x37a; main.o:_00634_DS_=0x37a
0000036f deff                 MOVIA 0x0
00000370 fbd8                 SUBAR 0x27, 0x0
00000371 f6fc                 BTRSS 0x3, 0x2
00000372 c48a                 LGOTO 0x375; main.o:_00814_DS_=0x375
00000373 de90                 MOVIA 0x6f
00000374 fbd9                 SUBAR 0x26, 0x0
00000375                      main.o:_00814_DS_:
00000375 f7fc                 BTRSS 0x3, 0x0
00000376 c485                 LGOTO 0x37a; main.o:_00634_DS_=0x37a
00000377 defd                 MOVIA 0x2
00000378 e0fc                 BCR 0x3, 0x6
00000379 ff1d                 MOVAR 0x62
0000037a                      main.o:_00634_DS_:
0000037a defc                 MOVIA 0x3
0000037b e0fc                 BCR 0x3, 0x6
0000037c fb9d                 SUBAR 0x62, 0x0
0000037d f7fc                 BTRSS 0x3, 0x0
0000037e c474                 LGOTO 0x38b; main.o:_00638_DS_=0x38b
0000037f deff                 MOVIA 0x0
00000380 fbd8                 SUBAR 0x27, 0x0
00000381 f6fc                 BTRSS 0x3, 0x2
00000382 c47a                 LGOTO 0x385; main.o:_00816_DS_=0x385
00000383 de41                 MOVIA 0xbe
00000384 fbd9                 SUBAR 0x26, 0x0
00000385                      main.o:_00816_DS_:
00000385 f3fc                 BTRSC 0x3, 0x0
00000386 c471                 LGOTO 0x38e; main.o:_00639_DS_=0x38e
00000387 defd                 MOVIA 0x2
00000388 e0fc                 BCR 0x3, 0x6
00000389 ff1d                 MOVAR 0x62
0000038a c471                 LGOTO 0x38e; main.o:_00639_DS_=0x38e
0000038b                      main.o:_00638_DS_:
0000038b defd                 MOVIA 0x2
0000038c e0fc                 BCR 0x3, 0x6
0000038d ff1d                 MOVAR 0x62
0000038e                      main.o:_00639_DS_:
0000038e e0fc                 BCR 0x3, 0x6
0000038f fd1c                 CLRR 0x63
00000390 fd1b                 CLRR 0x64
00000391 c452                 LGOTO 0x3ad; main.o:_00664_DS_=0x3ad
00000392                      main.o:_00648_DS_:
00000392 e0fc                 BCR 0x3, 0x6
00000393 fed9                 MOVR 0x26, 0x0
00000394 eed8                 IORAR 0x27, 0x0
00000395 f2fc                 BTRSC 0x3, 0x2
00000396 c452                 LGOTO 0x3ad; main.o:_00664_DS_=0x3ad
00000397 defd                 MOVIA 0x2
00000398 fb9d                 SUBAR 0x62, 0x0
00000399 f7fc                 BTRSS 0x3, 0x0
0000039a c458                 LGOTO 0x3a7; main.o:_00643_DS_=0x3a7
0000039b deff                 MOVIA 0x0
0000039c fbd8                 SUBAR 0x27, 0x0
0000039d f6fc                 BTRSS 0x3, 0x2
0000039e c45e                 LGOTO 0x3a1; main.o:_00818_DS_=0x3a1
0000039f dea5                 MOVIA 0x5a
000003a0 fbd9                 SUBAR 0x26, 0x0
000003a1                      main.o:_00818_DS_:
000003a1 f3fc                 BTRSC 0x3, 0x0
000003a2 c455                 LGOTO 0x3aa; main.o:_00644_DS_=0x3aa
000003a3 defe                 MOVIA 0x1
000003a4 e0fc                 BCR 0x3, 0x6
000003a5 ff1d                 MOVAR 0x62
000003a6 c455                 LGOTO 0x3aa; main.o:_00644_DS_=0x3aa
000003a7                      main.o:_00643_DS_:
000003a7 defe                 MOVIA 0x1
000003a8 e0fc                 BCR 0x3, 0x6
000003a9 ff1d                 MOVAR 0x62
000003aa                      main.o:_00644_DS_:
000003aa e0fc                 BCR 0x3, 0x6
000003ab fd1c                 CLRR 0x63
000003ac fd1b                 CLRR 0x64
000003ad                      main.o:_00664_DS_:
000003ad e0fc                 BCR 0x3, 0x6
000003ae fe92                 MOVR 0x6d, 0x0
000003af f2fc                 BTRSC 0x3, 0x2
000003b0 c449                 LGOTO 0x3b6; main.o:_00668_DS_=0x3b6
000003b1 fe83                 MOVR 0x7c, 0x0
000003b2 f2fc                 BTRSC 0x3, 0x2
000003b3 c449                 LGOTO 0x3b6; main.o:_00668_DS_=0x3b6
000003b4 fe83                 MOVR 0x7c, 0x0
000003b5 ff1d                 MOVAR 0x62
000003b6                      main.o:_00668_DS_:
000003b6 ffef                 RET
000003b7                      _initAD:
000003b7 de7b                 MOVIA 0x84
000003b8 ff6f                 MOVAR 0x10
000003b9 fd6c                 CLRR 0x13
000003ba deef                 MOVIA 0x10
000003bb ff6e                 MOVAR 0x11
000003bc defc                 MOVIA 0x3
000003bd ff6b                 MOVAR 0x14
000003be e5ef                 BSR 0x10, 0x4
000003bf de9b                 MOVIA 0x64
000003c0 d43d                 LCALL 0x3c2; _delay=0x3c2
000003c1 ffef                 RET
000003c2                      _delay:
000003c2 e0fc                 BCR 0x3, 0x6
000003c3 ff47                 MOVAR 0x38
000003c4 fd46                 CLRR 0x39
000003c5                      main.o:_00567_DS_:
000003c5 e0fc                 BCR 0x3, 0x6
000003c6 fec7                 MOVR 0x38, 0x0
000003c7 fbc6                 SUBAR 0x39, 0x0
000003c8 f3fc                 BTRSC 0x3, 0x0
000003c9 c432                 LGOTO 0x3cd; main.o:_00569_DS_=0x3cd
000003ca ffff                 NOP
000003cb fa46                 INCR 0x39, 0x1
000003cc c43a                 LGOTO 0x3c5; main.o:_00567_DS_=0x3c5
000003cd                      main.o:_00569_DS_:
000003cd ffef                 RET
000003ce                      _chrgCtr:
000003ce e0fc                 BCR 0x3, 0x6
000003cf f27a                 BTRSC 0x5, 0x3
000003d0 c426                 LGOTO 0x3d9; main.o:_00497_DS_=0x3d9
000003d1 def4                 MOVIA 0xb
000003d2 fbdb                 SUBAR 0x24, 0x0
000003d3 f6fc                 BTRSS 0x3, 0x2
000003d4 c428                 LGOTO 0x3d7; main.o:_00557_DS_=0x3d7
000003d5 de46                 MOVIA 0xb9
000003d6 fbdc                 SUBAR 0x23, 0x0
000003d7                      main.o:_00557_DS_:
000003d7 f7fc                 BTRSS 0x3, 0x0
000003d8 c386                 LGOTO 0x479; main.o:_00498_DS_=0x479
000003d9                      main.o:_00497_DS_:
000003d9 e0fc                 BCR 0x3, 0x6
000003da e628                 BSR 0x57, 0x3
000003db fd24                 CLRR 0x5b
000003dc fd12                 CLRR 0x6d
000003dd d323                 LCALL 0x4dc; _pwmStop=0x4dc
000003de e0fc                 BCR 0x3, 0x6
000003df fe9d                 MOVR 0x62, 0x0
000003e0 dbf7                 XORIA 0x8
000003e1 f6fc                 BTRSS 0x3, 0x2
000003e2 c401                 LGOTO 0x3fe; main.o:_00493_DS_=0x3fe
000003e3 def9                 MOVIA 0x6
000003e4 ff04                 MOVAR 0x7b
000003e5 ff23                 MOVAR 0x5c
000003e6 fa10                 INCR 0x6f, 0x1
000003e7 f2fc                 BTRSC 0x3, 0x2
000003e8 fa0f                 INCR 0x70, 0x1
000003e9 deff                 MOVIA 0x0
000003ea fb8f                 SUBAR 0x70, 0x0
000003eb f6fc                 BTRSS 0x3, 0x2
000003ec c410                 LGOTO 0x3ef; main.o:_00558_DS_=0x3ef
000003ed de37                 MOVIA 0xc8
000003ee fb90                 SUBAR 0x6f, 0x0
000003ef                      main.o:_00558_DS_:
000003ef f7fc                 BTRSS 0x3, 0x0
000003f0 c377                 LGOTO 0x488; main.o:_00501_DS_=0x488
000003f1 de37                 MOVIA 0xc8
000003f2 e0fc                 BCR 0x3, 0x6
000003f3 ff10                 MOVAR 0x6f
000003f4 fd0f                 CLRR 0x70
000003f5 d313                 LCALL 0x4ec; _pwm1Stop=0x4ec
000003f6 e279                 BCR 0x6, 0x3
000003f7 ffe9                 IOSTR 0x6
000003f8 e0fc                 BCR 0x3, 0x6
000003f9 ff4b                 MOVAR 0x34
000003fa e64b                 BSR 0x34, 0x3
000003fb fecb                 MOVR 0x34, 0x0
000003fc fff9                 IOST 0x6
000003fd c377                 LGOTO 0x488; main.o:_00501_DS_=0x488
000003fe                      main.o:_00493_DS_:
000003fe ffe9                 IOSTR 0x6
000003ff e0fc                 BCR 0x3, 0x6
00000400 ff4b                 MOVAR 0x34
00000401 e24b                 BCR 0x34, 0x3
00000402 fecb                 MOVR 0x34, 0x0
00000403 fff9                 IOST 0x6
00000404 fd10                 CLRR 0x6f
00000405 fd0f                 CLRR 0x70
00000406 fea6                 MOVR 0x59, 0x0
00000407 f6fc                 BTRSS 0x3, 0x2
00000408 c3d0                 LGOTO 0x42f; main.o:_00466_DS_=0x42f
00000409 def8                 MOVIA 0x7
0000040a fb9d                 SUBAR 0x62, 0x0
0000040b f3fc                 BTRSC 0x3, 0x0
0000040c c3d0                 LGOTO 0x42f; main.o:_00466_DS_=0x42f
0000040d fe9d                 MOVR 0x62, 0x0
0000040e ff4b                 MOVAR 0x34
0000040f fd4a                 CLRR 0x35
00000410 de00                 MOVIA 0xff
00000411 fc4b                 ADDAR 0x34, 0x1
00000412 f3fc                 BTRSC 0x3, 0x0
00000413 c3ea                 LGOTO 0x415; main.o:_00007_DS_=0x415
00000414 f94a                 DECR 0x35, 0x1
00000415                      main.o:_00007_DS_:
00000415 e0fc                 BCR 0x3, 0x6
00000416 fe87                 MOVR 0x78, 0x0
00000417 ff49                 MOVAR 0x36
00000418 deff                 MOVIA 0x0
00000419 da7f                 ADDIA 0x80
0000041a ff48                 MOVAR 0x37
0000041b feca                 MOVR 0x35, 0x0
0000041c da7f                 ADDIA 0x80
0000041d fbc8                 SUBAR 0x37, 0x0
0000041e f6fc                 BTRSS 0x3, 0x2
0000041f c3dd                 LGOTO 0x422; main.o:_00560_DS_=0x422
00000420 fecb                 MOVR 0x34, 0x0
00000421 fbc9                 SUBAR 0x36, 0x0
00000422                      main.o:_00560_DS_:
00000422 f3fc                 BTRSC 0x3, 0x0
00000423 c3d8                 LGOTO 0x427; main.o:_00462_DS_=0x427
00000424 e0fc                 BCR 0x3, 0x6
00000425 f99d                 DECR 0x62, 0x0
00000426 ff07                 MOVAR 0x78
00000427                      main.o:_00462_DS_:
00000427 e0fc                 BCR 0x3, 0x6
00000428 fa23                 INCR 0x5c, 0x1
00000429 def8                 MOVIA 0x7
0000042a fba3                 SUBAR 0x5c, 0x0
0000042b f7fc                 BTRSS 0x3, 0x0
0000042c c3d0                 LGOTO 0x42f; main.o:_00466_DS_=0x42f
0000042d fe87                 MOVR 0x78, 0x0
0000042e ff23                 MOVAR 0x5c
0000042f                      main.o:_00466_DS_:
0000042f e0fc                 BCR 0x3, 0x6
00000430 fe9d                 MOVR 0x62, 0x0
00000431 dbf8                 XORIA 0x7
00000432 f6fc                 BTRSS 0x3, 0x2
00000433 c3c9                 LGOTO 0x436; main.o:_00469_DS_=0x436
00000434 def9                 MOVIA 0x6
00000435 ff23                 MOVAR 0x5c
00000436                      main.o:_00469_DS_:
00000436 defd                 MOVIA 0x2
00000437 e0fc                 BCR 0x3, 0x6
00000438 fb9d                 SUBAR 0x62, 0x0
00000439 f3fc                 BTRSC 0x3, 0x0
0000043a c3bb                 LGOTO 0x444; main.o:_00490_DS_=0x444
0000043b defd                 MOVIA 0x2
0000043c fb84                 SUBAR 0x7b, 0x0
0000043d f3fc                 BTRSC 0x3, 0x0
0000043e c388                 LGOTO 0x477; main.o:_00491_DS_=0x477
0000043f def7                 MOVIA 0x8
00000440 ffbc                 SFUN 0x3
00000441 defe                 MOVIA 0x1
00000442 ff04                 MOVAR 0x7b
00000443 c388                 LGOTO 0x477; main.o:_00491_DS_=0x477
00000444                      main.o:_00490_DS_:
00000444 defc                 MOVIA 0x3
00000445 e0fc                 BCR 0x3, 0x6
00000446 fb9d                 SUBAR 0x62, 0x0
00000447 f3fc                 BTRSC 0x3, 0x0
00000448 c3ad                 LGOTO 0x452; main.o:_00487_DS_=0x452
00000449 defc                 MOVIA 0x3
0000044a fb84                 SUBAR 0x7b, 0x0
0000044b f3fc                 BTRSC 0x3, 0x0
0000044c c388                 LGOTO 0x477; main.o:_00491_DS_=0x477
0000044d defd                 MOVIA 0x2
0000044e ff04                 MOVAR 0x7b
0000044f def6                 MOVIA 0x9
00000450 ffbc                 SFUN 0x3
00000451 c388                 LGOTO 0x477; main.o:_00491_DS_=0x477
00000452                      main.o:_00487_DS_:
00000452 defb                 MOVIA 0x4
00000453 e0fc                 BCR 0x3, 0x6
00000454 fb9d                 SUBAR 0x62, 0x0
00000455 f3fc                 BTRSC 0x3, 0x0
00000456 c39f                 LGOTO 0x460; main.o:_00484_DS_=0x460
00000457 defb                 MOVIA 0x4
00000458 fb84                 SUBAR 0x7b, 0x0
00000459 f3fc                 BTRSC 0x3, 0x0
0000045a c388                 LGOTO 0x477; main.o:_00491_DS_=0x477
0000045b defc                 MOVIA 0x3
0000045c ff04                 MOVAR 0x7b
0000045d def5                 MOVIA 0xa
0000045e ffbc                 SFUN 0x3
0000045f c388                 LGOTO 0x477; main.o:_00491_DS_=0x477
00000460                      main.o:_00484_DS_:
00000460 def8                 MOVIA 0x7
00000461 e0fc                 BCR 0x3, 0x6
00000462 fb9d                 SUBAR 0x62, 0x0
00000463 f3fc                 BTRSC 0x3, 0x0
00000464 c391                 LGOTO 0x46e; main.o:_00481_DS_=0x46e
00000465 defa                 MOVIA 0x5
00000466 fb84                 SUBAR 0x7b, 0x0
00000467 f3fc                 BTRSC 0x3, 0x0
00000468 c388                 LGOTO 0x477; main.o:_00491_DS_=0x477
00000469 defb                 MOVIA 0x4
0000046a ff04                 MOVAR 0x7b
0000046b def4                 MOVIA 0xb
0000046c ffbc                 SFUN 0x3
0000046d c388                 LGOTO 0x477; main.o:_00491_DS_=0x477
0000046e                      main.o:_00481_DS_:
0000046e def9                 MOVIA 0x6
0000046f e0fc                 BCR 0x3, 0x6
00000470 fb84                 SUBAR 0x7b, 0x0
00000471 f3fc                 BTRSC 0x3, 0x0
00000472 c388                 LGOTO 0x477; main.o:_00491_DS_=0x477
00000473 def3                 MOVIA 0xc
00000474 ffbc                 SFUN 0x3
00000475 defa                 MOVIA 0x5
00000476 ff04                 MOVAR 0x7b
00000477                      main.o:_00491_DS_:
00000477 d310                 LCALL 0x4ef; _pwm1Init=0x4ef
00000478 c377                 LGOTO 0x488; main.o:_00501_DS_=0x488
00000479                      main.o:_00498_DS_:
00000479 e0fc                 BCR 0x3, 0x6
0000047a fd04                 CLRR 0x7b
0000047b fd07                 CLRR 0x78
0000047c fd1c                 CLRR 0x63
0000047d fd1b                 CLRR 0x64
0000047e d313                 LCALL 0x4ec; _pwm1Stop=0x4ec
0000047f e0fc                 BCR 0x3, 0x6
00000480 fea4                 MOVR 0x5b, 0x0
00000481 f6fc                 BTRSS 0x3, 0x2
00000482 c37b                 LGOTO 0x484; main.o:_00008_DS_=0x484
00000483 fd23                 CLRR 0x5c
00000484                      main.o:_00008_DS_:
00000484 e0fc                 BCR 0x3, 0x6
00000485 e228                 BCR 0x57, 0x3
00000486 fd1c                 CLRR 0x63
00000487 fd1b                 CLRR 0x64
00000488                      main.o:_00501_DS_:
00000488 ffef                 RET
00000489                      _keyRead:
00000489 e0fc                 BCR 0x3, 0x6
0000048a ff4c                 MOVAR 0x33
0000048b fecc                 MOVR 0x33, 0x0
0000048c f2fc                 BTRSC 0x3, 0x2
0000048d c365                 LGOTO 0x49a; main.o:_00452_DS_=0x49a
0000048e fa25                 INCR 0x5a, 0x1
0000048f de9b                 MOVIA 0x64
00000490 fba5                 SUBAR 0x5a, 0x0
00000491 f7fc                 BTRSS 0x3, 0x0
00000492 c352                 LGOTO 0x4ad; main.o:_00453_DS_=0x4ad
00000493 de9b                 MOVIA 0x64
00000494 ff25                 MOVAR 0x5a
00000495 f328                 BTRSC 0x57, 0x1
00000496 c352                 LGOTO 0x4ad; main.o:_00453_DS_=0x4ad
00000497 e728                 BSR 0x57, 0x1
00000498 defd                 MOVIA 0x2
00000499 c351                 LGOTO 0x4ae; main.o:_00454_DS_=0x4ae
0000049a                      main.o:_00452_DS_:
0000049a de9b                 MOVIA 0x64
0000049b e0fc                 BCR 0x3, 0x6
0000049c fba5                 SUBAR 0x5a, 0x0
0000049d f7fc                 BTRSS 0x3, 0x0
0000049e c35c                 LGOTO 0x4a3; main.o:_00449_DS_=0x4a3
0000049f fd25                 CLRR 0x5a
000004a0 e328                 BCR 0x57, 0x1
000004a1 deff                 MOVIA 0x0
000004a2 c351                 LGOTO 0x4ae; main.o:_00454_DS_=0x4ae
000004a3                      main.o:_00449_DS_:
000004a3 defb                 MOVIA 0x4
000004a4 e0fc                 BCR 0x3, 0x6
000004a5 fba5                 SUBAR 0x5a, 0x0
000004a6 f7fc                 BTRSS 0x3, 0x0
000004a7 c354                 LGOTO 0x4ab; main.o:_00450_DS_=0x4ab
000004a8 fd25                 CLRR 0x5a
000004a9 defe                 MOVIA 0x1
000004aa c351                 LGOTO 0x4ae; main.o:_00454_DS_=0x4ae
000004ab                      main.o:_00450_DS_:
000004ab e0fc                 BCR 0x3, 0x6
000004ac fd25                 CLRR 0x5a
000004ad                      main.o:_00453_DS_:
000004ad deff                 MOVIA 0x0
000004ae                      main.o:_00454_DS_:
000004ae ffef                 RET
000004af                      _gotoSleep:
000004af d29d                 LCALL 0x562; _LedInput=0x562
000004b0 e0fc                 BCR 0x3, 0x6
000004b1 fd1a                 CLRR 0x65
000004b2 fd19                 CLRR 0x66
000004b3 d323                 LCALL 0x4dc; _pwmStop=0x4dc
000004b4 d313                 LCALL 0x4ec; _pwm1Stop=0x4ec
000004b5 de37                 MOVIA 0xc8
000004b6 fffa                 IOST 0x5
000004b7 deb9                 MOVIA 0x46
000004b8 e0fc                 BCR 0x3, 0x6
000004b9 ff7a                 MOVAR 0x5
000004ba dec0                 MOVIA 0x3f
000004bb fff6                 IOST 0x9
000004bc fd79                 CLRR 0x6
000004bd fd24                 CLRR 0x5b
000004be de77                 MOVIA 0x88
000004bf ff6a                 MOVAR 0x15
000004c0 fd76                 CLRR 0x9
000004c1 fd20                 CLRR 0x5f
000004c2 fd1f                 CLRR 0x60
000004c3 fd22                 CLRR 0x5d
000004c4 fd21                 CLRR 0x5e
000004c5 e2a8                 BCR 0x57, 0x2
000004c6 defd                 MOVIA 0x2
000004c7 ff71                 MOVAR 0xe
000004c8 dee7                 MOVIA 0x18
000004c9 ff77                 MOVAR 0x8
000004ca fd70                 CLRR 0xf
000004cb fffd                 CLRWDT
000004cc fffb                 ENI
000004cd fffe                 SLEEP
000004ce fd6a                 CLRR 0x15
000004cf de41                 MOVIA 0xbe
000004d0 fffa                 IOST 0x5
000004d1 fdff                 CLRA
000004d2 fff9                 IOST 0x6
000004d3 fd7a                 CLRR 0x5
000004d4 de80                 MOVIA 0x7f
000004d5 fff6                 IOST 0x9
000004d6 defe                 MOVIA 0x1
000004d7 ff71                 MOVAR 0xe
000004d8 fd70                 CLRR 0xf
000004d9 de47                 MOVIA 0xb8
000004da ff77                 MOVAR 0x8
000004db ffef                 RET
000004dc                      _pwmStop:
000004dc fdff                 CLRA
000004dd ffb5                 SFUN 0xa
000004de ffef                 RET
000004df                      _pwmInit:
000004df ff95                 SFUNR 0xa
000004e0 e0fc                 BCR 0x3, 0x6
000004e1 ff4d                 MOVAR 0x32
000004e2 f04d                 BTRSC 0x32, 0x7
000004e3 c314                 LGOTO 0x4eb; main.o:_00429_DS_=0x4eb
000004e4 fd66                 CLRR 0x19
000004e5 de9b                 MOVIA 0x64
000004e6 ffb6                 SFUN 0x9
000004e7 defe                 MOVIA 0x1
000004e8 ffb4                 SFUN 0xb
000004e9 de7c                 MOVIA 0x83
000004ea ffb5                 SFUN 0xa
000004eb                      main.o:_00429_DS_:
000004eb ffef                 RET
000004ec                      _pwm1Stop:
000004ec fdff                 CLRA
000004ed ffbe                 SFUN 0x1
000004ee ffef                 RET
000004ef                      _pwm1Init:
000004ef ff9e                 SFUNR 0x1
000004f0 e0fc                 BCR 0x3, 0x6
000004f1 ff4e                 MOVAR 0x31
000004f2 f04e                 BTRSC 0x31, 0x7
000004f3 c304                 LGOTO 0x4fb; main.o:_00418_DS_=0x4fb
000004f4 fd66                 CLRR 0x19
000004f5 dee7                 MOVIA 0x18
000004f6 ffbf                 SFUN 0x0
000004f7 fdff                 CLRA
000004f8 ffbd                 SFUN 0x2
000004f9 de7c                 MOVIA 0x83
000004fa ffbe                 SFUN 0x1
000004fb                      main.o:_00418_DS_:
000004fb ffef                 RET
000004fc                      _LED6ON:
000004fc ffea                 IOSTR 0x5
000004fd e0fc                 BCR 0x3, 0x6
000004fe ff4f                 MOVAR 0x30
000004ff e3cf                 BCR 0x30, 0x0
00000500 fecf                 MOVR 0x30, 0x0
00000501 fffa                 IOST 0x5
00000502 ffe9                 IOSTR 0x6
00000503 ff4f                 MOVAR 0x30
00000504 e34f                 BCR 0x30, 0x1
00000505 fecf                 MOVR 0x30, 0x0
00000506 fff9                 IOST 0x6
00000507 e779                 BSR 0x6, 0x1
00000508 e3fa                 BCR 0x5, 0x0
00000509 de9b                 MOVIA 0x64
0000050a d43d                 LCALL 0x3c2; _delay=0x3c2
0000050b d29d                 LCALL 0x562; _LedInput=0x562
0000050c ffef                 RET
0000050d                      _LED5ON:
0000050d ffea                 IOSTR 0x5
0000050e e0fc                 BCR 0x3, 0x6
0000050f ff50                 MOVAR 0x2f
00000510 e3d0                 BCR 0x2f, 0x0
00000511 fed0                 MOVR 0x2f, 0x0
00000512 fffa                 IOST 0x5
00000513 ffe9                 IOSTR 0x6
00000514 ff50                 MOVAR 0x2f
00000515 e350                 BCR 0x2f, 0x1
00000516 fed0                 MOVR 0x2f, 0x0
00000517 fff9                 IOST 0x6
00000518 e7fa                 BSR 0x5, 0x0
00000519 e379                 BCR 0x6, 0x1
0000051a de9b                 MOVIA 0x64
0000051b d43d                 LCALL 0x3c2; _delay=0x3c2
0000051c d29d                 LCALL 0x562; _LedInput=0x562
0000051d ffef                 RET
0000051e                      _LED4ON:
0000051e ffe9                 IOSTR 0x6
0000051f e0fc                 BCR 0x3, 0x6
00000520 ff51                 MOVAR 0x2e
00000521 e3d1                 BCR 0x2e, 0x0
00000522 fed1                 MOVR 0x2e, 0x0
00000523 fff9                 IOST 0x6
00000524 ffea                 IOSTR 0x5
00000525 ff51                 MOVAR 0x2e
00000526 e3d1                 BCR 0x2e, 0x0
00000527 fed1                 MOVR 0x2e, 0x0
00000528 fffa                 IOST 0x5
00000529 e7f9                 BSR 0x6, 0x0
0000052a e3fa                 BCR 0x5, 0x0
0000052b de9b                 MOVIA 0x64
0000052c d43d                 LCALL 0x3c2; _delay=0x3c2
0000052d d29d                 LCALL 0x562; _LedInput=0x562
0000052e ffef                 RET
0000052f                      _LED3ON:
0000052f ffe9                 IOSTR 0x6
00000530 e0fc                 BCR 0x3, 0x6
00000531 ff52                 MOVAR 0x2d
00000532 e3d2                 BCR 0x2d, 0x0
00000533 fed2                 MOVR 0x2d, 0x0
00000534 fff9                 IOST 0x6
00000535 ffe9                 IOSTR 0x6
00000536 ff52                 MOVAR 0x2d
00000537 e352                 BCR 0x2d, 0x1
00000538 fed2                 MOVR 0x2d, 0x0
00000539 fff9                 IOST 0x6
0000053a e779                 BSR 0x6, 0x1
0000053b e3f9                 BCR 0x6, 0x0
0000053c de9b                 MOVIA 0x64
0000053d d43d                 LCALL 0x3c2; _delay=0x3c2
0000053e d29d                 LCALL 0x562; _LedInput=0x562
0000053f ffef                 RET
00000540                      _LED2ON:
00000540 ffea                 IOSTR 0x5
00000541 e0fc                 BCR 0x3, 0x6
00000542 ff53                 MOVAR 0x2c
00000543 e3d3                 BCR 0x2c, 0x0
00000544 fed3                 MOVR 0x2c, 0x0
00000545 fffa                 IOST 0x5
00000546 ffe9                 IOSTR 0x6
00000547 ff53                 MOVAR 0x2c
00000548 e3d3                 BCR 0x2c, 0x0
00000549 fed3                 MOVR 0x2c, 0x0
0000054a fff9                 IOST 0x6
0000054b e7fa                 BSR 0x5, 0x0
0000054c e3f9                 BCR 0x6, 0x0
0000054d de9b                 MOVIA 0x64
0000054e d43d                 LCALL 0x3c2; _delay=0x3c2
0000054f d29d                 LCALL 0x562; _LedInput=0x562
00000550 ffef                 RET
00000551                      _LED1ON:
00000551 ffe9                 IOSTR 0x6
00000552 e0fc                 BCR 0x3, 0x6
00000553 ff54                 MOVAR 0x2b
00000554 e3d4                 BCR 0x2b, 0x0
00000555 fed4                 MOVR 0x2b, 0x0
00000556 fff9                 IOST 0x6
00000557 ffe9                 IOSTR 0x6
00000558 ff54                 MOVAR 0x2b
00000559 e354                 BCR 0x2b, 0x1
0000055a fed4                 MOVR 0x2b, 0x0
0000055b fff9                 IOST 0x6
0000055c e7f9                 BSR 0x6, 0x0
0000055d e379                 BCR 0x6, 0x1
0000055e de9b                 MOVIA 0x64
0000055f d43d                 LCALL 0x3c2; _delay=0x3c2
00000560 d29d                 LCALL 0x562; _LedInput=0x562
00000561 ffef                 RET
00000562                      _LedInput:
00000562 ffea                 IOSTR 0x5
00000563 e0fc                 BCR 0x3, 0x6
00000564 ff55                 MOVAR 0x2a
00000565 e7d5                 BSR 0x2a, 0x0
00000566 fed5                 MOVR 0x2a, 0x0
00000567 fffa                 IOST 0x5
00000568 ffe9                 IOSTR 0x6
00000569 ff55                 MOVAR 0x2a
0000056a defc                 MOVIA 0x3
0000056b ee55                 IORAR 0x2a, 0x1
0000056c fed5                 MOVR 0x2a, 0x0
0000056d fff9                 IOST 0x6
0000056e e3fa                 BCR 0x5, 0x0
0000056f de03                 MOVIA 0xfc
00000570 ef79                 ANDAR 0x6, 0x1
00000571 ffef                 RET
00000572                      _ledShow:
00000572 e0fc                 BCR 0x3, 0x6
00000573 fe88                 MOVR 0x77, 0x0
00000574 f2fc                 BTRSC 0x3, 0x2
00000575 c27f                 LGOTO 0x580; main.o:_00315_DS_=0x580
00000576 fea4                 MOVR 0x5b, 0x0
00000577 f6fc                 BTRSS 0x3, 0x2
00000578 c27f                 LGOTO 0x580; main.o:_00315_DS_=0x580
00000579 f388                 BTRSC 0x77, 0x0
0000057a c282                 LGOTO 0x57d; main.o:_00312_DS_=0x57d
0000057b fd23                 CLRR 0x5c
0000057c c27f                 LGOTO 0x580; main.o:_00315_DS_=0x580
0000057d                      main.o:_00312_DS_:
0000057d e0fc                 BCR 0x3, 0x6
0000057e fe8b                 MOVR 0x74, 0x0
0000057f ff23                 MOVAR 0x5c
00000580                      main.o:_00315_DS_:
00000580 e0fc                 BCR 0x3, 0x6
00000581 fe92                 MOVR 0x6d, 0x0
00000582 f2fc                 BTRSC 0x3, 0x2
00000583 c26b                 LGOTO 0x594; main.o:_00323_DS_=0x594
00000584 fe9d                 MOVR 0x62, 0x0
00000585 f2fc                 BTRSC 0x3, 0x2
00000586 c26b                 LGOTO 0x594; main.o:_00323_DS_=0x594
00000587 fe92                 MOVR 0x6d, 0x0
00000588 f2fc                 BTRSC 0x3, 0x2
00000589 c26b                 LGOTO 0x594; main.o:_00323_DS_=0x594
0000058a def8                 MOVIA 0x7
0000058b fb9d                 SUBAR 0x62, 0x0
0000058c f7fc                 BTRSS 0x3, 0x0
0000058d c26e                 LGOTO 0x591; main.o:_00318_DS_=0x591
0000058e def9                 MOVIA 0x6
0000058f ff23                 MOVAR 0x5c
00000590 c26b                 LGOTO 0x594; main.o:_00323_DS_=0x594
00000591                      main.o:_00318_DS_:
00000591 e0fc                 BCR 0x3, 0x6
00000592 fe9d                 MOVR 0x62, 0x0
00000593 ff23                 MOVAR 0x5c
00000594                      main.o:_00323_DS_:
00000594 e0fc                 BCR 0x3, 0x6
00000595 fe8e                 MOVR 0x71, 0x0
00000596 f2fc                 BTRSC 0x3, 0x2
00000597 c258                 LGOTO 0x5a7; main.o:_00329_DS_=0x5a7
00000598 fea4                 MOVR 0x5b, 0x0
00000599 f2fc                 BTRSC 0x3, 0x2
0000059a c258                 LGOTO 0x5a7; main.o:_00329_DS_=0x5a7
0000059b fe9d                 MOVR 0x62, 0x0
0000059c f6fc                 BTRSS 0x3, 0x2
0000059d c258                 LGOTO 0x5a7; main.o:_00329_DS_=0x5a7
0000059e decd                 MOVIA 0x32
0000059f fb97                 SUBAR 0x68, 0x0
000005a0 f3fc                 BTRSC 0x3, 0x0
000005a1 c25a                 LGOTO 0x5a5; main.o:_00326_DS_=0x5a5
000005a2 fea4                 MOVR 0x5b, 0x0
000005a3 ff23                 MOVAR 0x5c
000005a4 c258                 LGOTO 0x5a7; main.o:_00329_DS_=0x5a7
000005a5                      main.o:_00326_DS_:
000005a5 e0fc                 BCR 0x3, 0x6
000005a6 fd23                 CLRR 0x5c
000005a7                      main.o:_00329_DS_:
000005a7 d29d                 LCALL 0x562; _LedInput=0x562
000005a8 def6                 MOVIA 0x9
000005a9 e0fc                 BCR 0x3, 0x6
000005aa fba3                 SUBAR 0x5c, 0x0
000005ab f3fc                 BTRSC 0x3, 0x0
000005ac c23a                 LGOTO 0x5c5; main.o:_00342_DS_=0x5c5
000005ad defa                 MOVIA 0x5
000005ae ff75                 MOVAR 0xa
000005af fea3                 MOVR 0x5c, 0x0
000005b0 da4b                 ADDIA 0xb4
000005b1 f3fc                 BTRSC 0x3, 0x0
000005b2 fa75                 INCR 0xa, 0x1
000005b3 ff7d                 MOVAR 0x2
000005b4                      main.o:_00383_DS_:
000005b4 c242                 LGOTO 0x5bd; main.o:_00332_DS_=0x5bd
000005b5 c23b                 LGOTO 0x5c4; main.o:_00340_DS_=0x5c4
000005b6 c23c                 LGOTO 0x5c3; main.o:_00339_DS_=0x5c3
000005b7 c23d                 LGOTO 0x5c2; main.o:_00338_DS_=0x5c2
000005b8 c23e                 LGOTO 0x5c1; main.o:_00337_DS_=0x5c1
000005b9 c23f                 LGOTO 0x5c0; main.o:_00336_DS_=0x5c0
000005ba c240                 LGOTO 0x5bf; main.o:_00335_DS_=0x5bf
000005bb c240                 LGOTO 0x5bf; main.o:_00335_DS_=0x5bf
000005bc c240                 LGOTO 0x5bf; main.o:_00335_DS_=0x5bf
000005bd                      main.o:_00332_DS_:
000005bd d29d                 LCALL 0x562; _LedInput=0x562
000005be c23a                 LGOTO 0x5c5; main.o:_00342_DS_=0x5c5
000005bf                      main.o:_00335_DS_:
000005bf d303                 LCALL 0x4fc; _LED6ON=0x4fc
000005c0                      main.o:_00336_DS_:
000005c0 d2f2                 LCALL 0x50d; _LED5ON=0x50d
000005c1                      main.o:_00337_DS_:
000005c1 d2e1                 LCALL 0x51e; _LED4ON=0x51e
000005c2                      main.o:_00338_DS_:
000005c2 d2d0                 LCALL 0x52f; _LED3ON=0x52f
000005c3                      main.o:_00339_DS_:
000005c3 d2bf                 LCALL 0x540; _LED2ON=0x540
000005c4                      main.o:_00340_DS_:
000005c4 d2ae                 LCALL 0x551; _LED1ON=0x551
000005c5                      main.o:_00342_DS_:
000005c5 ffef                 RET
000005c6                      _initSys:
000005c6 ffec                 DISI
000005c7 de41                 MOVIA 0xbe
000005c8 fffa                 IOST 0x5
000005c9 def7                 MOVIA 0x8
000005ca fff9                 IOST 0x6
000005cb fd79                 CLRR 0x6
000005cc e0fc                 BCR 0x3, 0x6
000005cd fd7a                 CLRR 0x5
000005ce d29d                 LCALL 0x562; _LedInput=0x562
000005cf de80                 MOVIA 0x7f
000005d0 fff6                 IOST 0x9
000005d1 de00                 MOVIA 0xff
000005d2 ff73                 MOVAR 0xc
000005d3 ff74                 MOVAR 0xb
000005d4 defe                 MOVIA 0x1
000005d5 ff71                 MOVAR 0xe
000005d6 fdff                 CLRA
000005d7 fff0                 IOST 0xf
000005d8 dec8                 MOVIA 0x37
000005d9 ff7e                 MOVAR 0x1
000005da defe                 MOVIA 0x1
000005db fffc                 T0MD
000005dc fff0                 IOST 0xf
000005dd de67                 MOVIA 0x98
000005de ff77                 MOVAR 0x8
000005df defe                 MOVIA 0x1
000005e0 fff0                 IOST 0xf
000005e1 fffb                 ENI
000005e2 ffef                 RET
000005e3                      _powerOff:
000005e3 e0fc                 BCR 0x3, 0x6
000005e4 fd24                 CLRR 0x5b
000005e5 d323                 LCALL 0x4dc; _pwmStop=0x4dc
000005e6 ffef                 RET
000005e7                      _keyCtr:
000005e7 e0fc                 BCR 0x3, 0x6
000005e8 f8fa                 COMR 0x5, 0x0
000005e9 ff56                 MOVAR 0x29
000005ea de7f                 MOVIA 0x80
000005eb ef56                 ANDAR 0x29, 0x1
000005ec fed6                 MOVR 0x29, 0x0
000005ed d376                 LCALL 0x489; _keyRead=0x489
000005ee e0fc                 BCR 0x3, 0x6
000005ef ff56                 MOVAR 0x29
000005f0 dbfe                 XORIA 0x1
000005f1 f6fc                 BTRSS 0x3, 0x2
000005f2 c1b8                 LGOTO 0x647; main.o:_00296_DS_=0x647
000005f3 fd26                 CLRR 0x59
000005f4 fd12                 CLRR 0x6d
000005f5 fea4                 MOVR 0x5b, 0x0
000005f6 f6fc                 BTRSS 0x3, 0x2
000005f7 c202                 LGOTO 0x5fd; main.o:_00262_DS_=0x5fd
000005f8 fd17                 CLRR 0x68
000005f9 defc                 MOVIA 0x3
000005fa ff12                 MOVAR 0x6d
000005fb fd03                 CLRR 0x7c
000005fc c193                 LGOTO 0x66c; main.o:_00298_DS_=0x66c
000005fd                      main.o:_00262_DS_:
000005fd e0fc                 BCR 0x3, 0x6
000005fe fd14                 CLRR 0x6b
000005ff fa24                 INCR 0x5b, 0x1
00000600 def8                 MOVIA 0x7
00000601 fba4                 SUBAR 0x5b, 0x0
00000602 f7fc                 BTRSS 0x3, 0x0
00000603 c1f9                 LGOTO 0x606; main.o:_00264_DS_=0x606
00000604 defe                 MOVIA 0x1
00000605 ff24                 MOVAR 0x5b
00000606                      main.o:_00264_DS_:
00000606 e0fc                 BCR 0x3, 0x6
00000607 fe9d                 MOVR 0x62, 0x0
00000608 f6fc                 BTRSS 0x3, 0x2
00000609 c1f3                 LGOTO 0x60c; main.o:_00266_DS_=0x60c
0000060a def5                 MOVIA 0xa
0000060b ff0e                 MOVAR 0x71
0000060c                      main.o:_00266_DS_:
0000060c e0fc                 BCR 0x3, 0x6
0000060d fea4                 MOVR 0x5b, 0x0
0000060e dbfe                 XORIA 0x1
0000060f f6fc                 BTRSS 0x3, 0x2
00000610 c1ea                 LGOTO 0x615; main.o:_00282_DS_=0x615
00000611 deb6                 MOVIA 0x49
00000612 ff1e                 MOVAR 0x61
00000613 fd12                 CLRR 0x6d
00000614 c1c3                 LGOTO 0x63c; main.o:_00283_DS_=0x63c
00000615                      main.o:_00282_DS_:
00000615 e0fc                 BCR 0x3, 0x6
00000616 fea4                 MOVR 0x5b, 0x0
00000617 dbfd                 XORIA 0x2
00000618 f6fc                 BTRSS 0x3, 0x2
00000619 c1e2                 LGOTO 0x61d; main.o:_00279_DS_=0x61d
0000061a deb0                 MOVIA 0x4f
0000061b ff1e                 MOVAR 0x61
0000061c c1c3                 LGOTO 0x63c; main.o:_00283_DS_=0x63c
0000061d                      main.o:_00279_DS_:
0000061d e0fc                 BCR 0x3, 0x6
0000061e fea4                 MOVR 0x5b, 0x0
0000061f dbfc                 XORIA 0x3
00000620 f6fc                 BTRSS 0x3, 0x2
00000621 c1da                 LGOTO 0x625; main.o:_00276_DS_=0x625
00000622 deab                 MOVIA 0x54
00000623 ff1e                 MOVAR 0x61
00000624 c1c3                 LGOTO 0x63c; main.o:_00283_DS_=0x63c
00000625                      main.o:_00276_DS_:
00000625 e0fc                 BCR 0x3, 0x6
00000626 fea4                 MOVR 0x5b, 0x0
00000627 dbfb                 XORIA 0x4
00000628 f6fc                 BTRSS 0x3, 0x2
00000629 c1d2                 LGOTO 0x62d; main.o:_00273_DS_=0x62d
0000062a dea6                 MOVIA 0x59
0000062b ff1e                 MOVAR 0x61
0000062c c1c3                 LGOTO 0x63c; main.o:_00283_DS_=0x63c
0000062d                      main.o:_00273_DS_:
0000062d e0fc                 BCR 0x3, 0x6
0000062e fea4                 MOVR 0x5b, 0x0
0000062f dbfa                 XORIA 0x5
00000630 f6fc                 BTRSS 0x3, 0x2
00000631 c1ca                 LGOTO 0x635; main.o:_00270_DS_=0x635
00000632 dea1                 MOVIA 0x5e
00000633 ff1e                 MOVAR 0x61
00000634 c1c3                 LGOTO 0x63c; main.o:_00283_DS_=0x63c
00000635                      main.o:_00270_DS_:
00000635 e0fc                 BCR 0x3, 0x6
00000636 fea4                 MOVR 0x5b, 0x0
00000637 dbf9                 XORIA 0x6
00000638 f6fc                 BTRSS 0x3, 0x2
00000639 c1c3                 LGOTO 0x63c; main.o:_00283_DS_=0x63c
0000063a de9b                 MOVIA 0x64
0000063b ff1e                 MOVAR 0x61
0000063c                      main.o:_00283_DS_:
0000063c e0fc                 BCR 0x3, 0x6
0000063d fea4                 MOVR 0x5b, 0x0
0000063e f2fc                 BTRSC 0x3, 0x2
0000063f c1bc                 LGOTO 0x643; main.o:_00285_DS_=0x643
00000640 fe9e                 MOVR 0x61, 0x0
00000641 ffb3                 SFUN 0xc
00000642 d320                 LCALL 0x4df; _pwmInit=0x4df
00000643                      main.o:_00285_DS_:
00000643 e0fc                 BCR 0x3, 0x6
00000644 fea4                 MOVR 0x5b, 0x0
00000645 ff23                 MOVAR 0x5c
00000646 c193                 LGOTO 0x66c; main.o:_00298_DS_=0x66c
00000647                      main.o:_00296_DS_:
00000647 e0fc                 BCR 0x3, 0x6
00000648 fed6                 MOVR 0x29, 0x0
00000649 dbfd                 XORIA 0x2
0000064a f6fc                 BTRSS 0x3, 0x2
0000064b c193                 LGOTO 0x66c; main.o:_00298_DS_=0x66c
0000064c fea4                 MOVR 0x5b, 0x0
0000064d f2fc                 BTRSC 0x3, 0x2
0000064e c1ae                 LGOTO 0x651; main.o:_00291_DS_=0x651
0000064f d21c                 LCALL 0x5e3; _powerOff=0x5e3
00000650 c196                 LGOTO 0x669; main.o:_00292_DS_=0x669
00000651                      main.o:_00291_DS_:
00000651 e0fc                 BCR 0x3, 0x6
00000652 fe9d                 MOVR 0x62, 0x0
00000653 dbf5                 XORIA 0xa
00000654 f6fc                 BTRSS 0x3, 0x2
00000655 c1a6                 LGOTO 0x659; main.o:_00287_DS_=0x659
00000656 fd1a                 CLRR 0x65
00000657 fd19                 CLRR 0x66
00000658 c193                 LGOTO 0x66c; main.o:_00298_DS_=0x66c
00000659                      main.o:_00287_DS_:
00000659 e0fc                 BCR 0x3, 0x6
0000065a fd12                 CLRR 0x6d
0000065b defe                 MOVIA 0x1
0000065c ff23                 MOVAR 0x5c
0000065d ff24                 MOVAR 0x5b
0000065e deb6                 MOVIA 0x49
0000065f ffb3                 SFUN 0xc
00000660 ff11                 MOVAR 0x6e
00000661 ff1e                 MOVAR 0x61
00000662 d320                 LCALL 0x4df; _pwmInit=0x4df
00000663 e0fc                 BCR 0x3, 0x6
00000664 fe9d                 MOVR 0x62, 0x0
00000665 f6fc                 BTRSS 0x3, 0x2
00000666 c196                 LGOTO 0x669; main.o:_00292_DS_=0x669
00000667 def5                 MOVIA 0xa
00000668 ff0e                 MOVAR 0x71
00000669                      main.o:_00292_DS_:
00000669 e0fc                 BCR 0x3, 0x6
0000066a fea4                 MOVR 0x5b, 0x0
0000066b ff23                 MOVAR 0x5c
0000066c                      main.o:_00298_DS_:
0000066c ffef                 RET
0000066d                      ___cinit_load__:
