00000000 c7fe                 LGOTO 0x1; __nyc_ny8_startup=0x1
00000001                      __nyc_ny8_startup:
00000001 d5a2                 LCALL 0x25d; ___cinit_load__=0x25d
00000002 c7c1                 LGOTO 0x3e; _main=0x3e
00000003                      crt0.o:crt0_end:
00000003 fdff                 CLRA
00000004 ffde                 SFUN 0x1
00000005 e0fb                 BCR 0x4, 0x6
00000006 e1d5                 BCR 0x2a, 0x4
00000007 ffef                 RET
00000008 c7f6                 LGOTO 0x9; main.o:__sdcc_interrupt=0x9
00000009                      main.o:__sdcc_interrupt:
00000009 ff5d                 MOVAR 0x22
0000000a eafc                 SWAPR 0x3, 0x0
0000000b fd7c                 CLRR 0x3
0000000c ff5e                 MOVAR 0x21
0000000d fef5                 MOVR 0xa, 0x0
0000000e fd75                 CLRR 0xa
0000000f ff5f                 MOVAR 0x20
00000010 fefb                 MOVR 0x4, 0x0
00000011 e0fb                 BCR 0x4, 0x6
00000012 ff58                 MOVAR 0x27
00000013 feda                 MOVR 0x25, 0x0
00000014 ff57                 MOVAR 0x28
00000015 fedb                 MOVR 0x24, 0x0
00000016 ff56                 MOVAR 0x29
00000017 f7f0                 BTRSS 0xf, 0x0
00000018 c7d5                 LGOTO 0x2a; main.o:_00108_DS_=0x2a
00000019 dec8                 MOVIA 0x37
0000001a fc7e                 ADDAR 0x1, 0x1
0000001b fa52                 INCR 0x2d, 0x1
0000001c f2fc                 BTRSC 0x3, 0x2
0000001d fa51                 INCR 0x2e, 0x1
0000001e ded8                 MOVIA 0x27
0000001f fbd1                 SUBAR 0x2e, 0x0
00000020 f6fc                 BTRSS 0x3, 0x2
00000021 c7db                 LGOTO 0x24; main.o:_00122_DS_=0x24
00000022 deef                 MOVIA 0x10
00000023 fbd2                 SUBAR 0x2d, 0x0
00000024                      main.o:_00122_DS_:
00000024 f7fc                 BTRSS 0x3, 0x0
00000025 c7d5                 LGOTO 0x2a; main.o:_00108_DS_=0x2a
00000026 e0fb                 BCR 0x4, 0x6
00000027                      ___cinit_size__:
00000027 e7d5                 BSR 0x2a, 0x0
00000028 fd52                 CLRR 0x2d
00000029 fd51                 CLRR 0x2e
0000002a                      main.o:_00108_DS_:
0000002a f770                 BTRSS 0xf, 0x1
0000002b c7d1                 LGOTO 0x2e; main.o:_00110_DS_=0x2e
0000002c de02                 MOVIA 0xfd
0000002d ff70                 MOVAR 0xf
0000002e                      main.o:_00110_DS_:
0000002e fd70                 CLRR 0xf
0000002f e0fb                 BCR 0x4, 0x6
00000030 fed6                 MOVR 0x29, 0x0
00000031 ff5b                 MOVAR 0x24
00000032 fed7                 MOVR 0x28, 0x0
00000033 ff5a                 MOVAR 0x25
00000034 fed8                 MOVR 0x27, 0x0
00000035 ff7b                 MOVAR 0x4
00000036 fedf                 MOVR 0x20, 0x0
00000037 ff75                 MOVAR 0xa
00000038 fd7c                 CLRR 0x3
00000039 eade                 SWAPR 0x21, 0x0
0000003a ff7c                 MOVAR 0x3
0000003b ea5d                 SWAPR 0x22, 0x1
0000003c eadd                 SWAPR 0x22, 0x0
0000003d                      main.o:END_OF_INTERRUPT:
0000003d ffee                 RETIE
0000003e                      _main:
0000003e d646                 LCALL 0x1b9; _initSys=0x1b9
0000003f                      main.o:_00132_DS_:
0000003f fffd                 CLRWDT
00000040 de9b                 MOVIA 0x64
00000041 ff5c                 MOVAR 0x23
00000042 deff                 MOVIA 0x0
00000043 ff5b                 MOVAR 0x24
00000044 e0fb                 BCR 0x4, 0x6
00000045 fed2                 MOVR 0x2d, 0x0
00000046 ff5a                 MOVAR 0x25
00000047 fed1                 MOVR 0x2e, 0x0
00000048 d5db                 LCALL 0x224; __moduint=0x224
00000049 eeda                 IORAR 0x25, 0x0
0000004a f2fc                 BTRSC 0x3, 0x2
0000004b d626                 LCALL 0x1d9; _task1=0x1d9
0000004c de77                 MOVIA 0x88
0000004d ff5c                 MOVAR 0x23
0000004e deec                 MOVIA 0x13
0000004f ff5b                 MOVAR 0x24
00000050 e0fb                 BCR 0x4, 0x6
00000051 fed2                 MOVR 0x2d, 0x0
00000052 ff5a                 MOVAR 0x25
00000053 fed1                 MOVR 0x2e, 0x0
00000054 d5db                 LCALL 0x224; __moduint=0x224
00000055 eeda                 IORAR 0x25, 0x0
00000056 f6fc                 BTRSS 0x3, 0x2
00000057 c7c0                 LGOTO 0x3f; main.o:_00132_DS_=0x3f
00000058 d62b                 LCALL 0x1d4; _task2=0x1d4
00000059 c7c0                 LGOTO 0x3f; main.o:_00132_DS_=0x3f
0000005a ffef                 RET
0000005b                      _gotoSleep:
0000005b e0fb                 BCR 0x4, 0x6
0000005c fd4e                 CLRR 0x31
0000005d d6c2                 LCALL 0x13d; _workStop=0x13d
0000005e e0fb                 BCR 0x4, 0x6
0000005f fd50                 CLRR 0x2f
00000060 dee7                 MOVIA 0x18
00000061 ff76                 MOVAR 0x9
00000062 def4                 MOVIA 0xb
00000063 ff71                 MOVAR 0xe
00000064 def7                 MOVIA 0x8
00000065 ff77                 MOVAR 0x8
00000066 fd70                 CLRR 0xf
00000067 fffd                 CLRWDT
00000068 fffb                 ENI
00000069 fffe                 SLEEP
0000006a fd76                 CLRR 0x9
0000006b defe                 MOVIA 0x1
0000006c ff71                 MOVAR 0xe
0000006d fd70                 CLRR 0xf
0000006e de77                 MOVIA 0x88
0000006f ff77                 MOVAR 0x8
00000070 ffef                 RET
00000071                      _pwm1Init:
00000071 e0fb                 BCR 0x4, 0x6
00000072 f1d5                 BTRSC 0x2a, 0x4
00000073 c783                 LGOTO 0x7c; main.o:_00287_DS_=0x7c
00000074                      main.o:_00286_DS_:
00000074 e0fb                 BCR 0x4, 0x6
00000075 e5d5                 BSR 0x2a, 0x4
00000076 de38                 MOVIA 0xc7
00000077 ffdf                 SFUN 0x0
00000078 def8                 MOVIA 0x7
00000079 ffdd                 SFUN 0x2
0000007a de7c                 MOVIA 0x83
0000007b ffde                 SFUN 0x1
0000007c                      main.o:_00287_DS_:
0000007c ffef                 RET
0000007d                      _keyCtr:
0000007d f8f9                 COMR 0x6, 0x0
0000007e e0fb                 BCR 0x4, 0x6
0000007f ff6a                 MOVAR 0x15
00000080 def7                 MOVIA 0x8
00000081 ef6a                 ANDAR 0x15, 0x1
00000082 feea                 MOVR 0x15, 0x0
00000083 d6f0                 LCALL 0x10f; _keyRead=0x10f
00000084 e0fb                 BCR 0x4, 0x6
00000085 ff6a                 MOVAR 0x15
00000086 dbfe                 XORIA 0x1
00000087 f6fc                 BTRSS 0x3, 0x2
00000088 c744                 LGOTO 0xbb; main.o:_00272_DS_=0xbb
00000089 f6d5                 BTRSS 0x2a, 0x2
0000008a c744                 LGOTO 0xbb; main.o:_00272_DS_=0xbb
0000008b fd4e                 CLRR 0x31
0000008c fa50                 INCR 0x2f, 0x1
0000008d defa                 MOVIA 0x5
0000008e fbd0                 SUBAR 0x2f, 0x0
0000008f f7fc                 BTRSS 0x3, 0x0
00000090 c76c                 LGOTO 0x93; main.o:_00251_DS_=0x93
00000091 defe                 MOVIA 0x1
00000092 ff50                 MOVAR 0x2f
00000093                      main.o:_00251_DS_:
00000093 e0fb                 BCR 0x4, 0x6
00000094 fed0                 MOVR 0x2f, 0x0
00000095 dbfe                 XORIA 0x1
00000096 f6fc                 BTRSS 0x3, 0x2
00000097 c762                 LGOTO 0x9d; main.o:_00261_DS_=0x9d
00000098 de87                 MOVIA 0x78
00000099 ff49                 MOVAR 0x36
0000009a defa                 MOVIA 0x5
0000009b ff48                 MOVAR 0x37
0000009c c71f                 LGOTO 0xe0; main.o:_00273_DS_=0xe0
0000009d                      main.o:_00261_DS_:
0000009d e0fb                 BCR 0x4, 0x6
0000009e fed0                 MOVR 0x2f, 0x0
0000009f dbfd                 XORIA 0x2
000000a0 f6fc                 BTRSS 0x3, 0x2
000000a1 c758                 LGOTO 0xa7; main.o:_00258_DS_=0xa7
000000a2 deaf                 MOVIA 0x50
000000a3 ff49                 MOVAR 0x36
000000a4 def5                 MOVIA 0xa
000000a5 ff48                 MOVAR 0x37
000000a6 c71f                 LGOTO 0xe0; main.o:_00273_DS_=0xe0
000000a7                      main.o:_00258_DS_:
000000a7 e0fb                 BCR 0x4, 0x6
000000a8 fed0                 MOVR 0x2f, 0x0
000000a9 dbfc                 XORIA 0x3
000000aa f6fc                 BTRSS 0x3, 0x2
000000ab c74e                 LGOTO 0xb1; main.o:_00255_DS_=0xb1
000000ac ded7                 MOVIA 0x28
000000ad ff49                 MOVAR 0x36
000000ae def5                 MOVIA 0xa
000000af ff48                 MOVAR 0x37
000000b0 c71f                 LGOTO 0xe0; main.o:_00273_DS_=0xe0
000000b1                      main.o:_00255_DS_:
000000b1 e0fb                 BCR 0x4, 0x6
000000b2 fed0                 MOVR 0x2f, 0x0
000000b3 dbfb                 XORIA 0x4
000000b4 f6fc                 BTRSS 0x3, 0x2
000000b5 c71f                 LGOTO 0xe0; main.o:_00273_DS_=0xe0
000000b6 dec3                 MOVIA 0x3c
000000b7 ff49                 MOVAR 0x36
000000b8 deeb                 MOVIA 0x14
000000b9 ff48                 MOVAR 0x37
000000ba c71f                 LGOTO 0xe0; main.o:_00273_DS_=0xe0
000000bb                      main.o:_00272_DS_:
000000bb e0fb                 BCR 0x4, 0x6
000000bc feea                 MOVR 0x15, 0x0
000000bd dbfd                 XORIA 0x2
000000be f6fc                 BTRSS 0x3, 0x2
000000bf c71f                 LGOTO 0xe0; main.o:_00273_DS_=0xe0
000000c0 fd4e                 CLRR 0x31
000000c1 f6d5                 BTRSS 0x2a, 0x2
000000c2 c73a                 LGOTO 0xc5; main.o:_00264_DS_=0xc5
000000c3 defd                 MOVIA 0x2
000000c4 ff44                 MOVAR 0x3b
000000c5                      main.o:_00264_DS_:
000000c5 defb                 MOVIA 0x4
000000c6 e0fb                 BCR 0x4, 0x6
000000c7 ed55                 XORAR 0x2a, 0x1
000000c8 fef9                 MOVR 0x6, 0x0
000000c9 ff6a                 MOVAR 0x15
000000ca fd69                 CLRR 0x16
000000cb f8ea                 COMR 0x15, 0x0
000000cc ff6a                 MOVAR 0x15
000000cd f8e9                 COMR 0x16, 0x0
000000ce ff69                 MOVAR 0x16
000000cf f5ea                 BTRSS 0x15, 0x4
000000d0 c72d                 LGOTO 0xd2; main.o:_00001_DS_=0xd2
000000d1 e2d5                 BCR 0x2a, 0x2
000000d2                      main.o:_00001_DS_:
000000d2 e0fb                 BCR 0x4, 0x6
000000d3 f6d5                 BTRSS 0x2a, 0x2
000000d4 c71f                 LGOTO 0xe0; main.o:_00273_DS_=0xe0
000000d5 dea7                 MOVIA 0x58
000000d6 ff4b                 MOVAR 0x34
000000d7 defd                 MOVIA 0x2
000000d8 ff4a                 MOVAR 0x35
000000d9 defe                 MOVIA 0x1
000000da ff50                 MOVAR 0x2f
000000db ff4f                 MOVAR 0x30
000000dc de87                 MOVIA 0x78
000000dd ff49                 MOVAR 0x36
000000de dee1                 MOVIA 0x1e
000000df ff48                 MOVAR 0x37
000000e0                      main.o:_00273_DS_:
000000e0 f8fa                 COMR 0x5, 0x0
000000e1 e0fb                 BCR 0x4, 0x6
000000e2 ff6a                 MOVAR 0x15
000000e3 defe                 MOVIA 0x1
000000e4 ef6a                 ANDAR 0x15, 0x1
000000e5 feea                 MOVR 0x15, 0x0
000000e6 d709                 LCALL 0xf6; _keyRead2=0xf6
000000e7 e0fb                 BCR 0x4, 0x6
000000e8 ff6a                 MOVAR 0x15
000000e9 feea                 MOVR 0x15, 0x0
000000ea f2fc                 BTRSC 0x3, 0x2
000000eb c70a                 LGOTO 0xf5; main.o:_00280_DS_=0xf5
000000ec f6d5                 BTRSS 0x2a, 0x2
000000ed c70a                 LGOTO 0xf5; main.o:_00280_DS_=0xf5
000000ee fa4f                 INCR 0x30, 0x1
000000ef defb                 MOVIA 0x4
000000f0 fbcf                 SUBAR 0x30, 0x0
000000f1 f7fc                 BTRSS 0x3, 0x0
000000f2 c70a                 LGOTO 0xf5; main.o:_00280_DS_=0xf5
000000f3 defe                 MOVIA 0x1
000000f4 ff4f                 MOVAR 0x30
000000f5                      main.o:_00280_DS_:
000000f5 ffef                 RET
000000f6                      _keyRead2:
000000f6 e0fb                 BCR 0x4, 0x6
000000f7 ff6b                 MOVAR 0x14
000000f8 feeb                 MOVR 0x14, 0x0
000000f9 f2fc                 BTRSC 0x3, 0x2
000000fa c6fc                 LGOTO 0x103; main.o:_00243_DS_=0x103
000000fb fa4d                 INCR 0x32, 0x1
000000fc de9b                 MOVIA 0x64
000000fd fbcd                 SUBAR 0x32, 0x0
000000fe f7fc                 BTRSS 0x3, 0x0
000000ff c6f2                 LGOTO 0x10d; main.o:_00244_DS_=0x10d
00000100 de9b                 MOVIA 0x64
00000101 ff4d                 MOVAR 0x32
00000102 c6f2                 LGOTO 0x10d; main.o:_00244_DS_=0x10d
00000103                      main.o:_00243_DS_:
00000103 def5                 MOVIA 0xa
00000104 e0fb                 BCR 0x4, 0x6
00000105 fbcd                 SUBAR 0x32, 0x0
00000106 f7fc                 BTRSS 0x3, 0x0
00000107 c6f4                 LGOTO 0x10b; main.o:_00241_DS_=0x10b
00000108 fd4d                 CLRR 0x32
00000109 defe                 MOVIA 0x1
0000010a c6f1                 LGOTO 0x10e; main.o:_00245_DS_=0x10e
0000010b                      main.o:_00241_DS_:
0000010b e0fb                 BCR 0x4, 0x6
0000010c fd4d                 CLRR 0x32
0000010d                      main.o:_00244_DS_:
0000010d deff                 MOVIA 0x0
0000010e                      main.o:_00245_DS_:
0000010e ffef                 RET
0000010f                      _keyRead:
0000010f e0fb                 BCR 0x4, 0x6
00000110 ff6b                 MOVAR 0x14
00000111 feeb                 MOVR 0x14, 0x0
00000112 f2fc                 BTRSC 0x3, 0x2
00000113 c6dd                 LGOTO 0x122; main.o:_00231_DS_=0x122
00000114 fa53                 INCR 0x2c, 0x1
00000115 feeb                 MOVR 0x14, 0x0
00000116 ff54                 MOVAR 0x2b
00000117 de9b                 MOVIA 0x64
00000118 fbd3                 SUBAR 0x2c, 0x0
00000119 f7fc                 BTRSS 0x3, 0x0
0000011a c6ca                 LGOTO 0x135; main.o:_00232_DS_=0x135
0000011b de9b                 MOVIA 0x64
0000011c ff53                 MOVAR 0x2c
0000011d f355                 BTRSC 0x2a, 0x1
0000011e c6ca                 LGOTO 0x135; main.o:_00232_DS_=0x135
0000011f e755                 BSR 0x2a, 0x1
00000120 defd                 MOVIA 0x2
00000121 c6c9                 LGOTO 0x136; main.o:_00233_DS_=0x136
00000122                      main.o:_00231_DS_:
00000122 de9b                 MOVIA 0x64
00000123 e0fb                 BCR 0x4, 0x6
00000124 fbd3                 SUBAR 0x2c, 0x0
00000125 f7fc                 BTRSS 0x3, 0x0
00000126 c6d4                 LGOTO 0x12b; main.o:_00228_DS_=0x12b
00000127 fd53                 CLRR 0x2c
00000128 e355                 BCR 0x2a, 0x1
00000129 deff                 MOVIA 0x0
0000012a c6c9                 LGOTO 0x136; main.o:_00233_DS_=0x136
0000012b                      main.o:_00228_DS_:
0000012b def5                 MOVIA 0xa
0000012c e0fb                 BCR 0x4, 0x6
0000012d fbd3                 SUBAR 0x2c, 0x0
0000012e f7fc                 BTRSS 0x3, 0x0
0000012f c6cc                 LGOTO 0x133; main.o:_00229_DS_=0x133
00000130 fd53                 CLRR 0x2c
00000131 defe                 MOVIA 0x1
00000132 c6c9                 LGOTO 0x136; main.o:_00233_DS_=0x136
00000133                      main.o:_00229_DS_:
00000133 e0fb                 BCR 0x4, 0x6
00000134 fd53                 CLRR 0x2c
00000135                      main.o:_00232_DS_:
00000135 deff                 MOVIA 0x0
00000136                      main.o:_00233_DS_:
00000136 ffef                 RET
00000137                      _fanzhuan:
00000137 e3f9                 BCR 0x6, 0x0
00000138 e779                 BSR 0x6, 0x1
00000139 ffef                 RET
0000013a                      _zhengzhuan:
0000013a e379                 BCR 0x6, 0x1
0000013b e7f9                 BSR 0x6, 0x0
0000013c ffef                 RET
0000013d                      _workStop:
0000013d d7fc                 LCALL 0x3; crt0.o:crt0_end=0x3
0000013e e0fb                 BCR 0x4, 0x6
0000013f fec4                 MOVR 0x3b, 0x0
00000140 f2fc                 BTRSC 0x3, 0x2
00000141 c6ba                 LGOTO 0x145; main.o:_00207_DS_=0x145
00000142 dedf                 MOVIA 0x20
00000143 ff79                 MOVAR 0x6
00000144 c6b9                 LGOTO 0x146; main.o:_00208_DS_=0x146
00000145                      main.o:_00207_DS_:
00000145 fd79                 CLRR 0x6
00000146                      main.o:_00208_DS_:
00000146 fd7a                 CLRR 0x5
00000147 e0fb                 BCR 0x4, 0x6
00000148 e2d5                 BCR 0x2a, 0x2
00000149 fd50                 CLRR 0x2f
0000014a fd4f                 CLRR 0x30
0000014b ffef                 RET
0000014c                      _workCtr:
0000014c e0fb                 BCR 0x4, 0x6
0000014d fecf                 MOVR 0x30, 0x0
0000014e f2fc                 BTRSC 0x3, 0x2
0000014f c6a8                 LGOTO 0x157; main.o:_00168_DS_=0x157
00000150 dec3                 MOVIA 0x3c
00000151 ff5a                 MOVAR 0x25
00000152 fecf                 MOVR 0x30, 0x0
00000153 d5f4                 LCALL 0x20b; __mulchar=0x20b
00000154 e0fb                 BCR 0x4, 0x6
00000155 ff6d                 MOVAR 0x12
00000156 ffdc                 SFUN 0x3
00000157                      main.o:_00168_DS_:
00000157 e0fb                 BCR 0x4, 0x6
00000158 fed0                 MOVR 0x2f, 0x0
00000159 f2fc                 BTRSC 0x3, 0x2
0000015a c683                 LGOTO 0x17c; main.o:_00182_DS_=0x17c
0000015b fec7                 MOVR 0x38, 0x0
0000015c f2fc                 BTRSC 0x3, 0x2
0000015d c696                 LGOTO 0x169; main.o:_00179_DS_=0x169
0000015e fecc                 MOVR 0x33, 0x0
0000015f f6fc                 BTRSS 0x3, 0x2
00000160 c69d                 LGOTO 0x162; main.o:_00002_DS_=0x162
00000161 f947                 DECR 0x38, 0x1
00000162                      main.o:_00002_DS_:
00000162 e0fb                 BCR 0x4, 0x6
00000163 fec8                 MOVR 0x37, 0x0
00000164 ff46                 MOVAR 0x39
00000165 def1                 MOVIA 0xe
00000166 ee7a                 IORAR 0x5, 0x1
00000167 d78e                 LCALL 0x71; _pwm1Init=0x71
00000168 c683                 LGOTO 0x17c; main.o:_00182_DS_=0x17c
00000169                      main.o:_00179_DS_:
00000169 de0e                 MOVIA 0xf1
0000016a ef7a                 ANDAR 0x5, 0x1
0000016b d7fc                 LCALL 0x3; crt0.o:crt0_end=0x3
0000016c e0fb                 BCR 0x4, 0x6
0000016d fec6                 MOVR 0x39, 0x0
0000016e f2fc                 BTRSC 0x3, 0x2
0000016f c686                 LGOTO 0x179; main.o:_00176_DS_=0x179
00000170 fecc                 MOVR 0x33, 0x0
00000171 f6fc                 BTRSS 0x3, 0x2
00000172 c68b                 LGOTO 0x174; main.o:_00003_DS_=0x174
00000173 e846                 DECRSZ 0x39, 0x1
00000174                      main.o:_00003_DS_:
00000174 c683                 LGOTO 0x17c; main.o:_00182_DS_=0x17c
00000175 e0fb                 BCR 0x4, 0x6
00000176 fec9                 MOVR 0x36, 0x0
00000177 ff47                 MOVAR 0x38
00000178 c683                 LGOTO 0x17c; main.o:_00182_DS_=0x17c
00000179                      main.o:_00176_DS_:
00000179 e0fb                 BCR 0x4, 0x6
0000017a fec9                 MOVR 0x36, 0x0
0000017b ff47                 MOVAR 0x38
0000017c                      main.o:_00182_DS_:
0000017c e0fb                 BCR 0x4, 0x6
0000017d fa45                 INCR 0x3a, 0x1
0000017e fef9                 MOVR 0x6, 0x0
0000017f ff6d                 MOVAR 0x12
00000180 fd6c                 CLRR 0x13
00000181 f8ed                 COMR 0x12, 0x0
00000182 ff6d                 MOVAR 0x12
00000183 f8ec                 COMR 0x13, 0x0
00000184 ff6c                 MOVAR 0x13
00000185 f46d                 BTRSS 0x12, 0x7
00000186 c672                 LGOTO 0x18d; main.o:_00190_DS_=0x18d
00000187 f255                 BTRSC 0x2a, 0x3
00000188 c675                 LGOTO 0x18a; main.o:_00004_DS_=0x18a
00000189 fd45                 CLRR 0x3a
0000018a                      main.o:_00004_DS_:
0000018a e0fb                 BCR 0x4, 0x6
0000018b e655                 BSR 0x2a, 0x3
0000018c c663                 LGOTO 0x19c; main.o:_00191_DS_=0x19c
0000018d                      main.o:_00190_DS_:
0000018d fef9                 MOVR 0x6, 0x0
0000018e e0fb                 BCR 0x4, 0x6
0000018f ff6d                 MOVAR 0x12
00000190 fd6c                 CLRR 0x13
00000191 f8ed                 COMR 0x12, 0x0
00000192 ff6d                 MOVAR 0x12
00000193 f8ec                 COMR 0x13, 0x0
00000194 ff6c                 MOVAR 0x13
00000195 f4ed                 BTRSS 0x12, 0x6
00000196 c663                 LGOTO 0x19c; main.o:_00191_DS_=0x19c
00000197 f655                 BTRSS 0x2a, 0x3
00000198 c665                 LGOTO 0x19a; main.o:_00005_DS_=0x19a
00000199 fd45                 CLRR 0x3a
0000019a                      main.o:_00005_DS_:
0000019a e0fb                 BCR 0x4, 0x6
0000019b e255                 BCR 0x2a, 0x3
0000019c                      main.o:_00191_DS_:
0000019c decd                 MOVIA 0x32
0000019d e0fb                 BCR 0x4, 0x6
0000019e fbc5                 SUBAR 0x3a, 0x0
0000019f f3fc                 BTRSC 0x3, 0x0
000001a0 c65c                 LGOTO 0x1a3; main.o:_00193_DS_=0x1a3
000001a1 de03                 MOVIA 0xfc
000001a2 ef79                 ANDAR 0x6, 0x1
000001a3                      main.o:_00193_DS_:
000001a3 e0fb                 BCR 0x4, 0x6
000001a4 f655                 BTRSS 0x2a, 0x3
000001a5 c650                 LGOTO 0x1af; main.o:_00199_DS_=0x1af
000001a6 decc                 MOVIA 0x33
000001a7 fbc5                 SUBAR 0x3a, 0x0
000001a8 f7fc                 BTRSS 0x3, 0x0
000001a9 c647                 LGOTO 0x1b8; main.o:_00201_DS_=0x1b8
000001aa d6c5                 LCALL 0x13a; _zhengzhuan=0x13a
000001ab decc                 MOVIA 0x33
000001ac e0fb                 BCR 0x4, 0x6
000001ad ff45                 MOVAR 0x3a
000001ae c647                 LGOTO 0x1b8; main.o:_00201_DS_=0x1b8
000001af                      main.o:_00199_DS_:
000001af decc                 MOVIA 0x33
000001b0 e0fb                 BCR 0x4, 0x6
000001b1 fbc5                 SUBAR 0x3a, 0x0
000001b2 f7fc                 BTRSS 0x3, 0x0
000001b3 c647                 LGOTO 0x1b8; main.o:_00201_DS_=0x1b8
000001b4 d6c8                 LCALL 0x137; _fanzhuan=0x137
000001b5 decc                 MOVIA 0x33
000001b6 e0fb                 BCR 0x4, 0x6
000001b7 ff45                 MOVAR 0x3a
000001b8                      main.o:_00201_DS_:
000001b8 ffef                 RET
000001b9                      _initSys:
000001b9 ffec                 DISI
000001ba defe                 MOVIA 0x1
000001bb fffa                 IOST 0x5
000001bc de27                 MOVIA 0xd8
000001bd fff9                 IOST 0x6
000001be fd79                 CLRR 0x6
000001bf fd7a                 CLRR 0x5
000001c0 ded8                 MOVIA 0x27
000001c1 ff73                 MOVAR 0xc
000001c2 de00                 MOVIA 0xff
000001c3 ff74                 MOVAR 0xb
000001c4 defe                 MOVIA 0x1
000001c5 ff71                 MOVAR 0xe
000001c6 fdff                 CLRA
000001c7 fff0                 IOST 0xf
000001c8 dec8                 MOVIA 0x37
000001c9 ff7e                 MOVAR 0x1
000001ca fdff                 CLRA
000001cb fffc                 T0MD
000001cc defe                 MOVIA 0x1
000001cd fff0                 IOST 0xf
000001ce de77                 MOVIA 0x88
000001cf ff77                 MOVAR 0x8
000001d0 defe                 MOVIA 0x1
000001d1 fff0                 IOST 0xf
000001d2 fffb                 ENI
000001d3 ffef                 RET
000001d4                      _task2:
000001d4 e0fb                 BCR 0x4, 0x6
000001d5 fec4                 MOVR 0x3b, 0x0
000001d6 f6fc                 BTRSS 0x3, 0x2
000001d7 f944                 DECR 0x3b, 0x1
000001d8 ffef                 RET
000001d9                      _task1:
000001d9 d782                 LCALL 0x7d; _keyCtr=0x7d
000001da e0fb                 BCR 0x4, 0x6
000001db fa4c                 INCR 0x33, 0x1
000001dc de9b                 MOVIA 0x64
000001dd fbcc                 SUBAR 0x33, 0x0
000001de f7fc                 BTRSS 0x3, 0x0
000001df c60f                 LGOTO 0x1f0; main.o:_00142_DS_=0x1f0
000001e0 fd4c                 CLRR 0x33
000001e1 fecb                 MOVR 0x34, 0x0
000001e2 eeca                 IORAR 0x35, 0x0
000001e3 f2fc                 BTRSC 0x3, 0x2
000001e4 c60f                 LGOTO 0x1f0; main.o:_00142_DS_=0x1f0
000001e5 de00                 MOVIA 0xff
000001e6 fc4b                 ADDAR 0x34, 0x1
000001e7 f7fc                 BTRSS 0x3, 0x0
000001e8 f94a                 DECR 0x35, 0x1
000001e9 fecb                 MOVR 0x34, 0x0
000001ea eeca                 IORAR 0x35, 0x0
000001eb f6fc                 BTRSS 0x3, 0x2
000001ec c60f                 LGOTO 0x1f0; main.o:_00142_DS_=0x1f0
000001ed defd                 MOVIA 0x2
000001ee ff44                 MOVAR 0x3b
000001ef d6c2                 LCALL 0x13d; _workStop=0x13d
000001f0                      main.o:_00142_DS_:
000001f0 fef9                 MOVR 0x6, 0x0
000001f1 e0fb                 BCR 0x4, 0x6
000001f2 ff6f                 MOVAR 0x10
000001f3 fd6e                 CLRR 0x11
000001f4 f8ef                 COMR 0x10, 0x0
000001f5 ff6f                 MOVAR 0x10
000001f6 f8ee                 COMR 0x11, 0x0
000001f7 ff6e                 MOVAR 0x11
000001f8 f5ef                 BTRSS 0x10, 0x4
000001f9 c601                 LGOTO 0x1fe; main.o:_00006_DS_=0x1fe
000001fa fed3                 MOVR 0x2c, 0x0
000001fb f6fc                 BTRSS 0x3, 0x2
000001fc c601                 LGOTO 0x1fe; main.o:_00006_DS_=0x1fe
000001fd e2d5                 BCR 0x2a, 0x2
000001fe                      main.o:_00006_DS_:
000001fe e0fb                 BCR 0x4, 0x6
000001ff f6d5                 BTRSS 0x2a, 0x2
00000200 c5fc                 LGOTO 0x203; main.o:_00149_DS_=0x203
00000201 d6b3                 LCALL 0x14c; _workCtr=0x14c
00000202 c5f5                 LGOTO 0x20a; main.o:_00151_DS_=0x20a
00000203                      main.o:_00149_DS_:
00000203 d6c2                 LCALL 0x13d; _workStop=0x13d
00000204 e0fb                 BCR 0x4, 0x6
00000205 fa4e                 INCR 0x31, 0x1
00000206 de04                 MOVIA 0xfb
00000207 fbce                 SUBAR 0x31, 0x0
00000208 f3fc                 BTRSC 0x3, 0x0
00000209 d7a4                 LCALL 0x5b; _gotoSleep=0x5b
0000020a                      main.o:_00151_DS_:
0000020a ffef                 RET
0000020b                      __mulchar:
0000020b e0fb                 BCR 0x4, 0x6
0000020c ff68                 MOVAR 0x17
0000020d feda                 MOVR 0x25, 0x0
0000020e ff67                 MOVAR 0x18
0000020f fd66                 CLRR 0x19
00000210 def7                 MOVIA 0x8
00000211 ff65                 MOVAR 0x1a
00000212                      _mulchar.o:_00119_DS_:
00000212 e0fb                 BCR 0x4, 0x6
00000213 f7e8                 BTRSS 0x17, 0x0
00000214 c5e8                 LGOTO 0x217; _mulchar.o:_00114_DS_=0x217
00000215 fee7                 MOVR 0x18, 0x0
00000216 fc66                 ADDAR 0x19, 0x1
00000217                      _mulchar.o:_00114_DS_:
00000217 e3fc                 BCR 0x3, 0x0
00000218 e0fb                 BCR 0x4, 0x6
00000219 ec68                 RRR 0x17, 0x1
0000021a e3fc                 BCR 0x3, 0x0
0000021b eb67                 RLR 0x18, 0x1
0000021c f9e5                 DECR 0x1a, 0x0
0000021d ff64                 MOVAR 0x1b
0000021e ff65                 MOVAR 0x1a
0000021f fee4                 MOVR 0x1b, 0x0
00000220 f6fc                 BTRSS 0x3, 0x2
00000221 c5ed                 LGOTO 0x212; _mulchar.o:_00119_DS_=0x212
00000222 fee6                 MOVR 0x19, 0x0
00000223 ffef                 RET
00000224                      __moduint:
00000224 e0fb                 BCR 0x4, 0x6
00000225 ff62                 MOVAR 0x1d
00000226 feda                 MOVR 0x25, 0x0
00000227 ff63                 MOVAR 0x1c
00000228 fedb                 MOVR 0x24, 0x0
00000229 ff60                 MOVAR 0x1f
0000022a fedc                 MOVR 0x23, 0x0
0000022b ff61                 MOVAR 0x1e
0000022c eee0                 IORAR 0x1f, 0x0
0000022d f6fc                 BTRSS 0x3, 0x2
0000022e c5cd                 LGOTO 0x232; _moduint.o:_00119_DS_=0x232
0000022f de00                 MOVIA 0xff
00000230 ff5a                 MOVAR 0x25
00000231 c5a3                 LGOTO 0x25c; _moduint.o:_00115_DS_=0x25c
00000232                      _moduint.o:_00119_DS_:
00000232 defe                 MOVIA 0x1
00000233 e0fb                 BCR 0x4, 0x6
00000234 ff59                 MOVAR 0x26
00000235                      _moduint.o:_00107_DS_:
00000235 e0fb                 BCR 0x4, 0x6
00000236 f060                 BTRSC 0x1f, 0x7
00000237 c5c2                 LGOTO 0x23d; _moduint.o:_00112_DS_=0x23d
00000238 e3fc                 BCR 0x3, 0x0
00000239 eb61                 RLR 0x1e, 0x1
0000023a eb60                 RLR 0x1f, 0x1
0000023b fa59                 INCR 0x26, 0x1
0000023c c5ca                 LGOTO 0x235; _moduint.o:_00107_DS_=0x235
0000023d                      _moduint.o:_00112_DS_:
0000023d e0fb                 BCR 0x4, 0x6
0000023e fed9                 MOVR 0x26, 0x0
0000023f f2fc                 BTRSC 0x3, 0x2
00000240 c5a7                 LGOTO 0x258; _moduint.o:_00114_DS_=0x258
00000241 fee0                 MOVR 0x1f, 0x0
00000242 fbe2                 SUBAR 0x1d, 0x0
00000243 f6fc                 BTRSS 0x3, 0x2
00000244 c5b8                 LGOTO 0x247; _moduint.o:_00137_DS_=0x247
00000245 fee1                 MOVR 0x1e, 0x0
00000246 fbe3                 SUBAR 0x1c, 0x0
00000247                      _moduint.o:_00137_DS_:
00000247 f7fc                 BTRSS 0x3, 0x0
00000248 c5ad                 LGOTO 0x252; _moduint.o:_00001_DS_=0x252
00000249 e0fb                 BCR 0x4, 0x6
0000024a fee1                 MOVR 0x1e, 0x0
0000024b fb63                 SUBAR 0x1c, 0x1
0000024c fee0                 MOVR 0x1f, 0x0
0000024d f7fc                 BTRSS 0x3, 0x0
0000024e fae0                 INCR 0x1f, 0x0
0000024f f2fc                 BTRSC 0x3, 0x2
00000250 c5ad                 LGOTO 0x252; _moduint.o:_00001_DS_=0x252
00000251 fb62                 SUBAR 0x1d, 0x1
00000252                      _moduint.o:_00001_DS_:
00000252 e3fc                 BCR 0x3, 0x0
00000253 e0fb                 BCR 0x4, 0x6
00000254 ec60                 RRR 0x1f, 0x1
00000255 ec61                 RRR 0x1e, 0x1
00000256 f959                 DECR 0x26, 0x1
00000257 c5c2                 LGOTO 0x23d; _moduint.o:_00112_DS_=0x23d
00000258                      _moduint.o:_00114_DS_:
00000258 e0fb                 BCR 0x4, 0x6
00000259 fee3                 MOVR 0x1c, 0x0
0000025a ff5a                 MOVAR 0x25
0000025b fee2                 MOVR 0x1d, 0x0
0000025c                      _moduint.o:_00115_DS_:
0000025c ffef                 RET
0000025d                      ___cinit_load__:
