00000000 c7fe                LGOTO    0x1; __nyc_ny8_startup=0x1
00000001                     __nyc_ny8_startup:
00000001 d62f                LCALL    0x1d0; ___cinit_load__=0x1d0
00000002 c69f                LGOTO    0x160; _main=0x160
00000003                     _ledoff:
00000003 ded7                MOVIA    0x28
00000004 ef7a                ANDAR    PORTA, ToReg
00000005 e379                BCR      PORTB, PB1
00000006 ffef                RET
00000008 c71c                LGOTO    0xe3; _isr=0xe3
00000009                     _workCtr:
00000009 e0fc                BCR      STATUS, BK0
0000000a fec5                MOVR     0x3a, ToAcc
0000000b f2fc                BTRSC    STATUS, Z
0000000c c7f1                LGOTO    0xe; main.o:_00005_DS_=0xe
0000000d fd4e                CLRR     0x31
0000000e                     main.o:_00005_DS_:
0000000e e0fc                BCR      STATUS, BK0
0000000f fece                MOVR     0x31, ToAcc
00000010 f6fc                BTRSS    STATUS, Z
00000011 d6ee                LCALL    0x111; _checkTempAD=0x111
00000012 e0fc                BCR      STATUS, BK0
00000013 fec7                MOVR     0x38, ToAcc
00000014 f2fc                BTRSC    STATUS, Z
00000015 c7e6                LGOTO    0x19; main.o:_00128_DS_=0x19
00000016 f947                DECR     0x38, ToReg
00000017 fd48                CLRR     0x37
00000018 d619                LCALL    0x1e6; _closeFJ=0x1e6
00000019                     main.o:_00128_DS_:
00000019 e0fc                BCR      STATUS, BK0
0000001a fecd                MOVR     0x32, ToAcc
0000001b dbfe                XORIA    0x1
0000001c f6fc                BTRSS    STATUS, Z
0000001d c7d4                LGOTO    0x2b; main.o:_00165_DS_=0x2b
0000001e d609                LCALL    0x1f6; _fjLed1=0x1f6
0000001f e279                BCR      PORTB, PB3
00000020 dee3                MOVIA    0x1c
00000021 ffac                SFUN     PWM3DUTY
00000022 e6f9                BSR      PORTB, PB2
00000023 e0fc                BCR      STATUS, BK0
00000024 fec8                MOVR     0x37, ToAcc
00000025 f6fc                BTRSS    STATUS, Z
00000026 c755                LGOTO    0xaa; main.o:_00167_DS_=0xaa
00000027 defe                MOVIA    0x1
00000028 ff48                MOVAR    0x37
00000029 d623                LCALL    0x1dc; _pwmInit=0x1dc
0000002a c755                LGOTO    0xaa; main.o:_00167_DS_=0xaa
0000002b                     main.o:_00165_DS_:
0000002b e0fc                BCR      STATUS, BK0
0000002c fecd                MOVR     0x32, ToAcc
0000002d dbfd                XORIA    0x2
0000002e f6fc                BTRSS    STATUS, Z
0000002f c7c2                LGOTO    0x3d; main.o:_00162_DS_=0x3d
00000030 d60f                LCALL    0x1f0; _fjLed2=0x1f0
00000031 e279                BCR      PORTB, PB3
00000032 e6f9                BSR      PORTB, PB2
00000033 defd                MOVIA    0x2
00000034 ffac                SFUN     PWM3DUTY
00000035 e0fc                BCR      STATUS, BK0
00000036 fec8                MOVR     0x37, ToAcc
00000037 f6fc                BTRSS    STATUS, Z
00000038 c755                LGOTO    0xaa; main.o:_00167_DS_=0xaa
00000039 defe                MOVIA    0x1
0000003a ff48                MOVAR    0x37
0000003b d623                LCALL    0x1dc; _pwmInit=0x1dc
0000003c c755                LGOTO    0xaa; main.o:_00167_DS_=0xaa
0000003d                     main.o:_00162_DS_:
0000003d e0fc                BCR      STATUS, BK0
0000003e fece                MOVR     0x31, ToAcc
0000003f dbfe                XORIA    0x1
00000040 f6fc                BTRSS    STATUS, Z
00000041 c78e                LGOTO    0x71; main.o:_00159_DS_=0x71
00000042 d607                LCALL    0x1f8; _jrLed1=0x1f8
00000043 d619                LCALL    0x1e6; _closeFJ=0x1e6
00000044 def7                MOVIA    0x8
00000045 e0fc                BCR      STATUS, BK0
00000046 fbde                SUBAR    0x21, ToAcc
00000047 f6fc                BTRSS    STATUS, Z
00000048 c7b4                LGOTO    0x4b; main.o:_00226_DS_=0x4b
00000049 de7a                MOVIA    0x85
0000004a fbdf                SUBAR    0x20, ToAcc
0000004b                     main.o:_00226_DS_:
0000004b f7fc                BTRSS    STATUS, C
0000004c c7b1                LGOTO    0x4e; main.o:_00134_DS_=0x4e
0000004d e679                BSR      PORTB, PB3
0000004e                     main.o:_00134_DS_:
0000004e f679                BTRSS    PORTB, PB3
0000004f c79b                LGOTO    0x64; main.o:_00140_DS_=0x64
00000050 e0fc                BCR      STATUS, BK0
00000051 fa46                INCR     0x39, ToReg
00000052 de04                MOVIA    0xfb
00000053 fbc6                SUBAR    0x39, ToAcc
00000054 f7fc                BTRSS    STATUS, C
00000055 c799                LGOTO    0x66; main.o:_00141_DS_=0x66
00000056 de05                MOVIA    0xfa
00000057 ff46                MOVAR    0x39
00000058 def7                MOVIA    0x8
00000059 fbde                SUBAR    0x21, ToAcc
0000005a f6fc                BTRSS    STATUS, Z
0000005b c7a1                LGOTO    0x5e; main.o:_00228_DS_=0x5e
0000005c de8e                MOVIA    0x71
0000005d fbdf                SUBAR    0x20, ToAcc
0000005e                     main.o:_00228_DS_:
0000005e f7fc                BTRSS    STATUS, C
0000005f c799                LGOTO    0x66; main.o:_00141_DS_=0x66
00000060 defe                MOVIA    0x1
00000061 e0fc                BCR      STATUS, BK0
00000062 ff45                MOVAR    0x3a
00000063 c799                LGOTO    0x66; main.o:_00141_DS_=0x66
00000064                     main.o:_00140_DS_:
00000064 e0fc                BCR      STATUS, BK0
00000065 fd46                CLRR     0x39
00000066                     main.o:_00141_DS_:
00000066 def7                MOVIA    0x8
00000067 e0fc                BCR      STATUS, BK0
00000068 fbde                SUBAR    0x21, ToAcc
00000069 f6fc                BTRSS    STATUS, Z
0000006a c792                LGOTO    0x6d; main.o:_00229_DS_=0x6d
0000006b dec1                MOVIA    0x3e
0000006c fbdf                SUBAR    0x20, ToAcc
0000006d                     main.o:_00229_DS_:
0000006d f3fc                BTRSC    STATUS, C
0000006e c755                LGOTO    0xaa; main.o:_00167_DS_=0xaa
0000006f e279                BCR      PORTB, PB3
00000070 c755                LGOTO    0xaa; main.o:_00167_DS_=0xaa
00000071                     main.o:_00159_DS_:
00000071 e0fc                BCR      STATUS, BK0
00000072 fece                MOVR     0x31, ToAcc
00000073 dbfd                XORIA    0x2
00000074 f6fc                BTRSS    STATUS, Z
00000075 c758                LGOTO    0xa7; main.o:_00156_DS_=0xa7
00000076 d60c                LCALL    0x1f3; _jrLed2=0x1f3
00000077 d619                LCALL    0x1e6; _closeFJ=0x1e6
00000078 def9                MOVIA    0x6
00000079 e0fc                BCR      STATUS, BK0
0000007a fbde                SUBAR    0x21, ToAcc
0000007b f6fc                BTRSS    STATUS, Z
0000007c c780                LGOTO    0x7f; main.o:_00230_DS_=0x7f
0000007d dea5                MOVIA    0x5a
0000007e fbdf                SUBAR    0x20, ToAcc
0000007f                     main.o:_00230_DS_:
0000007f f7fc                BTRSS    STATUS, C
00000080 c77d                LGOTO    0x82; main.o:_00145_DS_=0x82
00000081 e679                BSR      PORTB, PB3
00000082                     main.o:_00145_DS_:
00000082 f679                BTRSS    PORTB, PB3
00000083 c767                LGOTO    0x98; main.o:_00151_DS_=0x98
00000084 e0fc                BCR      STATUS, BK0
00000085 fa46                INCR     0x39, ToReg
00000086 de04                MOVIA    0xfb
00000087 fbc6                SUBAR    0x39, ToAcc
00000088 f7fc                BTRSS    STATUS, C
00000089 c765                LGOTO    0x9a; main.o:_00152_DS_=0x9a
0000008a de05                MOVIA    0xfa
0000008b ff46                MOVAR    0x39
0000008c def9                MOVIA    0x6
0000008d fbde                SUBAR    0x21, ToAcc
0000008e f6fc                BTRSS    STATUS, Z
0000008f c76d                LGOTO    0x92; main.o:_00232_DS_=0x92
00000090 deb4                MOVIA    0x4b
00000091 fbdf                SUBAR    0x20, ToAcc
00000092                     main.o:_00232_DS_:
00000092 f7fc                BTRSS    STATUS, C
00000093 c765                LGOTO    0x9a; main.o:_00152_DS_=0x9a
00000094 defe                MOVIA    0x1
00000095 e0fc                BCR      STATUS, BK0
00000096 ff45                MOVAR    0x3a
00000097 c765                LGOTO    0x9a; main.o:_00152_DS_=0x9a
00000098                     main.o:_00151_DS_:
00000098 e0fc                BCR      STATUS, BK0
00000099 fd46                CLRR     0x39
0000009a                     main.o:_00152_DS_:
0000009a def9                MOVIA    0x6
0000009b e0fc                BCR      STATUS, BK0
0000009c fbde                SUBAR    0x21, ToAcc
0000009d f6fc                BTRSS    STATUS, Z
0000009e c75e                LGOTO    0xa1; main.o:_00233_DS_=0xa1
0000009f ded8                MOVIA    0x27
000000a0 fbdf                SUBAR    0x20, ToAcc
000000a1                     main.o:_00233_DS_:
000000a1 f3fc                BTRSC    STATUS, C
000000a2 c755                LGOTO    0xaa; main.o:_00167_DS_=0xaa
000000a3 e279                BCR      PORTB, PB3
000000a4 e0fc                BCR      STATUS, BK0
000000a5 fd46                CLRR     0x39
000000a6 c755                LGOTO    0xaa; main.o:_00167_DS_=0xaa
000000a7                     main.o:_00156_DS_:
000000a7 d7fc                LCALL    0x3; _ledoff=0x3
000000a8 d619                LCALL    0x1e6; _closeFJ=0x1e6
000000a9 e279                BCR      PORTB, PB3
000000aa                     main.o:_00167_DS_:
000000aa ffef                RET
000000ab                     _keyCtr:
000000ab f8fa                COMR     PORTA, ToAcc
000000ac e0fc                BCR      STATUS, BK0
000000ad ff5b                MOVAR    0x24
000000ae defe                MOVIA    0x1
000000af ef5b                ANDAR    0x24, ToReg
000000b0 fedb                MOVR     0x24, ToAcc
000000b1 d662                LCALL    0x19d; _keyRead=0x19d
000000b2 e0fc                BCR      STATUS, BK0
000000b3 ff5b                MOVAR    0x24
000000b4 dbfe                XORIA    0x1
000000b5 f6fc                BTRSS    STATUS, Z
000000b6 c739                LGOTO    0xc6; main.o:_00296_DS_=0xc6
000000b7 d7fc                LCALL    0x3; _ledoff=0x3
000000b8 de37                MOVIA    0xc8
000000b9 e0fc                BCR      STATUS, BK0
000000ba ff47                MOVAR    0x38
000000bb fd4e                CLRR     0x31
000000bc fecd                MOVR     0x32, ToAcc
000000bd f6fc                BTRSS    STATUS, Z
000000be c73d                LGOTO    0xc2; main.o:_00293_DS_=0xc2
000000bf defd                MOVIA    0x2
000000c0 ff4d                MOVAR    0x32
000000c1 c739                LGOTO    0xc6; main.o:_00296_DS_=0xc6
000000c2                     main.o:_00293_DS_:
000000c2 e0fc                BCR      STATUS, BK0
000000c3 fecd                MOVR     0x32, ToAcc
000000c4 f6fc                BTRSS    STATUS, Z
000000c5 f94d                DECR     0x32, ToReg
000000c6                     main.o:_00296_DS_:
000000c6 f8f9                COMR     PORTB, ToAcc
000000c7 e0fc                BCR      STATUS, BK0
000000c8 ff5a                MOVAR    0x25
000000c9 defe                MOVIA    0x1
000000ca ef5a                ANDAR    0x25, ToReg
000000cb feda                MOVR     0x25, ToAcc
000000cc d67b                LCALL    0x184; _keyRead2=0x184
000000cd e0fc                BCR      STATUS, BK0
000000ce ff5b                MOVAR    0x24
000000cf dbfe                XORIA    0x1
000000d0 f6fc                BTRSS    STATUS, Z
000000d1 c71d                LGOTO    0xe2; main.o:_00304_DS_=0xe2
000000d2 d7fc                LCALL    0x3; _ledoff=0x3
000000d3 e0fc                BCR      STATUS, BK0
000000d4 fd4d                CLRR     0x32
000000d5 fece                MOVR     0x31, ToAcc
000000d6 f6fc                BTRSS    STATUS, Z
000000d7 c723                LGOTO    0xdc; main.o:_00300_DS_=0xdc
000000d8 defd                MOVIA    0x2
000000d9 ff4e                MOVAR    0x31
000000da fd46                CLRR     0x39
000000db c71d                LGOTO    0xe2; main.o:_00304_DS_=0xe2
000000dc                     main.o:_00300_DS_:
000000dc e0fc                BCR      STATUS, BK0
000000dd fece                MOVR     0x31, ToAcc
000000de f2fc                BTRSC    STATUS, Z
000000df c71d                LGOTO    0xe2; main.o:_00304_DS_=0xe2
000000e0 fd46                CLRR     0x39
000000e1 f94e                DECR     0x31, ToReg
000000e2                     main.o:_00304_DS_:
000000e2 ffef                RET
000000e3                     _isr:
000000e3 ff3d                MOVAR    0x42
000000e4 eafc                SWAPR    STATUS, ToAcc
000000e5 fd7c                CLRR     STATUS
000000e6 ff3e                MOVAR    0x41
000000e7 fef5                MOVR     PCHBUF, ToAcc
000000e8 fd75                CLRR     PCHBUF
000000e9 ff3f                MOVAR    0x40
000000ea fefb                MOVR     FSR, ToAcc
000000eb e0fc                BCR      STATUS, BK0
000000ec ff51                MOVAR    0x2e
000000ed feb8                MOVR     0x47, ToAcc
000000ee ff50                MOVAR    0x2f
000000ef feb9                MOVR     0x46, ToAcc
000000f0 ff4f                MOVAR    0x30
000000f1 f7f0                BTRSS    INTF, T0IF
000000f2 c702                LGOTO    0xfd; main.o:_00108_DS_=0xfd
000000f3 dec8                MOVIA    0x37
000000f4 fc7e                ADDAR    TMR0, ToReg
000000f5 fa4c                INCR     0x33, ToReg
000000f6 de9b                MOVIA    0x64
000000f7 fbcc                SUBAR    0x33, ToAcc
000000f8 f7fc                BTRSS    STATUS, C
000000f9 c702                LGOTO    0xfd; main.o:_00108_DS_=0xfd
000000fa defe                MOVIA    0x1
000000fb ff4b                MOVAR    0x34
000000fc fd4c                CLRR     0x33
000000fd                     main.o:_00108_DS_:
000000fd f770                BTRSS    INTF, PABIF
000000fe c6fe                LGOTO    0x101; main.o:_00110_DS_=0x101
000000ff de02                MOVIA    0xfd
00000100 ff70                MOVAR    INTF
00000101                     main.o:_00110_DS_:
00000101 fd70                CLRR     INTF
00000102 e0fc                BCR      STATUS, BK0
00000103 fecf                MOVR     0x30, ToAcc
00000104 ff39                MOVAR    0x46
00000105 fed0                MOVR     0x2f, ToAcc
00000106 ff38                MOVAR    0x47
00000107 fed1                MOVR     0x2e, ToAcc
00000108 ff7b                MOVAR    FSR
00000109 febf                MOVR     0x40, ToAcc
0000010a ff75                MOVAR    PCHBUF
0000010b fd7c                CLRR     STATUS
0000010c eabe                SWAPR    0x41, ToAcc
0000010d ff7c                MOVAR    STATUS
0000010e ea3d                SWAPR    0x42, ToReg
0000010f eabd                SWAPR    0x42, ToAcc
00000110                     main.o:END_OF_INTERRUPT:
00000110 ffee                RETIE
00000111                     _checkTempAD:
00000111 e0fc                BCR      STATUS, BK0
00000112 fd5d                CLRR     0x22
00000113 fd5f                CLRR     0x20
00000114 fd5e                CLRR     0x21
00000115 def7                MOVIA    0x8
00000116 d6c6                LCALL    0x139; _F_AIN2_Convert=0x139
00000117 e0fc                BCR      STATUS, BK0
00000118 eade                SWAPR    0x21, ToAcc
00000119 dd0f                ANDIA    0xf0
0000011a ff5e                MOVAR    0x21
0000011b eadf                SWAPR    0x20, ToAcc
0000011c ff5f                MOVAR    0x20
0000011d ddf0                ANDIA    0xf
0000011e ee5e                IORAR    0x21, ToReg
0000011f ed5f                XORAR    0x20, ToReg
00000120 de0f                MOVIA    0xf0
00000121 ef5d                ANDAR    0x22, ToReg
00000122 fedd                MOVR     0x22, ToAcc
00000123 ff53                MOVAR    0x2c
00000124 deff                MOVIA    0x0
00000125 ff52                MOVAR    0x2d
00000126 fed3                MOVR     0x2c, ToAcc
00000127 fc5f                ADDAR    0x20, ToReg
00000128 fed2                MOVR     0x2d, ToAcc
00000129 f3fc                BTRSC    STATUS, C
0000012a fad2                INCR     0x2d, ToAcc
0000012b f2fc                BTRSC    STATUS, Z
0000012c c6d1                LGOTO    0x12e; main.o:_00001_DS_=0x12e
0000012d fc5e                ADDAR    0x21, ToReg
0000012e                     main.o:_00001_DS_:
0000012e e3fc                BCR      STATUS, C
0000012f e0fc                BCR      STATUS, BK0
00000130 ec5e                RRR      0x21, ToReg
00000131 ec5f                RRR      0x20, ToReg
00000132 e3fc                BCR      STATUS, C
00000133 ec5e                RRR      0x21, ToReg
00000134 ec5f                RRR      0x20, ToReg
00000135 e3fc                BCR      STATUS, C
00000136 ec5e                RRR      0x21, ToReg
00000137 ec5f                RRR      0x20, ToReg
00000138 ffef                RET
00000139                     _F_AIN2_Convert:
00000139 e0fc                BCR      STATUS, BK0
0000013a ff59                MOVAR    0x26
0000013b fd5d                CLRR     0x22
0000013c fd5f                CLRR     0x20
0000013d fd5e                CLRR     0x21
0000013e de6e                MOVIA    0x91
0000013f ff6f                MOVAR    ADMD
00000140 de37                MOVIA    0xc8
00000141 d63b                LCALL    0x1c4; _delayms=0x1c4
00000142 defe                MOVIA    0x1
00000143 e0fc                BCR      STATUS, BK0
00000144 ff58                MOVAR    0x27
00000145                     main.o:_00324_DS_:
00000145 e0fc                BCR      STATUS, BK0
00000146 fed8                MOVR     0x27, ToAcc
00000147 fbd9                SUBAR    0x26, ToAcc
00000148 f7fc                BTRSS    STATUS, C
00000149 c6a0                LGOTO    0x15f; main.o:_00326_DS_=0x15f
0000014a e4ef                BSR      ADMD, START
0000014b d612                LCALL    0x1ed; _F_wait_eoc=0x1ed
0000014c def0                MOVIA    0xf
0000014d efee                ANDAR    ADR, ToAcc
0000014e e0fc                BCR      STATUS, BK0
0000014f fc5d                ADDAR    0x22, ToReg
00000150 feed                MOVR     ADD, ToAcc
00000151 ff57                MOVAR    0x28
00000152 deff                MOVIA    0x0
00000153 ff56                MOVAR    0x29
00000154 fed7                MOVR     0x28, ToAcc
00000155 fc5f                ADDAR    0x20, ToReg
00000156 fed6                MOVR     0x29, ToAcc
00000157 f3fc                BTRSC    STATUS, C
00000158 fad6                INCR     0x29, ToAcc
00000159 f2fc                BTRSC    STATUS, Z
0000015a c6a3                LGOTO    0x15c; main.o:_00003_DS_=0x15c
0000015b fc5e                ADDAR    0x21, ToReg
0000015c                     main.o:_00003_DS_:
0000015c e0fc                BCR      STATUS, BK0
0000015d fa58                INCR     0x27, ToReg
0000015e c6ba                LGOTO    0x145; main.o:_00324_DS_=0x145
0000015f                     main.o:_00326_DS_:
0000015f ffef                RET
00000160                     _main:
00000160 ffec                DISI
00000161 ded4                MOVIA    0x2b
00000162 fffa                IOST     IOSTA
00000163 defe                MOVIA    0x1
00000164 fff9                IOST     IOSTB
00000165 fd7a                CLRR     PORTA
00000166 de00                MOVIA    0xff
00000167 fff6                IOST     APHCON
00000168 ff73                MOVAR    BPHCON
00000169 ff74                MOVAR    ABPLCON
0000016a defe                MOVIA    0x1
0000016b ff71                MOVAR    INTE
0000016c fdff                CLRA
0000016d fff0                IOST     PCON1
0000016e dec8                MOVIA    0x37
0000016f ff7e                MOVAR    TMR0
00000170 fdff                CLRA
00000171 fffc                T0MD
00000172 defe                MOVIA    0x1
00000173 fff0                IOST     PCON1
00000174 de77                MOVIA    0x88
00000175 ff77                MOVAR    PCON
00000176 defe                MOVIA    0x1
00000177 fff0                IOST     PCON1
00000178 fffb                ENI
00000179 d649                LCALL    0x1b6; _initAD=0x1b6
0000017a                     main.o:_00118_DS_:
0000017a fffd                CLRWDT
0000017b e0fc                BCR      STATUS, BK0
0000017c fecb                MOVR     0x34, ToAcc
0000017d f2fc                BTRSC    STATUS, Z
0000017e c685                LGOTO    0x17a; main.o:_00118_DS_=0x17a
0000017f fd4b                CLRR     0x34
00000180 d754                LCALL    0xab; _keyCtr=0xab
00000181 d7f6                LCALL    0x9; _workCtr=0x9
00000182 c685                LGOTO    0x17a; main.o:_00118_DS_=0x17a
00000183 ffef                RET
00000184                     _keyRead2:
00000184 e0fc                BCR      STATUS, BK0
00000185 ff5c                MOVAR    0x23
00000186 fedc                MOVR     0x23, ToAcc
00000187 f2fc                BTRSC    STATUS, Z
00000188 c66e                LGOTO    0x191; main.o:_00283_DS_=0x191
00000189 fa49                INCR     0x36, ToReg
0000018a de37                MOVIA    0xc8
0000018b fbc9                SUBAR    0x36, ToAcc
0000018c f7fc                BTRSS    STATUS, C
0000018d c664                LGOTO    0x19b; main.o:_00284_DS_=0x19b
0000018e de37                MOVIA    0xc8
0000018f ff49                MOVAR    0x36
00000190 c664                LGOTO    0x19b; main.o:_00284_DS_=0x19b
00000191                     main.o:_00283_DS_:
00000191 defb                MOVIA    0x4
00000192 e0fc                BCR      STATUS, BK0
00000193 fbc9                SUBAR    0x36, ToAcc
00000194 f7fc                BTRSS    STATUS, C
00000195 c666                LGOTO    0x199; main.o:_00281_DS_=0x199
00000196 fd49                CLRR     0x36
00000197 defe                MOVIA    0x1
00000198 c663                LGOTO    0x19c; main.o:_00285_DS_=0x19c
00000199                     main.o:_00281_DS_:
00000199 e0fc                BCR      STATUS, BK0
0000019a fd49                CLRR     0x36
0000019b                     main.o:_00284_DS_:
0000019b deff                MOVIA    0x0
0000019c                     main.o:_00285_DS_:
0000019c ffef                RET
0000019d                     _keyRead:
0000019d e0fc                BCR      STATUS, BK0
0000019e ff5c                MOVAR    0x23
0000019f fedc                MOVR     0x23, ToAcc
000001a0 f2fc                BTRSC    STATUS, Z
000001a1 c655                LGOTO    0x1aa; main.o:_00271_DS_=0x1aa
000001a2 fa4a                INCR     0x35, ToReg
000001a3 de37                MOVIA    0xc8
000001a4 fbca                SUBAR    0x35, ToAcc
000001a5 f7fc                BTRSS    STATUS, C
000001a6 c64b                LGOTO    0x1b4; main.o:_00272_DS_=0x1b4
000001a7 de37                MOVIA    0xc8
000001a8 ff4a                MOVAR    0x35
000001a9 c64b                LGOTO    0x1b4; main.o:_00272_DS_=0x1b4
000001aa                     main.o:_00271_DS_:
000001aa defb                MOVIA    0x4
000001ab e0fc                BCR      STATUS, BK0
000001ac fbca                SUBAR    0x35, ToAcc
000001ad f7fc                BTRSS    STATUS, C
000001ae c64d                LGOTO    0x1b2; main.o:_00269_DS_=0x1b2
000001af fd4a                CLRR     0x35
000001b0 defe                MOVIA    0x1
000001b1 c64a                LGOTO    0x1b5; main.o:_00273_DS_=0x1b5
000001b2                     main.o:_00269_DS_:
000001b2 e0fc                BCR      STATUS, BK0
000001b3 fd4a                CLRR     0x35
000001b4                     main.o:_00272_DS_:
000001b4 deff                MOVIA    0x0
000001b5                     main.o:_00273_DS_:
000001b5 ffef                RET
000001b6                     _initAD:
000001b6 de7e                MOVIA    0x81
000001b7 ff6f                MOVAR    ADMD
000001b8 defd                MOVIA    0x2
000001b9 ff6c                MOVAR    ADVREFH
000001ba deef                MOVIA    0x10
000001bb ff6e                MOVAR    ADR
000001bc defc                MOVIA    0x3
000001bd ff6b                MOVAR    ADCR
000001be def5                MOVIA    0xa
000001bf ff69                MOVAR    PACON
000001c0 e5ef                BSR      ADMD, GCHS
000001c1 de9b                MOVIA    0x64
000001c2 d63b                LCALL    0x1c4; _delayms=0x1c4
000001c3 ffef                RET
000001c4                     _delayms:
000001c4 e0fc                BCR      STATUS, BK0
000001c5 ff55                MOVAR    0x2a
000001c6 fd54                CLRR     0x2b
000001c7                     main.o:_00338_DS_:
000001c7 e0fc                BCR      STATUS, BK0
000001c8 fed5                MOVR     0x2a, ToAcc
000001c9 fbd4                SUBAR    0x2b, ToAcc
000001ca f3fc                BTRSC    STATUS, C
000001cb c630                LGOTO    0x1cf; main.o:_00340_DS_=0x1cf
000001cc ffff                NOP
000001cd fa54                INCR     0x2b, ToReg
000001ce c638                LGOTO    0x1c7; main.o:_00338_DS_=0x1c7
000001cf                     main.o:_00340_DS_:
000001cf ffef                RET
000001d0                     ___cinit_load__:
000001d0 e0fc                BCR      STATUS, BK0
000001d1 fd4e                CLRR     0x31
000001d2 fd4d                CLRR     0x32
000001d3 fd4c                CLRR     0x33
000001d4 fd4b                CLRR     0x34
000001d5 fd4a                CLRR     0x35
000001d6 fd49                CLRR     0x36
000001d7 fd48                CLRR     0x37
000001d8 fd47                CLRR     0x38
000001d9 fd46                CLRR     0x39
000001da fd45                CLRR     0x3a
000001db ffef                RET
000001dc                     _pwmInit:
000001dc fd63                CLRR     TM3RH
000001dd deaf                MOVIA    0x50
000001de ffaf                SFUN     TMR3
000001df decb                MOVIA    0x34
000001e0 ffac                SFUN     PWM3DUTY
000001e1 def8                MOVIA    0x7
000001e2 ffad                SFUN     T3CR2
000001e3 de7c                MOVIA    0x83
000001e4 ffae                SFUN     T3CR1
000001e5 ffef                RET
000001e6                     _closeFJ:
000001e6 e0fc                BCR      STATUS, BK0
000001e7 fd46                CLRR     0x39
000001e8 fd48                CLRR     0x37
000001e9 e2f9                BCR      PORTB, PB2
000001ea fdff                CLRA
000001eb ffae                SFUN     T3CR1
000001ec ffef                RET
000001ed                     _F_wait_eoc:
000001ed f56f                BTRSS    ADMD, EOC
000001ee c612                LGOTO    0x1ed; _F_wait_eoc=0x1ed
000001ef ffef                RET
000001f0                     _fjLed2:
000001f0 e47a                BSR      PORTA, PA7
000001f1 e779                BSR      PORTB, PB1
000001f2 ffef                RET
000001f3                     _jrLed2:
000001f3 deaf                MOVIA    0x50
000001f4 ee7a                IORAR    PORTA, ToReg
000001f5 ffef                RET
000001f6                     _fjLed1:
000001f6 e47a                BSR      PORTA, PA7
000001f7 ffef                RET
000001f8                     _jrLed1:
000001f8 e5fa                BSR      PORTA, PA4
000001f9 ffef                RET

