00000000 c7fe                 LGOTO 0x1; crt0.o:initial_ram_cinit=0x1
00000001                      crt0.o:initial_ram_cinit:
00000001 d481                 LCALL 0x37e; ___cinit_load__=0x37e
00000002 c7bc                 LGOTO 0x43; _main=0x43
00000003                      main.o:_00492_DS_:
00000003 f56f                 BTRSS 0x10, 0x5
00000004 c7fc                 LGOTO 0x3; main.o:_00492_DS_=0x3
00000005 ffef                 RET
00000008 c7f6                 LGOTO 0x9; main.o:__sdcc_interrupt=0x9
00000009                      main.o:__sdcc_interrupt:
00000009 ff3d                 MOVAR 0x42
0000000a eafc                 SWAPR 0x3, 0x0
0000000b fd7c                 CLRR 0x3
0000000c ff3e                 MOVAR 0x41
0000000d fef5                 MOVR 0xa, 0x0
0000000e fd75                 CLRR 0xa
0000000f ff3f                 MOVAR 0x40
00000010 fefb                 MOVR 0x4, 0x0
00000011 e0fc                 BCR 0x3, 0x6
00000012 ff4a                 MOVAR 0x35
00000013 feba                 MOVR 0x45, 0x0
00000014 ff49                 MOVAR 0x36
00000015 febb                 MOVR 0x44, 0x0
00000016 ff48                 MOVAR 0x37
00000017 f7f0                 BTRSS 0xf, 0x0
00000018 c7d0                 LGOTO 0x2f; main.o:_00112_DS_=0x2f
00000019 dec8                 MOVIA 0x37
0000001a fc7e                 ADDAR 0x1, 0x1
0000001b fa39                 INCR 0x46, 0x1
0000001c f2fc                 BTRSC 0x3, 0x2
0000001d fa38                 INCR 0x47, 0x1
0000001e fa44                 INCR 0x3b, 0x1
0000001f de9b                 MOVIA 0x64
00000020 fbc4                 SUBAR 0x3b, 0x0
00000021 f7fc                 BTRSS 0x3, 0x0
00000022 c7d0                 LGOTO 0x2f; main.o:_00112_DS_=0x2f
00000023 e7c7                 BSR 0x38, 0x0
00000024 fd44                 CLRR 0x3b
00000025 fa43                 INCR 0x3c, 0x1
00000026 ded7                 MOVIA 0x28
00000027 fbc3                 SUBAR 0x3c, 0x0
00000028 f3fc                 BTRSC 0x3, 0x0
00000029 fd43                 CLRR 0x3c
0000002a fa2d                 INCR 0x52, 0x1
0000002b deeb                 MOVIA 0x14
0000002c fbad                 SUBAR 0x52, 0x0
0000002d f3fc                 BTRSC 0x3, 0x0
0000002e fd2d                 CLRR 0x52
0000002f                      main.o:_00112_DS_:
0000002f f770                 BTRSS 0xf, 0x1
00000030 c7cc                 LGOTO 0x33; main.o:_00114_DS_=0x33
00000031 de02                 MOVIA 0xfd
00000032 ff70                 MOVAR 0xf
00000033                      main.o:_00114_DS_:
00000033 fd70                 CLRR 0xf
00000034 e0fc                 BCR 0x3, 0x6
00000035 fec8                 MOVR 0x37, 0x0
00000036 ff3b                 MOVAR 0x44
00000037 fec9                 MOVR 0x36, 0x0
00000038 ff3a                 MOVAR 0x45
00000039 feca                 MOVR 0x35, 0x0
0000003a ff7b                 MOVAR 0x4
0000003b febf                 MOVR 0x40, 0x0
0000003c ff75                 MOVAR 0xa
0000003d fd7c                 CLRR 0x3
0000003e eabe                 SWAPR 0x41, 0x0
0000003f ff7c                 MOVAR 0x3
00000040 ea3d                 SWAPR 0x42, 0x1
00000041 eabd                 SWAPR 0x42, 0x0
00000042                      main.o:END_OF_INTERRUPT:
00000042 ffee                 RETIE
00000043                      _main:
00000043 d4bc                 LCALL 0x343; _initSys=0x343
00000044 d6b7                 LCALL 0x148; _initAD=0x148
00000045                      main.o:_00144_DS_:
00000045 d4d5                 LCALL 0x32a; _ledShow=0x32a
00000046 fffd                 CLRWDT
00000047 d4a0                 LCALL 0x35f; _fgCtr=0x35f
00000048 e0fc                 BCR 0x3, 0x6
00000049 f7c7                 BTRSS 0x38, 0x0
0000004a c7ba                 LGOTO 0x45; main.o:_00144_DS_=0x45
0000004b e3c7                 BCR 0x38, 0x0
0000004c f57a                 BTRSS 0x5, 0x5
0000004d d63f                 LCALL 0x1c0; _keyCtr=0x1c0
0000004e e0fc                 BCR 0x3, 0x6
0000004f fead                 MOVR 0x52, 0x0
00000050 f6fc                 BTRSS 0x3, 0x2
00000051 c7ab                 LGOTO 0x54; main.o:_00124_DS_=0x54
00000052 d74e                 LCALL 0xb1; _checkBatAD=0xb1
00000053 d5d4                 LCALL 0x22b; _ledCtr=0x22b
00000054                      main.o:_00124_DS_:
00000054 e0fc                 BCR 0x3, 0x6
00000055 fec3                 MOVR 0x3c, 0x0
00000056 f6fc                 BTRSS 0x3, 0x2
00000057 c793                 LGOTO 0x6c; main.o:_00133_DS_=0x6c
00000058 d6a0                 LCALL 0x15f; _chrgCtr=0x15f
00000059 e0fc                 BCR 0x3, 0x6
0000005a feac                 MOVR 0x53, 0x0
0000005b dbfd                 XORIA 0x2
0000005c f6fc                 BTRSS 0x3, 0x2
0000005d c79c                 LGOTO 0x63; main.o:_00128_DS_=0x63
0000005e fec0                 MOVR 0x3f, 0x0
0000005f f2fc                 BTRSC 0x3, 0x2
00000060 c79c                 LGOTO 0x63; main.o:_00128_DS_=0x63
00000061 f940                 DECR 0x3f, 0x1
00000062 fd2c                 CLRR 0x53
00000063                      main.o:_00128_DS_:
00000063 e0fc                 BCR 0x3, 0x6
00000064 feac                 MOVR 0x53, 0x0
00000065 dbfe                 XORIA 0x1
00000066 f2fc                 BTRSC 0x3, 0x2
00000067 c794                 LGOTO 0x6b; main.o:_00129_DS_=0x6b
00000068 feac                 MOVR 0x53, 0x0
00000069 dbfc                 XORIA 0x3
0000006a f2fc                 BTRSC 0x3, 0x2
0000006b                      main.o:_00129_DS_:
0000006b d5b3                 LCALL 0x24c; _LedCtr2=0x24c
0000006c                      main.o:_00133_DS_:
0000006c e0fc                 BCR 0x3, 0x6
0000006d fec1                 MOVR 0x3e, 0x0
0000006e f6fc                 BTRSS 0x3, 0x2
0000006f d56f                 LCALL 0x290; _workCtr=0x290
00000070 e0fc                 BCR 0x3, 0x6
00000071 fec1                 MOVR 0x3e, 0x0
00000072 f6fc                 BTRSS 0x3, 0x2
00000073 c7ba                 LGOTO 0x45; main.o:_00144_DS_=0x45
00000074 fec2                 MOVR 0x3d, 0x0
00000075 f6fc                 BTRSS 0x3, 0x2
00000076 c7ba                 LGOTO 0x45; main.o:_00144_DS_=0x45
00000077 feac                 MOVR 0x53, 0x0
00000078 f6fc                 BTRSS 0x3, 0x2
00000079 c7ba                 LGOTO 0x45; main.o:_00144_DS_=0x45
0000007a f17a                 BTRSC 0x5, 0x5
0000007b c7ba                 LGOTO 0x45; main.o:_00144_DS_=0x45
0000007c fa2f                 INCR 0x50, 0x1
0000007d f2fc                 BTRSC 0x3, 0x2
0000007e fa2e                 INCR 0x51, 0x1
0000007f def8                 MOVIA 0x7
00000080 fbae                 SUBAR 0x51, 0x0
00000081 f6fc                 BTRSS 0x3, 0x2
00000082 c77a                 LGOTO 0x85; main.o:_00191_DS_=0x85
00000083 de2e                 MOVIA 0xd1
00000084 fbaf                 SUBAR 0x50, 0x0
00000085                      main.o:_00191_DS_:
00000085 f7fc                 BTRSS 0x3, 0x0
00000086 c7ba                 LGOTO 0x45; main.o:_00144_DS_=0x45
00000087 d657                 LCALL 0x1a8; _gotoSleep=0x1a8
00000088 c7ba                 LGOTO 0x45; main.o:_00144_DS_=0x45
00000089 ffef                 RET
0000008a                      _F_AIN5_Convert:
0000008a e0fc                 BCR 0x3, 0x6
0000008b ff4e                 MOVAR 0x31
0000008c fd5d                 CLRR 0x22
0000008d fd5f                 CLRR 0x20
0000008e fd5e                 CLRR 0x21
0000008f de6b                 MOVIA 0x94
00000090 ff6f                 MOVAR 0x10
00000091 de37                 MOVIA 0xc8
00000092 d6ac                 LCALL 0x153; _delay=0x153
00000093 defe                 MOVIA 0x1
00000094 e0fc                 BCR 0x3, 0x6
00000095 ff4d                 MOVAR 0x32
00000096                      main.o:_00485_DS_:
00000096 e0fc                 BCR 0x3, 0x6
00000097 fecd                 MOVR 0x32, 0x0
00000098 fbce                 SUBAR 0x31, 0x0
00000099 f7fc                 BTRSS 0x3, 0x0
0000009a c74f                 LGOTO 0xb0; main.o:_00487_DS_=0xb0
0000009b e4ef                 BSR 0x10, 0x6
0000009c d7fc                 LCALL 0x3; main.o:_00492_DS_=0x3
0000009d def0                 MOVIA 0xf
0000009e efee                 ANDAR 0x11, 0x0
0000009f e0fc                 BCR 0x3, 0x6
000000a0 fc5d                 ADDAR 0x22, 0x1
000000a1 feed                 MOVR 0x12, 0x0
000000a2 ff4c                 MOVAR 0x33
000000a3 deff                 MOVIA 0x0
000000a4 ff4b                 MOVAR 0x34
000000a5 fecc                 MOVR 0x33, 0x0
000000a6 fc5f                 ADDAR 0x20, 0x1
000000a7 fecb                 MOVR 0x34, 0x0
000000a8 f3fc                 BTRSC 0x3, 0x0
000000a9 facb                 INCR 0x34, 0x0
000000aa f2fc                 BTRSC 0x3, 0x2
000000ab c752                 LGOTO 0xad; main.o:_00001_DS_=0xad
000000ac fc5e                 ADDAR 0x21, 0x1
000000ad                      main.o:_00001_DS_:
000000ad e0fc                 BCR 0x3, 0x6
000000ae fa4d                 INCR 0x32, 0x1
000000af c769                 LGOTO 0x96; main.o:_00485_DS_=0x96
000000b0                      main.o:_00487_DS_:
000000b0 ffef                 RET
000000b1                      _checkBatAD:
000000b1 e0fc                 BCR 0x3, 0x6
000000b2 fd5d                 CLRR 0x22
000000b3 fd5f                 CLRR 0x20
000000b4 fd5e                 CLRR 0x21
000000b5 def7                 MOVIA 0x8
000000b6 d775                 LCALL 0x8a; _F_AIN5_Convert=0x8a
000000b7 e0fc                 BCR 0x3, 0x6
000000b8 eade                 SWAPR 0x21, 0x0
000000b9 dd0f                 ANDIA 0xf0
000000ba ff5e                 MOVAR 0x21
000000bb eadf                 SWAPR 0x20, 0x0
000000bc ff5f                 MOVAR 0x20
000000bd ddf0                 ANDIA 0xf
000000be ee5e                 IORAR 0x21, 0x1
000000bf ed5f                 XORAR 0x20, 0x1
000000c0 de0f                 MOVIA 0xf0
000000c1 ef5d                 ANDAR 0x22, 0x1
000000c2 fedd                 MOVR 0x22, 0x0
000000c3 ff50                 MOVAR 0x2f
000000c4 deff                 MOVIA 0x0
000000c5 ff4f                 MOVAR 0x30
000000c6 fed0                 MOVR 0x2f, 0x0
000000c7 fc5f                 ADDAR 0x20, 0x1
000000c8 fecf                 MOVR 0x30, 0x0
000000c9 f3fc                 BTRSC 0x3, 0x0
000000ca facf                 INCR 0x30, 0x0
000000cb f2fc                 BTRSC 0x3, 0x2
000000cc c731                 LGOTO 0xce; main.o:_00002_DS_=0xce
000000cd fc5e                 ADDAR 0x21, 0x1
000000ce                      main.o:_00002_DS_:
000000ce e3fc                 BCR 0x3, 0x0
000000cf e0fc                 BCR 0x3, 0x6
000000d0 ec5e                 RRR 0x21, 0x1
000000d1 ec5f                 RRR 0x20, 0x1
000000d2 e3fc                 BCR 0x3, 0x0
000000d3 ec5e                 RRR 0x21, 0x1
000000d4 ec5f                 RRR 0x20, 0x1
000000d5 e3fc                 BCR 0x3, 0x0
000000d6 ec5e                 RRR 0x21, 0x1
000000d7 ec5f                 RRR 0x20, 0x1
000000d8 def9                 MOVIA 0x6
000000d9 fbde                 SUBAR 0x21, 0x0
000000da f6fc                 BTRSS 0x3, 0x2
000000db c721                 LGOTO 0xde; main.o:_00472_DS_=0xde
000000dc def0                 MOVIA 0xf
000000dd fbdf                 SUBAR 0x20, 0x0
000000de                      main.o:_00472_DS_:
000000de f7fc                 BTRSS 0x3, 0x0
000000df c71b                 LGOTO 0xe4; main.o:_00444_DS_=0xe4
000000e0 def9                 MOVIA 0x6
000000e1 e0fc                 BCR 0x3, 0x6
000000e2 ff33                 MOVAR 0x4c
000000e3 c6b8                 LGOTO 0x147; main.o:_00446_DS_=0x147
000000e4                      main.o:_00444_DS_:
000000e4 defa                 MOVIA 0x5
000000e5 e0fc                 BCR 0x3, 0x6
000000e6 fbde                 SUBAR 0x21, 0x0
000000e7 f6fc                 BTRSS 0x3, 0x2
000000e8 c714                 LGOTO 0xeb; main.o:_00473_DS_=0xeb
000000e9 de8e                 MOVIA 0x71
000000ea fbdf                 SUBAR 0x20, 0x0
000000eb                      main.o:_00473_DS_:
000000eb f7fc                 BTRSS 0x3, 0x0
000000ec c6ea                 LGOTO 0x115; main.o:_00441_DS_=0x115
000000ed e0fc                 BCR 0x3, 0x6
000000ee feb3                 MOVR 0x4c, 0x0
000000ef dbf9                 XORIA 0x6
000000f0 f6fc                 BTRSS 0x3, 0x2
000000f1 c701                 LGOTO 0xfe; main.o:_00427_DS_=0xfe
000000f2 defa                 MOVIA 0x5
000000f3 fbde                 SUBAR 0x21, 0x0
000000f4 f6fc                 BTRSS 0x3, 0x2
000000f5 c707                 LGOTO 0xf8; main.o:_00474_DS_=0xf8
000000f6 de23                 MOVIA 0xdc
000000f7 fbdf                 SUBAR 0x20, 0x0
000000f8                      main.o:_00474_DS_:
000000f8 f3fc                 BTRSC 0x3, 0x0
000000f9 c6fe                 LGOTO 0x101; main.o:_00428_DS_=0x101
000000fa defa                 MOVIA 0x5
000000fb e0fc                 BCR 0x3, 0x6
000000fc ff33                 MOVAR 0x4c
000000fd c6fe                 LGOTO 0x101; main.o:_00428_DS_=0x101
000000fe                      main.o:_00427_DS_:
000000fe defa                 MOVIA 0x5
000000ff e0fc                 BCR 0x3, 0x6
00000100 ff33                 MOVAR 0x4c
00000101                      main.o:_00428_DS_:
00000101 e0fc                 BCR 0x3, 0x6
00000102 fa32                 INCR 0x4d, 0x1
00000103 f2fc                 BTRSC 0x3, 0x2
00000104 fa31                 INCR 0x4e, 0x1
00000105 def8                 MOVIA 0x7
00000106 fbb1                 SUBAR 0x4e, 0x0
00000107 f6fc                 BTRSS 0x3, 0x2
00000108 c6f4                 LGOTO 0x10b; main.o:_00475_DS_=0x10b
00000109 def6                 MOVIA 0x9
0000010a fbb2                 SUBAR 0x4d, 0x0
0000010b                      main.o:_00475_DS_:
0000010b f7fc                 BTRSS 0x3, 0x0
0000010c c6b8                 LGOTO 0x147; main.o:_00446_DS_=0x147
0000010d def7                 MOVIA 0x8
0000010e e0fc                 BCR 0x3, 0x6
0000010f ff32                 MOVAR 0x4d
00000110 def8                 MOVIA 0x7
00000111 ff31                 MOVAR 0x4e
00000112 def9                 MOVIA 0x6
00000113 ff33                 MOVAR 0x4c
00000114 c6b8                 LGOTO 0x147; main.o:_00446_DS_=0x147
00000115                      main.o:_00441_DS_:
00000115 defc                 MOVIA 0x3
00000116 e0fc                 BCR 0x3, 0x6
00000117 fbde                 SUBAR 0x21, 0x0
00000118 f6fc                 BTRSS 0x3, 0x2
00000119 c6e3                 LGOTO 0x11c; main.o:_00476_DS_=0x11c
0000011a de5f                 MOVIA 0xa0
0000011b fbdf                 SUBAR 0x20, 0x0
0000011c                      main.o:_00476_DS_:
0000011c f7fc                 BTRSS 0x3, 0x0
0000011d c6db                 LGOTO 0x124; main.o:_00438_DS_=0x124
0000011e defb                 MOVIA 0x4
0000011f e0fc                 BCR 0x3, 0x6
00000120 ff33                 MOVAR 0x4c
00000121 fd32                 CLRR 0x4d
00000122 fd31                 CLRR 0x4e
00000123 c6b8                 LGOTO 0x147; main.o:_00446_DS_=0x147
00000124                      main.o:_00438_DS_:
00000124 defe                 MOVIA 0x1
00000125 e0fc                 BCR 0x3, 0x6
00000126 fbde                 SUBAR 0x21, 0x0
00000127 f6fc                 BTRSS 0x3, 0x2
00000128 c6d4                 LGOTO 0x12b; main.o:_00477_DS_=0x12b
00000129 de2f                 MOVIA 0xd0
0000012a fbdf                 SUBAR 0x20, 0x0
0000012b                      main.o:_00477_DS_:
0000012b f7fc                 BTRSS 0x3, 0x0
0000012c c6cc                 LGOTO 0x133; main.o:_00435_DS_=0x133
0000012d defc                 MOVIA 0x3
0000012e e0fc                 BCR 0x3, 0x6
0000012f ff33                 MOVAR 0x4c
00000130 fd32                 CLRR 0x4d
00000131 fd31                 CLRR 0x4e
00000132 c6b8                 LGOTO 0x147; main.o:_00446_DS_=0x147
00000133                      main.o:_00435_DS_:
00000133 deff                 MOVIA 0x0
00000134 e0fc                 BCR 0x3, 0x6
00000135 fbde                 SUBAR 0x21, 0x0
00000136 f6fc                 BTRSS 0x3, 0x2
00000137 c6c5                 LGOTO 0x13a; main.o:_00478_DS_=0x13a
00000138 de64                 MOVIA 0x9b
00000139 fbdf                 SUBAR 0x20, 0x0
0000013a                      main.o:_00478_DS_:
0000013a f7fc                 BTRSS 0x3, 0x0
0000013b c6bd                 LGOTO 0x142; main.o:_00432_DS_=0x142
0000013c defd                 MOVIA 0x2
0000013d e0fc                 BCR 0x3, 0x6
0000013e ff33                 MOVAR 0x4c
0000013f fd32                 CLRR 0x4d
00000140 fd31                 CLRR 0x4e
00000141 c6b8                 LGOTO 0x147; main.o:_00446_DS_=0x147
00000142                      main.o:_00432_DS_:
00000142 defe                 MOVIA 0x1
00000143 e0fc                 BCR 0x3, 0x6
00000144 ff33                 MOVAR 0x4c
00000145 fd32                 CLRR 0x4d
00000146 fd31                 CLRR 0x4e
00000147                      main.o:_00446_DS_:
00000147 ffef                 RET
00000148                      _initAD:
00000148 de7b                 MOVIA 0x84
00000149 ff6f                 MOVAR 0x10
0000014a fd6c                 CLRR 0x13
0000014b deef                 MOVIA 0x10
0000014c ff6e                 MOVAR 0x11
0000014d defc                 MOVIA 0x3
0000014e ff6b                 MOVAR 0x14
0000014f e5ef                 BSR 0x10, 0x4
00000150 de9b                 MOVIA 0x64
00000151 d6ac                 LCALL 0x153; _delay=0x153
00000152 ffef                 RET
00000153                      _delay:
00000153 e0fc                 BCR 0x3, 0x6
00000154 ff52                 MOVAR 0x2d
00000155 fd51                 CLRR 0x2e
00000156                      main.o:_00413_DS_:
00000156 e0fc                 BCR 0x3, 0x6
00000157 fed2                 MOVR 0x2d, 0x0
00000158 fbd1                 SUBAR 0x2e, 0x0
00000159 f3fc                 BTRSC 0x3, 0x0
0000015a c6a1                 LGOTO 0x15e; main.o:_00415_DS_=0x15e
0000015b ffff                 NOP
0000015c fa51                 INCR 0x2e, 0x1
0000015d c6a9                 LGOTO 0x156; main.o:_00413_DS_=0x156
0000015e                      main.o:_00415_DS_:
0000015e ffef                 RET
0000015f                      _chrgCtr:
0000015f e0fc                 BCR 0x3, 0x6
00000160 f57a                 BTRSS 0x5, 0x5
00000161 c684                 LGOTO 0x17b; main.o:_00404_DS_=0x17b
00000162 fd41                 CLRR 0x3e
00000163 fd40                 CLRR 0x3f
00000164 d53b                 LCALL 0x2c4; _pwmStop=0x2c4
00000165 d4e5                 LCALL 0x31a; _LedInput=0x31a
00000166 e379                 BCR 0x6, 0x1
00000167 def9                 MOVIA 0x6
00000168 e0fc                 BCR 0x3, 0x6
00000169 fbb3                 SUBAR 0x4c, 0x0
0000016a f7fc                 BTRSS 0x3, 0x0
0000016b c690                 LGOTO 0x16f; main.o:_00399_DS_=0x16f
0000016c d48d                 LCALL 0x372; _LEDLOFF=0x372
0000016d d484                 LCALL 0x37b; _LEDHON=0x37b
0000016e c67e                 LGOTO 0x181; main.o:_00406_DS_=0x181
0000016f                      main.o:_00399_DS_:
0000016f e0fc                 BCR 0x3, 0x6
00000170 feb3                 MOVR 0x4c, 0x0
00000171 dbf9                 XORIA 0x6
00000172 f6fc                 BTRSS 0x3, 0x2
00000173 c689                 LGOTO 0x176; main.o:_00397_DS_=0x176
00000174 defa                 MOVIA 0x5
00000175 ff33                 MOVAR 0x4c
00000176                      main.o:_00397_DS_:
00000176 d48a                 LCALL 0x375; _LEDHOFF=0x375
00000177 def7                 MOVIA 0x8
00000178 e0fc                 BCR 0x3, 0x6
00000179 ed7a                 XORAR 0x5, 0x1
0000017a c67e                 LGOTO 0x181; main.o:_00406_DS_=0x181
0000017b                      main.o:_00404_DS_:
0000017b e0fc                 BCR 0x3, 0x6
0000017c feac                 MOVR 0x53, 0x0
0000017d f6fc                 BTRSS 0x3, 0x2
0000017e c67e                 LGOTO 0x181; main.o:_00406_DS_=0x181
0000017f d48a                 LCALL 0x375; _LEDHOFF=0x375
00000180 d48d                 LCALL 0x372; _LEDLOFF=0x372
00000181                      main.o:_00406_DS_:
00000181 ffef                 RET
00000182                      _keyRead:
00000182 e0fc                 BCR 0x3, 0x6
00000183 ff53                 MOVAR 0x2c
00000184 fed3                 MOVR 0x2c, 0x0
00000185 f2fc                 BTRSC 0x3, 0x2
00000186 c66c                 LGOTO 0x193; main.o:_00389_DS_=0x193
00000187 fa42                 INCR 0x3d, 0x1
00000188 de37                 MOVIA 0xc8
00000189 fbc2                 SUBAR 0x3d, 0x0
0000018a f7fc                 BTRSS 0x3, 0x0
0000018b c659                 LGOTO 0x1a6; main.o:_00390_DS_=0x1a6
0000018c de37                 MOVIA 0xc8
0000018d ff42                 MOVAR 0x3d
0000018e f347                 BTRSC 0x38, 0x1
0000018f c659                 LGOTO 0x1a6; main.o:_00390_DS_=0x1a6
00000190 e747                 BSR 0x38, 0x1
00000191 defd                 MOVIA 0x2
00000192 c658                 LGOTO 0x1a7; main.o:_00391_DS_=0x1a7
00000193                      main.o:_00389_DS_:
00000193 de37                 MOVIA 0xc8
00000194 e0fc                 BCR 0x3, 0x6
00000195 fbc2                 SUBAR 0x3d, 0x0
00000196 f7fc                 BTRSS 0x3, 0x0
00000197 c663                 LGOTO 0x19c; main.o:_00386_DS_=0x19c
00000198 fd42                 CLRR 0x3d
00000199 e347                 BCR 0x38, 0x1
0000019a deff                 MOVIA 0x0
0000019b c658                 LGOTO 0x1a7; main.o:_00391_DS_=0x1a7
0000019c                      main.o:_00386_DS_:
0000019c def7                 MOVIA 0x8
0000019d e0fc                 BCR 0x3, 0x6
0000019e fbc2                 SUBAR 0x3d, 0x0
0000019f f7fc                 BTRSS 0x3, 0x0
000001a0 c65b                 LGOTO 0x1a4; main.o:_00387_DS_=0x1a4
000001a1 fd42                 CLRR 0x3d
000001a2 defe                 MOVIA 0x1
000001a3 c658                 LGOTO 0x1a7; main.o:_00391_DS_=0x1a7
000001a4                      main.o:_00387_DS_:
000001a4 e0fc                 BCR 0x3, 0x6
000001a5 fd42                 CLRR 0x3d
000001a6                      main.o:_00390_DS_:
000001a6 deff                 MOVIA 0x0
000001a7                      main.o:_00391_DS_:
000001a7 ffef                 RET
000001a8                      _gotoSleep:
000001a8 d4e5                 LCALL 0x31a; _LedInput=0x31a
000001a9 e0fc                 BCR 0x3, 0x6
000001aa fd2f                 CLRR 0x50
000001ab fd2e                 CLRR 0x51
000001ac d53b                 LCALL 0x2c4; _pwmStop=0x2c4
000001ad e0fc                 BCR 0x3, 0x6
000001ae fd41                 CLRR 0x3e
000001af de9f                 MOVIA 0x60
000001b0 ff6a                 MOVAR 0x15
000001b1 def4                 MOVIA 0xb
000001b2 ff71                 MOVAR 0xe
000001b3 def7                 MOVIA 0x8
000001b4 ff77                 MOVAR 0x8
000001b5 fd70                 CLRR 0xf
000001b6 fffd                 CLRWDT
000001b7 fffb                 ENI
000001b8 fffe                 SLEEP
000001b9 fd6a                 CLRR 0x15
000001ba defe                 MOVIA 0x1
000001bb ff71                 MOVAR 0xe
000001bc fd70                 CLRR 0xf
000001bd de57                 MOVIA 0xa8
000001be ff77                 MOVAR 0x8
000001bf ffef                 RET
000001c0                      _keyCtr:
000001c0 e0fc                 BCR 0x3, 0x6
000001c1 fec1                 MOVR 0x3e, 0x0
000001c2 f2fc                 BTRSC 0x3, 0x2
000001c3 c639                 LGOTO 0x1c6; main.o:_00346_DS_=0x1c6
000001c4 e779                 BSR 0x6, 0x1
000001c5 c638                 LGOTO 0x1c7; main.o:_00347_DS_=0x1c7
000001c6                      main.o:_00346_DS_:
000001c6 e379                 BCR 0x6, 0x1
000001c7                      main.o:_00347_DS_:
000001c7 e0fc                 BCR 0x3, 0x6
000001c8 f8fa                 COMR 0x5, 0x0
000001c9 ff54                 MOVAR 0x2b
000001ca debf                 MOVIA 0x40
000001cb ef54                 ANDAR 0x2b, 0x1
000001cc fed4                 MOVR 0x2b, 0x0
000001cd d67d                 LCALL 0x182; _keyRead=0x182
000001ce e0fc                 BCR 0x3, 0x6
000001cf ff54                 MOVAR 0x2b
000001d0 dbfe                 XORIA 0x1
000001d1 f6fc                 BTRSS 0x3, 0x2
000001d2 c5f7                 LGOTO 0x208; main.o:_00367_DS_=0x208
000001d3 fec1                 MOVR 0x3e, 0x0
000001d4 f2fc                 BTRSC 0x3, 0x2
000001d5 c5f7                 LGOTO 0x208; main.o:_00367_DS_=0x208
000001d6 fd43                 CLRR 0x3c
000001d7 fa41                 INCR 0x3e, 0x1
000001d8 defa                 MOVIA 0x5
000001d9 fbc1                 SUBAR 0x3e, 0x0
000001da f7fc                 BTRSS 0x3, 0x0
000001db c621                 LGOTO 0x1de; main.o:_00349_DS_=0x1de
000001dc defe                 MOVIA 0x1
000001dd ff41                 MOVAR 0x3e
000001de                      main.o:_00349_DS_:
000001de d538                 LCALL 0x2c7; _pwmInit=0x2c7
000001df defe                 MOVIA 0x1
000001e0 e0fc                 BCR 0x3, 0x6
000001e1 ff46                 MOVAR 0x39
000001e2 fd45                 CLRR 0x3a
000001e3 fd39                 CLRR 0x46
000001e4 fd38                 CLRR 0x47
000001e5 fd2c                 CLRR 0x53
000001e6 fec1                 MOVR 0x3e, 0x0
000001e7 dbfe                 XORIA 0x1
000001e8 f6fc                 BTRSS 0x3, 0x2
000001e9 c612                 LGOTO 0x1ed; main.o:_00359_DS_=0x1ed
000001ea dec9                 MOVIA 0x36
000001eb ff34                 MOVAR 0x4b
000001ec c5fb                 LGOTO 0x204; main.o:_00360_DS_=0x204
000001ed                      main.o:_00359_DS_:
000001ed e0fc                 BCR 0x3, 0x6
000001ee fec1                 MOVR 0x3e, 0x0
000001ef dbfd                 XORIA 0x2
000001f0 f6fc                 BTRSS 0x3, 0x2
000001f1 c60a                 LGOTO 0x1f5; main.o:_00356_DS_=0x1f5
000001f2 dee1                 MOVIA 0x1e
000001f3 ff34                 MOVAR 0x4b
000001f4 c5fb                 LGOTO 0x204; main.o:_00360_DS_=0x204
000001f5                      main.o:_00356_DS_:
000001f5 e0fc                 BCR 0x3, 0x6
000001f6 fec1                 MOVR 0x3e, 0x0
000001f7 dbfc                 XORIA 0x3
000001f8 f6fc                 BTRSS 0x3, 0x2
000001f9 c602                 LGOTO 0x1fd; main.o:_00353_DS_=0x1fd
000001fa def1                 MOVIA 0xe
000001fb ff34                 MOVAR 0x4b
000001fc c5fb                 LGOTO 0x204; main.o:_00360_DS_=0x204
000001fd                      main.o:_00353_DS_:
000001fd e0fc                 BCR 0x3, 0x6
000001fe fec1                 MOVR 0x3e, 0x0
000001ff dbfb                 XORIA 0x4
00000200 f6fc                 BTRSS 0x3, 0x2
00000201 c5fb                 LGOTO 0x204; main.o:_00360_DS_=0x204
00000202 defa                 MOVIA 0x5
00000203 ff34                 MOVAR 0x4b
00000204                      main.o:_00360_DS_:
00000204 e0fc                 BCR 0x3, 0x6
00000205 feb4                 MOVR 0x4b, 0x0
00000206 ffb3                 SFUN 0xc
00000207 c5d5                 LGOTO 0x22a; main.o:_00370_DS_=0x22a
00000208                      main.o:_00367_DS_:
00000208 e0fc                 BCR 0x3, 0x6
00000209 fed4                 MOVR 0x2b, 0x0
0000020a dbfd                 XORIA 0x2
0000020b f6fc                 BTRSS 0x3, 0x2
0000020c c5d5                 LGOTO 0x22a; main.o:_00370_DS_=0x22a
0000020d fec1                 MOVR 0x3e, 0x0
0000020e f2fc                 BTRSC 0x3, 0x2
0000020f c5e5                 LGOTO 0x21a; main.o:_00362_DS_=0x21a
00000210 fd41                 CLRR 0x3e
00000211 d53b                 LCALL 0x2c4; _pwmStop=0x2c4
00000212 d48a                 LCALL 0x375; _LEDHOFF=0x375
00000213 d48d                 LCALL 0x372; _LEDLOFF=0x372
00000214 defa                 MOVIA 0x5
00000215 e0fc                 BCR 0x3, 0x6
00000216 ff40                 MOVAR 0x3f
00000217 defd                 MOVIA 0x2
00000218 ff2c                 MOVAR 0x53
00000219 c5d5                 LGOTO 0x22a; main.o:_00370_DS_=0x22a
0000021a                      main.o:_00362_DS_:
0000021a defe                 MOVIA 0x1
0000021b e0fc                 BCR 0x3, 0x6
0000021c ff2c                 MOVAR 0x53
0000021d ded1                 MOVIA 0x2e
0000021e ff34                 MOVAR 0x4b
0000021f defe                 MOVIA 0x1
00000220 ff41                 MOVAR 0x3e
00000221 fd40                 CLRR 0x3f
00000222 fd43                 CLRR 0x3c
00000223 d538                 LCALL 0x2c7; _pwmInit=0x2c7
00000224 defe                 MOVIA 0x1
00000225 e0fc                 BCR 0x3, 0x6
00000226 ff46                 MOVAR 0x39
00000227 fd45                 CLRR 0x3a
00000228 fd39                 CLRR 0x46
00000229 fd38                 CLRR 0x47
0000022a                      main.o:_00370_DS_:
0000022a ffef                 RET
0000022b                      _ledCtr:
0000022b e0fc                 BCR 0x3, 0x6
0000022c feac                 MOVR 0x53, 0x0
0000022d dbfe                 XORIA 0x1
0000022e f6fc                 BTRSS 0x3, 0x2
0000022f c5c5                 LGOTO 0x23a; main.o:_00338_DS_=0x23a
00000230 fa40                 INCR 0x3f, 0x1
00000231 defa                 MOVIA 0x5
00000232 fbc0                 SUBAR 0x3f, 0x0
00000233 f7fc                 BTRSS 0x3, 0x0
00000234 c5b4                 LGOTO 0x24b; main.o:_00340_DS_=0x24b
00000235 fec1                 MOVR 0x3e, 0x0
00000236 ff40                 MOVAR 0x3f
00000237 defc                 MOVIA 0x3
00000238 ff2c                 MOVAR 0x53
00000239 c5b4                 LGOTO 0x24b; main.o:_00340_DS_=0x24b
0000023a                      main.o:_00338_DS_:
0000023a e0fc                 BCR 0x3, 0x6
0000023b feac                 MOVR 0x53, 0x0
0000023c dbfd                 XORIA 0x2
0000023d f6fc                 BTRSS 0x3, 0x2
0000023e c5ba                 LGOTO 0x245; main.o:_00335_DS_=0x245
0000023f fec0                 MOVR 0x3f, 0x0
00000240 f2fc                 BTRSC 0x3, 0x2
00000241 c5b4                 LGOTO 0x24b; main.o:_00340_DS_=0x24b
00000242 f940                 DECR 0x3f, 0x1
00000243 fd2c                 CLRR 0x53
00000244 c5b4                 LGOTO 0x24b; main.o:_00340_DS_=0x24b
00000245                      main.o:_00335_DS_:
00000245 e0fc                 BCR 0x3, 0x6
00000246 fec1                 MOVR 0x3e, 0x0
00000247 ff40                 MOVAR 0x3f
00000248 fec1                 MOVR 0x3e, 0x0
00000249 f6fc                 BTRSS 0x3, 0x2
0000024a d538                 LCALL 0x2c7; _pwmInit=0x2c7
0000024b                      main.o:_00340_DS_:
0000024b ffef                 RET
0000024c                      _LedCtr2:
0000024c e0fc                 BCR 0x3, 0x6
0000024d fa30                 INCR 0x4f, 0x1
0000024e def8                 MOVIA 0x7
0000024f fbb0                 SUBAR 0x4f, 0x0
00000250 f7fc                 BTRSS 0x3, 0x0
00000251 c5a9                 LGOTO 0x256; main.o:_00300_DS_=0x256
00000252 fd2c                 CLRR 0x53
00000253 fd30                 CLRR 0x4f
00000254 fec1                 MOVR 0x3e, 0x0
00000255 ff40                 MOVAR 0x3f
00000256                      main.o:_00300_DS_:
00000256 e0fc                 BCR 0x3, 0x6
00000257 feb0                 MOVR 0x4f, 0x0
00000258 dbfe                 XORIA 0x1
00000259 f6fc                 BTRSS 0x3, 0x2
0000025a c597                 LGOTO 0x268; main.o:_00321_DS_=0x268
0000025b feb3                 MOVR 0x4c, 0x0
0000025c dbfe                 XORIA 0x1
0000025d f6fc                 BTRSS 0x3, 0x2
0000025e c59e                 LGOTO 0x261; main.o:_00304_DS_=0x261
0000025f d487                 LCALL 0x378; _LEDLON=0x378
00000260 c570                 LGOTO 0x28f; main.o:_00323_DS_=0x28f
00000261                      main.o:_00304_DS_:
00000261 defd                 MOVIA 0x2
00000262 e0fc                 BCR 0x3, 0x6
00000263 fbb3                 SUBAR 0x4c, 0x0
00000264 f7fc                 BTRSS 0x3, 0x0
00000265 c570                 LGOTO 0x28f; main.o:_00323_DS_=0x28f
00000266 d484                 LCALL 0x37b; _LEDHON=0x37b
00000267 c570                 LGOTO 0x28f; main.o:_00323_DS_=0x28f
00000268                      main.o:_00321_DS_:
00000268 e0fc                 BCR 0x3, 0x6
00000269 feb0                 MOVR 0x4f, 0x0
0000026a dbfd                 XORIA 0x2
0000026b f6fc                 BTRSS 0x3, 0x2
0000026c c58f                 LGOTO 0x270; main.o:_00318_DS_=0x270
0000026d d48a                 LCALL 0x375; _LEDHOFF=0x375
0000026e d48d                 LCALL 0x372; _LEDLOFF=0x372
0000026f c570                 LGOTO 0x28f; main.o:_00323_DS_=0x28f
00000270                      main.o:_00318_DS_:
00000270 e0fc                 BCR 0x3, 0x6
00000271 feb0                 MOVR 0x4f, 0x0
00000272 dbfc                 XORIA 0x3
00000273 f6fc                 BTRSS 0x3, 0x2
00000274 c584                 LGOTO 0x27b; main.o:_00314_DS_=0x27b
00000275 defc                 MOVIA 0x3
00000276 fbb3                 SUBAR 0x4c, 0x0
00000277 f7fc                 BTRSS 0x3, 0x0
00000278 c584                 LGOTO 0x27b; main.o:_00314_DS_=0x27b
00000279 d484                 LCALL 0x37b; _LEDHON=0x37b
0000027a c570                 LGOTO 0x28f; main.o:_00323_DS_=0x28f
0000027b                      main.o:_00314_DS_:
0000027b e0fc                 BCR 0x3, 0x6
0000027c feb0                 MOVR 0x4f, 0x0
0000027d dbfb                 XORIA 0x4
0000027e f6fc                 BTRSS 0x3, 0x2
0000027f c57d                 LGOTO 0x282; main.o:_00311_DS_=0x282
00000280 d48a                 LCALL 0x375; _LEDHOFF=0x375
00000281 c570                 LGOTO 0x28f; main.o:_00323_DS_=0x28f
00000282                      main.o:_00311_DS_:
00000282 e0fc                 BCR 0x3, 0x6
00000283 feb0                 MOVR 0x4f, 0x0
00000284 dbfa                 XORIA 0x5
00000285 f6fc                 BTRSS 0x3, 0x2
00000286 c572                 LGOTO 0x28d; main.o:_00307_DS_=0x28d
00000287 defb                 MOVIA 0x4
00000288 fbb3                 SUBAR 0x4c, 0x0
00000289 f7fc                 BTRSS 0x3, 0x0
0000028a c572                 LGOTO 0x28d; main.o:_00307_DS_=0x28d
0000028b d484                 LCALL 0x37b; _LEDHON=0x37b
0000028c c570                 LGOTO 0x28f; main.o:_00323_DS_=0x28f
0000028d                      main.o:_00307_DS_:
0000028d d48d                 LCALL 0x372; _LEDLOFF=0x372
0000028e d48a                 LCALL 0x375; _LEDHOFF=0x375
0000028f                      main.o:_00323_DS_:
0000028f ffef                 RET
00000290                      _workCtr:
00000290 deff                 MOVIA 0x0
00000291 e0fc                 BCR 0x3, 0x6
00000292 fbb6                 SUBAR 0x49, 0x0
00000293 f6fc                 BTRSS 0x3, 0x2
00000294 c568                 LGOTO 0x297; main.o:_00292_DS_=0x297
00000295 deb8                 MOVIA 0x47
00000296 fbb7                 SUBAR 0x48, 0x0
00000297                      main.o:_00292_DS_:
00000297 f7fc                 BTRSS 0x3, 0x0
00000298 c554                 LGOTO 0x2ab; main.o:_00279_DS_=0x2ab
00000299 deff                 MOVIA 0x0
0000029a e0fc                 BCR 0x3, 0x6
0000029b fbc5                 SUBAR 0x3a, 0x0
0000029c f6fc                 BTRSS 0x3, 0x2
0000029d c55f                 LGOTO 0x2a0; main.o:_00293_DS_=0x2a0
0000029e defc                 MOVIA 0x3
0000029f fbc6                 SUBAR 0x39, 0x0
000002a0                      main.o:_00293_DS_:
000002a0 f7fc                 BTRSS 0x3, 0x0
000002a1 c53c                 LGOTO 0x2c3; main.o:_00281_DS_=0x2c3
000002a2 de00                 MOVIA 0xff
000002a3 e0fc                 BCR 0x3, 0x6
000002a4 fc46                 ADDAR 0x39, 0x1
000002a5 f7fc                 BTRSS 0x3, 0x0
000002a6 f945                 DECR 0x3a, 0x1
000002a7 fec6                 MOVR 0x39, 0x0
000002a8 ff56                 MOVAR 0x29
000002a9 ffb3                 SFUN 0xc
000002aa c53c                 LGOTO 0x2c3; main.o:_00281_DS_=0x2c3
000002ab                      main.o:_00279_DS_:
000002ab e0fc                 BCR 0x3, 0x6
000002ac fa46                 INCR 0x39, 0x1
000002ad f2fc                 BTRSC 0x3, 0x2
000002ae fa45                 INCR 0x3a, 0x1
000002af feb4                 MOVR 0x4b, 0x0
000002b0 ff56                 MOVAR 0x29
000002b1 fd55                 CLRR 0x2a
000002b2 deff                 MOVIA 0x0
000002b3 fbc5                 SUBAR 0x3a, 0x0
000002b4 f6fc                 BTRSS 0x3, 0x2
000002b5 c547                 LGOTO 0x2b8; main.o:_00294_DS_=0x2b8
000002b6 fed6                 MOVR 0x29, 0x0
000002b7 fbc6                 SUBAR 0x39, 0x0
000002b8                      main.o:_00294_DS_:
000002b8 f7fc                 BTRSS 0x3, 0x0
000002b9 c540                 LGOTO 0x2bf; main.o:_00277_DS_=0x2bf
000002ba e0fc                 BCR 0x3, 0x6
000002bb fed6                 MOVR 0x29, 0x0
000002bc ff46                 MOVAR 0x39
000002bd fed5                 MOVR 0x2a, 0x0
000002be ff45                 MOVAR 0x3a
000002bf                      main.o:_00277_DS_:
000002bf e0fc                 BCR 0x3, 0x6
000002c0 fec6                 MOVR 0x39, 0x0
000002c1 ff56                 MOVAR 0x29
000002c2 ffb3                 SFUN 0xc
000002c3                      main.o:_00281_DS_:
000002c3 ffef                 RET
000002c4                      _pwmStop:
000002c4 fdff                 CLRA
000002c5 ffb5                 SFUN 0xa
000002c6 ffef                 RET
000002c7                      _pwmInit:
000002c7 ff95                 SFUNR 0xa
000002c8 e0fc                 BCR 0x3, 0x6
000002c9 ff57                 MOVAR 0x28
000002ca f057                 BTRSC 0x28, 0x7
000002cb c52a                 LGOTO 0x2d5; main.o:_00265_DS_=0x2d5
000002cc fd66                 CLRR 0x19
000002cd de7f                 MOVIA 0x80
000002ce ffb6                 SFUN 0x9
000002cf def7                 MOVIA 0x8
000002d0 ffb3                 SFUN 0xc
000002d1 fdff                 CLRA
000002d2 ffb4                 SFUN 0xb
000002d3 de7c                 MOVIA 0x83
000002d4 ffb5                 SFUN 0xa
000002d5                      main.o:_00265_DS_:
000002d5 ffef                 RET
000002d6                      _LED4ON:
000002d6 ffe9                 IOSTR 0x6
000002d7 e0fc                 BCR 0x3, 0x6
000002d8 ff58                 MOVAR 0x27
000002d9 e258                 BCR 0x27, 0x3
000002da fed8                 MOVR 0x27, 0x0
000002db fff9                 IOST 0x6
000002dc ffea                 IOSTR 0x5
000002dd ff58                 MOVAR 0x27
000002de e058                 BCR 0x27, 0x7
000002df fed8                 MOVR 0x27, 0x0
000002e0 fffa                 IOST 0x5
000002e1 e679                 BSR 0x6, 0x3
000002e2 e07a                 BCR 0x5, 0x7
000002e3 de9b                 MOVIA 0x64
000002e4 d6ac                 LCALL 0x153; _delay=0x153
000002e5 d4e5                 LCALL 0x31a; _LedInput=0x31a
000002e6 ffef                 RET
000002e7                      _LED3ON:
000002e7 ffea                 IOSTR 0x5
000002e8 e0fc                 BCR 0x3, 0x6
000002e9 ff59                 MOVAR 0x26
000002ea e059                 BCR 0x26, 0x7
000002eb fed9                 MOVR 0x26, 0x0
000002ec fffa                 IOST 0x5
000002ed ffea                 IOSTR 0x5
000002ee ff59                 MOVAR 0x26
000002ef e3d9                 BCR 0x26, 0x0
000002f0 fed9                 MOVR 0x26, 0x0
000002f1 fffa                 IOST 0x5
000002f2 e07a                 BCR 0x5, 0x7
000002f3 e7fa                 BSR 0x5, 0x0
000002f4 de9b                 MOVIA 0x64
000002f5 d6ac                 LCALL 0x153; _delay=0x153
000002f6 d4e5                 LCALL 0x31a; _LedInput=0x31a
000002f7 ffef                 RET
000002f8                      _LED2ON:
000002f8 ffea                 IOSTR 0x5
000002f9 e0fc                 BCR 0x3, 0x6
000002fa ff5a                 MOVAR 0x25
000002fb e05a                 BCR 0x25, 0x7
000002fc feda                 MOVR 0x25, 0x0
000002fd fffa                 IOST 0x5
000002fe ffea                 IOSTR 0x5
000002ff ff5a                 MOVAR 0x25
00000300 e3da                 BCR 0x25, 0x0
00000301 feda                 MOVR 0x25, 0x0
00000302 fffa                 IOST 0x5
00000303 e47a                 BSR 0x5, 0x7
00000304 e3fa                 BCR 0x5, 0x0
00000305 de9b                 MOVIA 0x64
00000306 d6ac                 LCALL 0x153; _delay=0x153
00000307 d4e5                 LCALL 0x31a; _LedInput=0x31a
00000308 ffef                 RET
00000309                      _LED1ON:
00000309 ffe9                 IOSTR 0x6
0000030a e0fc                 BCR 0x3, 0x6
0000030b ff5b                 MOVAR 0x24
0000030c e25b                 BCR 0x24, 0x3
0000030d fedb                 MOVR 0x24, 0x0
0000030e fff9                 IOST 0x6
0000030f ffea                 IOSTR 0x5
00000310 ff5b                 MOVAR 0x24
00000311 e3db                 BCR 0x24, 0x0
00000312 fedb                 MOVR 0x24, 0x0
00000313 fffa                 IOST 0x5
00000314 e679                 BSR 0x6, 0x3
00000315 e3fa                 BCR 0x5, 0x0
00000316 de9b                 MOVIA 0x64
00000317 d6ac                 LCALL 0x153; _delay=0x153
00000318 d4e5                 LCALL 0x31a; _LedInput=0x31a
00000319 ffef                 RET
0000031a                      _LedInput:
0000031a ffea                 IOSTR 0x5
0000031b e0fc                 BCR 0x3, 0x6
0000031c ff5c                 MOVAR 0x23
0000031d de7e                 MOVIA 0x81
0000031e ee5c                 IORAR 0x23, 0x1
0000031f fedc                 MOVR 0x23, 0x0
00000320 fffa                 IOST 0x5
00000321 ffe9                 IOSTR 0x6
00000322 ff5c                 MOVAR 0x23
00000323 e65c                 BSR 0x23, 0x3
00000324 fedc                 MOVR 0x23, 0x0
00000325 fff9                 IOST 0x6
00000326 de81                 MOVIA 0x7e
00000327 ef7a                 ANDAR 0x5, 0x1
00000328 e279                 BCR 0x6, 0x3
00000329 ffef                 RET
0000032a                      _ledShow:
0000032a d4e5                 LCALL 0x31a; _LedInput=0x31a
0000032b defa                 MOVIA 0x5
0000032c e0fc                 BCR 0x3, 0x6
0000032d fbc0                 SUBAR 0x3f, 0x0
0000032e f3fc                 BTRSC 0x3, 0x0
0000032f c4bd                 LGOTO 0x342; main.o:_00232_DS_=0x342
00000330 defc                 MOVIA 0x3
00000331 ff75                 MOVAR 0xa
00000332 fec0                 MOVR 0x3f, 0x0
00000333 dac8                 ADDIA 0x37
00000334 f3fc                 BTRSC 0x3, 0x0
00000335 fa75                 INCR 0xa, 0x1
00000336 ff7d                 MOVAR 0x2
00000337                      main.o:_00238_DS_:
00000337 c4c3                 LGOTO 0x33c; main.o:_00226_DS_=0x33c
00000338 c4be                 LGOTO 0x341; main.o:_00230_DS_=0x341
00000339 c4bf                 LGOTO 0x340; main.o:_00229_DS_=0x340
0000033a c4c0                 LGOTO 0x33f; main.o:_00228_DS_=0x33f
0000033b c4c1                 LGOTO 0x33e; main.o:_00227_DS_=0x33e
0000033c                      main.o:_00226_DS_:
0000033c d4e5                 LCALL 0x31a; _LedInput=0x31a
0000033d c4bd                 LGOTO 0x342; main.o:_00232_DS_=0x342
0000033e                      main.o:_00227_DS_:
0000033e d529                 LCALL 0x2d6; _LED4ON=0x2d6
0000033f                      main.o:_00228_DS_:
0000033f d518                 LCALL 0x2e7; _LED3ON=0x2e7
00000340                      main.o:_00229_DS_:
00000340 d507                 LCALL 0x2f8; _LED2ON=0x2f8
00000341                      main.o:_00230_DS_:
00000341 d4f6                 LCALL 0x309; _LED1ON=0x309
00000342                      main.o:_00232_DS_:
00000342 ffef                 RET
00000343                      _initSys:
00000343 ffec                 DISI
00000344 de8f                 MOVIA 0x70
00000345 fffa                 IOST 0x5
00000346 defe                 MOVIA 0x1
00000347 fff9                 IOST 0x6
00000348 fd79                 CLRR 0x6
00000349 e0fc                 BCR 0x3, 0x6
0000034a fd7a                 CLRR 0x5
0000034b de60                 MOVIA 0x9f
0000034c fff6                 IOST 0x9
0000034d de00                 MOVIA 0xff
0000034e ff73                 MOVAR 0xc
0000034f defe                 MOVIA 0x1
00000350 ff71                 MOVAR 0xe
00000351 fdff                 CLRA
00000352 fff0                 IOST 0xf
00000353 dec8                 MOVIA 0x37
00000354 ff7e                 MOVAR 0x1
00000355 fdff                 CLRA
00000356 fffc                 T0MD
00000357 defe                 MOVIA 0x1
00000358 fff0                 IOST 0xf
00000359 de77                 MOVIA 0x88
0000035a ff77                 MOVAR 0x8
0000035b defe                 MOVIA 0x1
0000035c fff0                 IOST 0xf
0000035d fffb                 ENI
0000035e ffef                 RET
0000035f                      _fgCtr:
0000035f f7f9                 BTRSS 0x6, 0x0
00000360 c490                 LGOTO 0x36f; main.o:_00215_DS_=0x36f
00000361 e0fc                 BCR 0x3, 0x6
00000362 feb5                 MOVR 0x4a, 0x0
00000363 f6fc                 BTRSS 0x3, 0x2
00000364 c494                 LGOTO 0x36b; main.o:_00213_DS_=0x36b
00000365 feb9                 MOVR 0x46, 0x0
00000366 ff37                 MOVAR 0x48
00000367 feb8                 MOVR 0x47, 0x0
00000368 ff36                 MOVAR 0x49
00000369 fd39                 CLRR 0x46
0000036a fd38                 CLRR 0x47
0000036b                      main.o:_00213_DS_:
0000036b defe                 MOVIA 0x1
0000036c e0fc                 BCR 0x3, 0x6
0000036d ff35                 MOVAR 0x4a
0000036e c48e                 LGOTO 0x371; main.o:_00217_DS_=0x371
0000036f                      main.o:_00215_DS_:
0000036f e0fc                 BCR 0x3, 0x6
00000370 fd35                 CLRR 0x4a
00000371                      main.o:_00217_DS_:
00000371 ffef                 RET
00000372                      _LEDLOFF:
00000372 e0fc                 BCR 0x3, 0x6
00000373 e27a                 BCR 0x5, 0x3
00000374 ffef                 RET
00000375                      _LEDHOFF:
00000375 e0fc                 BCR 0x3, 0x6
00000376 e2fa                 BCR 0x5, 0x2
00000377 ffef                 RET
00000378                      _LEDLON:
00000378 e0fc                 BCR 0x3, 0x6
00000379 e67a                 BSR 0x5, 0x3
0000037a ffef                 RET
0000037b                      _LEDHON:
0000037b e0fc                 BCR 0x3, 0x6
0000037c e6fa                 BSR 0x5, 0x2
0000037d ffef                 RET
0000037e                      ___cinit_load__:
