00000000 c7fe                 LGOTO 0x1; __nyc_ny8_startup=0x1
00000001                      __nyc_ny8_startup:
00000001 d072                 LCALL 0x78d; ___cinit_load__=0x78d
00000002 c796                 LGOTO 0x69; _main=0x69
00000003                      main.o:_00754_DS_:
00000003 f56f                 BTRSS 0x10, 0x5
00000004 c7fc                 LGOTO 0x3; main.o:_00754_DS_=0x3
00000005 ffef                 RET
00000008 c7f6                 LGOTO 0x9; main.o:__sdcc_interrupt=0x9
00000009                      main.o:__sdcc_interrupt:
00000009 ff3d                 MOVAR 0x42
0000000a eafc                 SWAPR 0x3, 0x0
0000000b fd7c                 CLRR 0x3
0000000c ff3e                 MOVAR 0x41
0000000d fef5                 MOVR 0xa, 0x0
0000000e fd75                 CLRR 0xa
0000000f ff3f                 MOVAR 0x40
00000010 fefb                 MOVR 0x4, 0x0
00000011 e0fc                 BCR 0x3, 0x6
00000012 ff17                 MOVAR 0x68
00000013 feba                 MOVR 0x45, 0x0
00000014 ff16                 MOVAR 0x69
00000015 febb                 MOVR 0x44, 0x0
00000016 ff15                 MOVAR 0x6a
00000017 f7f0                 BTRSS 0xf, 0x0
00000018 c7aa                 LGOTO 0x55; main.o:_00123_DS_=0x55
00000019 dec8                 MOVIA 0x37
0000001a fc7e                 ADDAR 0x1, 0x1
0000001b fa05                 INCR 0x7a, 0x1
0000001c de9b                 MOVIA 0x64
0000001d fb85                 SUBAR 0x7a, 0x0
0000001e f7fc                 BTRSS 0x3, 0x0
0000001f c7aa                 LGOTO 0x55; main.o:_00123_DS_=0x55
00000020 e786                 BSR 0x79, 0x0
00000021 fd05                 CLRR 0x7a
00000022 fa01                 INCR 0x7e, 0x1
00000023 ded7                 MOVIA 0x28
00000024 fb81                 SUBAR 0x7e, 0x0
00000025 f3fc                 BTRSC 0x3, 0x0
00000026 fd01                 CLRR 0x7e
00000027 fa02                 INCR 0x7d, 0x1
00000028 deeb                 MOVIA 0x14
00000029 fb82                 SUBAR 0x7d, 0x0
0000002a f7fc                 BTRSS 0x3, 0x0
0000002b c7ce                 LGOTO 0x31; main.o:_00110_DS_=0x31
0000002c fd02                 CLRR 0x7d
0000002d e4fc                 BSR 0x3, 0x6
0000002e fed1                 MOVR 0x2e, 0x0
0000002f f6fc                 BTRSS 0x3, 0x2
00000030 f951                 DECR 0x2e, 0x1
00000031                      main.o:_00110_DS_:
00000031 e4fc                 BSR 0x3, 0x6
00000032 fa5f                 INCR 0x20, 0x1
00000033 f2fc                 BTRSC 0x3, 0x2
00000034 fa5e                 INCR 0x21, 0x1
00000035 defe                 MOVIA 0x1
00000036 fbde                 SUBAR 0x21, 0x0
00000037 f6fc                 BTRSS 0x3, 0x2
00000038 c7c4                 LGOTO 0x3b; main.o:_00161_DS_=0x3b
00000039 de0b                 MOVIA 0xf4
0000003a fbdf                 SUBAR 0x20, 0x0
0000003b                      main.o:_00161_DS_:
0000003b f7fc                 BTRSS 0x3, 0x0
0000003c c7bf                 LGOTO 0x40; main.o:_00112_DS_=0x40
0000003d e4fc                 BSR 0x3, 0x6
0000003e fd5f                 CLRR 0x20
0000003f fd5e                 CLRR 0x21
00000040                      main.o:_00112_DS_:
00000040 e0fc                 BCR 0x3, 0x6
00000041 fa00                 INCR 0x7f, 0x1
00000042 de9b                 MOVIA 0x64
00000043 fb80                 SUBAR 0x7f, 0x0
00000044 f7fc                 BTRSS 0x3, 0x0
00000045 c7aa                 LGOTO 0x55; main.o:_00123_DS_=0x55
00000046 fd00                 CLRR 0x7f
00000047 e4fc                 BSR 0x3, 0x6
00000048 fed8                 MOVR 0x27, 0x0
00000049 f6fc                 BTRSS 0x3, 0x2
0000004a f958                 DECR 0x27, 0x1
0000004b fedb                 MOVR 0x24, 0x0
0000004c f2fc                 BTRSC 0x3, 0x2
0000004d c7ad                 LGOTO 0x52; main.o:_00116_DS_=0x52
0000004e fa5d                 INCR 0x22, 0x1
0000004f f2fc                 BTRSC 0x3, 0x2
00000050 fa5c                 INCR 0x23, 0x1
00000051 c7aa                 LGOTO 0x55; main.o:_00123_DS_=0x55
00000052                      main.o:_00116_DS_:
00000052 e4fc                 BSR 0x3, 0x6
00000053 fd5d                 CLRR 0x22
00000054 fd5c                 CLRR 0x23
00000055                      main.o:_00123_DS_:
00000055 f770                 BTRSS 0xf, 0x1
00000056 c7a6                 LGOTO 0x59; main.o:_00125_DS_=0x59
00000057 de02                 MOVIA 0xfd
00000058 ff70                 MOVAR 0xf
00000059                      main.o:_00125_DS_:
00000059 fd70                 CLRR 0xf
0000005a e0fc                 BCR 0x3, 0x6
0000005b fe95                 MOVR 0x6a, 0x0
0000005c ff3b                 MOVAR 0x44
0000005d fe96                 MOVR 0x69, 0x0
0000005e ff3a                 MOVAR 0x45
0000005f fe97                 MOVR 0x68, 0x0
00000060 ff7b                 MOVAR 0x4
00000061 febf                 MOVR 0x40, 0x0
00000062 ff75                 MOVAR 0xa
00000063 fd7c                 CLRR 0x3
00000064 eabe                 SWAPR 0x41, 0x0
00000065 ff7c                 MOVAR 0x3
00000066 ea3d                 SWAPR 0x42, 0x1
00000067 eabd                 SWAPR 0x42, 0x0
00000068                      main.o:END_OF_INTERRUPT:
00000068 ffee                 RETIE
00000069                      _main:
00000069 d43c                 LCALL 0x3c3; _initSys=0x3c3
0000006a d4be                 LCALL 0x341; _initAD=0x341
0000006b                      ___cinit_size__:
0000006b de9b                 MOVIA 0x64
0000006c e4fc                 BSR 0x3, 0x6
0000006d ff44                 MOVAR 0x3b
0000006e e0fc                 BCR 0x3, 0x6
0000006f e586                 BSR 0x79, 0x4
00000070 e4fc                 BSR 0x3, 0x6
00000071 fd58                 CLRR 0x27
00000072 e0fc                 BCR 0x3, 0x6
00000073 f586                 BTRSS 0x79, 0x4
00000074 c788                 LGOTO 0x77; main.o:_00010_DS_=0x77
00000075 e4fc                 BSR 0x3, 0x6
00000076 fa58                 INCR 0x27, 0x1
00000077                      main.o:_00010_DS_:
00000077 def7                 MOVIA 0x8
00000078 e4fc                 BSR 0x3, 0x6
00000079 ff4c                 MOVAR 0x33
0000007a ff4e                 MOVAR 0x31
0000007b ff4b                 MOVAR 0x34
0000007c def7                 MOVIA 0x8
0000007d ff4d                 MOVAR 0x32
0000007e de05                 MOVIA 0xfa
0000007f ff3a                 MOVAR 0x45
00000080 deff                 MOVIA 0x0
00000081 d6cc                 LCALL 0x133; _delay=0x133
00000082                      main.o:_00215_DS_:
00000082 fffd                 CLRWDT
00000083 e0fc                 BCR 0x3, 0x6
00000084 f586                 BTRSS 0x79, 0x4
00000085 c777                 LGOTO 0x88; main.o:_00167_DS_=0x88
00000086 d38f                 LCALL 0x470; _refreshNub=0x470
00000087 c776                 LGOTO 0x89; main.o:_00168_DS_=0x89
00000088                      main.o:_00167_DS_:
00000088 d25d                 LCALL 0x5a2; _setInput=0x5a2
00000089                      main.o:_00168_DS_:
00000089 e4fc                 BSR 0x3, 0x6
0000008a fedb                 MOVR 0x24, 0x0
0000008b f2fc                 BTRSC 0x3, 0x2
0000008c c75e                 LGOTO 0xa1; main.o:_00175_DS_=0xa1
0000008d ded7                 MOVIA 0x28
0000008e fbd4                 SUBAR 0x2b, 0x0
0000008f f7fc                 BTRSS 0x3, 0x0
00000090 c75e                 LGOTO 0xa1; main.o:_00175_DS_=0xa1
00000091 fec9                 MOVR 0x36, 0x0
00000092 fbd4                 SUBAR 0x2b, 0x0
00000093 f3fc                 BTRSC 0x3, 0x0
00000094 c766                 LGOTO 0x99; main.o:_00172_DS_=0x99
00000095 f949                 DECR 0x36, 0x1
00000096 fec9                 MOVR 0x36, 0x0
00000097 ffb3                 SFUN 0xc
00000098 c75e                 LGOTO 0xa1; main.o:_00175_DS_=0xa1
00000099                      main.o:_00172_DS_:
00000099 e4fc                 BSR 0x3, 0x6
0000009a fed4                 MOVR 0x2b, 0x0
0000009b fbc9                 SUBAR 0x36, 0x0
0000009c f3fc                 BTRSC 0x3, 0x0
0000009d c75e                 LGOTO 0xa1; main.o:_00175_DS_=0xa1
0000009e fa49                 INCR 0x36, 0x1
0000009f fec9                 MOVR 0x36, 0x0
000000a0 ffb3                 SFUN 0xc
000000a1                      main.o:_00175_DS_:
000000a1 e4fc                 BSR 0x3, 0x6
000000a2 fedb                 MOVR 0x24, 0x0
000000a3 f2fc                 BTRSC 0x3, 0x2
000000a4 c751                 LGOTO 0xae; main.o:_00178_DS_=0xae
000000a5 fed6                 MOVR 0x29, 0x0
000000a6 fbd7                 SUBAR 0x28, 0x0
000000a7 f3fc                 BTRSC 0x3, 0x0
000000a8 c751                 LGOTO 0xae; main.o:_00178_DS_=0xae
000000a9 f956                 DECR 0x29, 0x1
000000aa fed6                 MOVR 0x29, 0x0
000000ab ffb3                 SFUN 0xc
000000ac fed6                 MOVR 0x29, 0x0
000000ad ff49                 MOVAR 0x36
000000ae                      main.o:_00178_DS_:
000000ae e0fc                 BCR 0x3, 0x6
000000af f786                 BTRSS 0x79, 0x0
000000b0 c77d                 LGOTO 0x82; main.o:_00215_DS_=0x82
000000b1 e386                 BCR 0x79, 0x0
000000b2 e4fc                 BSR 0x3, 0x6
000000b3 fec4                 MOVR 0x3b, 0x0
000000b4 f2fc                 BTRSC 0x3, 0x2
000000b5 c746                 LGOTO 0xb9; main.o:_00183_DS_=0xb9
000000b6 f944                 DECR 0x3b, 0x1
000000b7 feca                 MOVR 0x35, 0x0
000000b8 ff48                 MOVAR 0x37
000000b9                      main.o:_00183_DS_:
000000b9 defa                 MOVIA 0x5
000000ba e4fc                 BSR 0x3, 0x6
000000bb fbca                 SUBAR 0x35, 0x0
000000bc f3fc                 BTRSC 0x3, 0x0
000000bd c72c                 LGOTO 0xd3; main.o:_00187_DS_=0xd3
000000be fedb                 MOVR 0x24, 0x0
000000bf f2fc                 BTRSC 0x3, 0x2
000000c0 c72c                 LGOTO 0xd3; main.o:_00187_DS_=0xd3
000000c1 fa46                 INCR 0x39, 0x1
000000c2 f2fc                 BTRSC 0x3, 0x2
000000c3 fa45                 INCR 0x3a, 0x1
000000c4 dee8                 MOVIA 0x17
000000c5 fbc5                 SUBAR 0x3a, 0x0
000000c6 f6fc                 BTRSS 0x3, 0x2
000000c7 c735                 LGOTO 0xca; main.o:_00305_DS_=0xca
000000c8 de8f                 MOVIA 0x70
000000c9 fbc6                 SUBAR 0x39, 0x0
000000ca                      main.o:_00305_DS_:
000000ca f7fc                 BTRSS 0x3, 0x0
000000cb c729                 LGOTO 0xd6; main.o:_00188_DS_=0xd6
000000cc e4fc                 BSR 0x3, 0x6
000000cd fd46                 CLRR 0x39
000000ce fd45                 CLRR 0x3a
000000cf fd48                 CLRR 0x37
000000d0 fd5b                 CLRR 0x24
000000d1 d460                 LCALL 0x39f; _pwmStop=0x39f
000000d2 c729                 LGOTO 0xd6; main.o:_00188_DS_=0xd6
000000d3                      main.o:_00187_DS_:
000000d3 e4fc                 BSR 0x3, 0x6
000000d4 fd46                 CLRR 0x39
000000d5 fd45                 CLRR 0x3a
000000d6                      main.o:_00188_DS_:
000000d6 defa                 MOVIA 0x5
000000d7 e4fc                 BSR 0x3, 0x6
000000d8 fbd5                 SUBAR 0x2a, 0x0
000000d9 f7fc                 BTRSS 0x3, 0x0
000000da c70e                 LGOTO 0xf1; main.o:_00193_DS_=0xf1
000000db fedb                 MOVR 0x24, 0x0
000000dc f2fc                 BTRSC 0x3, 0x2
000000dd c70e                 LGOTO 0xf1; main.o:_00193_DS_=0xf1
000000de fa53                 INCR 0x2c, 0x1
000000df f2fc                 BTRSC 0x3, 0x2
000000e0 fa52                 INCR 0x2d, 0x1
000000e1 deff                 MOVIA 0x0
000000e2 fbd2                 SUBAR 0x2d, 0x0
000000e3 f6fc                 BTRSS 0x3, 0x2
000000e4 c718                 LGOTO 0xe7; main.o:_00307_DS_=0xe7
000000e5 de04                 MOVIA 0xfb
000000e6 fbd3                 SUBAR 0x2c, 0x0
000000e7                      main.o:_00307_DS_:
000000e7 f7fc                 BTRSS 0x3, 0x0
000000e8 c70b                 LGOTO 0xf4; main.o:_00194_DS_=0xf4
000000e9 e4fc                 BSR 0x3, 0x6
000000ea fd55                 CLRR 0x2a
000000eb fd53                 CLRR 0x2c
000000ec fd52                 CLRR 0x2d
000000ed dee6                 MOVIA 0x19
000000ee ff51                 MOVAR 0x2e
000000ef d440                 LCALL 0x3bf; _powerOff=0x3bf
000000f0 c70b                 LGOTO 0xf4; main.o:_00194_DS_=0xf4
000000f1                      main.o:_00193_DS_:
000000f1 e4fc                 BSR 0x3, 0x6
000000f2 fd53                 CLRR 0x2c
000000f3 fd52                 CLRR 0x2d
000000f4                      main.o:_00194_DS_:
000000f4 defa                 MOVIA 0x5
000000f5 e0fc                 BCR 0x3, 0x6
000000f6 fb82                 SUBAR 0x7d, 0x0
000000f7 f3fc                 BTRSC 0x3, 0x0
000000f8 c704                 LGOTO 0xfb; main.o:_00200_DS_=0xfb
000000f9 d5aa                 LCALL 0x255; _checkBatAD=0x255
000000fa c6fb                 LGOTO 0x104; main.o:_00201_DS_=0x104
000000fb                      main.o:_00200_DS_:
000000fb def4                 MOVIA 0xb
000000fc e0fc                 BCR 0x3, 0x6
000000fd fb82                 SUBAR 0x7d, 0x0
000000fe f7fc                 BTRSS 0x3, 0x0
000000ff c6fb                 LGOTO 0x104; main.o:_00201_DS_=0x104
00000100 def0                 MOVIA 0xf
00000101 fb82                 SUBAR 0x7d, 0x0
00000102 f7fc                 BTRSS 0x3, 0x0
00000103 d65f                 LCALL 0x1a0; _checkOutA=0x1a0
00000104                      main.o:_00201_DS_:
00000104 d349                 LCALL 0x4b6; _chrgCtr=0x4b6
00000105 e0fc                 BCR 0x3, 0x6
00000106 f606                 BTRSS 0x79, 0x3
00000107 d421                 LCALL 0x3de; _keyCtr=0x3de
00000108 e4fc                 BSR 0x3, 0x6
00000109 fedb                 MOVR 0x24, 0x0
0000010a f6fc                 BTRSS 0x3, 0x2
0000010b c6d8                 LGOTO 0x127; main.o:_00207_DS_=0x127
0000010c feda                 MOVR 0x25, 0x0
0000010d f6fc                 BTRSS 0x3, 0x2
0000010e c6d8                 LGOTO 0x127; main.o:_00207_DS_=0x127
0000010f e0fc                 BCR 0x3, 0x6
00000110 f27a                 BTRSC 0x5, 0x3
00000111 c6d8                 LGOTO 0x127; main.o:_00207_DS_=0x127
00000112 e4fc                 BSR 0x3, 0x6
00000113 fed8                 MOVR 0x27, 0x0
00000114 f6fc                 BTRSS 0x3, 0x2
00000115 c6d8                 LGOTO 0x127; main.o:_00207_DS_=0x127
00000116 fed1                 MOVR 0x2e, 0x0
00000117 f6fc                 BTRSS 0x3, 0x2
00000118 c6d8                 LGOTO 0x127; main.o:_00207_DS_=0x127
00000119 e0fc                 BCR 0x3, 0x6
0000011a e186                 BCR 0x79, 0x4
0000011b fa04                 INCR 0x7b, 0x1
0000011c f2fc                 BTRSC 0x3, 0x2
0000011d fa03                 INCR 0x7c, 0x1
0000011e deff                 MOVIA 0x0
0000011f fb83                 SUBAR 0x7c, 0x0
00000120 f6fc                 BTRSS 0x3, 0x2
00000121 c6db                 LGOTO 0x124; main.o:_00311_DS_=0x124
00000122 de36                 MOVIA 0xc9
00000123 fb84                 SUBAR 0x7b, 0x0
00000124                      main.o:_00311_DS_:
00000124 f7fc                 BTRSS 0x3, 0x0
00000125 c6d8                 LGOTO 0x127; main.o:_00207_DS_=0x127
00000126 d486                 LCALL 0x379; _gotoSleep=0x379
00000127                      main.o:_00207_DS_:
00000127 defc                 MOVIA 0x3
00000128 e4fc                 BSR 0x3, 0x6
00000129 fbdc                 SUBAR 0x23, 0x0
0000012a f6fc                 BTRSS 0x3, 0x2
0000012b c6d1                 LGOTO 0x12e; main.o:_00312_DS_=0x12e
0000012c de7b                 MOVIA 0x84
0000012d fbdd                 SUBAR 0x22, 0x0
0000012e                      main.o:_00312_DS_:
0000012e f7fc                 BTRSS 0x3, 0x0
0000012f c77d                 LGOTO 0x82; main.o:_00215_DS_=0x82
00000130 d440                 LCALL 0x3bf; _powerOff=0x3bf
00000131 c77d                 LGOTO 0x82; main.o:_00215_DS_=0x82
00000132 ffef                 RET
00000133                      _delay:
00000133 e0fc                 BCR 0x3, 0x6
00000134 ff37                 MOVAR 0x48
00000135 feba                 MOVR 0x45, 0x0
00000136 ff38                 MOVAR 0x47
00000137 defe                 MOVIA 0x1
00000138 ff36                 MOVAR 0x49
00000139 fd35                 CLRR 0x4a
0000013a                      main.o:_00761_DS_:
0000013a e0fc                 BCR 0x3, 0x6
0000013b feb7                 MOVR 0x48, 0x0
0000013c da7f                 ADDIA 0x80
0000013d ff34                 MOVAR 0x4b
0000013e feb5                 MOVR 0x4a, 0x0
0000013f da7f                 ADDIA 0x80
00000140 fbb4                 SUBAR 0x4b, 0x0
00000141 f6fc                 BTRSS 0x3, 0x2
00000142 c6ba                 LGOTO 0x145; main.o:_00772_DS_=0x145
00000143 feb6                 MOVR 0x49, 0x0
00000144 fbb8                 SUBAR 0x47, 0x0
00000145                      main.o:_00772_DS_:
00000145 f7fc                 BTRSS 0x3, 0x0
00000146 c6b2                 LGOTO 0x14d; main.o:_00763_DS_=0x14d
00000147 e0fc                 BCR 0x3, 0x6
00000148 fa36                 INCR 0x49, 0x1
00000149 f6fc                 BTRSS 0x3, 0x2
0000014a c6b3                 LGOTO 0x14c; main.o:_00001_DS_=0x14c
0000014b fa35                 INCR 0x4a, 0x1
0000014c                      main.o:_00001_DS_:
0000014c c6c5                 LGOTO 0x13a; main.o:_00761_DS_=0x13a
0000014d                      main.o:_00763_DS_:
0000014d ffef                 RET
0000014e                      _F_AIN2_Convert:
0000014e e0fc                 BCR 0x3, 0x6
0000014f ff42                 MOVAR 0x3d
00000150 fd5a                 CLRR 0x25
00000151 fd5c                 CLRR 0x23
00000152 fd5b                 CLRR 0x24
00000153 de6d                 MOVIA 0x92
00000154 ff6f                 MOVAR 0x10
00000155 de37                 MOVIA 0xc8
00000156 ff3a                 MOVAR 0x45
00000157 deff                 MOVIA 0x0
00000158 d6cc                 LCALL 0x133; _delay=0x133
00000159 defe                 MOVIA 0x1
0000015a e0fc                 BCR 0x3, 0x6
0000015b ff41                 MOVAR 0x3e
0000015c                      main.o:_00747_DS_:
0000015c e0fc                 BCR 0x3, 0x6
0000015d fec1                 MOVR 0x3e, 0x0
0000015e fbc2                 SUBAR 0x3d, 0x0
0000015f f7fc                 BTRSS 0x3, 0x0
00000160 c689                 LGOTO 0x176; main.o:_00749_DS_=0x176
00000161 e4ef                 BSR 0x10, 0x6
00000162 d7fc                 LCALL 0x3; main.o:_00754_DS_=0x3
00000163 def0                 MOVIA 0xf
00000164 efee                 ANDAR 0x11, 0x0
00000165 e0fc                 BCR 0x3, 0x6
00000166 fc5a                 ADDAR 0x25, 0x1
00000167 feed                 MOVR 0x12, 0x0
00000168 ff40                 MOVAR 0x3f
00000169 deff                 MOVIA 0x0
0000016a ff39                 MOVAR 0x46
0000016b fec0                 MOVR 0x3f, 0x0
0000016c fc5c                 ADDAR 0x23, 0x1
0000016d feb9                 MOVR 0x46, 0x0
0000016e f3fc                 BTRSC 0x3, 0x0
0000016f fab9                 INCR 0x46, 0x0
00000170 f2fc                 BTRSC 0x3, 0x2
00000171 c68c                 LGOTO 0x173; main.o:_00002_DS_=0x173
00000172 fc5b                 ADDAR 0x24, 0x1
00000173                      main.o:_00002_DS_:
00000173 e0fc                 BCR 0x3, 0x6
00000174 fa41                 INCR 0x3e, 0x1
00000175 c6a3                 LGOTO 0x15c; main.o:_00747_DS_=0x15c
00000176                      main.o:_00749_DS_:
00000176 ffef                 RET
00000177                      _F_AIN4_Convert:
00000177 e0fc                 BCR 0x3, 0x6
00000178 ff46                 MOVAR 0x39
00000179 fd5d                 CLRR 0x22
0000017a fd5f                 CLRR 0x20
0000017b fd5e                 CLRR 0x21
0000017c de6b                 MOVIA 0x94
0000017d ff6f                 MOVAR 0x10
0000017e de37                 MOVIA 0xc8
0000017f ff3a                 MOVAR 0x45
00000180 deff                 MOVIA 0x0
00000181 d6cc                 LCALL 0x133; _delay=0x133
00000182 defe                 MOVIA 0x1
00000183 e0fc                 BCR 0x3, 0x6
00000184 ff45                 MOVAR 0x3a
00000185                      main.o:_00738_DS_:
00000185 e0fc                 BCR 0x3, 0x6
00000186 fec5                 MOVR 0x3a, 0x0
00000187 fbc6                 SUBAR 0x39, 0x0
00000188 f7fc                 BTRSS 0x3, 0x0
00000189 c660                 LGOTO 0x19f; main.o:_00740_DS_=0x19f
0000018a e4ef                 BSR 0x10, 0x6
0000018b d7fc                 LCALL 0x3; main.o:_00754_DS_=0x3
0000018c def0                 MOVIA 0xf
0000018d efee                 ANDAR 0x11, 0x0
0000018e e0fc                 BCR 0x3, 0x6
0000018f fc5d                 ADDAR 0x22, 0x1
00000190 feed                 MOVR 0x12, 0x0
00000191 ff44                 MOVAR 0x3b
00000192 deff                 MOVIA 0x0
00000193 ff43                 MOVAR 0x3c
00000194 fec4                 MOVR 0x3b, 0x0
00000195 fc5f                 ADDAR 0x20, 0x1
00000196 fec3                 MOVR 0x3c, 0x0
00000197 f3fc                 BTRSC 0x3, 0x0
00000198 fac3                 INCR 0x3c, 0x0
00000199 f2fc                 BTRSC 0x3, 0x2
0000019a c663                 LGOTO 0x19c; main.o:_00003_DS_=0x19c
0000019b fc5e                 ADDAR 0x21, 0x1
0000019c                      main.o:_00003_DS_:
0000019c e0fc                 BCR 0x3, 0x6
0000019d fa45                 INCR 0x3a, 0x1
0000019e c67a                 LGOTO 0x185; main.o:_00738_DS_=0x185
0000019f                      main.o:_00740_DS_:
0000019f ffef                 RET
000001a0                      _checkOutA:
000001a0 e0fc                 BCR 0x3, 0x6
000001a1 fd5d                 CLRR 0x22
000001a2 fd5f                 CLRR 0x20
000001a3 fd5e                 CLRR 0x21
000001a4 def7                 MOVIA 0x8
000001a5 d688                 LCALL 0x177; _F_AIN4_Convert=0x177
000001a6 e0fc                 BCR 0x3, 0x6
000001a7 eade                 SWAPR 0x21, 0x0
000001a8 dd0f                 ANDIA 0xf0
000001a9 ff5e                 MOVAR 0x21
000001aa eadf                 SWAPR 0x20, 0x0
000001ab ff5f                 MOVAR 0x20
000001ac ddf0                 ANDIA 0xf
000001ad ee5e                 IORAR 0x21, 0x1
000001ae ed5f                 XORAR 0x20, 0x1
000001af de0f                 MOVIA 0xf0
000001b0 ef5d                 ANDAR 0x22, 0x1
000001b1 fedd                 MOVR 0x22, 0x0
000001b2 ff48                 MOVAR 0x37
000001b3 ff4a                 MOVAR 0x35
000001b4 fd49                 CLRR 0x36
000001b5 deff                 MOVIA 0x0
000001b6 ff47                 MOVAR 0x38
000001b7 fec8                 MOVR 0x37, 0x0
000001b8 fc5f                 ADDAR 0x20, 0x1
000001b9 fec7                 MOVR 0x38, 0x0
000001ba f3fc                 BTRSC 0x3, 0x0
000001bb fac7                 INCR 0x38, 0x0
000001bc f2fc                 BTRSC 0x3, 0x2
000001bd c640                 LGOTO 0x1bf; main.o:_00004_DS_=0x1bf
000001be fc5e                 ADDAR 0x21, 0x1
000001bf                      main.o:_00004_DS_:
000001bf e3fc                 BCR 0x3, 0x0
000001c0 e0fc                 BCR 0x3, 0x6
000001c1 ec5e                 RRR 0x21, 0x1
000001c2 ec5f                 RRR 0x20, 0x1
000001c3 e3fc                 BCR 0x3, 0x0
000001c4 ec5e                 RRR 0x21, 0x1
000001c5 ec5f                 RRR 0x20, 0x1
000001c6 e3fc                 BCR 0x3, 0x0
000001c7 ec5e                 RRR 0x21, 0x1
000001c8 ec5f                 RRR 0x20, 0x1
000001c9 fe94                 MOVR 0x6b, 0x0
000001ca f2fc                 BTRSC 0x3, 0x2
000001cb c630                 LGOTO 0x1cf; main.o:_00643_DS_=0x1cf
000001cc de9b                 MOVIA 0x64
000001cd ff5f                 MOVAR 0x20
000001ce fd5e                 CLRR 0x21
000001cf                      main.o:_00643_DS_:
000001cf def9                 MOVIA 0x6
000001d0 e4fc                 BSR 0x3, 0x6
000001d1 fbdb                 SUBAR 0x24, 0x0
000001d2 f3fc                 BTRSC 0x3, 0x0
000001d3 c619                 LGOTO 0x1e6; main.o:_00672_DS_=0x1e6
000001d4 deff                 MOVIA 0x0
000001d5 e0fc                 BCR 0x3, 0x6
000001d6 fbde                 SUBAR 0x21, 0x0
000001d7 f6fc                 BTRSS 0x3, 0x2
000001d8 c624                 LGOTO 0x1db; main.o:_00723_DS_=0x1db
000001d9 de36                 MOVIA 0xc9
000001da fbdf                 SUBAR 0x20, 0x0
000001db                      main.o:_00723_DS_:
000001db f7fc                 BTRSS 0x3, 0x0
000001dc c619                 LGOTO 0x1e6; main.o:_00672_DS_=0x1e6
000001dd e4fc                 BSR 0x3, 0x6
000001de fa55                 INCR 0x2a, 0x1
000001df def9                 MOVIA 0x6
000001e0 fbd5                 SUBAR 0x2a, 0x0
000001e1 f7fc                 BTRSS 0x3, 0x0
000001e2 c5ab                 LGOTO 0x254; main.o:_00675_DS_=0x254
000001e3 defa                 MOVIA 0x5
000001e4 ff55                 MOVAR 0x2a
000001e5 c5ab                 LGOTO 0x254; main.o:_00675_DS_=0x254
000001e6                      main.o:_00672_DS_:
000001e6 defe                 MOVIA 0x1
000001e7 e0fc                 BCR 0x3, 0x6
000001e8 fbde                 SUBAR 0x21, 0x0
000001e9 f6fc                 BTRSS 0x3, 0x2
000001ea c612                 LGOTO 0x1ed; main.o:_00725_DS_=0x1ed
000001eb de6e                 MOVIA 0x91
000001ec fbdf                 SUBAR 0x20, 0x0
000001ed                      main.o:_00725_DS_:
000001ed f7fc                 BTRSS 0x3, 0x0
000001ee c607                 LGOTO 0x1f8; main.o:_00669_DS_=0x1f8
000001ef e4fc                 BSR 0x3, 0x6
000001f0 fa55                 INCR 0x2a, 0x1
000001f1 def9                 MOVIA 0x6
000001f2 fbd5                 SUBAR 0x2a, 0x0
000001f3 f7fc                 BTRSS 0x3, 0x0
000001f4 c5ab                 LGOTO 0x254; main.o:_00675_DS_=0x254
000001f5 defa                 MOVIA 0x5
000001f6 ff55                 MOVAR 0x2a
000001f7 c5ab                 LGOTO 0x254; main.o:_00675_DS_=0x254
000001f8                      main.o:_00669_DS_:
000001f8 deff                 MOVIA 0x0
000001f9 e0fc                 BCR 0x3, 0x6
000001fa fbde                 SUBAR 0x21, 0x0
000001fb f6fc                 BTRSS 0x3, 0x2
000001fc c600                 LGOTO 0x1ff; main.o:_00727_DS_=0x1ff
000001fd deb1                 MOVIA 0x4e
000001fe fbdf                 SUBAR 0x20, 0x0
000001ff                      main.o:_00727_DS_:
000001ff f7fc                 BTRSS 0x3, 0x0
00000200 c5e2                 LGOTO 0x21d; main.o:_00666_DS_=0x21d
00000201 e4fc                 BSR 0x3, 0x6
00000202 fed5                 MOVR 0x2a, 0x0
00000203 f6fc                 BTRSS 0x3, 0x2
00000204 f955                 DECR 0x2a, 0x1
00000205 defa                 MOVIA 0x5
00000206 ff3a                 MOVAR 0x45
00000207 fedb                 MOVR 0x24, 0x0
00000208 d0eb                 LCALL 0x714; __mulchar=0x714
00000209 e0fc                 BCR 0x3, 0x6
0000020a ff4a                 MOVAR 0x35
0000020b deb9                 MOVIA 0x46
0000020c fcca                 ADDAR 0x35, 0x0
0000020d e4fc                 BSR 0x3, 0x6
0000020e ff54                 MOVAR 0x2b
0000020f fedb                 MOVR 0x24, 0x0
00000210 dbfe                 XORIA 0x1
00000211 f6fc                 BTRSS 0x3, 0x2
00000212 c5e9                 LGOTO 0x216; main.o:_00653_DS_=0x216
00000213 fa54                 INCR 0x2b, 0x1
00000214 fa54                 INCR 0x2b, 0x1
00000215 c5ab                 LGOTO 0x254; main.o:_00675_DS_=0x254
00000216                      main.o:_00653_DS_:
00000216 e4fc                 BSR 0x3, 0x6
00000217 fedb                 MOVR 0x24, 0x0
00000218 dbfd                 XORIA 0x2
00000219 f6fc                 BTRSS 0x3, 0x2
0000021a c5ab                 LGOTO 0x254; main.o:_00675_DS_=0x254
0000021b fa54                 INCR 0x2b, 0x1
0000021c c5ab                 LGOTO 0x254; main.o:_00675_DS_=0x254
0000021d                      main.o:_00666_DS_:
0000021d ded7                 MOVIA 0x28
0000021e e0fc                 BCR 0x3, 0x6
0000021f ff4a                 MOVAR 0x35
00000220 deb8                 MOVIA 0x47
00000221 e4fc                 BSR 0x3, 0x6
00000222 fbca                 SUBAR 0x35, 0x0
00000223 f7fc                 BTRSS 0x3, 0x0
00000224 c5d7                 LGOTO 0x228; main.o:_00656_DS_=0x228
00000225 dec3                 MOVIA 0x3c
00000226 e0fc                 BCR 0x3, 0x6
00000227 ff4a                 MOVAR 0x35
00000228                      main.o:_00656_DS_:
00000228 e4fc                 BSR 0x3, 0x6
00000229 fed5                 MOVR 0x2a, 0x0
0000022a f6fc                 BTRSS 0x3, 0x2
0000022b f955                 DECR 0x2a, 0x1
0000022c e0fc                 BCR 0x3, 0x6
0000022d feca                 MOVR 0x35, 0x0
0000022e ff49                 MOVAR 0x36
0000022f fd48                 CLRR 0x37
00000230 fede                 MOVR 0x21, 0x0
00000231 fbc8                 SUBAR 0x37, 0x0
00000232 f6fc                 BTRSS 0x3, 0x2
00000233 c5c9                 LGOTO 0x236; main.o:_00729_DS_=0x236
00000234 fedf                 MOVR 0x20, 0x0
00000235 fbc9                 SUBAR 0x36, 0x0
00000236                      main.o:_00729_DS_:
00000236 f3fc                 BTRSC 0x3, 0x0
00000237 c5b7                 LGOTO 0x248; main.o:_00662_DS_=0x248
00000238 defb                 MOVIA 0x4
00000239 e4fc                 BSR 0x3, 0x6
0000023a fbdb                 SUBAR 0x24, 0x0
0000023b f3fc                 BTRSC 0x3, 0x0
0000023c c5b7                 LGOTO 0x248; main.o:_00662_DS_=0x248
0000023d defa                 MOVIA 0x5
0000023e ff3a                 MOVAR 0x45
0000023f fedb                 MOVR 0x24, 0x0
00000240 d0eb                 LCALL 0x714; __mulchar=0x714
00000241 e0fc                 BCR 0x3, 0x6
00000242 ff4a                 MOVAR 0x35
00000243 deb9                 MOVIA 0x46
00000244 fcca                 ADDAR 0x35, 0x0
00000245 e4fc                 BSR 0x3, 0x6
00000246 ff54                 MOVAR 0x2b
00000247 c5ab                 LGOTO 0x254; main.o:_00675_DS_=0x254
00000248                      main.o:_00662_DS_:
00000248 deff                 MOVIA 0x0
00000249 e0fc                 BCR 0x3, 0x6
0000024a fbde                 SUBAR 0x21, 0x0
0000024b f6fc                 BTRSS 0x3, 0x2
0000024c c5b0                 LGOTO 0x24f; main.o:_00731_DS_=0x24f
0000024d deb4                 MOVIA 0x4b
0000024e fbdf                 SUBAR 0x20, 0x0
0000024f                      main.o:_00731_DS_:
0000024f f3fc                 BTRSC 0x3, 0x0
00000250 c5ab                 LGOTO 0x254; main.o:_00675_DS_=0x254
00000251 e4fc                 BSR 0x3, 0x6
00000252 fed7                 MOVR 0x28, 0x0
00000253 ff54                 MOVAR 0x2b
00000254                      main.o:_00675_DS_:
00000254 ffef                 RET
00000255                      _checkBatAD:
00000255 e0fc                 BCR 0x3, 0x6
00000256 fd5a                 CLRR 0x25
00000257 fd5c                 CLRR 0x23
00000258 fd5b                 CLRR 0x24
00000259 def7                 MOVIA 0x8
0000025a d6b1                 LCALL 0x14e; _F_AIN2_Convert=0x14e
0000025b e0fc                 BCR 0x3, 0x6
0000025c eadb                 SWAPR 0x24, 0x0
0000025d dd0f                 ANDIA 0xf0
0000025e ff5b                 MOVAR 0x24
0000025f eadc                 SWAPR 0x23, 0x0
00000260 ff5c                 MOVAR 0x23
00000261 ddf0                 ANDIA 0xf
00000262 ee5b                 IORAR 0x24, 0x1
00000263 ed5c                 XORAR 0x23, 0x1
00000264 de0f                 MOVIA 0xf0
00000265 ef5a                 ANDAR 0x25, 0x1
00000266 feda                 MOVR 0x25, 0x0
00000267 ff4c                 MOVAR 0x33
00000268 ff4e                 MOVAR 0x31
00000269 fd4d                 CLRR 0x32
0000026a deff                 MOVIA 0x0
0000026b ff4b                 MOVAR 0x34
0000026c fecc                 MOVR 0x33, 0x0
0000026d fc5c                 ADDAR 0x23, 0x1
0000026e fecb                 MOVR 0x34, 0x0
0000026f f3fc                 BTRSC 0x3, 0x0
00000270 facb                 INCR 0x34, 0x0
00000271 f2fc                 BTRSC 0x3, 0x2
00000272 c58b                 LGOTO 0x274; main.o:_00005_DS_=0x274
00000273 fc5b                 ADDAR 0x24, 0x1
00000274                      main.o:_00005_DS_:
00000274 e3fc                 BCR 0x3, 0x0
00000275 e0fc                 BCR 0x3, 0x6
00000276 ec5b                 RRR 0x24, 0x1
00000277 ec5c                 RRR 0x23, 0x1
00000278 e3fc                 BCR 0x3, 0x0
00000279 ec5b                 RRR 0x24, 0x1
0000027a ec5c                 RRR 0x23, 0x1
0000027b e3fc                 BCR 0x3, 0x0
0000027c ec5b                 RRR 0x24, 0x1
0000027d ec5c                 RRR 0x23, 0x1
0000027e fe94                 MOVR 0x6b, 0x0
0000027f f2fc                 BTRSC 0x3, 0x2
00000280 c57a                 LGOTO 0x285; main.o:_00569_DS_=0x285
00000281 def1                 MOVIA 0xe
00000282 ff5c                 MOVAR 0x23
00000283 def9                 MOVIA 0x6
00000284 ff5b                 MOVAR 0x24
00000285                      main.o:_00569_DS_:
00000285 def9                 MOVIA 0x6
00000286 e0fc                 BCR 0x3, 0x6
00000287 fbdb                 SUBAR 0x24, 0x0
00000288 f6fc                 BTRSS 0x3, 0x2
00000289 c573                 LGOTO 0x28c; main.o:_00634_DS_=0x28c
0000028a de8d                 MOVIA 0x72
0000028b fbdc                 SUBAR 0x23, 0x0
0000028c                      main.o:_00634_DS_:
0000028c f7fc                 BTRSS 0x3, 0x0
0000028d c56d                 LGOTO 0x292; main.o:_00571_DS_=0x292
0000028e defb                 MOVIA 0x4
0000028f e4fc                 BSR 0x3, 0x6
00000290 ff47                 MOVAR 0x38
00000291 d450                 LCALL 0x3af; _pwm1Stop=0x3af
00000292                      main.o:_00571_DS_:
00000292 defb                 MOVIA 0x4
00000293 e0fc                 BCR 0x3, 0x6
00000294 fbdb                 SUBAR 0x24, 0x0
00000295 f6fc                 BTRSS 0x3, 0x2
00000296 c566                 LGOTO 0x299; main.o:_00635_DS_=0x299
00000297 de64                 MOVIA 0x9b
00000298 fbdc                 SUBAR 0x23, 0x0
00000299                      main.o:_00635_DS_:
00000299 f3fc                 BTRSC 0x3, 0x0
0000029a c55d                 LGOTO 0x2a2; main.o:_00573_DS_=0x2a2
0000029b e4fc                 BSR 0x3, 0x6
0000029c fd59                 CLRR 0x26
0000029d de6d                 MOVIA 0x92
0000029e e0fc                 BCR 0x3, 0x6
0000029f ff5c                 MOVAR 0x23
000002a0 defb                 MOVIA 0x4
000002a1 ff5b                 MOVAR 0x24
000002a2                      main.o:_00573_DS_:
000002a2 de91                 MOVIA 0x6e
000002a3 e0fc                 BCR 0x3, 0x6
000002a4 fc5c                 ADDAR 0x23, 0x1
000002a5 de04                 MOVIA 0xfb
000002a6 f3fc                 BTRSC 0x3, 0x0
000002a7 de03                 MOVIA 0xfc
000002a8 fc5b                 ADDAR 0x24, 0x1
000002a9 defe                 MOVIA 0x1
000002aa fbdb                 SUBAR 0x24, 0x0
000002ab f6fc                 BTRSS 0x3, 0x2
000002ac c550                 LGOTO 0x2af; main.o:_00636_DS_=0x2af
000002ad deab                 MOVIA 0x54
000002ae fbdc                 SUBAR 0x23, 0x0
000002af                      main.o:_00636_DS_:
000002af f7fc                 BTRSS 0x3, 0x0
000002b0 c532                 LGOTO 0x2cd; main.o:_00580_DS_=0x2cd
000002b1 de2b                 MOVIA 0xd4
000002b2 e0fc                 BCR 0x3, 0x6
000002b3 fcdc                 ADDAR 0x23, 0x0
000002b4 ff4e                 MOVAR 0x31
000002b5 de01                 MOVIA 0xfe
000002b6 ff4d                 MOVAR 0x32
000002b7 fedb                 MOVR 0x24, 0x0
000002b8 f3fc                 BTRSC 0x3, 0x0
000002b9 fadb                 INCR 0x24, 0x0
000002ba f2fc                 BTRSC 0x3, 0x2
000002bb c542                 LGOTO 0x2bd; main.o:_00006_DS_=0x2bd
000002bc fc4d                 ADDAR 0x32, 0x1
000002bd                      main.o:_00006_DS_:
000002bd e3fc                 BCR 0x3, 0x0
000002be e0fc                 BCR 0x3, 0x6
000002bf eccd                 RRR 0x32, 0x0
000002c0 ff4b                 MOVAR 0x34
000002c1 ecce                 RRR 0x31, 0x0
000002c2 ff4c                 MOVAR 0x33
000002c3 e3fc                 BCR 0x3, 0x0
000002c4 ec4b                 RRR 0x34, 0x1
000002c5 ec4c                 RRR 0x33, 0x1
000002c6 fecc                 MOVR 0x33, 0x0
000002c7 ff4e                 MOVAR 0x31
000002c8 deaf                 MOVIA 0x50
000002c9 fcce                 ADDAR 0x31, 0x0
000002ca e4fc                 BSR 0x3, 0x6
000002cb ff4a                 MOVAR 0x35
000002cc c4fd                 LGOTO 0x302; main.o:_00581_DS_=0x302
000002cd                      main.o:_00580_DS_:
000002cd deff                 MOVIA 0x0
000002ce e0fc                 BCR 0x3, 0x6
000002cf fbdb                 SUBAR 0x24, 0x0
000002d0 f6fc                 BTRSS 0x3, 0x2
000002d1 c52b                 LGOTO 0x2d4; main.o:_00637_DS_=0x2d4
000002d2 de37                 MOVIA 0xc8
000002d3 fbdc                 SUBAR 0x23, 0x0
000002d4                      main.o:_00637_DS_:
000002d4 f7fc                 BTRSS 0x3, 0x0
000002d5 c50c                 LGOTO 0x2f3; main.o:_00577_DS_=0x2f3
000002d6 dec7                 MOVIA 0x38
000002d7 e0fc                 BCR 0x3, 0x6
000002d8 fcdc                 ADDAR 0x23, 0x0
000002d9 ff4e                 MOVAR 0x31
000002da de00                 MOVIA 0xff
000002db ff4c                 MOVAR 0x33
000002dc fedb                 MOVR 0x24, 0x0
000002dd f3fc                 BTRSC 0x3, 0x0
000002de fadb                 INCR 0x24, 0x0
000002df f2fc                 BTRSC 0x3, 0x2
000002e0 c51d                 LGOTO 0x2e2; main.o:_00007_DS_=0x2e2
000002e1 fc4c                 ADDAR 0x33, 0x1
000002e2                      main.o:_00007_DS_:
000002e2 e3fc                 BCR 0x3, 0x0
000002e3 e0fc                 BCR 0x3, 0x6
000002e4 eccc                 RRR 0x33, 0x0
000002e5 ecce                 RRR 0x31, 0x0
000002e6 ff4b                 MOVAR 0x34
000002e7 ff4e                 MOVAR 0x31
000002e8 dee6                 MOVIA 0x19
000002e9 fcce                 ADDAR 0x31, 0x0
000002ea e4fc                 BSR 0x3, 0x6
000002eb ff4a                 MOVAR 0x35
000002ec de9f                 MOVIA 0x60
000002ed fbca                 SUBAR 0x35, 0x0
000002ee f7fc                 BTRSS 0x3, 0x0
000002ef c4fd                 LGOTO 0x302; main.o:_00581_DS_=0x302
000002f0 dea5                 MOVIA 0x5a
000002f1 ff4a                 MOVAR 0x35
000002f2 c4fd                 LGOTO 0x302; main.o:_00581_DS_=0x302
000002f3                      main.o:_00577_DS_:
000002f3 e3fc                 BCR 0x3, 0x0
000002f4 e0fc                 BCR 0x3, 0x6
000002f5 ecdb                 RRR 0x24, 0x0
000002f6 ff4b                 MOVAR 0x34
000002f7 ecdc                 RRR 0x23, 0x0
000002f8 ff4e                 MOVAR 0x31
000002f9 e3fc                 BCR 0x3, 0x0
000002fa ec4b                 RRR 0x34, 0x1
000002fb ec4e                 RRR 0x31, 0x1
000002fc e3fc                 BCR 0x3, 0x0
000002fd ec4b                 RRR 0x34, 0x1
000002fe ec4e                 RRR 0x31, 0x1
000002ff fece                 MOVR 0x31, 0x0
00000300 e4fc                 BSR 0x3, 0x6
00000301 ff4a                 MOVAR 0x35
00000302                      main.o:_00581_DS_:
00000302 e0fc                 BCR 0x3, 0x6
00000303 f67a                 BTRSS 0x5, 0x3
00000304 c4ca                 LGOTO 0x335; main.o:_00594_DS_=0x335
00000305 dee0                 MOVIA 0x1f
00000306 e4fc                 BSR 0x3, 0x6
00000307 fbca                 SUBAR 0x35, 0x0
00000308 f7fc                 BTRSS 0x3, 0x0
00000309 c4e6                 LGOTO 0x319; main.o:_00588_DS_=0x319
0000030a de13                 MOVIA 0xec
0000030b fcca                 ADDAR 0x35, 0x0
0000030c e0fc                 BCR 0x3, 0x6
0000030d ff4e                 MOVAR 0x31
0000030e defd                 MOVIA 0x2
0000030f ff3a                 MOVAR 0x45
00000310 e4fc                 BSR 0x3, 0x6
00000311 fecc                 MOVR 0x33, 0x0
00000312 d0eb                 LCALL 0x714; __mulchar=0x714
00000313 e0fc                 BCR 0x3, 0x6
00000314 ff4b                 MOVAR 0x34
00000315 fcce                 ADDAR 0x31, 0x0
00000316 e4fc                 BSR 0x3, 0x6
00000317 ff4a                 MOVAR 0x35
00000318 c4bf                 LGOTO 0x340; main.o:_00596_DS_=0x340
00000319                      main.o:_00588_DS_:
00000319 def4                 MOVIA 0xb
0000031a e4fc                 BSR 0x3, 0x6
0000031b fbca                 SUBAR 0x35, 0x0
0000031c f7fc                 BTRSS 0x3, 0x0
0000031d c4d6                 LGOTO 0x329; main.o:_00585_DS_=0x329
0000031e de09                 MOVIA 0xf6
0000031f fcca                 ADDAR 0x35, 0x0
00000320 e0fc                 BCR 0x3, 0x6
00000321 ff4e                 MOVAR 0x31
00000322 e4fc                 BSR 0x3, 0x6
00000323 fecc                 MOVR 0x33, 0x0
00000324 e0fc                 BCR 0x3, 0x6
00000325 fcce                 ADDAR 0x31, 0x0
00000326 e4fc                 BSR 0x3, 0x6
00000327 ff4a                 MOVAR 0x35
00000328 c4bf                 LGOTO 0x340; main.o:_00596_DS_=0x340
00000329                      main.o:_00585_DS_:
00000329 e4fc                 BSR 0x3, 0x6
0000032a feca                 MOVR 0x35, 0x0
0000032b f2fc                 BTRSC 0x3, 0x2
0000032c c4bf                 LGOTO 0x340; main.o:_00596_DS_=0x340
0000032d e3fc                 BCR 0x3, 0x0
0000032e ecca                 RRR 0x35, 0x0
0000032f e0fc                 BCR 0x3, 0x6
00000330 ff4e                 MOVAR 0x31
00000331 face                 INCR 0x31, 0x0
00000332 e4fc                 BSR 0x3, 0x6
00000333 ff4a                 MOVAR 0x35
00000334 c4bf                 LGOTO 0x340; main.o:_00596_DS_=0x340
00000335                      main.o:_00594_DS_:
00000335 deea                 MOVIA 0x15
00000336 e4fc                 BSR 0x3, 0x6
00000337 fbca                 SUBAR 0x35, 0x0
00000338 f7fc                 BTRSS 0x3, 0x0
00000339 c4bf                 LGOTO 0x340; main.o:_00596_DS_=0x340
0000033a de9d                 MOVIA 0x62
0000033b fbca                 SUBAR 0x35, 0x0
0000033c f3fc                 BTRSC 0x3, 0x0
0000033d c4bf                 LGOTO 0x340; main.o:_00596_DS_=0x340
0000033e def8                 MOVIA 0x7
0000033f fc4a                 ADDAR 0x35, 0x1
00000340                      main.o:_00596_DS_:
00000340 ffef                 RET
00000341                      _initAD:
00000341 de7b                 MOVIA 0x84
00000342 ff6f                 MOVAR 0x10
00000343 fd6c                 CLRR 0x13
00000344 deef                 MOVIA 0x10
00000345 ff6e                 MOVAR 0x11
00000346 defc                 MOVIA 0x3
00000347 ff6b                 MOVAR 0x14
00000348 dee9                 MOVIA 0x16
00000349 ff69                 MOVAR 0x16
0000034a e5ef                 BSR 0x10, 0x4
0000034b de9b                 MOVIA 0x64
0000034c ff3a                 MOVAR 0x45
0000034d deff                 MOVIA 0x0
0000034e d6cc                 LCALL 0x133; _delay=0x133
0000034f ffef                 RET
00000350                      _keyRead:
00000350 e0fc                 BCR 0x3, 0x6
00000351 ff4f                 MOVAR 0x30
00000352 fecf                 MOVR 0x30, 0x0
00000353 f2fc                 BTRSC 0x3, 0x2
00000354 c49c                 LGOTO 0x363; main.o:_00557_DS_=0x363
00000355 e4fc                 BSR 0x3, 0x6
00000356 fa5a                 INCR 0x25, 0x1
00000357 de37                 MOVIA 0xc8
00000358 fbda                 SUBAR 0x25, 0x0
00000359 f7fc                 BTRSS 0x3, 0x0
0000035a c488                 LGOTO 0x377; main.o:_00558_DS_=0x377
0000035b de37                 MOVIA 0xc8
0000035c ff5a                 MOVAR 0x25
0000035d e0fc                 BCR 0x3, 0x6
0000035e f306                 BTRSC 0x79, 0x1
0000035f c488                 LGOTO 0x377; main.o:_00558_DS_=0x377
00000360 e706                 BSR 0x79, 0x1
00000361 defd                 MOVIA 0x2
00000362 c487                 LGOTO 0x378; main.o:_00559_DS_=0x378
00000363                      main.o:_00557_DS_:
00000363 de37                 MOVIA 0xc8
00000364 e4fc                 BSR 0x3, 0x6
00000365 fbda                 SUBAR 0x25, 0x0
00000366 f7fc                 BTRSS 0x3, 0x0
00000367 c492                 LGOTO 0x36d; main.o:_00554_DS_=0x36d
00000368 fd5a                 CLRR 0x25
00000369 e0fc                 BCR 0x3, 0x6
0000036a e306                 BCR 0x79, 0x1
0000036b deff                 MOVIA 0x0
0000036c c487                 LGOTO 0x378; main.o:_00559_DS_=0x378
0000036d                      main.o:_00554_DS_:
0000036d defb                 MOVIA 0x4
0000036e e4fc                 BSR 0x3, 0x6
0000036f fbda                 SUBAR 0x25, 0x0
00000370 f7fc                 BTRSS 0x3, 0x0
00000371 c48a                 LGOTO 0x375; main.o:_00555_DS_=0x375
00000372 fd5a                 CLRR 0x25
00000373 defe                 MOVIA 0x1
00000374 c487                 LGOTO 0x378; main.o:_00559_DS_=0x378
00000375                      main.o:_00555_DS_:
00000375 e4fc                 BSR 0x3, 0x6
00000376 fd5a                 CLRR 0x25
00000377                      main.o:_00558_DS_:
00000377 deff                 MOVIA 0x0
00000378                      main.o:_00559_DS_:
00000378 ffef                 RET
00000379                      _gotoSleep:
00000379 d5aa                 LCALL 0x255; _checkBatAD=0x255
0000037a d25d                 LCALL 0x5a2; _setInput=0x5a2
0000037b e4fc                 BSR 0x3, 0x6
0000037c fd5f                 CLRR 0x20
0000037d fd5e                 CLRR 0x21
0000037e e0fc                 BCR 0x3, 0x6
0000037f e186                 BCR 0x79, 0x4
00000380 ded1                 MOVIA 0x2e
00000381 fffa                 IOST 0x5
00000382 fdff                 CLRA
00000383 fff9                 IOST 0x6
00000384 fd79                 CLRR 0x6
00000385 fd7a                 CLRR 0x5
00000386 fd04                 CLRR 0x7b
00000387 fd03                 CLRR 0x7c
00000388 d460                 LCALL 0x39f; _pwmStop=0x39f
00000389 d450                 LCALL 0x3af; _pwm1Stop=0x3af
0000038a e4fc                 BSR 0x3, 0x6
0000038b fd5b                 CLRR 0x24
0000038c ded7                 MOVIA 0x28
0000038d ff6a                 MOVAR 0x15
0000038e def4                 MOVIA 0xb
0000038f ff71                 MOVAR 0xe
00000390 dee7                 MOVIA 0x18
00000391 ff77                 MOVAR 0x8
00000392 fd70                 CLRR 0xf
00000393 fffd                 CLRWDT
00000394 fffb                 ENI
00000395 fffe                 SLEEP
00000396 fd6a                 CLRR 0x15
00000397 dec1                 MOVIA 0x3e
00000398 fffa                 IOST 0x5
00000399 defe                 MOVIA 0x1
0000039a ff71                 MOVAR 0xe
0000039b fd70                 CLRR 0xf
0000039c de57                 MOVIA 0xa8
0000039d ff77                 MOVAR 0x8
0000039e ffef                 RET
0000039f                      _pwmStop:
0000039f fdff                 CLRA
000003a0 ffb5                 SFUN 0xa
000003a1 ffef                 RET
000003a2                      _pwmInit:
000003a2 ff95                 SFUNR 0xa
000003a3 e0fc                 BCR 0x3, 0x6
000003a4 ff50                 MOVAR 0x2f
000003a5 f050                 BTRSC 0x2f, 0x7
000003a6 c451                 LGOTO 0x3ae; main.o:_00534_DS_=0x3ae
000003a7 fd66                 CLRR 0x19
000003a8 de9b                 MOVIA 0x64
000003a9 ffb6                 SFUN 0x9
000003aa defe                 MOVIA 0x1
000003ab ffb4                 SFUN 0xb
000003ac de7c                 MOVIA 0x83
000003ad ffb5                 SFUN 0xa
000003ae                      main.o:_00534_DS_:
000003ae ffef                 RET
000003af                      _pwm1Stop:
000003af fdff                 CLRA
000003b0 ffbe                 SFUN 0x1
000003b1 ffef                 RET
000003b2                      _pwm1Init:
000003b2 ff9e                 SFUNR 0x1
000003b3 e0fc                 BCR 0x3, 0x6
000003b4 ff51                 MOVAR 0x2e
000003b5 f051                 BTRSC 0x2e, 0x7
000003b6 c441                 LGOTO 0x3be; main.o:_00523_DS_=0x3be
000003b7 fd66                 CLRR 0x19
000003b8 dee7                 MOVIA 0x18
000003b9 ffbf                 SFUN 0x0
000003ba fdff                 CLRA
000003bb ffbd                 SFUN 0x2
000003bc de7c                 MOVIA 0x83
000003bd ffbe                 SFUN 0x1
000003be                      main.o:_00523_DS_:
000003be ffef                 RET
000003bf                      _powerOff:
000003bf e4fc                 BSR 0x3, 0x6
000003c0 fd5b                 CLRR 0x24
000003c1 d460                 LCALL 0x39f; _pwmStop=0x39f
000003c2 ffef                 RET
000003c3                      _initSys:
000003c3 ffec                 DISI
000003c4 dec1                 MOVIA 0x3e
000003c5 fffa                 IOST 0x5
000003c6 fdff                 CLRA
000003c7 fff9                 IOST 0x6
000003c8 fd79                 CLRR 0x6
000003c9 e0fc                 BCR 0x3, 0x6
000003ca fd7a                 CLRR 0x5
000003cb de00                 MOVIA 0xff
000003cc fff6                 IOST 0x9
000003cd ff73                 MOVAR 0xc
000003ce ff74                 MOVAR 0xb
000003cf defe                 MOVIA 0x1
000003d0 ff71                 MOVAR 0xe
000003d1 fdff                 CLRA
000003d2 fff0                 IOST 0xf
000003d3 dec8                 MOVIA 0x37
000003d4 ff7e                 MOVAR 0x1
000003d5 defe                 MOVIA 0x1
000003d6 fffc                 T0MD
000003d7 fff0                 IOST 0xf
000003d8 de77                 MOVIA 0x88
000003d9 ff77                 MOVAR 0x8
000003da defe                 MOVIA 0x1
000003db fff0                 IOST 0xf
000003dc fffb                 ENI
000003dd ffef                 RET
000003de                      _keyCtr:
000003de e0fc                 BCR 0x3, 0x6
000003df f8fa                 COMR 0x5, 0x0
000003e0 ff52                 MOVAR 0x2d
000003e1 dedf                 MOVIA 0x20
000003e2 ef52                 ANDAR 0x2d, 0x1
000003e3 fed2                 MOVR 0x2d, 0x0
000003e4 d4af                 LCALL 0x350; _keyRead=0x350
000003e5 e0fc                 BCR 0x3, 0x6
000003e6 ff52                 MOVAR 0x2d
000003e7 dbfe                 XORIA 0x1
000003e8 f6fc                 BTRSS 0x3, 0x2
000003e9 c3cc                 LGOTO 0x433; main.o:_00506_DS_=0x433
000003ea fd01                 CLRR 0x7e
000003eb e4fc                 BSR 0x3, 0x6
000003ec fd58                 CLRR 0x27
000003ed fd53                 CLRR 0x2c
000003ee fd52                 CLRR 0x2d
000003ef fedb                 MOVR 0x24, 0x0
000003f0 f6fc                 BTRSS 0x3, 0x2
000003f1 c405                 LGOTO 0x3fa; main.o:_00477_DS_=0x3fa
000003f2 e0fc                 BCR 0x3, 0x6
000003f3 fd00                 CLRR 0x7f
000003f4 defc                 MOVIA 0x3
000003f5 e4fc                 BSR 0x3, 0x6
000003f6 ff58                 MOVAR 0x27
000003f7 e0fc                 BCR 0x3, 0x6
000003f8 e586                 BSR 0x79, 0x4
000003f9 c3a7                 LGOTO 0x458; main.o:_00508_DS_=0x458
000003fa                      main.o:_00477_DS_:
000003fa e4fc                 BSR 0x3, 0x6
000003fb fa5b                 INCR 0x24, 0x1
000003fc def8                 MOVIA 0x7
000003fd fbdb                 SUBAR 0x24, 0x0
000003fe f7fc                 BTRSS 0x3, 0x0
000003ff c3fd                 LGOTO 0x402; main.o:_00479_DS_=0x402
00000400 defe                 MOVIA 0x1
00000401 ff5b                 MOVAR 0x24
00000402                      main.o:_00479_DS_:
00000402 e4fc                 BSR 0x3, 0x6
00000403 fedb                 MOVR 0x24, 0x0
00000404 dbfe                 XORIA 0x1
00000405 f6fc                 BTRSS 0x3, 0x2
00000406 c3f5                 LGOTO 0x40a; main.o:_00495_DS_=0x40a
00000407 ded7                 MOVIA 0x28
00000408 ff57                 MOVAR 0x28
00000409 c3ce                 LGOTO 0x431; main.o:_00496_DS_=0x431
0000040a                      main.o:_00495_DS_:
0000040a e4fc                 BSR 0x3, 0x6
0000040b fedb                 MOVR 0x24, 0x0
0000040c dbfd                 XORIA 0x2
0000040d f6fc                 BTRSS 0x3, 0x2
0000040e c3ed                 LGOTO 0x412; main.o:_00492_DS_=0x412
0000040f ded5                 MOVIA 0x2a
00000410 ff57                 MOVAR 0x28
00000411 c3ce                 LGOTO 0x431; main.o:_00496_DS_=0x431
00000412                      main.o:_00492_DS_:
00000412 e4fc                 BSR 0x3, 0x6
00000413 fedb                 MOVR 0x24, 0x0
00000414 dbfc                 XORIA 0x3
00000415 f6fc                 BTRSS 0x3, 0x2
00000416 c3e5                 LGOTO 0x41a; main.o:_00489_DS_=0x41a
00000417 ded3                 MOVIA 0x2c
00000418 ff57                 MOVAR 0x28
00000419 c3ce                 LGOTO 0x431; main.o:_00496_DS_=0x431
0000041a                      main.o:_00489_DS_:
0000041a e4fc                 BSR 0x3, 0x6
0000041b fedb                 MOVR 0x24, 0x0
0000041c dbfb                 XORIA 0x4
0000041d f6fc                 BTRSS 0x3, 0x2
0000041e c3dd                 LGOTO 0x422; main.o:_00486_DS_=0x422
0000041f ded1                 MOVIA 0x2e
00000420 ff57                 MOVAR 0x28
00000421 c3ce                 LGOTO 0x431; main.o:_00496_DS_=0x431
00000422                      main.o:_00486_DS_:
00000422 e4fc                 BSR 0x3, 0x6
00000423 fedb                 MOVR 0x24, 0x0
00000424 dbfa                 XORIA 0x5
00000425 f6fc                 BTRSS 0x3, 0x2
00000426 c3d5                 LGOTO 0x42a; main.o:_00483_DS_=0x42a
00000427 decf                 MOVIA 0x30
00000428 ff57                 MOVAR 0x28
00000429 c3ce                 LGOTO 0x431; main.o:_00496_DS_=0x431
0000042a                      main.o:_00483_DS_:
0000042a e4fc                 BSR 0x3, 0x6
0000042b fedb                 MOVR 0x24, 0x0
0000042c dbf9                 XORIA 0x6
0000042d f6fc                 BTRSS 0x3, 0x2
0000042e c3ce                 LGOTO 0x431; main.o:_00496_DS_=0x431
0000042f decd                 MOVIA 0x32
00000430 ff57                 MOVAR 0x28
00000431                      main.o:_00496_DS_:
00000431 d3a6                 LCALL 0x459; _setMaxDuty=0x459
00000432 c3a7                 LGOTO 0x458; main.o:_00508_DS_=0x458
00000433                      main.o:_00506_DS_:
00000433 e0fc                 BCR 0x3, 0x6
00000434 fed2                 MOVR 0x2d, 0x0
00000435 dbfd                 XORIA 0x2
00000436 f6fc                 BTRSS 0x3, 0x2
00000437 c3a7                 LGOTO 0x458; main.o:_00508_DS_=0x458
00000438 e4fc                 BSR 0x3, 0x6
00000439 fedb                 MOVR 0x24, 0x0
0000043a f2fc                 BTRSC 0x3, 0x2
0000043b c3be                 LGOTO 0x441; main.o:_00501_DS_=0x441
0000043c fd5b                 CLRR 0x24
0000043d d440                 LCALL 0x3bf; _powerOff=0x3bf
0000043e e0fc                 BCR 0x3, 0x6
0000043f e186                 BCR 0x79, 0x4
00000440 c3a7                 LGOTO 0x458; main.o:_00508_DS_=0x458
00000441                      main.o:_00501_DS_:
00000441 e4fc                 BSR 0x3, 0x6
00000442 feca                 MOVR 0x35, 0x0
00000443 f2fc                 BTRSC 0x3, 0x2
00000444 c3b7                 LGOTO 0x448; main.o:_00497_DS_=0x448
00000445 fec8                 MOVR 0x37, 0x0
00000446 f6fc                 BTRSS 0x3, 0x2
00000447 c3b0                 LGOTO 0x44f; main.o:_00498_DS_=0x44f
00000448                      main.o:_00497_DS_:
00000448 defc                 MOVIA 0x3
00000449 e4fc                 BSR 0x3, 0x6
0000044a ff58                 MOVAR 0x27
0000044b fd48                 CLRR 0x37
0000044c e0fc                 BCR 0x3, 0x6
0000044d e586                 BSR 0x79, 0x4
0000044e c3a7                 LGOTO 0x458; main.o:_00508_DS_=0x458
0000044f                      main.o:_00498_DS_:
0000044f defe                 MOVIA 0x1
00000450 e4fc                 BSR 0x3, 0x6
00000451 ff5b                 MOVAR 0x24
00000452 dec3                 MOVIA 0x3c
00000453 ffb3                 SFUN 0xc
00000454 ff56                 MOVAR 0x29
00000455 ded7                 MOVIA 0x28
00000456 ff57                 MOVAR 0x28
00000457 d3a6                 LCALL 0x459; _setMaxDuty=0x459
00000458                      main.o:_00508_DS_:
00000458 ffef                 RET
00000459                      _setMaxDuty:
00000459 decd                 MOVIA 0x32
0000045a e4fc                 BSR 0x3, 0x6
0000045b fbca                 SUBAR 0x35, 0x0
0000045c f3fc                 BTRSC 0x3, 0x0
0000045d c394                 LGOTO 0x46b; main.o:_00471_DS_=0x46b
0000045e def5                 MOVIA 0xa
0000045f fcd7                 ADDAR 0x28, 0x0
00000460 e0fc                 BCR 0x3, 0x6
00000461 ff53                 MOVAR 0x2c
00000462 def5                 MOVIA 0xa
00000463 ff3a                 MOVAR 0x45
00000464 e4fc                 BSR 0x3, 0x6
00000465 feca                 MOVR 0x35, 0x0
00000466 d0d2                 LCALL 0x72d; __divuchar=0x72d
00000467 e0fc                 BCR 0x3, 0x6
00000468 fbd3                 SUBAR 0x2c, 0x0
00000469 e4fc                 BSR 0x3, 0x6
0000046a ff57                 MOVAR 0x28
0000046b                      main.o:_00471_DS_:
0000046b e4fc                 BSR 0x3, 0x6
0000046c fed7                 MOVR 0x28, 0x0
0000046d ff54                 MOVAR 0x2b
0000046e d45d                 LCALL 0x3a2; _pwmInit=0x3a2
0000046f ffef                 RET
00000470                      _refreshNub:
00000470 defc                 MOVIA 0x3
00000471 e4fc                 BSR 0x3, 0x6
00000472 fbdc                 SUBAR 0x23, 0x0
00000473 f6fc                 BTRSS 0x3, 0x2
00000474 c388                 LGOTO 0x477; main.o:_00465_DS_=0x477
00000475 de7b                 MOVIA 0x84
00000476 fbdd                 SUBAR 0x22, 0x0
00000477                      main.o:_00465_DS_:
00000477 f7fc                 BTRSS 0x3, 0x0
00000478 c384                 LGOTO 0x47b; main.o:_00443_DS_=0x47b
00000479 d25d                 LCALL 0x5a2; _setInput=0x5a2
0000047a c34a                 LGOTO 0x4b5; main.o:_00451_DS_=0x4b5
0000047b                      main.o:_00443_DS_:
0000047b e4fc                 BSR 0x3, 0x6
0000047c fecc                 MOVR 0x33, 0x0
0000047d ff4e                 MOVAR 0x31
0000047e fecb                 MOVR 0x34, 0x0
0000047f ff4d                 MOVAR 0x32
00000480 fedb                 MOVR 0x24, 0x0
00000481 f6fc                 BTRSS 0x3, 0x2
00000482 c37a                 LGOTO 0x485; main.o:_00444_DS_=0x485
00000483 fed8                 MOVR 0x27, 0x0
00000484 f6fc                 BTRSS 0x3, 0x2
00000485                      main.o:_00444_DS_:
00000485 d170                 LCALL 0x68f; _showKeyLed=0x68f
00000486 e4fc                 BSR 0x3, 0x6
00000487 fed1                 MOVR 0x2e, 0x0
00000488 f2fc                 BTRSC 0x3, 0x2
00000489 c371                 LGOTO 0x48e; main.o:_00448_DS_=0x48e
0000048a def4                 MOVIA 0xb
0000048b ff4e                 MOVAR 0x31
0000048c def3                 MOVIA 0xc
0000048d ff4d                 MOVAR 0x32
0000048e                      main.o:_00448_DS_:
0000048e e4fc                 BSR 0x3, 0x6
0000048f fec4                 MOVR 0x3b, 0x0
00000490 f2fc                 BTRSC 0x3, 0x2
00000491 c36a                 LGOTO 0x495; main.o:_00450_DS_=0x495
00000492 def7                 MOVIA 0x8
00000493 ff4d                 MOVAR 0x32
00000494 ff4e                 MOVAR 0x31
00000495                      main.o:_00450_DS_:
00000495 e4fc                 BSR 0x3, 0x6
00000496 fece                 MOVR 0x31, 0x0
00000497 da93                 ADDIA 0x6c
00000498 e0fc                 BCR 0x3, 0x6
00000499 ff55                 MOVAR 0x2a
0000049a deff                 MOVIA 0x0
0000049b f3fc                 BTRSC 0x3, 0x0
0000049c dafe                 ADDIA 0x1
0000049d ff54                 MOVAR 0x2b
0000049e fed5                 MOVR 0x2a, 0x0
0000049f ff3b                 MOVAR 0x44
000004a0 fed4                 MOVR 0x2b, 0x0
000004a1 ff3a                 MOVAR 0x45
000004a2 deff                 MOVIA 0x0
000004a3 d085                 LCALL 0x77a; __gptrget=0x77a
000004a4 d109                 LCALL 0x6f6; _showNubShiwei=0x6f6
000004a5 e4fc                 BSR 0x3, 0x6
000004a6 fecd                 MOVR 0x32, 0x0
000004a7 da93                 ADDIA 0x6c
000004a8 e0fc                 BCR 0x3, 0x6
000004a9 ff55                 MOVAR 0x2a
000004aa deff                 MOVIA 0x0
000004ab f3fc                 BTRSC 0x3, 0x0
000004ac dafe                 ADDIA 0x1
000004ad ff54                 MOVAR 0x2b
000004ae fed5                 MOVR 0x2a, 0x0
000004af ff3b                 MOVAR 0x44
000004b0 fed4                 MOVR 0x2b, 0x0
000004b1 ff3a                 MOVAR 0x45
000004b2 deff                 MOVIA 0x0
000004b3 d085                 LCALL 0x77a; __gptrget=0x77a
000004b4 d149                 LCALL 0x6b6; _showNubGewei=0x6b6
000004b5                      main.o:_00451_DS_:
000004b5 ffef                 RET
000004b6                      _chrgCtr:
000004b6 de9b                 MOVIA 0x64
000004b7 e4fc                 BSR 0x3, 0x6
000004b8 fbc8                 SUBAR 0x37, 0x0
000004b9 f7fc                 BTRSS 0x3, 0x0
000004ba c340                 LGOTO 0x4bf; main.o:_00318_DS_=0x4bf
000004bb def6                 MOVIA 0x9
000004bc ff4b                 MOVAR 0x34
000004bd ff4c                 MOVAR 0x33
000004be c333                 LGOTO 0x4cc; main.o:_00319_DS_=0x4cc
000004bf                      main.o:_00318_DS_:
000004bf def5                 MOVIA 0xa
000004c0 ff3a                 MOVAR 0x45
000004c1 e4fc                 BSR 0x3, 0x6
000004c2 fec8                 MOVR 0x37, 0x0
000004c3 d0d2                 LCALL 0x72d; __divuchar=0x72d
000004c4 e4fc                 BSR 0x3, 0x6
000004c5 ff4c                 MOVAR 0x33
000004c6 def5                 MOVIA 0xa
000004c7 ff3a                 MOVAR 0x45
000004c8 fec8                 MOVR 0x37, 0x0
000004c9 d0a9                 LCALL 0x756; __moduchar=0x756
000004ca e4fc                 BSR 0x3, 0x6
000004cb ff4b                 MOVAR 0x34
000004cc                      main.o:_00319_DS_:
000004cc e4fc                 BSR 0x3, 0x6
000004cd fedb                 MOVR 0x24, 0x0
000004ce f2fc                 BTRSC 0x3, 0x2
000004cf c329                 LGOTO 0x4d6; main.o:_00321_DS_=0x4d6
000004d0 e0fc                 BCR 0x3, 0x6
000004d1 e586                 BSR 0x79, 0x4
000004d2 e4fc                 BSR 0x3, 0x6
000004d3 fd4c                 CLRR 0x33
000004d4 fedb                 MOVR 0x24, 0x0
000004d5 ff4b                 MOVAR 0x34
000004d6                      main.o:_00321_DS_:
000004d6 e0fc                 BCR 0x3, 0x6
000004d7 f67a                 BTRSS 0x5, 0x3
000004d8 c2a9                 LGOTO 0x556; main.o:_00357_DS_=0x556
000004d9 e606                 BSR 0x79, 0x3
000004da e586                 BSR 0x79, 0x4
000004db e4fc                 BSR 0x3, 0x6
000004dc fd5b                 CLRR 0x24
000004dd fd58                 CLRR 0x27
000004de d460                 LCALL 0x39f; _pwmStop=0x39f
000004df de9c                 MOVIA 0x63
000004e0 e4fc                 BSR 0x3, 0x6
000004e1 fbc8                 SUBAR 0x37, 0x0
000004e2 f3fc                 BTRSC 0x3, 0x0
000004e3 c30e                 LGOTO 0x4f1; main.o:_00008_DS_=0x4f1
000004e4 fec8                 MOVR 0x37, 0x0
000004e5 fbca                 SUBAR 0x35, 0x0
000004e6 f7fc                 BTRSS 0x3, 0x0
000004e7 c30e                 LGOTO 0x4f1; main.o:_00008_DS_=0x4f1
000004e8 fedf                 MOVR 0x20, 0x0
000004e9 dbfe                 XORIA 0x1
000004ea f6fc                 BTRSS 0x3, 0x2
000004eb c30e                 LGOTO 0x4f1; main.o:_00008_DS_=0x4f1
000004ec fede                 MOVR 0x21, 0x0
000004ed dbff                 XORIA 0x0
000004ee f6fc                 BTRSS 0x3, 0x2
000004ef c30e                 LGOTO 0x4f1; main.o:_00008_DS_=0x4f1
000004f0 fa48                 INCR 0x37, 0x1
000004f1                      main.o:_00008_DS_:
000004f1 de9c                 MOVIA 0x63
000004f2 e4fc                 BSR 0x3, 0x6
000004f3 fbca                 SUBAR 0x35, 0x0
000004f4 f7fc                 BTRSS 0x3, 0x0
000004f5 c2e7                 LGOTO 0x518; main.o:_00348_DS_=0x518
000004f6 defb                 MOVIA 0x4
000004f7 ff47                 MOVAR 0x38
000004f8 fecc                 MOVR 0x33, 0x0
000004f9 dbf6                 XORIA 0x9
000004fa f6fc                 BTRSS 0x3, 0x2
000004fb c26a                 LGOTO 0x595; main.o:_00359_DS_=0x595
000004fc fecb                 MOVR 0x34, 0x0
000004fd dbf6                 XORIA 0x9
000004fe f6fc                 BTRSS 0x3, 0x2
000004ff c26a                 LGOTO 0x595; main.o:_00359_DS_=0x595
00000500 de9a                 MOVIA 0x65
00000501 fbca                 SUBAR 0x35, 0x0
00000502 f7fc                 BTRSS 0x3, 0x0
00000503 c26a                 LGOTO 0x595; main.o:_00359_DS_=0x595
00000504 fa50                 INCR 0x2f, 0x1
00000505 f2fc                 BTRSC 0x3, 0x2
00000506 fa4f                 INCR 0x30, 0x1
00000507 def8                 MOVIA 0x7
00000508 fbcf                 SUBAR 0x30, 0x0
00000509 f6fc                 BTRSS 0x3, 0x2
0000050a c2f2                 LGOTO 0x50d; main.o:_00429_DS_=0x50d
0000050b de2e                 MOVIA 0xd1
0000050c fbd0                 SUBAR 0x2f, 0x0
0000050d                      main.o:_00429_DS_:
0000050d f7fc                 BTRSS 0x3, 0x0
0000050e c26a                 LGOTO 0x595; main.o:_00359_DS_=0x595
0000050f d450                 LCALL 0x3af; _pwm1Stop=0x3af
00000510 e279                 BCR 0x6, 0x3
00000511 ffe9                 IOSTR 0x6
00000512 e0fc                 BCR 0x3, 0x6
00000513 ff59                 MOVAR 0x26
00000514 e659                 BSR 0x26, 0x3
00000515 fed9                 MOVR 0x26, 0x0
00000516 fff9                 IOST 0x6
00000517 c26a                 LGOTO 0x595; main.o:_00359_DS_=0x595
00000518                      main.o:_00348_DS_:
00000518 e4fc                 BSR 0x3, 0x6
00000519 fd50                 CLRR 0x2f
0000051a fd4f                 CLRR 0x30
0000051b ffe9                 IOSTR 0x6
0000051c e0fc                 BCR 0x3, 0x6
0000051d ff59                 MOVAR 0x26
0000051e e259                 BCR 0x26, 0x3
0000051f fed9                 MOVR 0x26, 0x0
00000520 fff9                 IOST 0x6
00000521 def7                 MOVIA 0x8
00000522 e4fc                 BSR 0x3, 0x6
00000523 fbc8                 SUBAR 0x37, 0x0
00000524 f3fc                 BTRSC 0x3, 0x0
00000525 c2d2                 LGOTO 0x52d; main.o:_00334_DS_=0x52d
00000526 fec7                 MOVR 0x38, 0x0
00000527 f6fc                 BTRSS 0x3, 0x2
00000528 c2d2                 LGOTO 0x52d; main.o:_00334_DS_=0x52d
00000529 def9                 MOVIA 0x6
0000052a ffbc                 SFUN 0x3
0000052b fd47                 CLRR 0x38
0000052c d44d                 LCALL 0x3b2; _pwm1Init=0x3b2
0000052d                      main.o:_00334_DS_:
0000052d ded7                 MOVIA 0x28
0000052e e4fc                 BSR 0x3, 0x6
0000052f fbc8                 SUBAR 0x37, 0x0
00000530 f3fc                 BTRSC 0x3, 0x0
00000531 c2c3                 LGOTO 0x53c; main.o:_00345_DS_=0x53c
00000532 defd                 MOVIA 0x2
00000533 fbc7                 SUBAR 0x38, 0x0
00000534 f3fc                 BTRSC 0x3, 0x0
00000535 c26a                 LGOTO 0x595; main.o:_00359_DS_=0x595
00000536 def8                 MOVIA 0x7
00000537 ffbc                 SFUN 0x3
00000538 defe                 MOVIA 0x1
00000539 ff47                 MOVAR 0x38
0000053a d44d                 LCALL 0x3b2; _pwm1Init=0x3b2
0000053b c26a                 LGOTO 0x595; main.o:_00359_DS_=0x595
0000053c                      main.o:_00345_DS_:
0000053c deb9                 MOVIA 0x46
0000053d e4fc                 BSR 0x3, 0x6
0000053e fbc8                 SUBAR 0x37, 0x0
0000053f f3fc                 BTRSC 0x3, 0x0
00000540 c2b4                 LGOTO 0x54b; main.o:_00342_DS_=0x54b
00000541 defc                 MOVIA 0x3
00000542 fbc7                 SUBAR 0x38, 0x0
00000543 f3fc                 BTRSC 0x3, 0x0
00000544 c26a                 LGOTO 0x595; main.o:_00359_DS_=0x595
00000545 defd                 MOVIA 0x2
00000546 ff47                 MOVAR 0x38
00000547 def6                 MOVIA 0x9
00000548 ffbc                 SFUN 0x3
00000549 d44d                 LCALL 0x3b2; _pwm1Init=0x3b2
0000054a c26a                 LGOTO 0x595; main.o:_00359_DS_=0x595
0000054b                      main.o:_00342_DS_:
0000054b defb                 MOVIA 0x4
0000054c e4fc                 BSR 0x3, 0x6
0000054d fbc7                 SUBAR 0x38, 0x0
0000054e f3fc                 BTRSC 0x3, 0x0
0000054f c26a                 LGOTO 0x595; main.o:_00359_DS_=0x595
00000550 def5                 MOVIA 0xa
00000551 ffbc                 SFUN 0x3
00000552 defc                 MOVIA 0x3
00000553 ff47                 MOVAR 0x38
00000554 d44d                 LCALL 0x3b2; _pwm1Init=0x3b2
00000555 c26a                 LGOTO 0x595; main.o:_00359_DS_=0x595
00000556                      main.o:_00357_DS_:
00000556 e4fc                 BSR 0x3, 0x6
00000557 fd47                 CLRR 0x38
00000558 fd50                 CLRR 0x2f
00000559 fd4f                 CLRR 0x30
0000055a d450                 LCALL 0x3af; _pwm1Stop=0x3af
0000055b e0fc                 BCR 0x3, 0x6
0000055c e206                 BCR 0x79, 0x3
0000055d e4fc                 BSR 0x3, 0x6
0000055e fd41                 CLRR 0x3e
0000055f fedb                 MOVR 0x24, 0x0
00000560 f6fc                 BTRSS 0x3, 0x2
00000561 c26d                 LGOTO 0x592; main.o:_00353_DS_=0x592
00000562 feca                 MOVR 0x35, 0x0
00000563 e0fc                 BCR 0x3, 0x6
00000564 ff59                 MOVAR 0x26
00000565 fd58                 CLRR 0x27
00000566 fa59                 INCR 0x26, 0x1
00000567 f6fc                 BTRSS 0x3, 0x2
00000568 c295                 LGOTO 0x56a; main.o:_00009_DS_=0x56a
00000569 fa58                 INCR 0x27, 0x1
0000056a                      main.o:_00009_DS_:
0000056a e4fc                 BSR 0x3, 0x6
0000056b fec8                 MOVR 0x37, 0x0
0000056c e0fc                 BCR 0x3, 0x6
0000056d ff57                 MOVAR 0x28
0000056e fed8                 MOVR 0x27, 0x0
0000056f da7f                 ADDIA 0x80
00000570 ff56                 MOVAR 0x29
00000571 deff                 MOVIA 0x0
00000572 da7f                 ADDIA 0x80
00000573 fbd6                 SUBAR 0x29, 0x0
00000574 f6fc                 BTRSS 0x3, 0x2
00000575 c287                 LGOTO 0x578; main.o:_00436_DS_=0x578
00000576 fed7                 MOVR 0x28, 0x0
00000577 fbd9                 SUBAR 0x26, 0x0
00000578                      main.o:_00436_DS_:
00000578 f3fc                 BTRSC 0x3, 0x0
00000579 c26d                 LGOTO 0x592; main.o:_00353_DS_=0x592
0000057a e4fc                 BSR 0x3, 0x6
0000057b fa43                 INCR 0x3c, 0x1
0000057c f2fc                 BTRSC 0x3, 0x2
0000057d fa42                 INCR 0x3d, 0x1
0000057e deff                 MOVIA 0x0
0000057f fbc2                 SUBAR 0x3d, 0x0
00000580 f6fc                 BTRSS 0x3, 0x2
00000581 c27b                 LGOTO 0x584; main.o:_00437_DS_=0x584
00000582 dee0                 MOVIA 0x1f
00000583 fbc3                 SUBAR 0x3c, 0x0
00000584                      main.o:_00437_DS_:
00000584 f7fc                 BTRSS 0x3, 0x0
00000585 c26a                 LGOTO 0x595; main.o:_00359_DS_=0x595
00000586 e4fc                 BSR 0x3, 0x6
00000587 fd43                 CLRR 0x3c
00000588 fd42                 CLRR 0x3d
00000589 e3fc                 BCR 0x3, 0x0
0000058a ec48                 RRR 0x37, 0x1
0000058b e3fc                 BCR 0x3, 0x0
0000058c ecca                 RRR 0x35, 0x0
0000058d e0fc                 BCR 0x3, 0x6
0000058e ff59                 MOVAR 0x26
0000058f e4fc                 BSR 0x3, 0x6
00000590 fc48                 ADDAR 0x37, 0x1
00000591 c26a                 LGOTO 0x595; main.o:_00359_DS_=0x595
00000592                      main.o:_00353_DS_:
00000592 e4fc                 BSR 0x3, 0x6
00000593 fd43                 CLRR 0x3c
00000594 fd42                 CLRR 0x3d
00000595                      main.o:_00359_DS_:
00000595 ffef                 RET
00000596                      _delayms:
00000596 e0fc                 BCR 0x3, 0x6
00000597 ff25                 MOVAR 0x5a
00000598 fd24                 CLRR 0x5b
00000599                      number.o:_00328_DS_:
00000599 e0fc                 BCR 0x3, 0x6
0000059a fea5                 MOVR 0x5a, 0x0
0000059b fba4                 SUBAR 0x5b, 0x0
0000059c f3fc                 BTRSC 0x3, 0x0
0000059d c25e                 LGOTO 0x5a1; number.o:_00330_DS_=0x5a1
0000059e ffff                 NOP
0000059f fa24                 INCR 0x5b, 0x1
000005a0 c266                 LGOTO 0x599; number.o:_00328_DS_=0x599
000005a1                      number.o:_00330_DS_:
000005a1 ffef                 RET
000005a2                      _setInput:
000005a2 ffea                 IOSTR 0x5
000005a3 e0fc                 BCR 0x3, 0x6
000005a4 ff26                 MOVAR 0x59
000005a5 de3e                 MOVIA 0xc1
000005a6 ee26                 IORAR 0x59, 0x1
000005a7 fea6                 MOVR 0x59, 0x0
000005a8 fffa                 IOST 0x5
000005a9 ffe9                 IOSTR 0x6
000005aa ff26                 MOVAR 0x59
000005ab defc                 MOVIA 0x3
000005ac ee26                 IORAR 0x59, 0x1
000005ad fea6                 MOVR 0x59, 0x0
000005ae fff9                 IOST 0x6
000005af ffef                 RET
000005b0                      _setOutput:
000005b0 e0fc                 BCR 0x3, 0x6
000005b1 ff27                 MOVAR 0x58
000005b2 defe                 MOVIA 0x1
000005b3 fba7                 SUBAR 0x58, 0x0
000005b4 f7fc                 BTRSS 0x3, 0x0
000005b5 c216                 LGOTO 0x5e9; number.o:_00307_DS_=0x5e9
000005b6 def9                 MOVIA 0x6
000005b7 fba7                 SUBAR 0x58, 0x0
000005b8 f3fc                 BTRSC 0x3, 0x0
000005b9 c216                 LGOTO 0x5e9; number.o:_00307_DS_=0x5e9
000005ba f927                 DECR 0x58, 0x1
000005bb defa                 MOVIA 0x5
000005bc ff75                 MOVAR 0xa
000005bd fea7                 MOVR 0x58, 0x0
000005be da3d                 ADDIA 0xc2
000005bf f3fc                 BTRSC 0x3, 0x0
000005c0 fa75                 INCR 0xa, 0x1
000005c1 ff7d                 MOVAR 0x2
000005c2                      number.o:_00317_DS_:
000005c2 c238                 LGOTO 0x5c7; number.o:_00301_DS_=0x5c7
000005c3 c231                 LGOTO 0x5ce; number.o:_00302_DS_=0x5ce
000005c4 c22a                 LGOTO 0x5d5; number.o:_00303_DS_=0x5d5
000005c5 c223                 LGOTO 0x5dc; number.o:_00304_DS_=0x5dc
000005c6 c21c                 LGOTO 0x5e3; number.o:_00305_DS_=0x5e3
000005c7                      number.o:_00301_DS_:
000005c7 ffea                 IOSTR 0x5
000005c8 e0fc                 BCR 0x3, 0x6
000005c9 ff27                 MOVAR 0x58
000005ca e0a7                 BCR 0x58, 0x6
000005cb fea7                 MOVR 0x58, 0x0
000005cc fffa                 IOST 0x5
000005cd c216                 LGOTO 0x5e9; number.o:_00307_DS_=0x5e9
000005ce                      number.o:_00302_DS_:
000005ce ffea                 IOSTR 0x5
000005cf e0fc                 BCR 0x3, 0x6
000005d0 ff27                 MOVAR 0x58
000005d1 e027                 BCR 0x58, 0x7
000005d2 fea7                 MOVR 0x58, 0x0
000005d3 fffa                 IOST 0x5
000005d4 c216                 LGOTO 0x5e9; number.o:_00307_DS_=0x5e9
000005d5                      number.o:_00303_DS_:
000005d5 ffe9                 IOSTR 0x6
000005d6 e0fc                 BCR 0x3, 0x6
000005d7 ff27                 MOVAR 0x58
000005d8 e327                 BCR 0x58, 0x1
000005d9 fea7                 MOVR 0x58, 0x0
000005da fff9                 IOST 0x6
000005db c216                 LGOTO 0x5e9; number.o:_00307_DS_=0x5e9
000005dc                      number.o:_00304_DS_:
000005dc ffe9                 IOSTR 0x6
000005dd e0fc                 BCR 0x3, 0x6
000005de ff27                 MOVAR 0x58
000005df e3a7                 BCR 0x58, 0x0
000005e0 fea7                 MOVR 0x58, 0x0
000005e1 fff9                 IOST 0x6
000005e2 c216                 LGOTO 0x5e9; number.o:_00307_DS_=0x5e9
000005e3                      number.o:_00305_DS_:
000005e3 ffea                 IOSTR 0x5
000005e4 e0fc                 BCR 0x3, 0x6
000005e5 ff27                 MOVAR 0x58
000005e6 e3a7                 BCR 0x58, 0x0
000005e7 fea7                 MOVR 0x58, 0x0
000005e8 fffa                 IOST 0x5
000005e9                      number.o:_00307_DS_:
000005e9 ffef                 RET
000005ea                      _setlowOutput:
000005ea e0fc                 BCR 0x3, 0x6
000005eb ff28                 MOVAR 0x57
000005ec defe                 MOVIA 0x1
000005ed fba8                 SUBAR 0x57, 0x0
000005ee f7fc                 BTRSS 0x3, 0x0
000005ef c1f5                 LGOTO 0x60a; number.o:_00286_DS_=0x60a
000005f0 def9                 MOVIA 0x6
000005f1 fba8                 SUBAR 0x57, 0x0
000005f2 f3fc                 BTRSC 0x3, 0x0
000005f3 c1f5                 LGOTO 0x60a; number.o:_00286_DS_=0x60a
000005f4 f928                 DECR 0x57, 0x1
000005f5 defa                 MOVIA 0x5
000005f6 ff75                 MOVAR 0xa
000005f7 fea8                 MOVR 0x57, 0x0
000005f8 da03                 ADDIA 0xfc
000005f9 f3fc                 BTRSC 0x3, 0x0
000005fa fa75                 INCR 0xa, 0x1
000005fb ff7d                 MOVAR 0x2
000005fc                      number.o:_00296_DS_:
000005fc c1fe                 LGOTO 0x601; number.o:_00280_DS_=0x601
000005fd c1fc                 LGOTO 0x603; number.o:_00281_DS_=0x603
000005fe c1fa                 LGOTO 0x605; number.o:_00282_DS_=0x605
000005ff c1f8                 LGOTO 0x607; number.o:_00283_DS_=0x607
00000600 c1f6                 LGOTO 0x609; number.o:_00284_DS_=0x609
00000601                      number.o:_00280_DS_:
00000601 e0fa                 BCR 0x5, 0x6
00000602 c1f5                 LGOTO 0x60a; number.o:_00286_DS_=0x60a
00000603                      number.o:_00281_DS_:
00000603 e07a                 BCR 0x5, 0x7
00000604 c1f5                 LGOTO 0x60a; number.o:_00286_DS_=0x60a
00000605                      number.o:_00282_DS_:
00000605 e379                 BCR 0x6, 0x1
00000606 c1f5                 LGOTO 0x60a; number.o:_00286_DS_=0x60a
00000607                      number.o:_00283_DS_:
00000607 e3f9                 BCR 0x6, 0x0
00000608 c1f5                 LGOTO 0x60a; number.o:_00286_DS_=0x60a
00000609                      number.o:_00284_DS_:
00000609 e3fa                 BCR 0x5, 0x0
0000060a                      number.o:_00286_DS_:
0000060a ffef                 RET
0000060b                      _setHightOutput:
0000060b e0fc                 BCR 0x3, 0x6
0000060c ff29                 MOVAR 0x56
0000060d defe                 MOVIA 0x1
0000060e fba9                 SUBAR 0x56, 0x0
0000060f f7fc                 BTRSS 0x3, 0x0
00000610 c1d4                 LGOTO 0x62b; number.o:_00265_DS_=0x62b
00000611 def9                 MOVIA 0x6
00000612 fba9                 SUBAR 0x56, 0x0
00000613 f3fc                 BTRSC 0x3, 0x0
00000614 c1d4                 LGOTO 0x62b; number.o:_00265_DS_=0x62b
00000615 f929                 DECR 0x56, 0x1
00000616 def9                 MOVIA 0x6
00000617 ff75                 MOVAR 0xa
00000618 fea9                 MOVR 0x56, 0x0
00000619 dae2                 ADDIA 0x1d
0000061a f3fc                 BTRSC 0x3, 0x0
0000061b fa75                 INCR 0xa, 0x1
0000061c ff7d                 MOVAR 0x2
0000061d                      number.o:_00275_DS_:
0000061d c1dd                 LGOTO 0x622; number.o:_00259_DS_=0x622
0000061e c1db                 LGOTO 0x624; number.o:_00260_DS_=0x624
0000061f c1d9                 LGOTO 0x626; number.o:_00261_DS_=0x626
00000620 c1d7                 LGOTO 0x628; number.o:_00262_DS_=0x628
00000621 c1d5                 LGOTO 0x62a; number.o:_00263_DS_=0x62a
00000622                      number.o:_00259_DS_:
00000622 e4fa                 BSR 0x5, 0x6
00000623 c1d4                 LGOTO 0x62b; number.o:_00265_DS_=0x62b
00000624                      number.o:_00260_DS_:
00000624 e47a                 BSR 0x5, 0x7
00000625 c1d4                 LGOTO 0x62b; number.o:_00265_DS_=0x62b
00000626                      number.o:_00261_DS_:
00000626 e779                 BSR 0x6, 0x1
00000627 c1d4                 LGOTO 0x62b; number.o:_00265_DS_=0x62b
00000628                      number.o:_00262_DS_:
00000628 e7f9                 BSR 0x6, 0x0
00000629 c1d4                 LGOTO 0x62b; number.o:_00265_DS_=0x62b
0000062a                      number.o:_00263_DS_:
0000062a e7fa                 BSR 0x5, 0x0
0000062b                      number.o:_00265_DS_:
0000062b ffef                 RET
0000062c                      _showNub:
0000062c e0fc                 BCR 0x3, 0x6
0000062d ff2b                 MOVAR 0x54
0000062e feba                 MOVR 0x45, 0x0
0000062f ff2a                 MOVAR 0x55
00000630 d25d                 LCALL 0x5a2; _setInput=0x5a2
00000631 dec1                 MOVIA 0x3e
00000632 ef7a                 ANDAR 0x5, 0x1
00000633 de03                 MOVIA 0xfc
00000634 ef79                 ANDAR 0x6, 0x1
00000635 e0fc                 BCR 0x3, 0x6
00000636 feab                 MOVR 0x54, 0x0
00000637 d24f                 LCALL 0x5b0; _setOutput=0x5b0
00000638 e0fc                 BCR 0x3, 0x6
00000639 feab                 MOVR 0x54, 0x0
0000063a d1f4                 LCALL 0x60b; _setHightOutput=0x60b
0000063b e0fc                 BCR 0x3, 0x6
0000063c feaa                 MOVR 0x55, 0x0
0000063d d24f                 LCALL 0x5b0; _setOutput=0x5b0
0000063e e0fc                 BCR 0x3, 0x6
0000063f feaa                 MOVR 0x55, 0x0
00000640 d215                 LCALL 0x5ea; _setlowOutput=0x5ea
00000641 def5                 MOVIA 0xa
00000642 d269                 LCALL 0x596; _delayms=0x596
00000643 fffd                 CLRWDT
00000644 dec1                 MOVIA 0x3e
00000645 ef7a                 ANDAR 0x5, 0x1
00000646 de03                 MOVIA 0xfc
00000647 ef79                 ANDAR 0x6, 0x1
00000648 ffef                 RET
00000649                      _G3:
00000649 defa                 MOVIA 0x5
0000064a ff3a                 MOVAR 0x45
0000064b defe                 MOVIA 0x1
0000064c d1d3                 LCALL 0x62c; _showNub=0x62c
0000064d ffef                 RET
0000064e                      _F3:
0000064e defb                 MOVIA 0x4
0000064f ff3a                 MOVAR 0x45
00000650 defe                 MOVIA 0x1
00000651 d1d3                 LCALL 0x62c; _showNub=0x62c
00000652 ffef                 RET
00000653                      _E3:
00000653 defe                 MOVIA 0x1
00000654 ff3a                 MOVAR 0x45
00000655 defb                 MOVIA 0x4
00000656 d1d3                 LCALL 0x62c; _showNub=0x62c
00000657 ffef                 RET
00000658                      _D3:
00000658 defc                 MOVIA 0x3
00000659 ff3a                 MOVAR 0x45
0000065a defe                 MOVIA 0x1
0000065b d1d3                 LCALL 0x62c; _showNub=0x62c
0000065c ffef                 RET
0000065d                      _C3:
0000065d defe                 MOVIA 0x1
0000065e ff3a                 MOVAR 0x45
0000065f defc                 MOVIA 0x3
00000660 d1d3                 LCALL 0x62c; _showNub=0x62c
00000661 ffef                 RET
00000662                      _B3:
00000662 defd                 MOVIA 0x2
00000663 ff3a                 MOVAR 0x45
00000664 defe                 MOVIA 0x1
00000665 d1d3                 LCALL 0x62c; _showNub=0x62c
00000666 ffef                 RET
00000667                      _A3:
00000667 defe                 MOVIA 0x1
00000668 ff3a                 MOVAR 0x45
00000669 defd                 MOVIA 0x2
0000066a d1d3                 LCALL 0x62c; _showNub=0x62c
0000066b ffef                 RET
0000066c                      _G2:
0000066c defa                 MOVIA 0x5
0000066d ff3a                 MOVAR 0x45
0000066e defb                 MOVIA 0x4
0000066f d1d3                 LCALL 0x62c; _showNub=0x62c
00000670 ffef                 RET
00000671                      _F2:
00000671 defa                 MOVIA 0x5
00000672 ff3a                 MOVAR 0x45
00000673 defc                 MOVIA 0x3
00000674 d1d3                 LCALL 0x62c; _showNub=0x62c
00000675 ffef                 RET
00000676                      _E2:
00000676 defa                 MOVIA 0x5
00000677 ff3a                 MOVAR 0x45
00000678 defd                 MOVIA 0x2
00000679 d1d3                 LCALL 0x62c; _showNub=0x62c
0000067a ffef                 RET
0000067b                      _D2:
0000067b defb                 MOVIA 0x4
0000067c ff3a                 MOVAR 0x45
0000067d defd                 MOVIA 0x2
0000067e d1d3                 LCALL 0x62c; _showNub=0x62c
0000067f ffef                 RET
00000680                      _C2:
00000680 defb                 MOVIA 0x4
00000681 ff3a                 MOVAR 0x45
00000682 defc                 MOVIA 0x3
00000683 d1d3                 LCALL 0x62c; _showNub=0x62c
00000684 ffef                 RET
00000685                      _B2:
00000685 defc                 MOVIA 0x3
00000686 ff3a                 MOVAR 0x45
00000687 defd                 MOVIA 0x2
00000688 d1d3                 LCALL 0x62c; _showNub=0x62c
00000689 ffef                 RET
0000068a                      _A2:
0000068a defd                 MOVIA 0x2
0000068b ff3a                 MOVAR 0x45
0000068c defc                 MOVIA 0x3
0000068d d1d3                 LCALL 0x62c; _showNub=0x62c
0000068e ffef                 RET
0000068f                      _showKeyLed:
0000068f defe                 MOVIA 0x1
00000690 ff3a                 MOVAR 0x45
00000691 defa                 MOVIA 0x5
00000692 d1d3                 LCALL 0x62c; _showNub=0x62c
00000693 ffef                 RET
00000694                      _showNubGewei2:
00000694 e0fc                 BCR 0x3, 0x6
00000695 ff2c                 MOVAR 0x53
00000696 def8                 MOVIA 0x7
00000697 fbac                 SUBAR 0x53, 0x0
00000698 f3fc                 BTRSC 0x3, 0x0
00000699 c14a                 LGOTO 0x6b5; number.o:_00184_DS_=0x6b5
0000069a def9                 MOVIA 0x6
0000069b ff75                 MOVAR 0xa
0000069c feac                 MOVR 0x53, 0x0
0000069d da5e                 ADDIA 0xa1
0000069e f3fc                 BTRSC 0x3, 0x0
0000069f fa75                 INCR 0xa, 0x1
000006a0 ff7d                 MOVAR 0x2
000006a1                      number.o:_00190_DS_:
000006a1 c157                 LGOTO 0x6a8; number.o:_00176_DS_=0x6a8
000006a2 c155                 LGOTO 0x6aa; number.o:_00177_DS_=0x6aa
000006a3 c153                 LGOTO 0x6ac; number.o:_00178_DS_=0x6ac
000006a4 c151                 LGOTO 0x6ae; number.o:_00179_DS_=0x6ae
000006a5 c14f                 LGOTO 0x6b0; number.o:_00180_DS_=0x6b0
000006a6 c14d                 LGOTO 0x6b2; number.o:_00181_DS_=0x6b2
000006a7 c14b                 LGOTO 0x6b4; number.o:_00182_DS_=0x6b4
000006a8                      number.o:_00176_DS_:
000006a8 d198                 LCALL 0x667; _A3=0x667
000006a9 c14a                 LGOTO 0x6b5; number.o:_00184_DS_=0x6b5
000006aa                      number.o:_00177_DS_:
000006aa d19d                 LCALL 0x662; _B3=0x662
000006ab c14a                 LGOTO 0x6b5; number.o:_00184_DS_=0x6b5
000006ac                      number.o:_00178_DS_:
000006ac d1a2                 LCALL 0x65d; _C3=0x65d
000006ad c14a                 LGOTO 0x6b5; number.o:_00184_DS_=0x6b5
000006ae                      number.o:_00179_DS_:
000006ae d1a7                 LCALL 0x658; _D3=0x658
000006af c14a                 LGOTO 0x6b5; number.o:_00184_DS_=0x6b5
000006b0                      number.o:_00180_DS_:
000006b0 d1ac                 LCALL 0x653; _E3=0x653
000006b1 c14a                 LGOTO 0x6b5; number.o:_00184_DS_=0x6b5
000006b2                      number.o:_00181_DS_:
000006b2 d1b1                 LCALL 0x64e; _F3=0x64e
000006b3 c14a                 LGOTO 0x6b5; number.o:_00184_DS_=0x6b5
000006b4                      number.o:_00182_DS_:
000006b4 d1b6                 LCALL 0x649; _G3=0x649
000006b5                      number.o:_00184_DS_:
000006b5 ffef                 RET
000006b6                      _showNubGewei:
000006b6 e0fc                 BCR 0x3, 0x6
000006b7 ff2f                 MOVAR 0x50
000006b8 fd2e                 CLRR 0x51
000006b9                      number.o:_00155_DS_:
000006b9 def8                 MOVIA 0x7
000006ba e0fc                 BCR 0x3, 0x6
000006bb fbae                 SUBAR 0x51, 0x0
000006bc f3fc                 BTRSC 0x3, 0x0
000006bd c12c                 LGOTO 0x6d3; number.o:_00157_DS_=0x6d3
000006be feaf                 MOVR 0x50, 0x0
000006bf ff2d                 MOVAR 0x52
000006c0 feae                 MOVR 0x51, 0x0
000006c1 d8ff                 SUBIA 0x0
000006c2 f2fc                 BTRSC 0x3, 0x2
000006c3 c136                 LGOTO 0x6c9; number.o:_00171_DS_=0x6c9
000006c4                      number.o:_00170_DS_:
000006c4 e0fc                 BCR 0x3, 0x6
000006c5 ec2d                 RRR 0x52, 0x1
000006c6 dafe                 ADDIA 0x1
000006c7 f7fc                 BTRSS 0x3, 0x0
000006c8 c13b                 LGOTO 0x6c4; number.o:_00170_DS_=0x6c4
000006c9                      number.o:_00171_DS_:
000006c9 e0fc                 BCR 0x3, 0x6
000006ca f7ad                 BTRSS 0x52, 0x0
000006cb c130                 LGOTO 0x6cf; number.o:_00151_DS_=0x6cf
000006cc feae                 MOVR 0x51, 0x0
000006cd d16b                 LCALL 0x694; _showNubGewei2=0x694
000006ce c12f                 LGOTO 0x6d0; number.o:_00156_DS_=0x6d0
000006cf                      number.o:_00151_DS_:
000006cf d25d                 LCALL 0x5a2; _setInput=0x5a2
000006d0                      number.o:_00156_DS_:
000006d0 e0fc                 BCR 0x3, 0x6
000006d1 fa2e                 INCR 0x51, 0x1
000006d2 c146                 LGOTO 0x6b9; number.o:_00155_DS_=0x6b9
000006d3                      number.o:_00157_DS_:
000006d3 ffef                 RET
000006d4                      _showNubShiwei2:
000006d4 e0fc                 BCR 0x3, 0x6
000006d5 ff30                 MOVAR 0x4f
000006d6 def8                 MOVIA 0x7
000006d7 fbb0                 SUBAR 0x4f, 0x0
000006d8 f3fc                 BTRSC 0x3, 0x0
000006d9 c10a                 LGOTO 0x6f5; number.o:_00139_DS_=0x6f5
000006da def9                 MOVIA 0x6
000006db ff75                 MOVAR 0xa
000006dc feb0                 MOVR 0x4f, 0x0
000006dd da1e                 ADDIA 0xe1
000006de f3fc                 BTRSC 0x3, 0x0
000006df fa75                 INCR 0xa, 0x1
000006e0 ff7d                 MOVAR 0x2
000006e1                      number.o:_00145_DS_:
000006e1 c117                 LGOTO 0x6e8; number.o:_00131_DS_=0x6e8
000006e2 c115                 LGOTO 0x6ea; number.o:_00132_DS_=0x6ea
000006e3 c113                 LGOTO 0x6ec; number.o:_00133_DS_=0x6ec
000006e4 c111                 LGOTO 0x6ee; number.o:_00134_DS_=0x6ee
000006e5 c10f                 LGOTO 0x6f0; number.o:_00135_DS_=0x6f0
000006e6 c10d                 LGOTO 0x6f2; number.o:_00136_DS_=0x6f2
000006e7 c10b                 LGOTO 0x6f4; number.o:_00137_DS_=0x6f4
000006e8                      number.o:_00131_DS_:
000006e8 d175                 LCALL 0x68a; _A2=0x68a
000006e9 c10a                 LGOTO 0x6f5; number.o:_00139_DS_=0x6f5
000006ea                      number.o:_00132_DS_:
000006ea d17a                 LCALL 0x685; _B2=0x685
000006eb c10a                 LGOTO 0x6f5; number.o:_00139_DS_=0x6f5
000006ec                      number.o:_00133_DS_:
000006ec d17f                 LCALL 0x680; _C2=0x680
000006ed c10a                 LGOTO 0x6f5; number.o:_00139_DS_=0x6f5
000006ee                      number.o:_00134_DS_:
000006ee d184                 LCALL 0x67b; _D2=0x67b
000006ef c10a                 LGOTO 0x6f5; number.o:_00139_DS_=0x6f5
000006f0                      number.o:_00135_DS_:
000006f0 d189                 LCALL 0x676; _E2=0x676
000006f1 c10a                 LGOTO 0x6f5; number.o:_00139_DS_=0x6f5
000006f2                      number.o:_00136_DS_:
000006f2 d18e                 LCALL 0x671; _F2=0x671
000006f3 c10a                 LGOTO 0x6f5; number.o:_00139_DS_=0x6f5
000006f4                      number.o:_00137_DS_:
000006f4 d193                 LCALL 0x66c; _G2=0x66c
000006f5                      number.o:_00139_DS_:
000006f5 ffef                 RET
000006f6                      _showNubShiwei:
000006f6 e0fc                 BCR 0x3, 0x6
000006f7 ff33                 MOVAR 0x4c
000006f8 fd32                 CLRR 0x4d
000006f9                      number.o:_00110_DS_:
000006f9 def8                 MOVIA 0x7
000006fa e0fc                 BCR 0x3, 0x6
000006fb fbb2                 SUBAR 0x4d, 0x0
000006fc f3fc                 BTRSC 0x3, 0x0
000006fd c0ec                 LGOTO 0x713; number.o:_00112_DS_=0x713
000006fe feb3                 MOVR 0x4c, 0x0
000006ff ff31                 MOVAR 0x4e
00000700 feb2                 MOVR 0x4d, 0x0
00000701 d8ff                 SUBIA 0x0
00000702 f2fc                 BTRSC 0x3, 0x2
00000703 c0f6                 LGOTO 0x709; number.o:_00126_DS_=0x709
00000704                      number.o:_00125_DS_:
00000704 e0fc                 BCR 0x3, 0x6
00000705 ec31                 RRR 0x4e, 0x1
00000706 dafe                 ADDIA 0x1
00000707 f7fc                 BTRSS 0x3, 0x0
00000708 c0fb                 LGOTO 0x704; number.o:_00125_DS_=0x704
00000709                      number.o:_00126_DS_:
00000709 e0fc                 BCR 0x3, 0x6
0000070a f7b1                 BTRSS 0x4e, 0x0
0000070b c0f0                 LGOTO 0x70f; number.o:_00106_DS_=0x70f
0000070c feb2                 MOVR 0x4d, 0x0
0000070d d12b                 LCALL 0x6d4; _showNubShiwei2=0x6d4
0000070e c0ef                 LGOTO 0x710; number.o:_00111_DS_=0x710
0000070f                      number.o:_00106_DS_:
0000070f d25d                 LCALL 0x5a2; _setInput=0x5a2
00000710                      number.o:_00111_DS_:
00000710 e0fc                 BCR 0x3, 0x6
00000711 fa32                 INCR 0x4d, 0x1
00000712 c106                 LGOTO 0x6f9; number.o:_00110_DS_=0x6f9
00000713                      number.o:_00112_DS_:
00000713 ffef                 RET
00000714                      __mulchar:
00000714 e0fc                 BCR 0x3, 0x6
00000715 ff23                 MOVAR 0x5c
00000716 feba                 MOVR 0x45, 0x0
00000717 ff22                 MOVAR 0x5d
00000718 fd21                 CLRR 0x5e
00000719 def7                 MOVIA 0x8
0000071a ff20                 MOVAR 0x5f
0000071b                      _mulchar.o:_00119_DS_:
0000071b e0fc                 BCR 0x3, 0x6
0000071c f7a3                 BTRSS 0x5c, 0x0
0000071d c0df                 LGOTO 0x720; _mulchar.o:_00114_DS_=0x720
0000071e fea2                 MOVR 0x5d, 0x0
0000071f fc21                 ADDAR 0x5e, 0x1
00000720                      _mulchar.o:_00114_DS_:
00000720 e3fc                 BCR 0x3, 0x0
00000721 e0fc                 BCR 0x3, 0x6
00000722 ec23                 RRR 0x5c, 0x1
00000723 e3fc                 BCR 0x3, 0x0
00000724 eb22                 RLR 0x5d, 0x1
00000725 f9a0                 DECR 0x5f, 0x0
00000726 ff1f                 MOVAR 0x60
00000727 ff20                 MOVAR 0x5f
00000728 fe9f                 MOVR 0x60, 0x0
00000729 f6fc                 BTRSS 0x3, 0x2
0000072a c0e4                 LGOTO 0x71b; _mulchar.o:_00119_DS_=0x71b
0000072b fea1                 MOVR 0x5e, 0x0
0000072c ffef                 RET
0000072d                      __divuchar:
0000072d e0fc                 BCR 0x3, 0x6
0000072e ff1e                 MOVAR 0x61
0000072f feba                 MOVR 0x45, 0x0
00000730 ff1d                 MOVAR 0x62
00000731 fd1c                 CLRR 0x63
00000732 defe                 MOVIA 0x1
00000733 ff1b                 MOVAR 0x64
00000734 fe9d                 MOVR 0x62, 0x0
00000735 f6fc                 BTRSS 0x3, 0x2
00000736 c0c6                 LGOTO 0x739; _divuchar.o:_00107_DS_=0x739
00000737 de00                 MOVIA 0xff
00000738 c0aa                 LGOTO 0x755; _divuchar.o:_00115_DS_=0x755
00000739                      _divuchar.o:_00107_DS_:
00000739 e0fc                 BCR 0x3, 0x6
0000073a f01d                 BTRSC 0x62, 0x7
0000073b c0be                 LGOTO 0x741; _divuchar.o:_00112_DS_=0x741
0000073c e3fc                 BCR 0x3, 0x0
0000073d eb1d                 RLR 0x62, 0x1
0000073e e3fc                 BCR 0x3, 0x0
0000073f eb1b                 RLR 0x64, 0x1
00000740 c0c6                 LGOTO 0x739; _divuchar.o:_00107_DS_=0x739
00000741                      _divuchar.o:_00112_DS_:
00000741 e0fc                 BCR 0x3, 0x6
00000742 fe9b                 MOVR 0x64, 0x0
00000743 f2fc                 BTRSC 0x3, 0x2
00000744 c0ac                 LGOTO 0x753; _divuchar.o:_00114_DS_=0x753
00000745 fe9d                 MOVR 0x62, 0x0
00000746 fb9e                 SUBAR 0x61, 0x0
00000747 f7fc                 BTRSS 0x3, 0x0
00000748 c0b2                 LGOTO 0x74d; _divuchar.o:_00111_DS_=0x74d
00000749 fe9b                 MOVR 0x64, 0x0
0000074a fc1c                 ADDAR 0x63, 0x1
0000074b fe9d                 MOVR 0x62, 0x0
0000074c fb1e                 SUBAR 0x61, 0x1
0000074d                      _divuchar.o:_00111_DS_:
0000074d e3fc                 BCR 0x3, 0x0
0000074e e0fc                 BCR 0x3, 0x6
0000074f ec1d                 RRR 0x62, 0x1
00000750 e3fc                 BCR 0x3, 0x0
00000751 ec1b                 RRR 0x64, 0x1
00000752 c0be                 LGOTO 0x741; _divuchar.o:_00112_DS_=0x741
00000753                      _divuchar.o:_00114_DS_:
00000753 e0fc                 BCR 0x3, 0x6
00000754 fe9c                 MOVR 0x63, 0x0
00000755                      _divuchar.o:_00115_DS_:
00000755 ffef                 RET
00000756                      __moduchar:
00000756 e0fc                 BCR 0x3, 0x6
00000757 ff1a                 MOVAR 0x65
00000758 feba                 MOVR 0x45, 0x0
00000759 ff19                 MOVAR 0x66
0000075a f6fc                 BTRSS 0x3, 0x2
0000075b c0a1                 LGOTO 0x75e; _moduchar.o:_00119_DS_=0x75e
0000075c de00                 MOVIA 0xff
0000075d c086                 LGOTO 0x779; _moduchar.o:_00115_DS_=0x779
0000075e                      _moduchar.o:_00119_DS_:
0000075e defe                 MOVIA 0x1
0000075f e0fc                 BCR 0x3, 0x6
00000760 ff18                 MOVAR 0x67
00000761                      _moduchar.o:_00107_DS_:
00000761 e0fc                 BCR 0x3, 0x6
00000762 f019                 BTRSC 0x66, 0x7
00000763 c097                 LGOTO 0x768; _moduchar.o:_00112_DS_=0x768
00000764 e3fc                 BCR 0x3, 0x0
00000765 eb19                 RLR 0x66, 0x1
00000766 fa18                 INCR 0x67, 0x1
00000767 c09e                 LGOTO 0x761; _moduchar.o:_00107_DS_=0x761
00000768                      _moduchar.o:_00112_DS_:
00000768 e0fc                 BCR 0x3, 0x6
00000769 fe98                 MOVR 0x67, 0x0
0000076a f2fc                 BTRSC 0x3, 0x2
0000076b c088                 LGOTO 0x777; _moduchar.o:_00114_DS_=0x777
0000076c fe99                 MOVR 0x66, 0x0
0000076d fb9a                 SUBAR 0x65, 0x0
0000076e f7fc                 BTRSS 0x3, 0x0
0000076f c08d                 LGOTO 0x772; _moduchar.o:_00111_DS_=0x772
00000770 fe99                 MOVR 0x66, 0x0
00000771 fb1a                 SUBAR 0x65, 0x1
00000772                      _moduchar.o:_00111_DS_:
00000772 e3fc                 BCR 0x3, 0x0
00000773 e0fc                 BCR 0x3, 0x6
00000774 ec19                 RRR 0x66, 0x1
00000775 f918                 DECR 0x67, 0x1
00000776 c097                 LGOTO 0x768; _moduchar.o:_00112_DS_=0x768
00000777                      _moduchar.o:_00114_DS_:
00000777 e0fc                 BCR 0x3, 0x6
00000778 fe9a                 MOVR 0x65, 0x0
00000779                      _moduchar.o:_00115_DS_:
00000779 ffef                 RET
0000077a                      __gptrget:
0000077a dbff                 XORIA 0x0
0000077b f2fc                 BTRSC 0x3, 0x2
0000077c c07e                 LGOTO 0x781; _gptrget1.o:__dataptrget1=0x781
0000077d db7f                 XORIA 0x80
0000077e f2fc                 BTRSC 0x3, 0x2
0000077f c077                 LGOTO 0x788; __codeptrget1=0x788
00000780 dfff                 RETIA 0x0
00000781                      _gptrget1.o:__dataptrget1:
00000781 febb                 MOVR 0x44, 0x0
00000782 ff7b                 MOVAR 0x4
00000783 e0fc                 BCR 0x3, 0x6
00000784 f03b                 BTRSC 0x44, 0x7
00000785 e4fc                 BSR 0x3, 0x6
00000786 feff                 MOVR 0x0, 0x0
00000787 ffef                 RET
00000788                      __codeptrget1:
00000788 feba                 MOVR 0x45, 0x0
00000789 ffb8                 SFUN 0x7
0000078a febb                 MOVR 0x44, 0x0
0000078b fdee                 TABLEA
0000078c ffef                 RET
0000078d                      ___cinit_load__:
