00000000 c7fe                 LGOTO 0x1; __nyc_ny8_startup=0x1
00000001                      __nyc_ny8_startup:
00000001 d30b                 LCALL 0x4f4; ___cinit_load__=0x4f4
00000002 c7c2                 LGOTO 0x3d; _main=0x3d
00000003                      crt0.o:crt0_end:
00000008 c7f6                 LGOTO 0x9; main.o:__sdcc_interrupt=0x9
00000009                      main.o:__sdcc_interrupt:
00000009 ff3d                 MOVAR 0x42
0000000a eafc                 SWAPR 0x3, 0x0
0000000b fd7c                 CLRR 0x3
0000000c ff3e                 MOVAR 0x41
0000000d fef5                 MOVR 0xa, 0x0
0000000e fd75                 CLRR 0xa
0000000f ff3f                 MOVAR 0x40
00000010 fefb                 MOVR 0x4, 0x0
00000011 e0fc                 BCR 0x3, 0x6
00000012 ff42                 MOVAR 0x3d
00000013 feba                 MOVR 0x45, 0x0
00000014 ff41                 MOVAR 0x3e
00000015 febb                 MOVR 0x44, 0x0
00000016 ff40                 MOVAR 0x3f
00000017 f670                 BTRSS 0xf, 0x3
00000018 c7e3                 LGOTO 0x1c; main.o:_00106_DS_=0x1c
00000019 fa26                 INCR 0x59, 0x1
0000001a de08                 MOVIA 0xf7
0000001b ff70                 MOVAR 0xf
0000001c                      main.o:_00106_DS_:
0000001c f7f0                 BTRSS 0xf, 0x0
0000001d c7d6                 LGOTO 0x29; main.o:_00110_DS_=0x29
0000001e dec7                 MOVIA 0x38
0000001f fc7e                 ADDAR 0x1, 0x1
00000020 e0fc                 BCR 0x3, 0x6
00000021 fa5e                 INCR 0x21, 0x1
00000022 fede                 MOVR 0x21, 0x0
00000023 db9b                 XORIA 0x64
00000024 f6fc                 BTRSS 0x3, 0x2
00000025 c7d6                 LGOTO 0x29; main.o:_00110_DS_=0x29
00000026 fd5e                 CLRR 0x21
00000027 defe                 MOVIA 0x1
00000028 ff5f                 MOVAR 0x20
00000029                      main.o:_00110_DS_:
00000029 f770                 BTRSS 0xf, 0x1
0000002a c7d2                 LGOTO 0x2d; main.o:_00112_DS_=0x2d
0000002b                      ___cinit_size__:
0000002b de02                 MOVIA 0xfd
0000002c ff70                 MOVAR 0xf
0000002d                      main.o:_00112_DS_:
0000002d fd70                 CLRR 0xf
0000002e e0fc                 BCR 0x3, 0x6
0000002f fec0                 MOVR 0x3f, 0x0
00000030 ff3b                 MOVAR 0x44
00000031 fec1                 MOVR 0x3e, 0x0
00000032 ff3a                 MOVAR 0x45
00000033 fec2                 MOVR 0x3d, 0x0
00000034 ff7b                 MOVAR 0x4
00000035 febf                 MOVR 0x40, 0x0
00000036 ff75                 MOVAR 0xa
00000037 fd7c                 CLRR 0x3
00000038 eabe                 SWAPR 0x41, 0x0
00000039 ff7c                 MOVAR 0x3
0000003a ea3d                 SWAPR 0x42, 0x1
0000003b eabd                 SWAPR 0x42, 0x0
0000003c                      main.o:END_OF_INTERRUPT:
0000003c ffee                 RETIE
0000003d                      _main:
0000003d decb                 MOVIA 0x34
0000003e fffa                 IOST 0x5
0000003f fdff                 CLRA
00000040 fff9                 IOST 0x6
00000041 de10                 MOVIA 0xef
00000042 fff6                 IOST 0x9
00000043 de00                 MOVIA 0xff
00000044 ff73                 MOVAR 0xc
00000045 ff74                 MOVAR 0xb
00000046 fd7a                 CLRR 0x5
00000047 fd79                 CLRR 0x6
00000048 ffec                 DISI
00000049 fdff                 CLRA
0000004a fff0                 IOST 0xf
0000004b de00                 MOVIA 0xff
0000004c ffbf                 SFUN 0x0
0000004d defa                 MOVIA 0x5
0000004e ffbd                 SFUN 0x2
0000004f defc                 MOVIA 0x3
00000050 ffbe                 SFUN 0x1
00000051 e0fc                 BCR 0x3, 0x6
00000052 e531                 BSR 0x4e, 0x5
00000053 def4                 MOVIA 0xb
00000054 ff71                 MOVAR 0xe
00000055 dec8                 MOVIA 0x37
00000056 ff7e                 MOVAR 0x1
00000057 fdff                 CLRA
00000058 fffc                 T0MD
00000059 de77                 MOVIA 0x88
0000005a ff77                 MOVAR 0x8
0000005b defe                 MOVIA 0x1
0000005c fff0                 IOST 0xf
0000005d fffb                 ENI
0000005e fd5a                 CLRR 0x25
0000005f fd5b                 CLRR 0x24
00000060 fd5c                 CLRR 0x23
00000061 fd5d                 CLRR 0x22
00000062                      main.o:_00370_DS_:
00000062 e0fc                 BCR 0x3, 0x6
00000063 f1b1                 BTRSC 0x4e, 0x4
00000064 d523                 LCALL 0x2dc; _proData=0x2dc
00000065                      main.o:_00343_DS_:
00000065 e0fc                 BCR 0x3, 0x6
00000066 f531                 BTRSS 0x4e, 0x5
00000067 c792                 LGOTO 0x6d; main.o:_00348_DS_=0x6d
00000068 f6fa                 BTRSS 0x5, 0x2
00000069 c792                 LGOTO 0x6d; main.o:_00348_DS_=0x6d
0000006a e131                 BCR 0x4e, 0x5
0000006b d435                 LCALL 0x3ca; _proLow=0x3ca
0000006c c78b                 LGOTO 0x74; main.o:_00349_DS_=0x74
0000006d                      main.o:_00348_DS_:
0000006d e0fc                 BCR 0x3, 0x6
0000006e f131                 BTRSC 0x4e, 0x5
0000006f c78b                 LGOTO 0x74; main.o:_00349_DS_=0x74
00000070 f2fa                 BTRSC 0x5, 0x2
00000071 c78b                 LGOTO 0x74; main.o:_00349_DS_=0x74
00000072 e531                 BSR 0x4e, 0x5
00000073 d3de                 LCALL 0x421; _proHight=0x421
00000074                      main.o:_00349_DS_:
00000074 e0fc                 BCR 0x3, 0x6
00000075 feac                 MOVR 0x53, 0x0
00000076 f6fc                 BTRSS 0x3, 0x2
00000077 c783                 LGOTO 0x7c; main.o:_00352_DS_=0x7c
00000078 fd2d                 CLRR 0x52
00000079 fd2e                 CLRR 0x51
0000007a fd2f                 CLRR 0x50
0000007b fd30                 CLRR 0x4f
0000007c                      main.o:_00352_DS_:
0000007c d569                 LCALL 0x296; _showRGB=0x296
0000007d fffd                 CLRWDT
0000007e e0fc                 BCR 0x3, 0x6
0000007f fedf                 MOVR 0x20, 0x0
00000080 f2fc                 BTRSC 0x3, 0x2
00000081 c79d                 LGOTO 0x62; main.o:_00370_DS_=0x62
00000082 fd5f                 CLRR 0x20
00000083 d64a                 LCALL 0x1b5; _keyCtr=0x1b5
00000084 e0fc                 BCR 0x3, 0x6
00000085 feac                 MOVR 0x53, 0x0
00000086 f6fc                 BTRSS 0x3, 0x2
00000087 d5d8                 LCALL 0x227; _workCtr=0x227
00000088 e0fc                 BCR 0x3, 0x6
00000089 feb9                 MOVR 0x46, 0x0
0000008a f6fc                 BTRSS 0x3, 0x2
0000008b c761                 LGOTO 0x9e; main.o:_00358_DS_=0x9e
0000008c fea8                 MOVR 0x57, 0x0
0000008d f6fc                 BTRSS 0x3, 0x2
0000008e c761                 LGOTO 0x9e; main.o:_00358_DS_=0x9e
0000008f feac                 MOVR 0x53, 0x0
00000090 f6fc                 BTRSS 0x3, 0x2
00000091 c761                 LGOTO 0x9e; main.o:_00358_DS_=0x9e
00000092 fa37                 INCR 0x48, 0x1
00000093 f2fc                 BTRSC 0x3, 0x2
00000094 fa36                 INCR 0x49, 0x1
00000095 deff                 MOVIA 0x0
00000096 fbb6                 SUBAR 0x49, 0x0
00000097 f6fc                 BTRSS 0x3, 0x2
00000098 c764                 LGOTO 0x9b; main.o:_00422_DS_=0x9b
00000099 de05                 MOVIA 0xfa
0000009a fbb7                 SUBAR 0x48, 0x0
0000009b                      main.o:_00422_DS_:
0000009b f7fc                 BTRSS 0x3, 0x0
0000009c c761                 LGOTO 0x9e; main.o:_00358_DS_=0x9e
0000009d d539                 LCALL 0x2c6; _gotoSleep=0x2c6
0000009e                      main.o:_00358_DS_:
0000009e e0fc                 BCR 0x3, 0x6
0000009f fa2b                 INCR 0x54, 0x1
000000a0 de9a                 MOVIA 0x65
000000a1 fbab                 SUBAR 0x54, 0x0
000000a2 f7fc                 BTRSS 0x3, 0x0
000000a3 c79d                 LGOTO 0x62; main.o:_00370_DS_=0x62
000000a4 fd2b                 CLRR 0x54
000000a5 defa                 MOVIA 0x5
000000a6 fbac                 SUBAR 0x53, 0x0
000000a7 f7fc                 BTRSS 0x3, 0x0
000000a8 c79d                 LGOTO 0x62; main.o:_00370_DS_=0x62
000000a9 feb3                 MOVR 0x4c, 0x0
000000aa eeb2                 IORAR 0x4d, 0x0
000000ab f2fc                 BTRSC 0x3, 0x2
000000ac c74d                 LGOTO 0xb2; main.o:_00363_DS_=0xb2
000000ad de00                 MOVIA 0xff
000000ae fc33                 ADDAR 0x4c, 0x1
000000af f7fc                 BTRSS 0x3, 0x0
000000b0 f932                 DECR 0x4d, 0x1
000000b1 c79d                 LGOTO 0x62; main.o:_00370_DS_=0x62
000000b2                      main.o:_00363_DS_:
000000b2 defe                 MOVIA 0x1
000000b3 e0fc                 BCR 0x3, 0x6
000000b4 ff38                 MOVAR 0x47
000000b5 fd2c                 CLRR 0x53
000000b6 c79d                 LGOTO 0x62; main.o:_00370_DS_=0x62
000000b7 ffef                 RET
000000b8                      _rainbow:
000000b8 e0fc                 BCR 0x3, 0x6
000000b9 fea7                 MOVR 0x58, 0x0
000000ba dbfe                 XORIA 0x1
000000bb f6fc                 BTRSS 0x3, 0x2
000000bc c73d                 LGOTO 0xc2; main.o:_00586_DS_=0xc2
000000bd de05                 MOVIA 0xfa
000000be ff57                 MOVAR 0x28
000000bf fd56                 CLRR 0x29
000000c0 fd55                 CLRR 0x2a
000000c1 c700                 LGOTO 0xff; main.o:_00587_DS_=0xff
000000c2                      main.o:_00586_DS_:
000000c2 e0fc                 BCR 0x3, 0x6
000000c3 fea7                 MOVR 0x58, 0x0
000000c4 dbfd                 XORIA 0x2
000000c5 f6fc                 BTRSS 0x3, 0x2
000000c6 c732                 LGOTO 0xcd; main.o:_00583_DS_=0xcd
000000c7 de05                 MOVIA 0xfa
000000c8 ff57                 MOVAR 0x28
000000c9 de69                 MOVIA 0x96
000000ca ff56                 MOVAR 0x29
000000cb fd55                 CLRR 0x2a
000000cc c700                 LGOTO 0xff; main.o:_00587_DS_=0xff
000000cd                      main.o:_00583_DS_:
000000cd e0fc                 BCR 0x3, 0x6
000000ce fea7                 MOVR 0x58, 0x0
000000cf dbfc                 XORIA 0x3
000000d0 f6fc                 BTRSS 0x3, 0x2
000000d1 c728                 LGOTO 0xd7; main.o:_00580_DS_=0xd7
000000d2 de05                 MOVIA 0xfa
000000d3 ff57                 MOVAR 0x28
000000d4 ff56                 MOVAR 0x29
000000d5 fd55                 CLRR 0x2a
000000d6 c700                 LGOTO 0xff; main.o:_00587_DS_=0xff
000000d7                      main.o:_00580_DS_:
000000d7 e0fc                 BCR 0x3, 0x6
000000d8 fea7                 MOVR 0x58, 0x0
000000d9 dbfb                 XORIA 0x4
000000da f6fc                 BTRSS 0x3, 0x2
000000db c71e                 LGOTO 0xe1; main.o:_00577_DS_=0xe1
000000dc fd57                 CLRR 0x28
000000dd de05                 MOVIA 0xfa
000000de ff56                 MOVAR 0x29
000000df fd55                 CLRR 0x2a
000000e0 c700                 LGOTO 0xff; main.o:_00587_DS_=0xff
000000e1                      main.o:_00577_DS_:
000000e1 e0fc                 BCR 0x3, 0x6
000000e2 fea7                 MOVR 0x58, 0x0
000000e3 dbfa                 XORIA 0x5
000000e4 f6fc                 BTRSS 0x3, 0x2
000000e5 c714                 LGOTO 0xeb; main.o:_00574_DS_=0xeb
000000e6 fd57                 CLRR 0x28
000000e7 de05                 MOVIA 0xfa
000000e8 ff56                 MOVAR 0x29
000000e9 ff55                 MOVAR 0x2a
000000ea c700                 LGOTO 0xff; main.o:_00587_DS_=0xff
000000eb                      main.o:_00574_DS_:
000000eb e0fc                 BCR 0x3, 0x6
000000ec fea7                 MOVR 0x58, 0x0
000000ed dbf9                 XORIA 0x6
000000ee f6fc                 BTRSS 0x3, 0x2
000000ef c70a                 LGOTO 0xf5; main.o:_00571_DS_=0xf5
000000f0 fd57                 CLRR 0x28
000000f1 fd56                 CLRR 0x29
000000f2 de05                 MOVIA 0xfa
000000f3 ff55                 MOVAR 0x2a
000000f4 c700                 LGOTO 0xff; main.o:_00587_DS_=0xff
000000f5                      main.o:_00571_DS_:
000000f5 e0fc                 BCR 0x3, 0x6
000000f6 fea7                 MOVR 0x58, 0x0
000000f7 dbf8                 XORIA 0x7
000000f8 f6fc                 BTRSS 0x3, 0x2
000000f9 c700                 LGOTO 0xff; main.o:_00587_DS_=0xff
000000fa de69                 MOVIA 0x96
000000fb ff57                 MOVAR 0x28
000000fc fd56                 CLRR 0x29
000000fd de05                 MOVIA 0xfa
000000fe ff55                 MOVAR 0x2a
000000ff                      main.o:_00587_DS_:
000000ff e0fc                 BCR 0x3, 0x6
00000100 feb0                 MOVR 0x4f, 0x0
00000101 fbd7                 SUBAR 0x28, 0x0
00000102 f3fc                 BTRSC 0x3, 0x0
00000103 c6fa                 LGOTO 0x105; main.o:_00001_DS_=0x105
00000104 f930                 DECR 0x4f, 0x1
00000105                      main.o:_00001_DS_:
00000105 e0fc                 BCR 0x3, 0x6
00000106 feaf                 MOVR 0x50, 0x0
00000107 fbd6                 SUBAR 0x29, 0x0
00000108 f3fc                 BTRSC 0x3, 0x0
00000109 c6f4                 LGOTO 0x10b; main.o:_00002_DS_=0x10b
0000010a f92f                 DECR 0x50, 0x1
0000010b                      main.o:_00002_DS_:
0000010b e0fc                 BCR 0x3, 0x6
0000010c feae                 MOVR 0x51, 0x0
0000010d fbd5                 SUBAR 0x2a, 0x0
0000010e f3fc                 BTRSC 0x3, 0x0
0000010f c6ee                 LGOTO 0x111; main.o:_00003_DS_=0x111
00000110 f92e                 DECR 0x51, 0x1
00000111                      main.o:_00003_DS_:
00000111 e0fc                 BCR 0x3, 0x6
00000112 fed7                 MOVR 0x28, 0x0
00000113 fbb0                 SUBAR 0x4f, 0x0
00000114 f7fc                 BTRSS 0x3, 0x0
00000115 fa30                 INCR 0x4f, 0x1
00000116 fed6                 MOVR 0x29, 0x0
00000117 fbaf                 SUBAR 0x50, 0x0
00000118 f7fc                 BTRSS 0x3, 0x0
00000119 fa2f                 INCR 0x50, 0x1
0000011a fed5                 MOVR 0x2a, 0x0
0000011b fbae                 SUBAR 0x51, 0x0
0000011c f7fc                 BTRSS 0x3, 0x0
0000011d fa2e                 INCR 0x51, 0x1
0000011e fed7                 MOVR 0x28, 0x0
0000011f edb0                 XORAR 0x4f, 0x0
00000120 f6fc                 BTRSS 0x3, 0x2
00000121 c6ce                 LGOTO 0x131; main.o:_00606_DS_=0x131
00000122 fed5                 MOVR 0x2a, 0x0
00000123 edae                 XORAR 0x51, 0x0
00000124 f6fc                 BTRSS 0x3, 0x2
00000125 c6ce                 LGOTO 0x131; main.o:_00606_DS_=0x131
00000126 fed6                 MOVR 0x29, 0x0
00000127 edaf                 XORAR 0x50, 0x0
00000128 f6fc                 BTRSS 0x3, 0x2
00000129 c6ce                 LGOTO 0x131; main.o:_00606_DS_=0x131
0000012a fa27                 INCR 0x58, 0x1
0000012b def7                 MOVIA 0x8
0000012c fba7                 SUBAR 0x58, 0x0
0000012d f7fc                 BTRSS 0x3, 0x0
0000012e c6ce                 LGOTO 0x131; main.o:_00606_DS_=0x131
0000012f defe                 MOVIA 0x1
00000130 ff27                 MOVAR 0x58
00000131                      main.o:_00606_DS_:
00000131 ffef                 RET
00000132                      _colorChange:
00000132 e0fc                 BCR 0x3, 0x6
00000133 fa27                 INCR 0x58, 0x1
00000134 deee                 MOVIA 0x11
00000135 fba7                 SUBAR 0x58, 0x0
00000136 f7fc                 BTRSS 0x3, 0x0
00000137 c6c5                 LGOTO 0x13a; main.o:_00531_DS_=0x13a
00000138 defe                 MOVIA 0x1
00000139 ff27                 MOVAR 0x58
0000013a                      main.o:_00531_DS_:
0000013a e0fc                 BCR 0x3, 0x6
0000013b fd2e                 CLRR 0x51
0000013c fd2f                 CLRR 0x50
0000013d fd30                 CLRR 0x4f
0000013e fd2d                 CLRR 0x52
0000013f defe                 MOVIA 0x1
00000140 fba7                 SUBAR 0x58, 0x0
00000141 f7fc                 BTRSS 0x3, 0x0
00000142 c64b                 LGOTO 0x1b4; main.o:_00549_DS_=0x1b4
00000143 deee                 MOVIA 0x11
00000144 fba7                 SUBAR 0x58, 0x0
00000145 f3fc                 BTRSC 0x3, 0x0
00000146 c64b                 LGOTO 0x1b4; main.o:_00549_DS_=0x1b4
00000147 f9a7                 DECR 0x58, 0x0
00000148 ff4c                 MOVAR 0x33
00000149 defe                 MOVIA 0x1
0000014a ff75                 MOVAR 0xa
0000014b fecc                 MOVR 0x33, 0x0
0000014c daaf                 ADDIA 0x50
0000014d f3fc                 BTRSC 0x3, 0x0
0000014e fa75                 INCR 0xa, 0x1
0000014f ff7d                 MOVAR 0x2
00000150                      main.o:_00563_DS_:
00000150 c69f                 LGOTO 0x160; main.o:_00532_DS_=0x160
00000151 c69b                 LGOTO 0x164; main.o:_00533_DS_=0x164
00000152 c697                 LGOTO 0x168; main.o:_00534_DS_=0x168
00000153 c693                 LGOTO 0x16c; main.o:_00535_DS_=0x16c
00000154 c68f                 LGOTO 0x170; main.o:_00536_DS_=0x170
00000155 c68a                 LGOTO 0x175; main.o:_00537_DS_=0x175
00000156 c685                 LGOTO 0x17a; main.o:_00538_DS_=0x17a
00000157 c680                 LGOTO 0x17f; main.o:_00539_DS_=0x17f
00000158 c67a                 LGOTO 0x185; main.o:_00540_DS_=0x185
00000159 c674                 LGOTO 0x18b; main.o:_00541_DS_=0x18b
0000015a c66e                 LGOTO 0x191; main.o:_00542_DS_=0x191
0000015b c668                 LGOTO 0x197; main.o:_00543_DS_=0x197
0000015c c662                 LGOTO 0x19d; main.o:_00544_DS_=0x19d
0000015d c65c                 LGOTO 0x1a3; main.o:_00545_DS_=0x1a3
0000015e c656                 LGOTO 0x1a9; main.o:_00546_DS_=0x1a9
0000015f c650                 LGOTO 0x1af; main.o:_00547_DS_=0x1af
00000160                      main.o:_00532_DS_:
00000160 de05                 MOVIA 0xfa
00000161 e0fc                 BCR 0x3, 0x6
00000162 ff30                 MOVAR 0x4f
00000163 c64b                 LGOTO 0x1b4; main.o:_00549_DS_=0x1b4
00000164                      main.o:_00533_DS_:
00000164 de05                 MOVIA 0xfa
00000165 e0fc                 BCR 0x3, 0x6
00000166 ff2f                 MOVAR 0x50
00000167 c64b                 LGOTO 0x1b4; main.o:_00549_DS_=0x1b4
00000168                      main.o:_00534_DS_:
00000168 de05                 MOVIA 0xfa
00000169 e0fc                 BCR 0x3, 0x6
0000016a ff2e                 MOVAR 0x51
0000016b c64b                 LGOTO 0x1b4; main.o:_00549_DS_=0x1b4
0000016c                      main.o:_00535_DS_:
0000016c de05                 MOVIA 0xfa
0000016d e0fc                 BCR 0x3, 0x6
0000016e ff2d                 MOVAR 0x52
0000016f c64b                 LGOTO 0x1b4; main.o:_00549_DS_=0x1b4
00000170                      main.o:_00536_DS_:
00000170 de05                 MOVIA 0xfa
00000171 e0fc                 BCR 0x3, 0x6
00000172 ff2f                 MOVAR 0x50
00000173 ff30                 MOVAR 0x4f
00000174 c64b                 LGOTO 0x1b4; main.o:_00549_DS_=0x1b4
00000175                      main.o:_00537_DS_:
00000175 de05                 MOVIA 0xfa
00000176 e0fc                 BCR 0x3, 0x6
00000177 ff2e                 MOVAR 0x51
00000178 ff2f                 MOVAR 0x50
00000179 c64b                 LGOTO 0x1b4; main.o:_00549_DS_=0x1b4
0000017a                      main.o:_00538_DS_:
0000017a de05                 MOVIA 0xfa
0000017b e0fc                 BCR 0x3, 0x6
0000017c ff2e                 MOVAR 0x51
0000017d ff30                 MOVAR 0x4f
0000017e c64b                 LGOTO 0x1b4; main.o:_00549_DS_=0x1b4
0000017f                      main.o:_00539_DS_:
0000017f de05                 MOVIA 0xfa
00000180 e0fc                 BCR 0x3, 0x6
00000181 ff30                 MOVAR 0x4f
00000182 de9b                 MOVIA 0x64
00000183 ff2f                 MOVAR 0x50
00000184 c64b                 LGOTO 0x1b4; main.o:_00549_DS_=0x1b4
00000185                      main.o:_00540_DS_:
00000185 de9b                 MOVIA 0x64
00000186 e0fc                 BCR 0x3, 0x6
00000187 ff2f                 MOVAR 0x50
00000188 de05                 MOVIA 0xfa
00000189 ff2e                 MOVAR 0x51
0000018a c64b                 LGOTO 0x1b4; main.o:_00549_DS_=0x1b4
0000018b                      main.o:_00541_DS_:
0000018b de9b                 MOVIA 0x64
0000018c e0fc                 BCR 0x3, 0x6
0000018d ff30                 MOVAR 0x4f
0000018e de05                 MOVIA 0xfa
0000018f ff2e                 MOVAR 0x51
00000190 c64b                 LGOTO 0x1b4; main.o:_00549_DS_=0x1b4
00000191                      main.o:_00542_DS_:
00000191 de9b                 MOVIA 0x64
00000192 e0fc                 BCR 0x3, 0x6
00000193 ff30                 MOVAR 0x4f
00000194 de05                 MOVIA 0xfa
00000195 ff2f                 MOVAR 0x50
00000196 c64b                 LGOTO 0x1b4; main.o:_00549_DS_=0x1b4
00000197                      main.o:_00543_DS_:
00000197 de05                 MOVIA 0xfa
00000198 e0fc                 BCR 0x3, 0x6
00000199 ff2f                 MOVAR 0x50
0000019a de9b                 MOVIA 0x64
0000019b ff2e                 MOVAR 0x51
0000019c c64b                 LGOTO 0x1b4; main.o:_00549_DS_=0x1b4
0000019d                      main.o:_00544_DS_:
0000019d de05                 MOVIA 0xfa
0000019e e0fc                 BCR 0x3, 0x6
0000019f ff30                 MOVAR 0x4f
000001a0 de9b                 MOVIA 0x64
000001a1 ff2e                 MOVAR 0x51
000001a2 c64b                 LGOTO 0x1b4; main.o:_00549_DS_=0x1b4
000001a3                      main.o:_00545_DS_:
000001a3 decd                 MOVIA 0x32
000001a4 e0fc                 BCR 0x3, 0x6
000001a5 ff30                 MOVAR 0x4f
000001a6 de05                 MOVIA 0xfa
000001a7 ff2f                 MOVAR 0x50
000001a8 c64b                 LGOTO 0x1b4; main.o:_00549_DS_=0x1b4
000001a9                      main.o:_00546_DS_:
000001a9 de05                 MOVIA 0xfa
000001aa e0fc                 BCR 0x3, 0x6
000001ab ff2f                 MOVAR 0x50
000001ac decd                 MOVIA 0x32
000001ad ff2e                 MOVAR 0x51
000001ae c64b                 LGOTO 0x1b4; main.o:_00549_DS_=0x1b4
000001af                      main.o:_00547_DS_:
000001af de05                 MOVIA 0xfa
000001b0 e0fc                 BCR 0x3, 0x6
000001b1 ff30                 MOVAR 0x4f
000001b2 decd                 MOVIA 0x32
000001b3 ff2e                 MOVAR 0x51
000001b4                      main.o:_00549_DS_:
000001b4 ffef                 RET
000001b5                      _keyCtr:
000001b5 f8fa                 COMR 0x5, 0x0
000001b6 e0fc                 BCR 0x3, 0x6
000001b7 ff4d                 MOVAR 0x32
000001b8 decf                 MOVIA 0x30
000001b9 ef4d                 ANDAR 0x32, 0x1
000001ba fecd                 MOVR 0x32, 0x0
000001bb d623                 LCALL 0x1dc; _keyRead=0x1dc
000001bc e0fc                 BCR 0x3, 0x6
000001bd ff4d                 MOVAR 0x32
000001be dbfe                 XORIA 0x1
000001bf f6fc                 BTRSS 0x3, 0x2
000001c0 c624                 LGOTO 0x1db; main.o:_00525_DS_=0x1db
000001c1 fa2c                 INCR 0x53, 0x1
000001c2 def9                 MOVIA 0x6
000001c3 fbac                 SUBAR 0x53, 0x0
000001c4 f3fc                 BTRSC 0x3, 0x0
000001c5 fd2c                 CLRR 0x53
000001c6 defe                 MOVIA 0x1
000001c7 ff35                 MOVAR 0x4a
000001c8 feac                 MOVR 0x53, 0x0
000001c9 dbfe                 XORIA 0x1
000001ca f6fc                 BTRSS 0x3, 0x2
000001cb c62d                 LGOTO 0x1d2; main.o:_00521_DS_=0x1d2
000001cc defa                 MOVIA 0x5
000001cd ff2a                 MOVAR 0x55
000001ce de82                 MOVIA 0x7d
000001cf ff29                 MOVAR 0x56
000001d0 fd27                 CLRR 0x58
000001d1 c624                 LGOTO 0x1db; main.o:_00525_DS_=0x1db
000001d2                      main.o:_00521_DS_:
000001d2 e0fc                 BCR 0x3, 0x6
000001d3 feac                 MOVR 0x53, 0x0
000001d4 dbfa                 XORIA 0x5
000001d5 f6fc                 BTRSS 0x3, 0x2
000001d6 c624                 LGOTO 0x1db; main.o:_00525_DS_=0x1db
000001d7 dea7                 MOVIA 0x58
000001d8 ff33                 MOVAR 0x4c
000001d9 defd                 MOVIA 0x2
000001da ff32                 MOVAR 0x4d
000001db                      main.o:_00525_DS_:
000001db ffef                 RET
000001dc                      _keyRead:
000001dc e0fc                 BCR 0x3, 0x6
000001dd ff4e                 MOVAR 0x31
000001de fece                 MOVR 0x31, 0x0
000001df f2fc                 BTRSC 0x3, 0x2
000001e0 c5ed                 LGOTO 0x212; main.o:_00509_DS_=0x212
000001e1 fa28                 INCR 0x57, 0x1
000001e2 fd37                 CLRR 0x48
000001e3 fd36                 CLRR 0x49
000001e4 de37                 MOVIA 0xc8
000001e5 fba8                 SUBAR 0x57, 0x0
000001e6 f7fc                 BTRSS 0x3, 0x0
000001e7 c5da                 LGOTO 0x225; main.o:_00510_DS_=0x225
000001e8 de37                 MOVIA 0xc8
000001e9 ff28                 MOVAR 0x57
000001ea f5ce                 BTRSS 0x31, 0x4
000001eb c604                 LGOTO 0x1fb; main.o:_00497_DS_=0x1fb
000001ec fa29                 INCR 0x56, 0x1
000001ed de04                 MOVIA 0xfb
000001ee fba9                 SUBAR 0x56, 0x0
000001ef f7fc                 BTRSS 0x3, 0x0
000001f0 c60c                 LGOTO 0x1f3; main.o:_00491_DS_=0x1f3
000001f1 de05                 MOVIA 0xfa
000001f2 ff29                 MOVAR 0x56
000001f3                      main.o:_00491_DS_:
000001f3 dee6                 MOVIA 0x19
000001f4 ff3a                 MOVAR 0x45
000001f5 e0fc                 BCR 0x3, 0x6
000001f6 fea9                 MOVR 0x56, 0x0
000001f7 d334                 LCALL 0x4cb; __divuchar=0x4cb
000001f8 e0fc                 BCR 0x3, 0x6
000001f9 ff2a                 MOVAR 0x55
000001fa c5f3                 LGOTO 0x20c; main.o:_00498_DS_=0x20c
000001fb                      main.o:_00497_DS_:
000001fb e0fc                 BCR 0x3, 0x6
000001fc f54e                 BTRSS 0x31, 0x5
000001fd c5f3                 LGOTO 0x20c; main.o:_00498_DS_=0x20c
000001fe f929                 DECR 0x56, 0x1
000001ff dee6                 MOVIA 0x19
00000200 fba9                 SUBAR 0x56, 0x0
00000201 f3fc                 BTRSC 0x3, 0x0
00000202 c5fa                 LGOTO 0x205; main.o:_00493_DS_=0x205
00000203 dee6                 MOVIA 0x19
00000204 ff29                 MOVAR 0x56
00000205                      main.o:_00493_DS_:
00000205 dee6                 MOVIA 0x19
00000206 ff3a                 MOVAR 0x45
00000207 e0fc                 BCR 0x3, 0x6
00000208 fea9                 MOVR 0x56, 0x0
00000209 d334                 LCALL 0x4cb; __divuchar=0x4cb
0000020a e0fc                 BCR 0x3, 0x6
0000020b ff2a                 MOVAR 0x55
0000020c                      main.o:_00498_DS_:
0000020c e0fc                 BCR 0x3, 0x6
0000020d f0b1                 BTRSC 0x4e, 0x6
0000020e c5da                 LGOTO 0x225; main.o:_00510_DS_=0x225
0000020f e4b1                 BSR 0x4e, 0x6
00000210 defd                 MOVIA 0x2
00000211 c5d9                 LGOTO 0x226; main.o:_00511_DS_=0x226
00000212                      main.o:_00509_DS_:
00000212 de37                 MOVIA 0xc8
00000213 e0fc                 BCR 0x3, 0x6
00000214 fba8                 SUBAR 0x57, 0x0
00000215 f7fc                 BTRSS 0x3, 0x0
00000216 c5e4                 LGOTO 0x21b; main.o:_00506_DS_=0x21b
00000217 fd28                 CLRR 0x57
00000218 e0b1                 BCR 0x4e, 0x6
00000219 deff                 MOVIA 0x0
0000021a c5d9                 LGOTO 0x226; main.o:_00511_DS_=0x226
0000021b                      main.o:_00506_DS_:
0000021b def7                 MOVIA 0x8
0000021c e0fc                 BCR 0x3, 0x6
0000021d fba8                 SUBAR 0x57, 0x0
0000021e f7fc                 BTRSS 0x3, 0x0
0000021f c5dc                 LGOTO 0x223; main.o:_00507_DS_=0x223
00000220 fd28                 CLRR 0x57
00000221 defe                 MOVIA 0x1
00000222 c5d9                 LGOTO 0x226; main.o:_00511_DS_=0x226
00000223                      main.o:_00507_DS_:
00000223 e0fc                 BCR 0x3, 0x6
00000224 fd28                 CLRR 0x57
00000225                      main.o:_00510_DS_:
00000225 deff                 MOVIA 0x0
00000226                      main.o:_00511_DS_:
00000226 ffef                 RET
00000227                      _workCtr:
00000227 e0fc                 BCR 0x3, 0x6
00000228 fea9                 MOVR 0x56, 0x0
00000229 f6fc                 BTRSS 0x3, 0x2
0000022a c5ce                 LGOTO 0x231; main.o:_00449_DS_=0x231
0000022b dee6                 MOVIA 0x19
0000022c ff3a                 MOVAR 0x45
0000022d feaa                 MOVR 0x55, 0x0
0000022e d34d                 LCALL 0x4b2; __mulchar=0x4b2
0000022f e0fc                 BCR 0x3, 0x6
00000230 ff29                 MOVAR 0x56
00000231                      main.o:_00449_DS_:
00000231 e0fc                 BCR 0x3, 0x6
00000232 feac                 MOVR 0x53, 0x0
00000233 f6fc                 BTRSS 0x3, 0x2
00000234 c5c1                 LGOTO 0x23e; main.o:_00483_DS_=0x23e
00000235 fd2e                 CLRR 0x51
00000236 fd2f                 CLRR 0x50
00000237 fd30                 CLRR 0x4f
00000238 fd2d                 CLRR 0x52
00000239 de41                 MOVIA 0xbe
0000023a ef79                 ANDAR 0x6, 0x1
0000023b de03                 MOVIA 0xfc
0000023c ef7a                 ANDAR 0x5, 0x1
0000023d c56a                 LGOTO 0x295; main.o:_00485_DS_=0x295
0000023e                      main.o:_00483_DS_:
0000023e e0fc                 BCR 0x3, 0x6
0000023f feac                 MOVR 0x53, 0x0
00000240 dbfe                 XORIA 0x1
00000241 f6fc                 BTRSS 0x3, 0x2
00000242 c5b6                 LGOTO 0x249; main.o:_00480_DS_=0x249
00000243 fea9                 MOVR 0x56, 0x0
00000244 ff2d                 MOVAR 0x52
00000245 fd2e                 CLRR 0x51
00000246 fd2f                 CLRR 0x50
00000247 fd30                 CLRR 0x4f
00000248 c56a                 LGOTO 0x295; main.o:_00485_DS_=0x295
00000249                      main.o:_00480_DS_:
00000249 e0fc                 BCR 0x3, 0x6
0000024a feac                 MOVR 0x53, 0x0
0000024b dbfd                 XORIA 0x2
0000024c f6fc                 BTRSS 0x3, 0x2
0000024d c5ab                 LGOTO 0x254; main.o:_00477_DS_=0x254
0000024e fea9                 MOVR 0x56, 0x0
0000024f ff30                 MOVAR 0x4f
00000250 fd2e                 CLRR 0x51
00000251 fd2f                 CLRR 0x50
00000252 fd2d                 CLRR 0x52
00000253 c56a                 LGOTO 0x295; main.o:_00485_DS_=0x295
00000254                      main.o:_00477_DS_:
00000254 e0fc                 BCR 0x3, 0x6
00000255 feac                 MOVR 0x53, 0x0
00000256 dbfc                 XORIA 0x3
00000257 f6fc                 BTRSS 0x3, 0x2
00000258 c5a0                 LGOTO 0x25f; main.o:_00474_DS_=0x25f
00000259 fea9                 MOVR 0x56, 0x0
0000025a ff2f                 MOVAR 0x50
0000025b fd2e                 CLRR 0x51
0000025c fd30                 CLRR 0x4f
0000025d fd2d                 CLRR 0x52
0000025e c56a                 LGOTO 0x295; main.o:_00485_DS_=0x295
0000025f                      main.o:_00474_DS_:
0000025f e0fc                 BCR 0x3, 0x6
00000260 feac                 MOVR 0x53, 0x0
00000261 dbfb                 XORIA 0x4
00000262 f6fc                 BTRSS 0x3, 0x2
00000263 c595                 LGOTO 0x26a; main.o:_00471_DS_=0x26a
00000264 fea9                 MOVR 0x56, 0x0
00000265 ff2e                 MOVAR 0x51
00000266 fd30                 CLRR 0x4f
00000267 fd2f                 CLRR 0x50
00000268 fd2d                 CLRR 0x52
00000269 c56a                 LGOTO 0x295; main.o:_00485_DS_=0x295
0000026a                      main.o:_00471_DS_:
0000026a e0fc                 BCR 0x3, 0x6
0000026b feac                 MOVR 0x53, 0x0
0000026c dbfa                 XORIA 0x5
0000026d f6fc                 BTRSS 0x3, 0x2
0000026e c58b                 LGOTO 0x274; main.o:_00468_DS_=0x274
0000026f feab                 MOVR 0x54, 0x0
00000270 f6fc                 BTRSS 0x3, 0x2
00000271 c56a                 LGOTO 0x295; main.o:_00485_DS_=0x295
00000272 d6cd                 LCALL 0x132; _colorChange=0x132
00000273 c56a                 LGOTO 0x295; main.o:_00485_DS_=0x295
00000274                      main.o:_00468_DS_:
00000274 e0fc                 BCR 0x3, 0x6
00000275 feac                 MOVR 0x53, 0x0
00000276 dbf9                 XORIA 0x6
00000277 f6fc                 BTRSS 0x3, 0x2
00000278 c578                 LGOTO 0x287; main.o:_00465_DS_=0x287
00000279 feab                 MOVR 0x54, 0x0
0000027a f6fc                 BTRSS 0x3, 0x2
0000027b c57f                 LGOTO 0x280; main.o:_00455_DS_=0x280
0000027c defe                 MOVIA 0x1
0000027d ff35                 MOVAR 0x4a
0000027e d6cd                 LCALL 0x132; _colorChange=0x132
0000027f c56a                 LGOTO 0x295; main.o:_00485_DS_=0x295
00000280                      main.o:_00455_DS_:
00000280 decc                 MOVIA 0x33
00000281 e0fc                 BCR 0x3, 0x6
00000282 fbab                 SUBAR 0x54, 0x0
00000283 f7fc                 BTRSS 0x3, 0x0
00000284 c56a                 LGOTO 0x295; main.o:_00485_DS_=0x295
00000285 fd35                 CLRR 0x4a
00000286 c56a                 LGOTO 0x295; main.o:_00485_DS_=0x295
00000287                      main.o:_00465_DS_:
00000287 e0fc                 BCR 0x3, 0x6
00000288 feac                 MOVR 0x53, 0x0
00000289 dbf8                 XORIA 0x7
0000028a f6fc                 BTRSS 0x3, 0x2
0000028b c56f                 LGOTO 0x290; main.o:_00462_DS_=0x290
0000028c f3ab                 BTRSC 0x54, 0x0
0000028d c56a                 LGOTO 0x295; main.o:_00485_DS_=0x295
0000028e d747                 LCALL 0xb8; _rainbow=0xb8
0000028f c56a                 LGOTO 0x295; main.o:_00485_DS_=0x295
00000290                      main.o:_00462_DS_:
00000290 e0fc                 BCR 0x3, 0x6
00000291 feac                 MOVR 0x53, 0x0
00000292 dbf7                 XORIA 0x8
00000293 f2fc                 BTRSC 0x3, 0x2
00000294 d747                 LCALL 0xb8; _rainbow=0xb8
00000295                      main.o:_00485_DS_:
00000295 ffef                 RET
00000296                      _showRGB:
00000296 e0fc                 BCR 0x3, 0x6
00000297 feb5                 MOVR 0x4a, 0x0
00000298 f6fc                 BTRSS 0x3, 0x2
00000299 c560                 LGOTO 0x29f; main.o:_00428_DS_=0x29f
0000029a de21                 MOVIA 0xde
0000029b ef79                 ANDAR 0x6, 0x1
0000029c de03                 MOVIA 0xfc
0000029d ef7a                 ANDAR 0x5, 0x1
0000029e c53a                 LGOTO 0x2c5; main.o:_00443_DS_=0x2c5
0000029f                      main.o:_00428_DS_:
0000029f e0fc                 BCR 0x3, 0x6
000002a0 fead                 MOVR 0x52, 0x0
000002a1 fbb4                 SUBAR 0x4b, 0x0
000002a2 f3fc                 BTRSC 0x3, 0x0
000002a3 c559                 LGOTO 0x2a6; main.o:_00430_DS_=0x2a6
000002a4 e579                 BSR 0x6, 0x5
000002a5 c558                 LGOTO 0x2a7; main.o:_00431_DS_=0x2a7
000002a6                      main.o:_00430_DS_:
000002a6 e179                 BCR 0x6, 0x5
000002a7                      main.o:_00431_DS_:
000002a7 e0fc                 BCR 0x3, 0x6
000002a8 feae                 MOVR 0x51, 0x0
000002a9 fbb4                 SUBAR 0x4b, 0x0
000002aa f3fc                 BTRSC 0x3, 0x0
000002ab c551                 LGOTO 0x2ae; main.o:_00433_DS_=0x2ae
000002ac e7fa                 BSR 0x5, 0x0
000002ad c550                 LGOTO 0x2af; main.o:_00434_DS_=0x2af
000002ae                      main.o:_00433_DS_:
000002ae e3fa                 BCR 0x5, 0x0
000002af                      main.o:_00434_DS_:
000002af e0fc                 BCR 0x3, 0x6
000002b0 feaf                 MOVR 0x50, 0x0
000002b1 fbb4                 SUBAR 0x4b, 0x0
000002b2 f3fc                 BTRSC 0x3, 0x0
000002b3 c549                 LGOTO 0x2b6; main.o:_00436_DS_=0x2b6
000002b4 e77a                 BSR 0x5, 0x1
000002b5 c548                 LGOTO 0x2b7; main.o:_00437_DS_=0x2b7
000002b6                      main.o:_00436_DS_:
000002b6 e37a                 BCR 0x5, 0x1
000002b7                      main.o:_00437_DS_:
000002b7 e0fc                 BCR 0x3, 0x6
000002b8 feb0                 MOVR 0x4f, 0x0
000002b9 fbb4                 SUBAR 0x4b, 0x0
000002ba f3fc                 BTRSC 0x3, 0x0
000002bb c541                 LGOTO 0x2be; main.o:_00439_DS_=0x2be
000002bc e7f9                 BSR 0x6, 0x0
000002bd c540                 LGOTO 0x2bf; main.o:_00440_DS_=0x2bf
000002be                      main.o:_00439_DS_:
000002be e3f9                 BCR 0x6, 0x0
000002bf                      main.o:_00440_DS_:
000002bf e0fc                 BCR 0x3, 0x6
000002c0 fa34                 INCR 0x4b, 0x1
000002c1 de00                 MOVIA 0xff
000002c2 fbb4                 SUBAR 0x4b, 0x0
000002c3 f3fc                 BTRSC 0x3, 0x0
000002c4 fd34                 CLRR 0x4b
000002c5                      main.o:_00443_DS_:
000002c5 ffef                 RET
000002c6                      _gotoSleep:
000002c6 e0fc                 BCR 0x3, 0x6
000002c7 fd37                 CLRR 0x48
000002c8 fd36                 CLRR 0x49
000002c9 fd2c                 CLRR 0x53
000002ca decb                 MOVIA 0x34
000002cb ff6a                 MOVAR 0x15
000002cc def4                 MOVIA 0xb
000002cd ff71                 MOVAR 0xe
000002ce def7                 MOVIA 0x8
000002cf ff77                 MOVAR 0x8
000002d0 fd70                 CLRR 0xf
000002d1 fffd                 CLRWDT
000002d2 fffe                 SLEEP
000002d3 def4                 MOVIA 0xb
000002d4 ff71                 MOVAR 0xe
000002d5 fd70                 CLRR 0xf
000002d6 de7f                 MOVIA 0x80
000002d7 ff77                 MOVAR 0x8
000002d8 fd38                 CLRR 0x47
000002d9 fd39                 CLRR 0x46
000002da fd58                 CLRR 0x27
000002db ffef                 RET
000002dc                      _proData:
000002dc e0fc                 BCR 0x3, 0x6
000002dd f8da                 COMR 0x25, 0x0
000002de ff59                 MOVAR 0x26
000002df eddb                 XORAR 0x24, 0x0
000002e0 f6fc                 BTRSS 0x3, 0x2
000002e1 c475                 LGOTO 0x38a; main.o:_00264_DS_=0x38a
000002e2 defe                 MOVIA 0x1
000002e3 ff35                 MOVAR 0x4a
000002e4 fd27                 CLRR 0x58
000002e5 feac                 MOVR 0x53, 0x0
000002e6 f6fc                 BTRSS 0x3, 0x2
000002e7 c511                 LGOTO 0x2ee; main.o:_00242_DS_=0x2ee
000002e8 defd                 MOVIA 0x2
000002e9 fbd9                 SUBAR 0x26, 0x0
000002ea f7fc                 BTRSS 0x3, 0x0
000002eb c511                 LGOTO 0x2ee; main.o:_00242_DS_=0x2ee
000002ec e1b1                 BCR 0x4e, 0x4
000002ed c473                 LGOTO 0x38c; main.o:_00265_DS_=0x38c
000002ee                      main.o:_00242_DS_:
000002ee e0fc                 BCR 0x3, 0x6
000002ef fed9                 MOVR 0x26, 0x0
000002f0 f2fc                 BTRSC 0x3, 0x2
000002f1 c4d5                 LGOTO 0x32a; main.o:_00247_DS_=0x32a
000002f2 fed9                 MOVR 0x26, 0x0
000002f3 dbfe                 XORIA 0x1
000002f4 f2fc                 BTRSC 0x3, 0x2
000002f5 c4e0                 LGOTO 0x31f; main.o:_00244_DS_=0x31f
000002f6 fed9                 MOVR 0x26, 0x0
000002f7 dbf9                 XORIA 0x6
000002f8 f2fc                 BTRSC 0x3, 0x2
000002f9 c492                 LGOTO 0x36d; main.o:_00260_DS_=0x36d
000002fa fed9                 MOVR 0x26, 0x0
000002fb dbf7                 XORIA 0x8
000002fc f2fc                 BTRSC 0x3, 0x2
000002fd c483                 LGOTO 0x37c; main.o:_00261_DS_=0x37c
000002fe fed9                 MOVR 0x26, 0x0
000002ff dbf6                 XORIA 0x9
00000300 f2fc                 BTRSC 0x3, 0x2
00000301 c4c2                 LGOTO 0x33d; main.o:_00251_DS_=0x33d
00000302 fed9                 MOVR 0x26, 0x0
00000303 dbf5                 XORIA 0xa
00000304 f2fc                 BTRSC 0x3, 0x2
00000305 c4b2                 LGOTO 0x34d; main.o:_00254_DS_=0x34d
00000306 fed9                 MOVR 0x26, 0x0
00000307 dbf3                 XORIA 0xc
00000308 f2fc                 BTRSC 0x3, 0x2
00000309 c4d2                 LGOTO 0x32d; main.o:_00248_DS_=0x32d
0000030a fed9                 MOVR 0x26, 0x0
0000030b dbf2                 XORIA 0xd
0000030c f2fc                 BTRSC 0x3, 0x2
0000030d c4a6                 LGOTO 0x359; main.o:_00257_DS_=0x359
0000030e fed9                 MOVR 0x26, 0x0
0000030f dbf1                 XORIA 0xe
00000310 f2fc                 BTRSC 0x3, 0x2
00000311 c4a2                 LGOTO 0x35d; main.o:_00258_DS_=0x35d
00000312 fed9                 MOVR 0x26, 0x0
00000313 dbeb                 XORIA 0x14
00000314 f2fc                 BTRSC 0x3, 0x2
00000315 c49a                 LGOTO 0x365; main.o:_00259_DS_=0x365
00000316 fed9                 MOVR 0x26, 0x0
00000317 dbea                 XORIA 0x15
00000318 f2fc                 BTRSC 0x3, 0x2
00000319 c4ae                 LGOTO 0x351; main.o:_00255_DS_=0x351
0000031a fed9                 MOVR 0x26, 0x0
0000031b dbe9                 XORIA 0x16
0000031c f2fc                 BTRSC 0x3, 0x2
0000031d c4aa                 LGOTO 0x355; main.o:_00256_DS_=0x355
0000031e c475                 LGOTO 0x38a; main.o:_00264_DS_=0x38a
0000031f                      main.o:_00244_DS_:
0000031f e0fc                 BCR 0x3, 0x6
00000320 feac                 MOVR 0x53, 0x0
00000321 f6fc                 BTRSS 0x3, 0x2
00000322 c475                 LGOTO 0x38a; main.o:_00264_DS_=0x38a
00000323 defe                 MOVIA 0x1
00000324 ff2c                 MOVAR 0x53
00000325 defa                 MOVIA 0x5
00000326 ff2a                 MOVAR 0x55
00000327 de82                 MOVIA 0x7d
00000328 ff29                 MOVAR 0x56
00000329 c475                 LGOTO 0x38a; main.o:_00264_DS_=0x38a
0000032a                      main.o:_00247_DS_:
0000032a e0fc                 BCR 0x3, 0x6
0000032b fd2c                 CLRR 0x53
0000032c c475                 LGOTO 0x38a; main.o:_00264_DS_=0x38a
0000032d                      main.o:_00248_DS_:
0000032d e0fc                 BCR 0x3, 0x6
0000032e fa2a                 INCR 0x55, 0x1
0000032f def4                 MOVIA 0xb
00000330 fbaa                 SUBAR 0x55, 0x0
00000331 f7fc                 BTRSS 0x3, 0x0
00000332 c4ca                 LGOTO 0x335; main.o:_00250_DS_=0x335
00000333 def5                 MOVIA 0xa
00000334 ff2a                 MOVAR 0x55
00000335                      main.o:_00250_DS_:
00000335 dee6                 MOVIA 0x19
00000336 ff3a                 MOVAR 0x45
00000337 e0fc                 BCR 0x3, 0x6
00000338 feaa                 MOVR 0x55, 0x0
00000339 d34d                 LCALL 0x4b2; __mulchar=0x4b2
0000033a e0fc                 BCR 0x3, 0x6
0000033b ff29                 MOVAR 0x56
0000033c c475                 LGOTO 0x38a; main.o:_00264_DS_=0x38a
0000033d                      main.o:_00251_DS_:
0000033d e0fc                 BCR 0x3, 0x6
0000033e f92a                 DECR 0x55, 0x1
0000033f defe                 MOVIA 0x1
00000340 fbaa                 SUBAR 0x55, 0x0
00000341 f3fc                 BTRSC 0x3, 0x0
00000342 c4ba                 LGOTO 0x345; main.o:_00253_DS_=0x345
00000343 defe                 MOVIA 0x1
00000344 ff2a                 MOVAR 0x55
00000345                      main.o:_00253_DS_:
00000345 dee6                 MOVIA 0x19
00000346 ff3a                 MOVAR 0x45
00000347 e0fc                 BCR 0x3, 0x6
00000348 feaa                 MOVR 0x55, 0x0
00000349 d34d                 LCALL 0x4b2; __mulchar=0x4b2
0000034a e0fc                 BCR 0x3, 0x6
0000034b ff29                 MOVAR 0x56
0000034c c475                 LGOTO 0x38a; main.o:_00264_DS_=0x38a
0000034d                      main.o:_00254_DS_:
0000034d defe                 MOVIA 0x1
0000034e e0fc                 BCR 0x3, 0x6
0000034f ff2c                 MOVAR 0x53
00000350 c475                 LGOTO 0x38a; main.o:_00264_DS_=0x38a
00000351                      main.o:_00255_DS_:
00000351 defd                 MOVIA 0x2
00000352 e0fc                 BCR 0x3, 0x6
00000353 ff2c                 MOVAR 0x53
00000354 c475                 LGOTO 0x38a; main.o:_00264_DS_=0x38a
00000355                      main.o:_00256_DS_:
00000355 defc                 MOVIA 0x3
00000356 e0fc                 BCR 0x3, 0x6
00000357 ff2c                 MOVAR 0x53
00000358 c475                 LGOTO 0x38a; main.o:_00264_DS_=0x38a
00000359                      main.o:_00257_DS_:
00000359 defb                 MOVIA 0x4
0000035a e0fc                 BCR 0x3, 0x6
0000035b ff2c                 MOVAR 0x53
0000035c c475                 LGOTO 0x38a; main.o:_00264_DS_=0x38a
0000035d                      main.o:_00258_DS_:
0000035d defa                 MOVIA 0x5
0000035e e0fc                 BCR 0x3, 0x6
0000035f ff2c                 MOVAR 0x53
00000360 dea7                 MOVIA 0x58
00000361 ff33                 MOVAR 0x4c
00000362 defd                 MOVIA 0x2
00000363 ff32                 MOVAR 0x4d
00000364 c475                 LGOTO 0x38a; main.o:_00264_DS_=0x38a
00000365                      main.o:_00259_DS_:
00000365 def9                 MOVIA 0x6
00000366 e0fc                 BCR 0x3, 0x6
00000367 ff2c                 MOVAR 0x53
00000368 def7                 MOVIA 0x8
00000369 ff33                 MOVAR 0x4c
0000036a def8                 MOVIA 0x7
0000036b ff32                 MOVAR 0x4d
0000036c c475                 LGOTO 0x38a; main.o:_00264_DS_=0x38a
0000036d                      main.o:_00260_DS_:
0000036d defe                 MOVIA 0x1
0000036e e0fc                 BCR 0x3, 0x6
0000036f ff27                 MOVAR 0x58
00000370 fd2e                 CLRR 0x51
00000371 fd2f                 CLRR 0x50
00000372 fd2d                 CLRR 0x52
00000373 de05                 MOVIA 0xfa
00000374 ff30                 MOVAR 0x4f
00000375 def8                 MOVIA 0x7
00000376 ff2c                 MOVAR 0x53
00000377 deef                 MOVIA 0x10
00000378 ff33                 MOVAR 0x4c
00000379 def1                 MOVIA 0xe
0000037a ff32                 MOVAR 0x4d
0000037b c475                 LGOTO 0x38a; main.o:_00264_DS_=0x38a
0000037c                      main.o:_00261_DS_:
0000037c defe                 MOVIA 0x1
0000037d e0fc                 BCR 0x3, 0x6
0000037e ff27                 MOVAR 0x58
0000037f fd2e                 CLRR 0x51
00000380 fd2f                 CLRR 0x50
00000381 fd2d                 CLRR 0x52
00000382 de05                 MOVIA 0xfa
00000383 ff30                 MOVAR 0x4f
00000384 def7                 MOVIA 0x8
00000385 ff2c                 MOVAR 0x53
00000386 dedf                 MOVIA 0x20
00000387 ff33                 MOVAR 0x4c
00000388 dee3                 MOVIA 0x1c
00000389 ff32                 MOVAR 0x4d
0000038a                      main.o:_00264_DS_:
0000038a e0fc                 BCR 0x3, 0x6
0000038b e1b1                 BCR 0x4e, 0x4
0000038c                      main.o:_00265_DS_:
0000038c ffef                 RET
0000038d                      _GetOneByte:
0000038d e0fc                 BCR 0x3, 0x6
0000038e ff4f                 MOVAR 0x30
0000038f f631                 BTRSS 0x4e, 0x3
00000390 c436                 LGOTO 0x3c9; main.o:_00236_DS_=0x3c9
00000391 feb9                 MOVR 0x46, 0x0
00000392 f6fc                 BTRSS 0x3, 0x2
00000393 c465                 LGOTO 0x39a; main.o:_00220_DS_=0x39a
00000394 fd39                 CLRR 0x46
00000395 fd58                 CLRR 0x27
00000396 fd5a                 CLRR 0x25
00000397 fd5b                 CLRR 0x24
00000398 fd5c                 CLRR 0x23
00000399 fd5d                 CLRR 0x22
0000039a                      main.o:_00220_DS_:
0000039a e0fc                 BCR 0x3, 0x6
0000039b fa39                 INCR 0x46, 0x1
0000039c fecf                 MOVR 0x30, 0x0
0000039d f2fc                 BTRSC 0x3, 0x2
0000039e c45f                 LGOTO 0x3a0; main.o:_00004_DS_=0x3a0
0000039f e458                 BSR 0x27, 0x7
000003a0                      main.o:_00004_DS_:
000003a0 e0fc                 BCR 0x3, 0x6
000003a1 feb9                 MOVR 0x46, 0x0
000003a2 dbf7                 XORIA 0x8
000003a3 f6fc                 BTRSS 0x3, 0x2
000003a4 c457                 LGOTO 0x3a8; main.o:_00232_DS_=0x3a8
000003a5 fed8                 MOVR 0x27, 0x0
000003a6 ff5d                 MOVAR 0x22
000003a7 c439                 LGOTO 0x3c6; main.o:_00233_DS_=0x3c6
000003a8                      main.o:_00232_DS_:
000003a8 e0fc                 BCR 0x3, 0x6
000003a9 feb9                 MOVR 0x46, 0x0
000003aa dbef                 XORIA 0x10
000003ab f6fc                 BTRSS 0x3, 0x2
000003ac c44f                 LGOTO 0x3b0; main.o:_00229_DS_=0x3b0
000003ad fed8                 MOVR 0x27, 0x0
000003ae ff5c                 MOVAR 0x23
000003af c439                 LGOTO 0x3c6; main.o:_00233_DS_=0x3c6
000003b0                      main.o:_00229_DS_:
000003b0 e0fc                 BCR 0x3, 0x6
000003b1 feb9                 MOVR 0x46, 0x0
000003b2 dbe7                 XORIA 0x18
000003b3 f6fc                 BTRSS 0x3, 0x2
000003b4 c447                 LGOTO 0x3b8; main.o:_00226_DS_=0x3b8
000003b5 fed8                 MOVR 0x27, 0x0
000003b6 ff5b                 MOVAR 0x24
000003b7 c439                 LGOTO 0x3c6; main.o:_00233_DS_=0x3c6
000003b8                      main.o:_00226_DS_:
000003b8 e0fc                 BCR 0x3, 0x6
000003b9 feb9                 MOVR 0x46, 0x0
000003ba dbdf                 XORIA 0x20
000003bb f6fc                 BTRSS 0x3, 0x2
000003bc c439                 LGOTO 0x3c6; main.o:_00233_DS_=0x3c6
000003bd fed8                 MOVR 0x27, 0x0
000003be ff5a                 MOVAR 0x25
000003bf e5b1                 BSR 0x4e, 0x4
000003c0 e331                 BCR 0x4e, 0x1
000003c1 e3b1                 BCR 0x4e, 0x0
000003c2 e231                 BCR 0x4e, 0x3
000003c3 fd39                 CLRR 0x46
000003c4 fd37                 CLRR 0x48
000003c5 fd36                 CLRR 0x49
000003c6                      main.o:_00233_DS_:
000003c6 e3fc                 BCR 0x3, 0x0
000003c7 e0fc                 BCR 0x3, 0x6
000003c8 ec58                 RRR 0x27, 0x1
000003c9                      main.o:_00236_DS_:
000003c9 ffef                 RET
000003ca                      _proLow:
000003ca fdff                 CLRA
000003cb ffbe                 SFUN 0x1
000003cc e0fc                 BCR 0x3, 0x6
000003cd fea6                 MOVR 0x59, 0x0
000003ce ff54                 MOVAR 0x2b
000003cf fd53                 CLRR 0x2c
000003d0 fed4                 MOVR 0x2b, 0x0
000003d1 ff53                 MOVAR 0x2c
000003d2 fd54                 CLRR 0x2b
000003d3 ff9f                 SFUNR 0x0
000003d4 ff52                 MOVAR 0x2d
000003d5 fd51                 CLRR 0x2e
000003d6 fed2                 MOVR 0x2d, 0x0
000003d7 d800                 SUBIA 0xff
000003d8 ff4f                 MOVAR 0x30
000003d9 deff                 MOVIA 0x0
000003da f3fc                 BTRSC 0x3, 0x0
000003db c422                 LGOTO 0x3dd; main.o:_00005_DS_=0x3dd
000003dc fad1                 INCR 0x2e, 0x0
000003dd                      main.o:_00005_DS_:
000003dd d8ff                 SUBIA 0x0
000003de e0fc                 BCR 0x3, 0x6
000003df ff51                 MOVAR 0x2e
000003e0 fecf                 MOVR 0x30, 0x0
000003e1 ff52                 MOVAR 0x2d
000003e2 fc54                 ADDAR 0x2b, 0x1
000003e3 fed1                 MOVR 0x2e, 0x0
000003e4 f3fc                 BTRSC 0x3, 0x0
000003e5 fad1                 INCR 0x2e, 0x0
000003e6 f2fc                 BTRSC 0x3, 0x2
000003e7 c416                 LGOTO 0x3e9; main.o:_00006_DS_=0x3e9
000003e8 fc53                 ADDAR 0x2c, 0x1
000003e9                      main.o:_00006_DS_:
000003e9 e0fc                 BCR 0x3, 0x6
000003ea fd26                 CLRR 0x59
000003eb de00                 MOVIA 0xff
000003ec ffbf                 SFUN 0x0
000003ed defc                 MOVIA 0x3
000003ee ffbe                 SFUN 0x1
000003ef defe                 MOVIA 0x1
000003f0 fbd3                 SUBAR 0x2c, 0x0
000003f1 f6fc                 BTRSS 0x3, 0x2
000003f2 c40a                 LGOTO 0x3f5; main.o:_00211_DS_=0x3f5
000003f3 de08                 MOVIA 0xf7
000003f4 fbd4                 SUBAR 0x2b, 0x0
000003f5                      main.o:_00211_DS_:
000003f5 f7fc                 BTRSS 0x3, 0x0
000003f6 c3f6                 LGOTO 0x409; main.o:_00191_DS_=0x409
000003f7 defd                 MOVIA 0x2
000003f8 e0fc                 BCR 0x3, 0x6
000003f9 fbd3                 SUBAR 0x2c, 0x0
000003fa f6fc                 BTRSS 0x3, 0x2
000003fb c401                 LGOTO 0x3fe; main.o:_00212_DS_=0x3fe
000003fc de91                 MOVIA 0x6e
000003fd fbd4                 SUBAR 0x2b, 0x0
000003fe                      main.o:_00212_DS_:
000003fe f3fc                 BTRSC 0x3, 0x0
000003ff c3f6                 LGOTO 0x409; main.o:_00191_DS_=0x409
00000400 e0fc                 BCR 0x3, 0x6
00000401 e231                 BCR 0x4e, 0x3
00000402 e6b1                 BSR 0x4e, 0x2
00000403 fd38                 CLRR 0x47
00000404 fd39                 CLRR 0x46
00000405 e331                 BCR 0x4e, 0x1
00000406 e3b1                 BCR 0x4e, 0x0
00000407 e1b1                 BCR 0x4e, 0x4
00000408 c3df                 LGOTO 0x420; main.o:_00194_DS_=0x420
00000409                      main.o:_00191_DS_:
00000409 e0fc                 BCR 0x3, 0x6
0000040a f631                 BTRSS 0x4e, 0x3
0000040b c3df                 LGOTO 0x420; main.o:_00194_DS_=0x420
0000040c deff                 MOVIA 0x0
0000040d fbd3                 SUBAR 0x2c, 0x0
0000040e f6fc                 BTRSS 0x3, 0x2
0000040f c3ed                 LGOTO 0x412; main.o:_00213_DS_=0x412
00000410 dee4                 MOVIA 0x1b
00000411 fbd4                 SUBAR 0x2b, 0x0
00000412                      main.o:_00213_DS_:
00000412 f7fc                 BTRSS 0x3, 0x0
00000413 c3e0                 LGOTO 0x41f; main.o:_00185_DS_=0x41f
00000414 deff                 MOVIA 0x0
00000415 e0fc                 BCR 0x3, 0x6
00000416 fbd3                 SUBAR 0x2c, 0x0
00000417 f6fc                 BTRSS 0x3, 0x2
00000418 c3e4                 LGOTO 0x41b; main.o:_00214_DS_=0x41b
00000419 ded1                 MOVIA 0x2e
0000041a fbd4                 SUBAR 0x2b, 0x0
0000041b                      main.o:_00214_DS_:
0000041b f3fc                 BTRSC 0x3, 0x0
0000041c c3e0                 LGOTO 0x41f; main.o:_00185_DS_=0x41f
0000041d ffff                 NOP
0000041e c3df                 LGOTO 0x420; main.o:_00194_DS_=0x420
0000041f                      main.o:_00185_DS_:
0000041f d356                 LCALL 0x4a9; _cleanData=0x4a9
00000420                      main.o:_00194_DS_:
00000420 ffef                 RET
00000421                      _proHight:
00000421 fdff                 CLRA
00000422 ffbe                 SFUN 0x1
00000423 e0fc                 BCR 0x3, 0x6
00000424 fea6                 MOVR 0x59, 0x0
00000425 ff54                 MOVAR 0x2b
00000426 fd53                 CLRR 0x2c
00000427 fed4                 MOVR 0x2b, 0x0
00000428 ff53                 MOVAR 0x2c
00000429 fd54                 CLRR 0x2b
0000042a ff9f                 SFUNR 0x0
0000042b ff51                 MOVAR 0x2e
0000042c fd50                 CLRR 0x2f
0000042d fed1                 MOVR 0x2e, 0x0
0000042e d800                 SUBIA 0xff
0000042f ff52                 MOVAR 0x2d
00000430 deff                 MOVIA 0x0
00000431 f3fc                 BTRSC 0x3, 0x0
00000432 c3cb                 LGOTO 0x434; main.o:_00007_DS_=0x434
00000433 fad0                 INCR 0x2f, 0x0
00000434                      main.o:_00007_DS_:
00000434 d8ff                 SUBIA 0x0
00000435 e0fc                 BCR 0x3, 0x6
00000436 ff50                 MOVAR 0x2f
00000437 fed2                 MOVR 0x2d, 0x0
00000438 ff51                 MOVAR 0x2e
00000439 fc54                 ADDAR 0x2b, 0x1
0000043a fed0                 MOVR 0x2f, 0x0
0000043b f3fc                 BTRSC 0x3, 0x0
0000043c fad0                 INCR 0x2f, 0x0
0000043d f2fc                 BTRSC 0x3, 0x2
0000043e c3bf                 LGOTO 0x440; main.o:_00008_DS_=0x440
0000043f fc53                 ADDAR 0x2c, 0x1
00000440                      main.o:_00008_DS_:
00000440 e0fc                 BCR 0x3, 0x6
00000441 fd26                 CLRR 0x59
00000442 fd66                 CLRR 0x19
00000443 de00                 MOVIA 0xff
00000444 ffbf                 SFUN 0x0
00000445 defc                 MOVIA 0x3
00000446 ffbe                 SFUN 0x1
00000447 f6b1                 BTRSS 0x4e, 0x2
00000448 c39c                 LGOTO 0x463; main.o:_00138_DS_=0x463
00000449 deff                 MOVIA 0x0
0000044a fbd3                 SUBAR 0x2c, 0x0
0000044b f6fc                 BTRSS 0x3, 0x2
0000044c c3b0                 LGOTO 0x44f; main.o:_00174_DS_=0x44f
0000044d de21                 MOVIA 0xde
0000044e fbd4                 SUBAR 0x2b, 0x0
0000044f                      main.o:_00174_DS_:
0000044f f7fc                 BTRSS 0x3, 0x0
00000450 c39c                 LGOTO 0x463; main.o:_00138_DS_=0x463
00000451 defe                 MOVIA 0x1
00000452 e0fc                 BCR 0x3, 0x6
00000453 fbd3                 SUBAR 0x2c, 0x0
00000454 f6fc                 BTRSS 0x3, 0x2
00000455 c3a7                 LGOTO 0x458; main.o:_00175_DS_=0x458
00000456 deaa                 MOVIA 0x55
00000457 fbd4                 SUBAR 0x2b, 0x0
00000458                      main.o:_00175_DS_:
00000458 f3fc                 BTRSC 0x3, 0x0
00000459 c39c                 LGOTO 0x463; main.o:_00138_DS_=0x463
0000045a e0fc                 BCR 0x3, 0x6
0000045b e2b1                 BCR 0x4e, 0x2
0000045c e631                 BSR 0x4e, 0x3
0000045d fd38                 CLRR 0x47
0000045e fd39                 CLRR 0x46
0000045f e331                 BCR 0x4e, 0x1
00000460 e3b1                 BCR 0x4e, 0x0
00000461 e1b1                 BCR 0x4e, 0x4
00000462 c357                 LGOTO 0x4a8; main.o:_00142_DS_=0x4a8
00000463                      main.o:_00138_DS_:
00000463 e0fc                 BCR 0x3, 0x6
00000464 f631                 BTRSS 0x4e, 0x3
00000465 c35f                 LGOTO 0x4a0; main.o:_00135_DS_=0x4a0
00000466 deff                 MOVIA 0x0
00000467 fbd3                 SUBAR 0x2c, 0x0
00000468 f6fc                 BTRSS 0x3, 0x2
00000469 c393                 LGOTO 0x46c; main.o:_00176_DS_=0x46c
0000046a dea1                 MOVIA 0x5e
0000046b fbd4                 SUBAR 0x2b, 0x0
0000046c                      main.o:_00176_DS_:
0000046c f7fc                 BTRSS 0x3, 0x0
0000046d c384                 LGOTO 0x47b; main.o:_00126_DS_=0x47b
0000046e deff                 MOVIA 0x0
0000046f e0fc                 BCR 0x3, 0x6
00000470 fbd3                 SUBAR 0x2c, 0x0
00000471 f6fc                 BTRSS 0x3, 0x2
00000472 c38a                 LGOTO 0x475; main.o:_00177_DS_=0x475
00000473 de8e                 MOVIA 0x71
00000474 fbd4                 SUBAR 0x2b, 0x0
00000475                      main.o:_00177_DS_:
00000475 f3fc                 BTRSC 0x3, 0x0
00000476 c384                 LGOTO 0x47b; main.o:_00126_DS_=0x47b
00000477 e0fc                 BCR 0x3, 0x6
00000478 e731                 BSR 0x4e, 0x1
00000479 e3b1                 BCR 0x4e, 0x0
0000047a c36b                 LGOTO 0x494; main.o:_00127_DS_=0x494
0000047b                      main.o:_00126_DS_:
0000047b deff                 MOVIA 0x0
0000047c e0fc                 BCR 0x3, 0x6
0000047d fbd3                 SUBAR 0x2c, 0x0
0000047e f6fc                 BTRSS 0x3, 0x2
0000047f c37d                 LGOTO 0x482; main.o:_00178_DS_=0x482
00000480 deec                 MOVIA 0x13
00000481 fbd4                 SUBAR 0x2b, 0x0
00000482                      main.o:_00178_DS_:
00000482 f7fc                 BTRSS 0x3, 0x0
00000483 c36e                 LGOTO 0x491; main.o:_00122_DS_=0x491
00000484 deff                 MOVIA 0x0
00000485 e0fc                 BCR 0x3, 0x6
00000486 fbd3                 SUBAR 0x2c, 0x0
00000487 f6fc                 BTRSS 0x3, 0x2
00000488 c374                 LGOTO 0x48b; main.o:_00179_DS_=0x48b
00000489 ded9                 MOVIA 0x26
0000048a fbd4                 SUBAR 0x2b, 0x0
0000048b                      main.o:_00179_DS_:
0000048b f3fc                 BTRSC 0x3, 0x0
0000048c c36e                 LGOTO 0x491; main.o:_00122_DS_=0x491
0000048d e0fc                 BCR 0x3, 0x6
0000048e e7b1                 BSR 0x4e, 0x0
0000048f e331                 BCR 0x4e, 0x1
00000490 c36b                 LGOTO 0x494; main.o:_00127_DS_=0x494
00000491                      main.o:_00122_DS_:
00000491 e0fc                 BCR 0x3, 0x6
00000492 e3b1                 BCR 0x4e, 0x0
00000493 e331                 BCR 0x4e, 0x1
00000494                      main.o:_00127_DS_:
00000494 e0fc                 BCR 0x3, 0x6
00000495 f731                 BTRSS 0x4e, 0x1
00000496 c365                 LGOTO 0x49a; main.o:_00132_DS_=0x49a
00000497 defe                 MOVIA 0x1
00000498 d472                 LCALL 0x38d; _GetOneByte=0x38d
00000499 c357                 LGOTO 0x4a8; main.o:_00142_DS_=0x4a8
0000049a                      main.o:_00132_DS_:
0000049a e0fc                 BCR 0x3, 0x6
0000049b f7b1                 BTRSS 0x4e, 0x0
0000049c c357                 LGOTO 0x4a8; main.o:_00142_DS_=0x4a8
0000049d deff                 MOVIA 0x0
0000049e d472                 LCALL 0x38d; _GetOneByte=0x38d
0000049f c357                 LGOTO 0x4a8; main.o:_00142_DS_=0x4a8
000004a0                      main.o:_00135_DS_:
000004a0 e0fc                 BCR 0x3, 0x6
000004a1 e2b1                 BCR 0x4e, 0x2
000004a2 e231                 BCR 0x4e, 0x3
000004a3 fd38                 CLRR 0x47
000004a4 fd39                 CLRR 0x46
000004a5 e331                 BCR 0x4e, 0x1
000004a6 e3b1                 BCR 0x4e, 0x0
000004a7 e1b1                 BCR 0x4e, 0x4
000004a8                      main.o:_00142_DS_:
000004a8 ffef                 RET
000004a9                      _cleanData:
000004a9 e0fc                 BCR 0x3, 0x6
000004aa e2b1                 BCR 0x4e, 0x2
000004ab e231                 BCR 0x4e, 0x3
000004ac fd38                 CLRR 0x47
000004ad fd39                 CLRR 0x46
000004ae e331                 BCR 0x4e, 0x1
000004af e3b1                 BCR 0x4e, 0x0
000004b0 e1b1                 BCR 0x4e, 0x4
000004b1 ffef                 RET
000004b2                      __mulchar:
000004b2 e0fc                 BCR 0x3, 0x6
000004b3 ff4b                 MOVAR 0x34
000004b4 feba                 MOVR 0x45, 0x0
000004b5 ff4a                 MOVAR 0x35
000004b6 fd49                 CLRR 0x36
000004b7 def7                 MOVIA 0x8
000004b8 ff48                 MOVAR 0x37
000004b9                      _mulchar.o:_00119_DS_:
000004b9 e0fc                 BCR 0x3, 0x6
000004ba f7cb                 BTRSS 0x34, 0x0
000004bb c341                 LGOTO 0x4be; _mulchar.o:_00114_DS_=0x4be
000004bc feca                 MOVR 0x35, 0x0
000004bd fc49                 ADDAR 0x36, 0x1
000004be                      _mulchar.o:_00114_DS_:
000004be e3fc                 BCR 0x3, 0x0
000004bf e0fc                 BCR 0x3, 0x6
000004c0 ec4b                 RRR 0x34, 0x1
000004c1 e3fc                 BCR 0x3, 0x0
000004c2 eb4a                 RLR 0x35, 0x1
000004c3 f9c8                 DECR 0x37, 0x0
000004c4 ff47                 MOVAR 0x38
000004c5 ff48                 MOVAR 0x37
000004c6 fec7                 MOVR 0x38, 0x0
000004c7 f6fc                 BTRSS 0x3, 0x2
000004c8 c346                 LGOTO 0x4b9; _mulchar.o:_00119_DS_=0x4b9
000004c9 fec9                 MOVR 0x36, 0x0
000004ca ffef                 RET
000004cb                      __divuchar:
000004cb e0fc                 BCR 0x3, 0x6
000004cc ff46                 MOVAR 0x39
000004cd feba                 MOVR 0x45, 0x0
000004ce ff45                 MOVAR 0x3a
000004cf fd44                 CLRR 0x3b
000004d0 defe                 MOVIA 0x1
000004d1 ff43                 MOVAR 0x3c
000004d2 fec5                 MOVR 0x3a, 0x0
000004d3 f6fc                 BTRSS 0x3, 0x2
000004d4 c328                 LGOTO 0x4d7; _divuchar.o:_00107_DS_=0x4d7
000004d5 de00                 MOVIA 0xff
000004d6 c30c                 LGOTO 0x4f3; _divuchar.o:_00115_DS_=0x4f3
000004d7                      _divuchar.o:_00107_DS_:
000004d7 e0fc                 BCR 0x3, 0x6
000004d8 f045                 BTRSC 0x3a, 0x7
000004d9 c320                 LGOTO 0x4df; _divuchar.o:_00112_DS_=0x4df
000004da e3fc                 BCR 0x3, 0x0
000004db eb45                 RLR 0x3a, 0x1
000004dc e3fc                 BCR 0x3, 0x0
000004dd eb43                 RLR 0x3c, 0x1
000004de c328                 LGOTO 0x4d7; _divuchar.o:_00107_DS_=0x4d7
000004df                      _divuchar.o:_00112_DS_:
000004df e0fc                 BCR 0x3, 0x6
000004e0 fec3                 MOVR 0x3c, 0x0
000004e1 f2fc                 BTRSC 0x3, 0x2
000004e2 c30e                 LGOTO 0x4f1; _divuchar.o:_00114_DS_=0x4f1
000004e3 fec5                 MOVR 0x3a, 0x0
000004e4 fbc6                 SUBAR 0x39, 0x0
000004e5 f7fc                 BTRSS 0x3, 0x0
000004e6 c314                 LGOTO 0x4eb; _divuchar.o:_00111_DS_=0x4eb
000004e7 fec3                 MOVR 0x3c, 0x0
000004e8 fc44                 ADDAR 0x3b, 0x1
000004e9 fec5                 MOVR 0x3a, 0x0
000004ea fb46                 SUBAR 0x39, 0x1
000004eb                      _divuchar.o:_00111_DS_:
000004eb e3fc                 BCR 0x3, 0x0
000004ec e0fc                 BCR 0x3, 0x6
000004ed ec45                 RRR 0x3a, 0x1
000004ee e3fc                 BCR 0x3, 0x0
000004ef ec43                 RRR 0x3c, 0x1
000004f0 c320                 LGOTO 0x4df; _divuchar.o:_00112_DS_=0x4df
000004f1                      _divuchar.o:_00114_DS_:
000004f1 e0fc                 BCR 0x3, 0x6
000004f2 fec4                 MOVR 0x3b, 0x0
000004f3                      _divuchar.o:_00115_DS_:
000004f3 ffef                 RET
000004f4                      ___cinit_load__:
