00000000 c7fe                 LGOTO 0x1; __nyc_ny8_startup=0x1
00000001                      __nyc_ny8_startup:
00000001 d2d2                 LCALL 0x52d; ___cinit_load__=0x52d
00000002 c7c8                 LGOTO 0x37; _main=0x37
00000003                      main.o:_00326_DS_:
00000003 f56f                 BTRSS 0x10, 0x5
00000004 c7fc                 LGOTO 0x3; main.o:_00326_DS_=0x3
00000005 ffef                 RET
00000008 c7f6                 LGOTO 0x9; main.o:__sdcc_interrupt=0x9
00000009                      main.o:__sdcc_interrupt:
00000009 ff3d                 MOVAR 0x42
0000000a eafc                 SWAPR 0x3, 0x0
0000000b fd7c                 CLRR 0x3
0000000c ff3e                 MOVAR 0x41
0000000d fef5                 MOVR 0xa, 0x0
0000000e fd75                 CLRR 0xa
0000000f ff3f                 MOVAR 0x40
00000010 fefb                 MOVR 0x4, 0x0
00000011 e0fc                 BCR 0x3, 0x6
00000012 ff18                 MOVAR 0x67
00000013 feba                 MOVR 0x45, 0x0
00000014 ff17                 MOVAR 0x68
00000015 febb                 MOVR 0x44, 0x0
00000016 ff16                 MOVAR 0x69
00000017 f7f0                 BTRSS 0xf, 0x0
00000018 c7dc                 LGOTO 0x23; main.o:_00108_DS_=0x23
00000019 dec8                 MOVIA 0x37
0000001a fc7e                 ADDAR 0x1, 0x1
0000001b fa08                 INCR 0x77, 0x1
0000001c de9b                 MOVIA 0x64
0000001d fb88                 SUBAR 0x77, 0x0
0000001e f7fc                 BTRSS 0x3, 0x0
0000001f c7dc                 LGOTO 0x23; main.o:_00108_DS_=0x23
00000020 defe                 MOVIA 0x1
00000021 ff09                 MOVAR 0x76
00000022 fd08                 CLRR 0x77
00000023                      main.o:_00108_DS_:
00000023 f770                 BTRSS 0xf, 0x1
00000024 c7d8                 LGOTO 0x27; main.o:_00110_DS_=0x27
00000025 de02                 MOVIA 0xfd
00000026 ff70                 MOVAR 0xf
00000027                      main.o:_00110_DS_:
00000027 fd70                 CLRR 0xf
00000028 e0fc                 BCR 0x3, 0x6
00000029 fe96                 MOVR 0x69, 0x0
0000002a ff3b                 MOVAR 0x44
0000002b fe97                 MOVR 0x68, 0x0
0000002c ff3a                 MOVAR 0x45
0000002d fe98                 MOVR 0x67, 0x0
0000002e ff7b                 MOVAR 0x4
0000002f febf                 MOVR 0x40, 0x0
00000030 ff75                 MOVAR 0xa
00000031 fd7c                 CLRR 0x3
00000032 eabe                 SWAPR 0x41, 0x0
00000033 ff7c                 MOVAR 0x3
00000034 ea3d                 SWAPR 0x42, 0x1
00000035 eabd                 SWAPR 0x42, 0x0
00000036                      main.o:END_OF_INTERRUPT:
00000036 ffee                 RETIE
00000037                      _main:
00000037 d602                 LCALL 0x1fd; _initSys=0x1fd
00000038 d60e                 LCALL 0x1f1; _initAD=0x1f1
00000039                      main.o:_00118_DS_:
00000039 fffd                 CLRWDT
0000003a e0fc                 BCR 0x3, 0x6
0000003b fe92                 MOVR 0x6d, 0x0
0000003c ff3c                 MOVAR 0x43
0000003d e4fc                 BSR 0x3, 0x6
0000003e feda                 MOVR 0x25, 0x0
0000003f ff3b                 MOVAR 0x44
00000040 fedb                 MOVR 0x24, 0x0
00000041 ff3a                 MOVAR 0x45
00000042 fedc                 MOVR 0x23, 0x0
00000043                      ___cinit_size__:
00000043 d798                 LCALL 0x67; _display=0x67
00000044 de9b                 MOVIA 0x64
00000045 d7af                 LCALL 0x50; _delayus=0x50
00000046 e0fc                 BCR 0x3, 0x6
00000047 fe89                 MOVR 0x76, 0x0
00000048 f2fc                 BTRSC 0x3, 0x2
00000049 c7c6                 LGOTO 0x39; main.o:_00118_DS_=0x39
0000004a fd09                 CLRR 0x76
0000004b d5e7                 LCALL 0x218; _checkAD=0x218
0000004c d5b0                 LCALL 0x24f; _chrgCtr=0x24f
0000004d d54b                 LCALL 0x2b4; _workCtr=0x2b4
0000004e c7c6                 LGOTO 0x39; main.o:_00118_DS_=0x39
0000004f ffef                 RET
00000050                      _delayus:
00000050 e0fc                 BCR 0x3, 0x6
00000051 ff30                 MOVAR 0x4f
00000052 fd2f                 CLRR 0x50
00000053                      main.o:_00367_DS_:
00000053 e0fc                 BCR 0x3, 0x6
00000054 feb0                 MOVR 0x4f, 0x0
00000055 fbaf                 SUBAR 0x50, 0x0
00000056 f3fc                 BTRSC 0x3, 0x0
00000057 c7a4                 LGOTO 0x5b; main.o:_00369_DS_=0x5b
00000058 ffff                 NOP
00000059 fa2f                 INCR 0x50, 0x1
0000005a c7ac                 LGOTO 0x53; main.o:_00367_DS_=0x53
0000005b                      main.o:_00369_DS_:
0000005b ffef                 RET
0000005c                      _delay:
0000005c defa                 MOVIA 0x5
0000005d e0fc                 BCR 0x3, 0x6
0000005e ff32                 MOVAR 0x4d
0000005f                      main.o:_00360_DS_:
0000005f e0fc                 BCR 0x3, 0x6
00000060 f9b2                 DECR 0x4d, 0x0
00000061 ff31                 MOVAR 0x4e
00000062 ff32                 MOVAR 0x4d
00000063 feb1                 MOVR 0x4e, 0x0
00000064 f6fc                 BTRSS 0x3, 0x2
00000065 c7a0                 LGOTO 0x5f; main.o:_00360_DS_=0x5f
00000066 ffef                 RET
00000067                      _display:
00000067 e0fc                 BCR 0x3, 0x6
00000068 ff39                 MOVAR 0x46
00000069 feba                 MOVR 0x45, 0x0
0000006a ff38                 MOVAR 0x47
0000006b febb                 MOVR 0x44, 0x0
0000006c ff37                 MOVAR 0x48
0000006d febc                 MOVR 0x43, 0x0
0000006e ff36                 MOVAR 0x49
0000006f defe                 MOVIA 0x1
00000070 ff3a                 MOVAR 0x45
00000071 deb7                 MOVIA 0x48
00000072 d767                 LCALL 0x98; _write_cmd=0x98
00000073 e0fc                 BCR 0x3, 0x6
00000074 feb9                 MOVR 0x46, 0x0
00000075 ff35                 MOVAR 0x4a
00000076 de97                 MOVIA 0x68
00000077 ff33                 MOVAR 0x4c
00000078 feb9                 MOVR 0x46, 0x0
00000079 ff3a                 MOVAR 0x45
0000007a feb3                 MOVR 0x4c, 0x0
0000007b d767                 LCALL 0x98; _write_cmd=0x98
0000007c e0fc                 BCR 0x3, 0x6
0000007d feb8                 MOVR 0x47, 0x0
0000007e de95                 MOVIA 0x6a
0000007f ff34                 MOVAR 0x4b
00000080 feb8                 MOVR 0x47, 0x0
00000081 ff39                 MOVAR 0x46
00000082 ff38                 MOVAR 0x47
00000083 ff3a                 MOVAR 0x45
00000084 feb4                 MOVR 0x4b, 0x0
00000085 d767                 LCALL 0x98; _write_cmd=0x98
00000086 e0fc                 BCR 0x3, 0x6
00000087 feb7                 MOVR 0x48, 0x0
00000088 de93                 MOVIA 0x6c
00000089 ff35                 MOVAR 0x4a
0000008a feb7                 MOVR 0x48, 0x0
0000008b ff39                 MOVAR 0x46
0000008c ff3a                 MOVAR 0x45
0000008d feb5                 MOVR 0x4a, 0x0
0000008e d767                 LCALL 0x98; _write_cmd=0x98
0000008f e0fc                 BCR 0x3, 0x6
00000090 feb6                 MOVR 0x49, 0x0
00000091 de91                 MOVIA 0x6e
00000092 ff37                 MOVAR 0x48
00000093 feb6                 MOVR 0x49, 0x0
00000094 ff3a                 MOVAR 0x45
00000095 feb7                 MOVR 0x48, 0x0
00000096 d767                 LCALL 0x98; _write_cmd=0x98
00000097 ffef                 RET
00000098                      _write_cmd:
00000098 e0fc                 BCR 0x3, 0x6
00000099 ff40                 MOVAR 0x3f
0000009a feba                 MOVR 0x45, 0x0
0000009b ff41                 MOVAR 0x3e
0000009c d722                 LCALL 0xdd; _i2c_start=0xdd
0000009d e0fc                 BCR 0x3, 0x6
0000009e fec0                 MOVR 0x3f, 0x0
0000009f d75a                 LCALL 0xa5; _i2c_write=0xa5
000000a0 e0fc                 BCR 0x3, 0x6
000000a1 fec1                 MOVR 0x3e, 0x0
000000a2 d75a                 LCALL 0xa5; _i2c_write=0xa5
000000a3 d729                 LCALL 0xd6; _i2c_stop=0xd6
000000a4 ffef                 RET
000000a5                      _i2c_write:
000000a5 e0fc                 BCR 0x3, 0x6
000000a6 ff44                 MOVAR 0x3b
000000a7 fd43                 CLRR 0x3c
000000a8                      main.o:_00344_DS_:
000000a8 e1f9                 BCR 0x6, 0x4
000000a9 e0fc                 BCR 0x3, 0x6
000000aa fec4                 MOVR 0x3b, 0x0
000000ab dd7f                 ANDIA 0x80
000000ac f6fc                 BTRSS 0x3, 0x2
000000ad defe                 MOVIA 0x1
000000ae ff42                 MOVAR 0x3d
000000af ecc2                 RRR 0x3d, 0x0
000000b0 f7fc                 BTRSS 0x3, 0x0
000000b1 e2f9                 BCR 0x6, 0x2
000000b2 f3fc                 BTRSC 0x3, 0x0
000000b3 e6f9                 BSR 0x6, 0x2
000000b4 d7a3                 LCALL 0x5c; _delay=0x5c
000000b5 e5f9                 BSR 0x6, 0x4
000000b6 e3fc                 BCR 0x3, 0x0
000000b7 e0fc                 BCR 0x3, 0x6
000000b8 eb44                 RLR 0x3b, 0x1
000000b9 d7a3                 LCALL 0x5c; _delay=0x5c
000000ba e0fc                 BCR 0x3, 0x6
000000bb fa43                 INCR 0x3c, 0x1
000000bc def7                 MOVIA 0x8
000000bd fbc3                 SUBAR 0x3c, 0x0
000000be f7fc                 BTRSS 0x3, 0x0
000000bf c757                 LGOTO 0xa8; main.o:_00344_DS_=0xa8
000000c0 d73d                 LCALL 0xc2; _ack=0xc2
000000c1 ffef                 RET
000000c2                      _ack:
000000c2 e1f9                 BCR 0x6, 0x4
000000c3 d7a3                 LCALL 0x5c; _delay=0x5c
000000c4 ffe9                 IOSTR 0x6
000000c5 e0fc                 BCR 0x3, 0x6
000000c6 ff45                 MOVAR 0x3a
000000c7 e6c5                 BSR 0x3a, 0x2
000000c8 fec5                 MOVR 0x3a, 0x0
000000c9 fff9                 IOST 0x6
000000ca d7a3                 LCALL 0x5c; _delay=0x5c
000000cb e5f9                 BSR 0x6, 0x4
000000cc d7a3                 LCALL 0x5c; _delay=0x5c
000000cd e1f9                 BCR 0x6, 0x4
000000ce ffe9                 IOSTR 0x6
000000cf e0fc                 BCR 0x3, 0x6
000000d0 ff45                 MOVAR 0x3a
000000d1 e2c5                 BCR 0x3a, 0x2
000000d2 fec5                 MOVR 0x3a, 0x0
000000d3 fff9                 IOST 0x6
000000d4 d7a3                 LCALL 0x5c; _delay=0x5c
000000d5 ffef                 RET
000000d6                      _i2c_stop:
000000d6 e2f9                 BCR 0x6, 0x2
000000d7 d7a3                 LCALL 0x5c; _delay=0x5c
000000d8 e5f9                 BSR 0x6, 0x4
000000d9 d7a3                 LCALL 0x5c; _delay=0x5c
000000da e6f9                 BSR 0x6, 0x2
000000db d7a3                 LCALL 0x5c; _delay=0x5c
000000dc ffef                 RET
000000dd                      _i2c_start:
000000dd e6f9                 BSR 0x6, 0x2
000000de d7a3                 LCALL 0x5c; _delay=0x5c
000000df e5f9                 BSR 0x6, 0x4
000000e0 d7a3                 LCALL 0x5c; _delay=0x5c
000000e1 e2f9                 BCR 0x6, 0x2
000000e2 d7a3                 LCALL 0x5c; _delay=0x5c
000000e3 ffef                 RET
000000e4                      _F_AIN4_Convert:
000000e4 e0fc                 BCR 0x3, 0x6
000000e5 ff49                 MOVAR 0x36
000000e6 e4fc                 BSR 0x3, 0x6
000000e7 fd5f                 CLRR 0x20
000000e8 e0fc                 BCR 0x3, 0x6
000000e9 fd01                 CLRR 0x7e
000000ea fd00                 CLRR 0x7f
000000eb de6b                 MOVIA 0x94
000000ec ff6f                 MOVAR 0x10
000000ed de37                 MOVIA 0xc8
000000ee d7af                 LCALL 0x50; _delayus=0x50
000000ef defe                 MOVIA 0x1
000000f0 e0fc                 BCR 0x3, 0x6
000000f1 ff48                 MOVAR 0x37
000000f2                      main.o:_00319_DS_:
000000f2 e0fc                 BCR 0x3, 0x6
000000f3 fec8                 MOVR 0x37, 0x0
000000f4 fbc9                 SUBAR 0x36, 0x0
000000f5 f7fc                 BTRSS 0x3, 0x0
000000f6 c6f2                 LGOTO 0x10d; main.o:_00321_DS_=0x10d
000000f7 e4ef                 BSR 0x10, 0x6
000000f8 d7fc                 LCALL 0x3; main.o:_00326_DS_=0x3
000000f9 def0                 MOVIA 0xf
000000fa efee                 ANDAR 0x11, 0x0
000000fb e4fc                 BSR 0x3, 0x6
000000fc fc5f                 ADDAR 0x20, 0x1
000000fd feed                 MOVR 0x12, 0x0
000000fe e0fc                 BCR 0x3, 0x6
000000ff ff47                 MOVAR 0x38
00000100 deff                 MOVIA 0x0
00000101 ff46                 MOVAR 0x39
00000102 fec7                 MOVR 0x38, 0x0
00000103 fc01                 ADDAR 0x7e, 0x1
00000104 fec6                 MOVR 0x39, 0x0
00000105 f3fc                 BTRSC 0x3, 0x0
00000106 fac6                 INCR 0x39, 0x0
00000107 f2fc                 BTRSC 0x3, 0x2
00000108 c6f5                 LGOTO 0x10a; main.o:_00001_DS_=0x10a
00000109 fc00                 ADDAR 0x7f, 0x1
0000010a                      main.o:_00001_DS_:
0000010a e0fc                 BCR 0x3, 0x6
0000010b fa48                 INCR 0x37, 0x1
0000010c c70d                 LGOTO 0xf2; main.o:_00319_DS_=0xf2
0000010d                      main.o:_00321_DS_:
0000010d ffef                 RET
0000010e                      _F_AIN3_Convert:
0000010e e0fc                 BCR 0x3, 0x6
0000010f ff4d                 MOVAR 0x32
00000110 fd02                 CLRR 0x7d
00000111 fd04                 CLRR 0x7b
00000112 fd03                 CLRR 0x7c
00000113 de6c                 MOVIA 0x93
00000114 ff6f                 MOVAR 0x10
00000115 de37                 MOVIA 0xc8
00000116 d7af                 LCALL 0x50; _delayus=0x50
00000117 defe                 MOVIA 0x1
00000118 e0fc                 BCR 0x3, 0x6
00000119 ff4c                 MOVAR 0x33
0000011a                      main.o:_00310_DS_:
0000011a e0fc                 BCR 0x3, 0x6
0000011b fecc                 MOVR 0x33, 0x0
0000011c fbcd                 SUBAR 0x32, 0x0
0000011d f7fc                 BTRSS 0x3, 0x0
0000011e c6cb                 LGOTO 0x134; main.o:_00312_DS_=0x134
0000011f e4ef                 BSR 0x10, 0x6
00000120 d7fc                 LCALL 0x3; main.o:_00326_DS_=0x3
00000121 def0                 MOVIA 0xf
00000122 efee                 ANDAR 0x11, 0x0
00000123 e0fc                 BCR 0x3, 0x6
00000124 fc02                 ADDAR 0x7d, 0x1
00000125 feed                 MOVR 0x12, 0x0
00000126 ff4b                 MOVAR 0x34
00000127 deff                 MOVIA 0x0
00000128 ff4a                 MOVAR 0x35
00000129 fecb                 MOVR 0x34, 0x0
0000012a fc04                 ADDAR 0x7b, 0x1
0000012b feca                 MOVR 0x35, 0x0
0000012c f3fc                 BTRSC 0x3, 0x0
0000012d faca                 INCR 0x35, 0x0
0000012e f2fc                 BTRSC 0x3, 0x2
0000012f c6ce                 LGOTO 0x131; main.o:_00002_DS_=0x131
00000130 fc03                 ADDAR 0x7c, 0x1
00000131                      main.o:_00002_DS_:
00000131 e0fc                 BCR 0x3, 0x6
00000132 fa4c                 INCR 0x33, 0x1
00000133 c6e5                 LGOTO 0x11a; main.o:_00310_DS_=0x11a
00000134                      main.o:_00312_DS_:
00000134 ffef                 RET
00000135                      _F_AIN1_Convert:
00000135 e0fc                 BCR 0x3, 0x6
00000136 ff51                 MOVAR 0x2e
00000137 fd05                 CLRR 0x7a
00000138 fd07                 CLRR 0x78
00000139 fd06                 CLRR 0x79
0000013a de6e                 MOVIA 0x91
0000013b ff6f                 MOVAR 0x10
0000013c de37                 MOVIA 0xc8
0000013d d7af                 LCALL 0x50; _delayus=0x50
0000013e defe                 MOVIA 0x1
0000013f e0fc                 BCR 0x3, 0x6
00000140 ff50                 MOVAR 0x2f
00000141                      main.o:_00301_DS_:
00000141 e0fc                 BCR 0x3, 0x6
00000142 fed0                 MOVR 0x2f, 0x0
00000143 fbd1                 SUBAR 0x2e, 0x0
00000144 f7fc                 BTRSS 0x3, 0x0
00000145 c6a4                 LGOTO 0x15b; main.o:_00303_DS_=0x15b
00000146 e4ef                 BSR 0x10, 0x6
00000147 d7fc                 LCALL 0x3; main.o:_00326_DS_=0x3
00000148 def0                 MOVIA 0xf
00000149 efee                 ANDAR 0x11, 0x0
0000014a e0fc                 BCR 0x3, 0x6
0000014b fc05                 ADDAR 0x7a, 0x1
0000014c feed                 MOVR 0x12, 0x0
0000014d ff4f                 MOVAR 0x30
0000014e deff                 MOVIA 0x0
0000014f ff4e                 MOVAR 0x31
00000150 fecf                 MOVR 0x30, 0x0
00000151 fc07                 ADDAR 0x78, 0x1
00000152 fece                 MOVR 0x31, 0x0
00000153 f3fc                 BTRSC 0x3, 0x0
00000154 face                 INCR 0x31, 0x0
00000155 f2fc                 BTRSC 0x3, 0x2
00000156 c6a7                 LGOTO 0x158; main.o:_00003_DS_=0x158
00000157 fc06                 ADDAR 0x79, 0x1
00000158                      main.o:_00003_DS_:
00000158 e0fc                 BCR 0x3, 0x6
00000159 fa50                 INCR 0x2f, 0x1
0000015a c6be                 LGOTO 0x141; main.o:_00301_DS_=0x141
0000015b                      main.o:_00303_DS_:
0000015b ffef                 RET
0000015c                      _checkOutA:
0000015c e4fc                 BSR 0x3, 0x6
0000015d fd5f                 CLRR 0x20
0000015e e0fc                 BCR 0x3, 0x6
0000015f fd01                 CLRR 0x7e
00000160 fd00                 CLRR 0x7f
00000161 def7                 MOVIA 0x8
00000162 d71b                 LCALL 0xe4; _F_AIN4_Convert=0xe4
00000163 e0fc                 BCR 0x3, 0x6
00000164 ea80                 SWAPR 0x7f, 0x0
00000165 dd0f                 ANDIA 0xf0
00000166 ff00                 MOVAR 0x7f
00000167 ea81                 SWAPR 0x7e, 0x0
00000168 ff01                 MOVAR 0x7e
00000169 ddf0                 ANDIA 0xf
0000016a ee00                 IORAR 0x7f, 0x1
0000016b ed01                 XORAR 0x7e, 0x1
0000016c de0f                 MOVIA 0xf0
0000016d e4fc                 BSR 0x3, 0x6
0000016e ef5f                 ANDAR 0x20, 0x1
0000016f fedf                 MOVR 0x20, 0x0
00000170 e0fc                 BCR 0x3, 0x6
00000171 ff53                 MOVAR 0x2c
00000172 deff                 MOVIA 0x0
00000173 ff52                 MOVAR 0x2d
00000174 fed3                 MOVR 0x2c, 0x0
00000175 fc01                 ADDAR 0x7e, 0x1
00000176 fed2                 MOVR 0x2d, 0x0
00000177 f3fc                 BTRSC 0x3, 0x0
00000178 fad2                 INCR 0x2d, 0x0
00000179 f2fc                 BTRSC 0x3, 0x2
0000017a c683                 LGOTO 0x17c; main.o:_00004_DS_=0x17c
0000017b fc00                 ADDAR 0x7f, 0x1
0000017c                      main.o:_00004_DS_:
0000017c e3fc                 BCR 0x3, 0x0
0000017d e0fc                 BCR 0x3, 0x6
0000017e ec00                 RRR 0x7f, 0x1
0000017f ec01                 RRR 0x7e, 0x1
00000180 e3fc                 BCR 0x3, 0x0
00000181 ec00                 RRR 0x7f, 0x1
00000182 ec01                 RRR 0x7e, 0x1
00000183 e3fc                 BCR 0x3, 0x0
00000184 ec00                 RRR 0x7f, 0x1
00000185 ec01                 RRR 0x7e, 0x1
00000186 e4fc                 BSR 0x3, 0x6
00000187 fed6                 MOVR 0x29, 0x0
00000188 f2fc                 BTRSC 0x3, 0x2
00000189 c671                 LGOTO 0x18e; main.o:_00294_DS_=0x18e
0000018a de9b                 MOVIA 0x64
0000018b e0fc                 BCR 0x3, 0x6
0000018c ff01                 MOVAR 0x7e
0000018d fd00                 CLRR 0x7f
0000018e                      main.o:_00294_DS_:
0000018e ffef                 RET
0000018f                      _checkBat16:
0000018f e0fc                 BCR 0x3, 0x6
00000190 fd02                 CLRR 0x7d
00000191 fd04                 CLRR 0x7b
00000192 fd03                 CLRR 0x7c
00000193 def7                 MOVIA 0x8
00000194 d6f1                 LCALL 0x10e; _F_AIN3_Convert=0x10e
00000195 e0fc                 BCR 0x3, 0x6
00000196 ea83                 SWAPR 0x7c, 0x0
00000197 dd0f                 ANDIA 0xf0
00000198 ff03                 MOVAR 0x7c
00000199 ea84                 SWAPR 0x7b, 0x0
0000019a ff04                 MOVAR 0x7b
0000019b ddf0                 ANDIA 0xf
0000019c ee03                 IORAR 0x7c, 0x1
0000019d ed04                 XORAR 0x7b, 0x1
0000019e de0f                 MOVIA 0xf0
0000019f ef02                 ANDAR 0x7d, 0x1
000001a0 fe82                 MOVR 0x7d, 0x0
000001a1 ff55                 MOVAR 0x2a
000001a2 deff                 MOVIA 0x0
000001a3 ff54                 MOVAR 0x2b
000001a4 fed5                 MOVR 0x2a, 0x0
000001a5 fc04                 ADDAR 0x7b, 0x1
000001a6 fed4                 MOVR 0x2b, 0x0
000001a7 f3fc                 BTRSC 0x3, 0x0
000001a8 fad4                 INCR 0x2b, 0x0
000001a9 f2fc                 BTRSC 0x3, 0x2
000001aa c653                 LGOTO 0x1ac; main.o:_00005_DS_=0x1ac
000001ab fc03                 ADDAR 0x7c, 0x1
000001ac                      main.o:_00005_DS_:
000001ac e3fc                 BCR 0x3, 0x0
000001ad e0fc                 BCR 0x3, 0x6
000001ae ec03                 RRR 0x7c, 0x1
000001af ec04                 RRR 0x7b, 0x1
000001b0 e3fc                 BCR 0x3, 0x0
000001b1 ec03                 RRR 0x7c, 0x1
000001b2 ec04                 RRR 0x7b, 0x1
000001b3 e3fc                 BCR 0x3, 0x0
000001b4 ec03                 RRR 0x7c, 0x1
000001b5 ec04                 RRR 0x7b, 0x1
000001b6 e4fc                 BSR 0x3, 0x6
000001b7 fed6                 MOVR 0x29, 0x0
000001b8 f2fc                 BTRSC 0x3, 0x2
000001b9 c640                 LGOTO 0x1bf; main.o:_00287_DS_=0x1bf
000001ba deb7                 MOVIA 0x48
000001bb e0fc                 BCR 0x3, 0x6
000001bc ff04                 MOVAR 0x7b
000001bd def2                 MOVIA 0xd
000001be ff03                 MOVAR 0x7c
000001bf                      main.o:_00287_DS_:
000001bf ffef                 RET
000001c0                      _checkBat12:
000001c0 e0fc                 BCR 0x3, 0x6
000001c1 fd05                 CLRR 0x7a
000001c2 fd07                 CLRR 0x78
000001c3 fd06                 CLRR 0x79
000001c4 def7                 MOVIA 0x8
000001c5 d6ca                 LCALL 0x135; _F_AIN1_Convert=0x135
000001c6 e0fc                 BCR 0x3, 0x6
000001c7 ea86                 SWAPR 0x79, 0x0
000001c8 dd0f                 ANDIA 0xf0
000001c9 ff06                 MOVAR 0x79
000001ca ea87                 SWAPR 0x78, 0x0
000001cb ff07                 MOVAR 0x78
000001cc ddf0                 ANDIA 0xf
000001cd ee06                 IORAR 0x79, 0x1
000001ce ed07                 XORAR 0x78, 0x1
000001cf de0f                 MOVIA 0xf0
000001d0 ef05                 ANDAR 0x7a, 0x1
000001d1 fe85                 MOVR 0x7a, 0x0
000001d2 ff57                 MOVAR 0x28
000001d3 deff                 MOVIA 0x0
000001d4 ff56                 MOVAR 0x29
000001d5 fed7                 MOVR 0x28, 0x0
000001d6 fc07                 ADDAR 0x78, 0x1
000001d7 fed6                 MOVR 0x29, 0x0
000001d8 f3fc                 BTRSC 0x3, 0x0
000001d9 fad6                 INCR 0x29, 0x0
000001da f2fc                 BTRSC 0x3, 0x2
000001db c622                 LGOTO 0x1dd; main.o:_00006_DS_=0x1dd
000001dc fc06                 ADDAR 0x79, 0x1
000001dd                      main.o:_00006_DS_:
000001dd e3fc                 BCR 0x3, 0x0
000001de e0fc                 BCR 0x3, 0x6
000001df ec06                 RRR 0x79, 0x1
000001e0 ec07                 RRR 0x78, 0x1
000001e1 e3fc                 BCR 0x3, 0x0
000001e2 ec06                 RRR 0x79, 0x1
000001e3 ec07                 RRR 0x78, 0x1
000001e4 e3fc                 BCR 0x3, 0x0
000001e5 ec06                 RRR 0x79, 0x1
000001e6 ec07                 RRR 0x78, 0x1
000001e7 e4fc                 BSR 0x3, 0x6
000001e8 fed6                 MOVR 0x29, 0x0
000001e9 f2fc                 BTRSC 0x3, 0x2
000001ea c60f                 LGOTO 0x1f0; main.o:_00280_DS_=0x1f0
000001eb de4b                 MOVIA 0xb4
000001ec e0fc                 BCR 0x3, 0x6
000001ed ff07                 MOVAR 0x78
000001ee def5                 MOVIA 0xa
000001ef ff06                 MOVAR 0x79
000001f0                      main.o:_00280_DS_:
000001f0 ffef                 RET
000001f1                      _initAD:
000001f1 de7b                 MOVIA 0x84
000001f2 ff6f                 MOVAR 0x10
000001f3 defd                 MOVIA 0x2
000001f4 ff6c                 MOVAR 0x13
000001f5 deef                 MOVIA 0x10
000001f6 ff6e                 MOVAR 0x11
000001f7 defc                 MOVIA 0x3
000001f8 ff6b                 MOVAR 0x14
000001f9 e5ef                 BSR 0x10, 0x4
000001fa de9b                 MOVIA 0x64
000001fb d7af                 LCALL 0x50; _delayus=0x50
000001fc ffef                 RET
000001fd                      _initSys:
000001fd ffec                 DISI
000001fe de60                 MOVIA 0x9f
000001ff fffa                 IOST 0x5
00000200 fdff                 CLRA
00000201 fff9                 IOST 0x6
00000202 fd79                 CLRR 0x6
00000203 fd7a                 CLRR 0x5
00000204 de80                 MOVIA 0x7f
00000205 fff6                 IOST 0x9
00000206 de00                 MOVIA 0xff
00000207 ff73                 MOVAR 0xc
00000208 defe                 MOVIA 0x1
00000209 ff71                 MOVAR 0xe
0000020a fdff                 CLRA
0000020b fff0                 IOST 0xf
0000020c dec8                 MOVIA 0x37
0000020d ff7e                 MOVAR 0x1
0000020e fdff                 CLRA
0000020f fffc                 T0MD
00000210 defe                 MOVIA 0x1
00000211 fff0                 IOST 0xf
00000212 de77                 MOVIA 0x88
00000213 ff77                 MOVAR 0x8
00000214 defe                 MOVIA 0x1
00000215 fff0                 IOST 0xf
00000216 fffb                 ENI
00000217 ffef                 RET
00000218                      _checkAD:
00000218 e4fc                 BSR 0x3, 0x6
00000219 fa5e                 INCR 0x21, 0x1
0000021a de9a                 MOVIA 0x65
0000021b fbde                 SUBAR 0x21, 0x0
0000021c f7fc                 BTRSS 0x3, 0x0
0000021d c5cd                 LGOTO 0x232; main.o:_00252_DS_=0x232
0000021e fd5e                 CLRR 0x21
0000021f e179                 BCR 0x6, 0x5
00000220 fed8                 MOVR 0x27, 0x0
00000221 f2fc                 BTRSC 0x3, 0x2
00000222 c5cd                 LGOTO 0x232; main.o:_00252_DS_=0x232
00000223 fa58                 INCR 0x27, 0x1
00000224 defc                 MOVIA 0x3
00000225 fbd8                 SUBAR 0x27, 0x0
00000226 f7fc                 BTRSS 0x3, 0x0
00000227 c5d5                 LGOTO 0x22a; main.o:_00246_DS_=0x22a
00000228 defe                 MOVIA 0x1
00000229 ff58                 MOVAR 0x27
0000022a                      main.o:_00246_DS_:
0000022a e4fc                 BSR 0x3, 0x6
0000022b fa57                 INCR 0x28, 0x1
0000022c deef                 MOVIA 0x10
0000022d fbd7                 SUBAR 0x28, 0x0
0000022e f7fc                 BTRSS 0x3, 0x0
0000022f c5cd                 LGOTO 0x232; main.o:_00252_DS_=0x232
00000230 fd57                 CLRR 0x28
00000231 fd58                 CLRR 0x27
00000232                      main.o:_00252_DS_:
00000232 def5                 MOVIA 0xa
00000233 e4fc                 BSR 0x3, 0x6
00000234 fbde                 SUBAR 0x21, 0x0
00000235 f3fc                 BTRSC 0x3, 0x0
00000236 c5c6                 LGOTO 0x239; main.o:_00263_DS_=0x239
00000237 d63f                 LCALL 0x1c0; _checkBat12=0x1c0
00000238 c5b1                 LGOTO 0x24e; main.o:_00265_DS_=0x24e
00000239                      main.o:_00263_DS_:
00000239 dee1                 MOVIA 0x1e
0000023a e4fc                 BSR 0x3, 0x6
0000023b fbde                 SUBAR 0x21, 0x0
0000023c f3fc                 BTRSC 0x3, 0x0
0000023d c5bb                 LGOTO 0x244; main.o:_00260_DS_=0x244
0000023e deea                 MOVIA 0x15
0000023f fbde                 SUBAR 0x21, 0x0
00000240 f7fc                 BTRSS 0x3, 0x0
00000241 c5b1                 LGOTO 0x24e; main.o:_00265_DS_=0x24e
00000242 d670                 LCALL 0x18f; _checkBat16=0x18f
00000243 c5b1                 LGOTO 0x24e; main.o:_00265_DS_=0x24e
00000244                      main.o:_00260_DS_:
00000244 dea5                 MOVIA 0x5a
00000245 e4fc                 BSR 0x3, 0x6
00000246 fbde                 SUBAR 0x21, 0x0
00000247 f3fc                 BTRSC 0x3, 0x0
00000248 c5b1                 LGOTO 0x24e; main.o:_00265_DS_=0x24e
00000249 e579                 BSR 0x6, 0x5
0000024a deae                 MOVIA 0x51
0000024b fbde                 SUBAR 0x21, 0x0
0000024c f3fc                 BTRSC 0x3, 0x0
0000024d d6a3                 LCALL 0x15c; _checkOutA=0x15c
0000024e                      main.o:_00265_DS_:
0000024e ffef                 RET
0000024f                      _chrgCtr:
0000024f deff                 MOVIA 0x0
00000250 e0fc                 BCR 0x3, 0x6
00000251 fb80                 SUBAR 0x7f, 0x0
00000252 f6fc                 BTRSS 0x3, 0x2
00000253 c5a9                 LGOTO 0x256; main.o:_00235_DS_=0x256
00000254 def5                 MOVIA 0xa
00000255 fb81                 SUBAR 0x7e, 0x0
00000256                      main.o:_00235_DS_:
00000256 f3fc                 BTRSC 0x3, 0x0
00000257 c5a5                 LGOTO 0x25a; main.o:_00183_DS_=0x25a
00000258 e0fa                 BCR 0x5, 0x6
00000259 c5a4                 LGOTO 0x25b; main.o:_00184_DS_=0x25b
0000025a                      main.o:_00183_DS_:
0000025a e4fa                 BSR 0x5, 0x6
0000025b                      main.o:_00184_DS_:
0000025b def1                 MOVIA 0xe
0000025c e0fc                 BCR 0x3, 0x6
0000025d fb83                 SUBAR 0x7c, 0x0
0000025e f6fc                 BTRSS 0x3, 0x2
0000025f c59d                 LGOTO 0x262; main.o:_00236_DS_=0x262
00000260 dec7                 MOVIA 0x38
00000261 fb84                 SUBAR 0x7b, 0x0
00000262                      main.o:_00236_DS_:
00000262 f3fc                 BTRSC 0x3, 0x0
00000263 c597                 LGOTO 0x268; main.o:_00191_DS_=0x268
00000264 defe                 MOVIA 0x1
00000265 e4fc                 BSR 0x3, 0x6
00000266 ff5d                 MOVAR 0x22
00000267 c582                 LGOTO 0x27d; main.o:_00192_DS_=0x27d
00000268                      main.o:_00191_DS_:
00000268 e4fc                 BSR 0x3, 0x6
00000269 fedd                 MOVR 0x22, 0x0
0000026a dbfe                 XORIA 0x1
0000026b f6fc                 BTRSS 0x3, 0x2
0000026c c585                 LGOTO 0x27a; main.o:_00188_DS_=0x27a
0000026d def1                 MOVIA 0xe
0000026e e0fc                 BCR 0x3, 0x6
0000026f fb83                 SUBAR 0x7c, 0x0
00000270 f6fc                 BTRSS 0x3, 0x2
00000271 c58b                 LGOTO 0x274; main.o:_00237_DS_=0x274
00000272 debe                 MOVIA 0x41
00000273 fb84                 SUBAR 0x7b, 0x0
00000274                      main.o:_00237_DS_:
00000274 f7fc                 BTRSS 0x3, 0x0
00000275 c582                 LGOTO 0x27d; main.o:_00192_DS_=0x27d
00000276 defd                 MOVIA 0x2
00000277 e4fc                 BSR 0x3, 0x6
00000278 ff5d                 MOVAR 0x22
00000279 c582                 LGOTO 0x27d; main.o:_00192_DS_=0x27d
0000027a                      main.o:_00188_DS_:
0000027a defd                 MOVIA 0x2
0000027b e4fc                 BSR 0x3, 0x6
0000027c ff5d                 MOVAR 0x22
0000027d                      main.o:_00192_DS_:
0000027d e0fc                 BCR 0x3, 0x6
0000027e fd58                 CLRR 0x27
0000027f e4fc                 BSR 0x3, 0x6
00000280 fedd                 MOVR 0x22, 0x0
00000281 dbfd                 XORIA 0x2
00000282 f6fc                 BTRSS 0x3, 0x2
00000283 c579                 LGOTO 0x286; main.o:_00007_DS_=0x286
00000284 e0fc                 BCR 0x3, 0x6
00000285 fa58                 INCR 0x27, 0x1
00000286                      main.o:_00007_DS_:
00000286 e0fc                 BCR 0x3, 0x6
00000287 fed8                 MOVR 0x27, 0x0
00000288 f2fc                 BTRSC 0x3, 0x2
00000289 c556                 LGOTO 0x2a9; main.o:_00202_DS_=0x2a9
0000028a def5                 MOVIA 0xa
0000028b fb86                 SUBAR 0x79, 0x0
0000028c f6fc                 BTRSS 0x3, 0x2
0000028d c56f                 LGOTO 0x290; main.o:_00239_DS_=0x290
0000028e de55                 MOVIA 0xaa
0000028f fb87                 SUBAR 0x78, 0x0
00000290                      main.o:_00239_DS_:
00000290 f3fc                 BTRSC 0x3, 0x0
00000291 c569                 LGOTO 0x296; main.o:_00199_DS_=0x296
00000292 defd                 MOVIA 0x2
00000293 e4fc                 BSR 0x3, 0x6
00000294 ff5d                 MOVAR 0x22
00000295 c556                 LGOTO 0x2a9; main.o:_00202_DS_=0x2a9
00000296                      main.o:_00199_DS_:
00000296 e0fc                 BCR 0x3, 0x6
00000297 fed8                 MOVR 0x27, 0x0
00000298 f2fc                 BTRSC 0x3, 0x2
00000299 c559                 LGOTO 0x2a6; main.o:_00196_DS_=0x2a6
0000029a def5                 MOVIA 0xa
0000029b fb86                 SUBAR 0x79, 0x0
0000029c f6fc                 BTRSS 0x3, 0x2
0000029d c55f                 LGOTO 0x2a0; main.o:_00240_DS_=0x2a0
0000029e de4e                 MOVIA 0xb1
0000029f fb87                 SUBAR 0x78, 0x0
000002a0                      main.o:_00240_DS_:
000002a0 f7fc                 BTRSS 0x3, 0x0
000002a1 c556                 LGOTO 0x2a9; main.o:_00202_DS_=0x2a9
000002a2 defc                 MOVIA 0x3
000002a3 e4fc                 BSR 0x3, 0x6
000002a4 ff5d                 MOVAR 0x22
000002a5 c556                 LGOTO 0x2a9; main.o:_00202_DS_=0x2a9
000002a6                      main.o:_00196_DS_:
000002a6 defc                 MOVIA 0x3
000002a7 e4fc                 BSR 0x3, 0x6
000002a8 ff5d                 MOVAR 0x22
000002a9                      main.o:_00202_DS_:
000002a9 e4fc                 BSR 0x3, 0x6
000002aa fedd                 MOVR 0x22, 0x0
000002ab dbfe                 XORIA 0x1
000002ac f6fc                 BTRSS 0x3, 0x2
000002ad c54e                 LGOTO 0x2b1; main.o:_00204_DS_=0x2b1
000002ae e57a                 BSR 0x5, 0x5
000002af e279                 BCR 0x6, 0x3
000002b0 c54c                 LGOTO 0x2b3; main.o:_00206_DS_=0x2b3
000002b1                      main.o:_00204_DS_:
000002b1 e679                 BSR 0x6, 0x3
000002b2 e17a                 BCR 0x5, 0x5
000002b3                      main.o:_00206_DS_:
000002b3 ffef                 RET
000002b4                      _workCtr:
000002b4 f8fa                 COMR 0x5, 0x0
000002b5 e0fc                 BCR 0x3, 0x6
000002b6 ff5e                 MOVAR 0x21
000002b7 de7f                 MOVIA 0x80
000002b8 ef5e                 ANDAR 0x21, 0x1
000002b9 fede                 MOVR 0x21, 0x0
000002ba d3be                 LCALL 0x441; _keyRead=0x441
000002bb e0fc                 BCR 0x3, 0x6
000002bc ff5e                 MOVAR 0x21
000002bd fede                 MOVR 0x21, 0x0
000002be f2fc                 BTRSC 0x3, 0x2
000002bf c53a                 LGOTO 0x2c5; main.o:_00136_DS_=0x2c5
000002c0 defe                 MOVIA 0x1
000002c1 e4fc                 BSR 0x3, 0x6
000002c2 ff58                 MOVAR 0x27
000002c3 fd57                 CLRR 0x28
000002c4 fd5e                 CLRR 0x21
000002c5                      main.o:_00136_DS_:
000002c5 e4fc                 BSR 0x3, 0x6
000002c6 fede                 MOVR 0x21, 0x0
000002c7 dbcd                 XORIA 0x32
000002c8 f6fc                 BTRSS 0x3, 0x2
000002c9 c3bf                 LGOTO 0x440; main.o:_00152_DS_=0x440
000002ca fed8                 MOVR 0x27, 0x0
000002cb dbfe                 XORIA 0x1
000002cc f6fc                 BTRSS 0x3, 0x2
000002cd c49a                 LGOTO 0x365; main.o:_00148_DS_=0x365
000002ce defc                 MOVIA 0x3
000002cf e0fc                 BCR 0x3, 0x6
000002d0 fb83                 SUBAR 0x7c, 0x0
000002d1 f6fc                 BTRSS 0x3, 0x2
000002d2 c52a                 LGOTO 0x2d5; main.o:_00175_DS_=0x2d5
000002d3 de16                 MOVIA 0xe9
000002d4 fb84                 SUBAR 0x7b, 0x0
000002d5                      main.o:_00175_DS_:
000002d5 f7fc                 BTRSS 0x3, 0x0
000002d6 c4a5                 LGOTO 0x35a; main.o:_00138_DS_=0x35a
000002d7 de41                 MOVIA 0xbe
000002d8 e0fc                 BCR 0x3, 0x6
000002d9 fc84                 ADDAR 0x7b, 0x0
000002da ff5e                 MOVAR 0x21
000002db de00                 MOVIA 0xff
000002dc ff5d                 MOVAR 0x22
000002dd fe83                 MOVR 0x7c, 0x0
000002de f3fc                 BTRSC 0x3, 0x0
000002df fa83                 INCR 0x7c, 0x0
000002e0 f2fc                 BTRSC 0x3, 0x2
000002e1 c51c                 LGOTO 0x2e3; main.o:_00008_DS_=0x2e3
000002e2 fc5d                 ADDAR 0x22, 0x1
000002e3                      main.o:_00008_DS_:
000002e3 e0fc                 BCR 0x3, 0x6
000002e4 fede                 MOVR 0x21, 0x0
000002e5 ff3c                 MOVAR 0x43
000002e6 fedd                 MOVR 0x22, 0x0
000002e7 ff3b                 MOVAR 0x44
000002e8 def0                 MOVIA 0xf
000002e9 ff3a                 MOVAR 0x45
000002ea deff                 MOVIA 0x0
000002eb d35a                 LCALL 0x4a5; __mulint=0x4a5
000002ec e0fc                 BCR 0x3, 0x6
000002ed ff5d                 MOVAR 0x22
000002ee feba                 MOVR 0x45, 0x0
000002ef ff5e                 MOVAR 0x21
000002f0 debf                 MOVIA 0x40
000002f1 ff3c                 MOVAR 0x43
000002f2 defe                 MOVIA 0x1
000002f3 ff3b                 MOVAR 0x44
000002f4 fede                 MOVR 0x21, 0x0
000002f5 ff3a                 MOVAR 0x45
000002f6 fedd                 MOVR 0x22, 0x0
000002f7 d3a4                 LCALL 0x45b; __divuint=0x45b
000002f8 e0fc                 BCR 0x3, 0x6
000002f9 ff5d                 MOVAR 0x22
000002fa feba                 MOVR 0x45, 0x0
000002fb ff5e                 MOVAR 0x21
000002fc de9b                 MOVIA 0x64
000002fd ff3c                 MOVAR 0x43
000002fe deff                 MOVIA 0x0
000002ff ff3b                 MOVAR 0x44
00000300 fede                 MOVR 0x21, 0x0
00000301 ff3a                 MOVAR 0x45
00000302 fedd                 MOVR 0x22, 0x0
00000303 d3a4                 LCALL 0x45b; __divuint=0x45b
00000304 e0fc                 BCR 0x3, 0x6
00000305 ff5b                 MOVAR 0x24
00000306 feba                 MOVR 0x45, 0x0
00000307 da95                 ADDIA 0x6a
00000308 ff5c                 MOVAR 0x23
00000309 fedb                 MOVR 0x24, 0x0
0000030a f3fc                 BTRSC 0x3, 0x0
0000030b e9db                 INCRSZ 0x24, 0x0
0000030c daff                 ADDIA 0x0
0000030d ff5b                 MOVAR 0x24
0000030e fedc                 MOVR 0x23, 0x0
0000030f ff3b                 MOVAR 0x44
00000310 fedb                 MOVR 0x24, 0x0
00000311 ff3a                 MOVAR 0x45
00000312 deff                 MOVIA 0x0
00000313 d2e5                 LCALL 0x51a; __gptrget=0x51a
00000314 e4fc                 BSR 0x3, 0x6
00000315 ff5c                 MOVAR 0x23
00000316 de9b                 MOVIA 0x64
00000317 ff3c                 MOVAR 0x43
00000318 deff                 MOVIA 0x0
00000319 ff3b                 MOVAR 0x44
0000031a e0fc                 BCR 0x3, 0x6
0000031b fede                 MOVR 0x21, 0x0
0000031c ff3a                 MOVAR 0x45
0000031d fedd                 MOVR 0x22, 0x0
0000031e d31e                 LCALL 0x4e1; __moduint=0x4e1
0000031f e0fc                 BCR 0x3, 0x6
00000320 ff5b                 MOVAR 0x24
00000321 feba                 MOVR 0x45, 0x0
00000322 ff5c                 MOVAR 0x23
00000323 def5                 MOVIA 0xa
00000324 ff3c                 MOVAR 0x43
00000325 deff                 MOVIA 0x0
00000326 ff3b                 MOVAR 0x44
00000327 fedc                 MOVR 0x23, 0x0
00000328 ff3a                 MOVAR 0x45
00000329 fedb                 MOVR 0x24, 0x0
0000032a d3a4                 LCALL 0x45b; __divuint=0x45b
0000032b e0fc                 BCR 0x3, 0x6
0000032c ff5b                 MOVAR 0x24
0000032d feba                 MOVR 0x45, 0x0
0000032e da95                 ADDIA 0x6a
0000032f ff5c                 MOVAR 0x23
00000330 fedb                 MOVR 0x24, 0x0
00000331 f3fc                 BTRSC 0x3, 0x0
00000332 e9db                 INCRSZ 0x24, 0x0
00000333 daff                 ADDIA 0x0
00000334 ff5b                 MOVAR 0x24
00000335 fedc                 MOVR 0x23, 0x0
00000336 ff3b                 MOVAR 0x44
00000337 fedb                 MOVR 0x24, 0x0
00000338 ff3a                 MOVAR 0x45
00000339 deff                 MOVIA 0x0
0000033a d2e5                 LCALL 0x51a; __gptrget=0x51a
0000033b e4fc                 BSR 0x3, 0x6
0000033c ff5b                 MOVAR 0x24
0000033d e45b                 BSR 0x24, 0x7
0000033e def5                 MOVIA 0xa
0000033f ff3c                 MOVAR 0x43
00000340 deff                 MOVIA 0x0
00000341 ff3b                 MOVAR 0x44
00000342 e0fc                 BCR 0x3, 0x6
00000343 fede                 MOVR 0x21, 0x0
00000344 ff3a                 MOVAR 0x45
00000345 fedd                 MOVR 0x22, 0x0
00000346 d31e                 LCALL 0x4e1; __moduint=0x4e1
00000347 e0fc                 BCR 0x3, 0x6
00000348 ff5b                 MOVAR 0x24
00000349 feba                 MOVR 0x45, 0x0
0000034a da95                 ADDIA 0x6a
0000034b ff5c                 MOVAR 0x23
0000034c fedb                 MOVR 0x24, 0x0
0000034d f3fc                 BTRSC 0x3, 0x0
0000034e e9db                 INCRSZ 0x24, 0x0
0000034f daff                 ADDIA 0x0
00000350 ff5b                 MOVAR 0x24
00000351 fedc                 MOVR 0x23, 0x0
00000352 ff3b                 MOVAR 0x44
00000353 fedb                 MOVR 0x24, 0x0
00000354 ff3a                 MOVAR 0x45
00000355 deff                 MOVIA 0x0
00000356 d2e5                 LCALL 0x51a; __gptrget=0x51a
00000357 e4fc                 BSR 0x3, 0x6
00000358 ff5a                 MOVAR 0x25
00000359 c3bf                 LGOTO 0x440; main.o:_00152_DS_=0x440
0000035a                      main.o:_00138_DS_:
0000035a e0fc                 BCR 0x3, 0x6
0000035b fe95                 MOVR 0x6a, 0x0
0000035c e4fc                 BSR 0x3, 0x6
0000035d ff5b                 MOVAR 0x24
0000035e ff5c                 MOVAR 0x23
0000035f e0fc                 BCR 0x3, 0x6
00000360 ff5c                 MOVAR 0x23
00000361 e4fc                 BSR 0x3, 0x6
00000362 ff5a                 MOVAR 0x25
00000363 e45b                 BSR 0x24, 0x7
00000364 c3bf                 LGOTO 0x440; main.o:_00152_DS_=0x440
00000365                      main.o:_00148_DS_:
00000365 e4fc                 BSR 0x3, 0x6
00000366 fed8                 MOVR 0x27, 0x0
00000367 dbfd                 XORIA 0x2
00000368 f6fc                 BTRSS 0x3, 0x2
00000369 c3c3                 LGOTO 0x43c; main.o:_00145_DS_=0x43c
0000036a defc                 MOVIA 0x3
0000036b e0fc                 BCR 0x3, 0x6
0000036c fb83                 SUBAR 0x7c, 0x0
0000036d f6fc                 BTRSS 0x3, 0x2
0000036e c48e                 LGOTO 0x371; main.o:_00176_DS_=0x371
0000036f de16                 MOVIA 0xe9
00000370 fb84                 SUBAR 0x7b, 0x0
00000371                      main.o:_00176_DS_:
00000371 f7fc                 BTRSS 0x3, 0x0
00000372 c3d1                 LGOTO 0x42e; main.o:_00141_DS_=0x42e
00000373 defe                 MOVIA 0x1
00000374 e0fc                 BCR 0x3, 0x6
00000375 fb86                 SUBAR 0x79, 0x0
00000376 f6fc                 BTRSS 0x3, 0x2
00000377 c485                 LGOTO 0x37a; main.o:_00177_DS_=0x37a
00000378 de0a                 MOVIA 0xf5
00000379 fb87                 SUBAR 0x78, 0x0
0000037a                      main.o:_00177_DS_:
0000037a f7fc                 BTRSS 0x3, 0x0
0000037b c3d1                 LGOTO 0x42e; main.o:_00141_DS_=0x42e
0000037c de41                 MOVIA 0xbe
0000037d e0fc                 BCR 0x3, 0x6
0000037e fc84                 ADDAR 0x7b, 0x0
0000037f ff5c                 MOVAR 0x23
00000380 de00                 MOVIA 0xff
00000381 ff5b                 MOVAR 0x24
00000382 fe83                 MOVR 0x7c, 0x0
00000383 f3fc                 BTRSC 0x3, 0x0
00000384 fa83                 INCR 0x7c, 0x0
00000385 f2fc                 BTRSC 0x3, 0x2
00000386 c477                 LGOTO 0x388; main.o:_00009_DS_=0x388
00000387 fc5b                 ADDAR 0x24, 0x1
00000388                      main.o:_00009_DS_:
00000388 e0fc                 BCR 0x3, 0x6
00000389 fedc                 MOVR 0x23, 0x0
0000038a ff3c                 MOVAR 0x43
0000038b fedb                 MOVR 0x24, 0x0
0000038c ff3b                 MOVAR 0x44
0000038d def0                 MOVIA 0xf
0000038e ff3a                 MOVAR 0x45
0000038f deff                 MOVIA 0x0
00000390 d35a                 LCALL 0x4a5; __mulint=0x4a5
00000391 e0fc                 BCR 0x3, 0x6
00000392 ff5b                 MOVAR 0x24
00000393 feba                 MOVR 0x45, 0x0
00000394 ff5c                 MOVAR 0x23
00000395 debf                 MOVIA 0x40
00000396 ff3c                 MOVAR 0x43
00000397 defe                 MOVIA 0x1
00000398 ff3b                 MOVAR 0x44
00000399 fedc                 MOVR 0x23, 0x0
0000039a ff3a                 MOVAR 0x45
0000039b fedb                 MOVR 0x24, 0x0
0000039c d3a4                 LCALL 0x45b; __divuint=0x45b
0000039d e0fc                 BCR 0x3, 0x6
0000039e ff5b                 MOVAR 0x24
0000039f feba                 MOVR 0x45, 0x0
000003a0 ff5c                 MOVAR 0x23
000003a1 de2f                 MOVIA 0xd0
000003a2 fc87                 ADDAR 0x78, 0x0
000003a3 ff5a                 MOVAR 0x25
000003a4 de00                 MOVIA 0xff
000003a5 ff59                 MOVAR 0x26
000003a6 fe86                 MOVR 0x79, 0x0
000003a7 f3fc                 BTRSC 0x3, 0x0
000003a8 fa86                 INCR 0x79, 0x0
000003a9 f2fc                 BTRSC 0x3, 0x2
000003aa c453                 LGOTO 0x3ac; main.o:_00010_DS_=0x3ac
000003ab fc59                 ADDAR 0x26, 0x1
000003ac                      main.o:_00010_DS_:
000003ac e0fc                 BCR 0x3, 0x6
000003ad feda                 MOVR 0x25, 0x0
000003ae ff3c                 MOVAR 0x43
000003af fed9                 MOVR 0x26, 0x0
000003b0 ff3b                 MOVAR 0x44
000003b1 def0                 MOVIA 0xf
000003b2 ff3a                 MOVAR 0x45
000003b3 deff                 MOVIA 0x0
000003b4 d35a                 LCALL 0x4a5; __mulint=0x4a5
000003b5 e0fc                 BCR 0x3, 0x6
000003b6 ff59                 MOVAR 0x26
000003b7 feba                 MOVR 0x45, 0x0
000003b8 ff5a                 MOVAR 0x25
000003b9 debf                 MOVIA 0x40
000003ba ff3c                 MOVAR 0x43
000003bb defe                 MOVIA 0x1
000003bc ff3b                 MOVAR 0x44
000003bd feda                 MOVR 0x25, 0x0
000003be ff3a                 MOVAR 0x45
000003bf fed9                 MOVR 0x26, 0x0
000003c0 d3a4                 LCALL 0x45b; __divuint=0x45b
000003c1 e0fc                 BCR 0x3, 0x6
000003c2 ff59                 MOVAR 0x26
000003c3 feba                 MOVR 0x45, 0x0
000003c4 ff5a                 MOVAR 0x25
000003c5 fcdc                 ADDAR 0x23, 0x0
000003c6 ff5e                 MOVAR 0x21
000003c7 fedb                 MOVR 0x24, 0x0
000003c8 ff5d                 MOVAR 0x22
000003c9 fed9                 MOVR 0x26, 0x0
000003ca f3fc                 BTRSC 0x3, 0x0
000003cb fad9                 INCR 0x26, 0x0
000003cc f2fc                 BTRSC 0x3, 0x2
000003cd c430                 LGOTO 0x3cf; main.o:_00011_DS_=0x3cf
000003ce fc5d                 ADDAR 0x22, 0x1
000003cf                      main.o:_00011_DS_:
000003cf de9b                 MOVIA 0x64
000003d0 ff3c                 MOVAR 0x43
000003d1 deff                 MOVIA 0x0
000003d2 ff3b                 MOVAR 0x44
000003d3 e0fc                 BCR 0x3, 0x6
000003d4 fede                 MOVR 0x21, 0x0
000003d5 ff3a                 MOVAR 0x45
000003d6 fedd                 MOVR 0x22, 0x0
000003d7 d3a4                 LCALL 0x45b; __divuint=0x45b
000003d8 e0fc                 BCR 0x3, 0x6
000003d9 ff5b                 MOVAR 0x24
000003da feba                 MOVR 0x45, 0x0
000003db da95                 ADDIA 0x6a
000003dc ff5c                 MOVAR 0x23
000003dd fedb                 MOVR 0x24, 0x0
000003de f3fc                 BTRSC 0x3, 0x0
000003df e9db                 INCRSZ 0x24, 0x0
000003e0 daff                 ADDIA 0x0
000003e1 ff5b                 MOVAR 0x24
000003e2 fedc                 MOVR 0x23, 0x0
000003e3 ff3b                 MOVAR 0x44
000003e4 fedb                 MOVR 0x24, 0x0
000003e5 ff3a                 MOVAR 0x45
000003e6 deff                 MOVIA 0x0
000003e7 d2e5                 LCALL 0x51a; __gptrget=0x51a
000003e8 e4fc                 BSR 0x3, 0x6
000003e9 ff5c                 MOVAR 0x23
000003ea de9b                 MOVIA 0x64
000003eb ff3c                 MOVAR 0x43
000003ec deff                 MOVIA 0x0
000003ed ff3b                 MOVAR 0x44
000003ee e0fc                 BCR 0x3, 0x6
000003ef fede                 MOVR 0x21, 0x0
000003f0 ff3a                 MOVAR 0x45
000003f1 fedd                 MOVR 0x22, 0x0
000003f2 d31e                 LCALL 0x4e1; __moduint=0x4e1
000003f3 e0fc                 BCR 0x3, 0x6
000003f4 ff5b                 MOVAR 0x24
000003f5 feba                 MOVR 0x45, 0x0
000003f6 ff5c                 MOVAR 0x23
000003f7 def5                 MOVIA 0xa
000003f8 ff3c                 MOVAR 0x43
000003f9 deff                 MOVIA 0x0
000003fa ff3b                 MOVAR 0x44
000003fb fedc                 MOVR 0x23, 0x0
000003fc ff3a                 MOVAR 0x45
000003fd fedb                 MOVR 0x24, 0x0
000003fe d3a4                 LCALL 0x45b; __divuint=0x45b
000003ff e0fc                 BCR 0x3, 0x6
00000400 ff5b                 MOVAR 0x24
00000401 feba                 MOVR 0x45, 0x0
00000402 da95                 ADDIA 0x6a
00000403 ff5c                 MOVAR 0x23
00000404 fedb                 MOVR 0x24, 0x0
00000405 f3fc                 BTRSC 0x3, 0x0
00000406 e9db                 INCRSZ 0x24, 0x0
00000407 daff                 ADDIA 0x0
00000408 ff5b                 MOVAR 0x24
00000409 fedc                 MOVR 0x23, 0x0
0000040a ff3b                 MOVAR 0x44
0000040b fedb                 MOVR 0x24, 0x0
0000040c ff3a                 MOVAR 0x45
0000040d deff                 MOVIA 0x0
0000040e d2e5                 LCALL 0x51a; __gptrget=0x51a
0000040f e4fc                 BSR 0x3, 0x6
00000410 ff5b                 MOVAR 0x24
00000411 e45b                 BSR 0x24, 0x7
00000412 def5                 MOVIA 0xa
00000413 ff3c                 MOVAR 0x43
00000414 deff                 MOVIA 0x0
00000415 ff3b                 MOVAR 0x44
00000416 e0fc                 BCR 0x3, 0x6
00000417 fede                 MOVR 0x21, 0x0
00000418 ff3a                 MOVAR 0x45
00000419 fedd                 MOVR 0x22, 0x0
0000041a d31e                 LCALL 0x4e1; __moduint=0x4e1
0000041b e0fc                 BCR 0x3, 0x6
0000041c ff5d                 MOVAR 0x22
0000041d feba                 MOVR 0x45, 0x0
0000041e da95                 ADDIA 0x6a
0000041f ff5e                 MOVAR 0x21
00000420 fedd                 MOVR 0x22, 0x0
00000421 f3fc                 BTRSC 0x3, 0x0
00000422 e9dd                 INCRSZ 0x22, 0x0
00000423 daff                 ADDIA 0x0
00000424 ff5d                 MOVAR 0x22
00000425 fede                 MOVR 0x21, 0x0
00000426 ff3b                 MOVAR 0x44
00000427 fedd                 MOVR 0x22, 0x0
00000428 ff3a                 MOVAR 0x45
00000429 deff                 MOVIA 0x0
0000042a d2e5                 LCALL 0x51a; __gptrget=0x51a
0000042b e4fc                 BSR 0x3, 0x6
0000042c ff5a                 MOVAR 0x25
0000042d c3bf                 LGOTO 0x440; main.o:_00152_DS_=0x440
0000042e                      main.o:_00141_DS_:
0000042e e0fc                 BCR 0x3, 0x6
0000042f fe95                 MOVR 0x6a, 0x0
00000430 e4fc                 BSR 0x3, 0x6
00000431 ff5b                 MOVAR 0x24
00000432 e0fc                 BCR 0x3, 0x6
00000433 ff5e                 MOVAR 0x21
00000434 e4fc                 BSR 0x3, 0x6
00000435 ff5a                 MOVAR 0x25
00000436 e0fc                 BCR 0x3, 0x6
00000437 fede                 MOVR 0x21, 0x0
00000438 e4fc                 BSR 0x3, 0x6
00000439 ff5c                 MOVAR 0x23
0000043a e45b                 BSR 0x24, 0x7
0000043b c3bf                 LGOTO 0x440; main.o:_00152_DS_=0x440
0000043c                      main.o:_00145_DS_:
0000043c e4fc                 BSR 0x3, 0x6
0000043d fd5a                 CLRR 0x25
0000043e fd5b                 CLRR 0x24
0000043f fd5c                 CLRR 0x23
00000440                      main.o:_00152_DS_:
00000440 ffef                 RET
00000441                      _keyRead:
00000441 e0fc                 BCR 0x3, 0x6
00000442 ff5f                 MOVAR 0x20
00000443 fedf                 MOVR 0x20, 0x0
00000444 f2fc                 BTRSC 0x3, 0x2
00000445 c3b0                 LGOTO 0x44f; main.o:_00128_DS_=0x44f
00000446 e4fc                 BSR 0x3, 0x6
00000447 fa59                 INCR 0x26, 0x1
00000448 de37                 MOVIA 0xc8
00000449 fbd9                 SUBAR 0x26, 0x0
0000044a f7fc                 BTRSS 0x3, 0x0
0000044b c3a6                 LGOTO 0x459; main.o:_00129_DS_=0x459
0000044c de37                 MOVIA 0xc8
0000044d ff59                 MOVAR 0x26
0000044e c3a6                 LGOTO 0x459; main.o:_00129_DS_=0x459
0000044f                      main.o:_00128_DS_:
0000044f def7                 MOVIA 0x8
00000450 e4fc                 BSR 0x3, 0x6
00000451 fbd9                 SUBAR 0x26, 0x0
00000452 f7fc                 BTRSS 0x3, 0x0
00000453 c3a8                 LGOTO 0x457; main.o:_00126_DS_=0x457
00000454 fd59                 CLRR 0x26
00000455 defe                 MOVIA 0x1
00000456 c3a5                 LGOTO 0x45a; main.o:_00130_DS_=0x45a
00000457                      main.o:_00126_DS_:
00000457 e4fc                 BSR 0x3, 0x6
00000458 fd59                 CLRR 0x26
00000459                      main.o:_00129_DS_:
00000459 deff                 MOVIA 0x0
0000045a                      main.o:_00130_DS_:
0000045a ffef                 RET
0000045b                      __divuint:
0000045b e0fc                 BCR 0x3, 0x6
0000045c ff2d                 MOVAR 0x52
0000045d feba                 MOVR 0x45, 0x0
0000045e ff2e                 MOVAR 0x51
0000045f febb                 MOVR 0x44, 0x0
00000460 ff2b                 MOVAR 0x54
00000461 febc                 MOVR 0x43, 0x0
00000462 ff2c                 MOVAR 0x53
00000463 fd2a                 CLRR 0x55
00000464 fd29                 CLRR 0x56
00000465 defe                 MOVIA 0x1
00000466 ff28                 MOVAR 0x57
00000467 fd27                 CLRR 0x58
00000468 feac                 MOVR 0x53, 0x0
00000469 eeab                 IORAR 0x54, 0x0
0000046a f6fc                 BTRSS 0x3, 0x2
0000046b c390                 LGOTO 0x46f; _divuint.o:_00107_DS_=0x46f
0000046c de00                 MOVIA 0xff
0000046d ff3a                 MOVAR 0x45
0000046e c35b                 LGOTO 0x4a4; _divuint.o:_00115_DS_=0x4a4
0000046f                      _divuint.o:_00107_DS_:
0000046f e0fc                 BCR 0x3, 0x6
00000470 f02b                 BTRSC 0x54, 0x7
00000471 c386                 LGOTO 0x479; _divuint.o:_00112_DS_=0x479
00000472 e3fc                 BCR 0x3, 0x0
00000473 eb2c                 RLR 0x53, 0x1
00000474 eb2b                 RLR 0x54, 0x1
00000475 e3fc                 BCR 0x3, 0x0
00000476 eb28                 RLR 0x57, 0x1
00000477 eb27                 RLR 0x58, 0x1
00000478 c390                 LGOTO 0x46f; _divuint.o:_00107_DS_=0x46f
00000479                      _divuint.o:_00112_DS_:
00000479 e0fc                 BCR 0x3, 0x6
0000047a fea8                 MOVR 0x57, 0x0
0000047b eea7                 IORAR 0x58, 0x0
0000047c f2fc                 BTRSC 0x3, 0x2
0000047d c35f                 LGOTO 0x4a0; _divuint.o:_00114_DS_=0x4a0
0000047e feab                 MOVR 0x54, 0x0
0000047f fbad                 SUBAR 0x52, 0x0
00000480 f6fc                 BTRSS 0x3, 0x2
00000481 c37b                 LGOTO 0x484; _divuint.o:_00135_DS_=0x484
00000482 feac                 MOVR 0x53, 0x0
00000483 fbae                 SUBAR 0x51, 0x0
00000484                      _divuint.o:_00135_DS_:
00000484 f7fc                 BTRSS 0x3, 0x0
00000485 c367                 LGOTO 0x498; _divuint.o:_00002_DS_=0x498
00000486 e0fc                 BCR 0x3, 0x6
00000487 fea8                 MOVR 0x57, 0x0
00000488 fc2a                 ADDAR 0x55, 0x1
00000489 fea7                 MOVR 0x58, 0x0
0000048a f3fc                 BTRSC 0x3, 0x0
0000048b faa7                 INCR 0x58, 0x0
0000048c f2fc                 BTRSC 0x3, 0x2
0000048d c370                 LGOTO 0x48f; _divuint.o:_00001_DS_=0x48f
0000048e fc29                 ADDAR 0x56, 0x1
0000048f                      _divuint.o:_00001_DS_:
0000048f e0fc                 BCR 0x3, 0x6
00000490 feac                 MOVR 0x53, 0x0
00000491 fb2e                 SUBAR 0x51, 0x1
00000492 feab                 MOVR 0x54, 0x0
00000493 f7fc                 BTRSS 0x3, 0x0
00000494 faab                 INCR 0x54, 0x0
00000495 f2fc                 BTRSC 0x3, 0x2
00000496 c367                 LGOTO 0x498; _divuint.o:_00002_DS_=0x498
00000497 fb2d                 SUBAR 0x52, 0x1
00000498                      _divuint.o:_00002_DS_:
00000498 e3fc                 BCR 0x3, 0x0
00000499 e0fc                 BCR 0x3, 0x6
0000049a ec2b                 RRR 0x54, 0x1
0000049b ec2c                 RRR 0x53, 0x1
0000049c e3fc                 BCR 0x3, 0x0
0000049d ec27                 RRR 0x58, 0x1
0000049e ec28                 RRR 0x57, 0x1
0000049f c386                 LGOTO 0x479; _divuint.o:_00112_DS_=0x479
000004a0                      _divuint.o:_00114_DS_:
000004a0 e0fc                 BCR 0x3, 0x6
000004a1 feaa                 MOVR 0x55, 0x0
000004a2 ff3a                 MOVAR 0x45
000004a3 fea9                 MOVR 0x56, 0x0
000004a4                      _divuint.o:_00115_DS_:
000004a4 ffef                 RET
000004a5                      __mulint:
000004a5 e0fc                 BCR 0x3, 0x6
000004a6 ff25                 MOVAR 0x5a
000004a7 feba                 MOVR 0x45, 0x0
000004a8 ff26                 MOVAR 0x59
000004a9 febb                 MOVR 0x44, 0x0
000004aa ff23                 MOVAR 0x5c
000004ab febc                 MOVR 0x43, 0x0
000004ac ff24                 MOVAR 0x5b
000004ad fd22                 CLRR 0x5d
000004ae fd21                 CLRR 0x5e
000004af def7                 MOVIA 0x8
000004b0 ff20                 MOVAR 0x5f
000004b1                      _mulint.o:_00119_DS_:
000004b1 e0fc                 BCR 0x3, 0x6
000004b2 f7a6                 BTRSS 0x59, 0x0
000004b3 c343                 LGOTO 0x4bc; _mulint.o:_00001_DS_=0x4bc
000004b4 fea4                 MOVR 0x5b, 0x0
000004b5 fc22                 ADDAR 0x5d, 0x1
000004b6 fea3                 MOVR 0x5c, 0x0
000004b7 f3fc                 BTRSC 0x3, 0x0
000004b8 faa3                 INCR 0x5c, 0x0
000004b9 f2fc                 BTRSC 0x3, 0x2
000004ba c343                 LGOTO 0x4bc; _mulint.o:_00001_DS_=0x4bc
000004bb fc21                 ADDAR 0x5e, 0x1
000004bc                      _mulint.o:_00001_DS_:
000004bc e0fc                 BCR 0x3, 0x6
000004bd f7a5                 BTRSS 0x5a, 0x0
000004be c335                 LGOTO 0x4ca; _mulint.o:_00002_DS_=0x4ca
000004bf fea4                 MOVR 0x5b, 0x0
000004c0 fd1f                 CLRR 0x60
000004c1 deff                 MOVIA 0x0
000004c2 fc22                 ADDAR 0x5d, 0x1
000004c3 fea4                 MOVR 0x5b, 0x0
000004c4 ff1e                 MOVAR 0x61
000004c5 f3fc                 BTRSC 0x3, 0x0
000004c6 fa9e                 INCR 0x61, 0x0
000004c7 f2fc                 BTRSC 0x3, 0x2
000004c8 c335                 LGOTO 0x4ca; _mulint.o:_00002_DS_=0x4ca
000004c9 fc21                 ADDAR 0x5e, 0x1
000004ca                      _mulint.o:_00002_DS_:
000004ca e0fc                 BCR 0x3, 0x6
000004cb fea6                 MOVR 0x59, 0x0
000004cc ff1f                 MOVAR 0x60
000004cd fea5                 MOVR 0x5a, 0x0
000004ce ff1e                 MOVAR 0x61
000004cf e3fc                 BCR 0x3, 0x0
000004d0 ec9e                 RRR 0x61, 0x0
000004d1 ff25                 MOVAR 0x5a
000004d2 ec9f                 RRR 0x60, 0x0
000004d3 ff26                 MOVAR 0x59
000004d4 e3fc                 BCR 0x3, 0x0
000004d5 eb24                 RLR 0x5b, 0x1
000004d6 eb23                 RLR 0x5c, 0x1
000004d7 f9a0                 DECR 0x5f, 0x0
000004d8 ff1f                 MOVAR 0x60
000004d9 ff20                 MOVAR 0x5f
000004da fe9f                 MOVR 0x60, 0x0
000004db f6fc                 BTRSS 0x3, 0x2
000004dc c34e                 LGOTO 0x4b1; _mulint.o:_00119_DS_=0x4b1
000004dd fea2                 MOVR 0x5d, 0x0
000004de ff3a                 MOVAR 0x45
000004df fea1                 MOVR 0x5e, 0x0
000004e0 ffef                 RET
000004e1                      __moduint:
000004e1 e0fc                 BCR 0x3, 0x6
000004e2 ff1c                 MOVAR 0x63
000004e3 feba                 MOVR 0x45, 0x0
000004e4 ff1d                 MOVAR 0x62
000004e5 febb                 MOVR 0x44, 0x0
000004e6 ff1a                 MOVAR 0x65
000004e7 febc                 MOVR 0x43, 0x0
000004e8 ff1b                 MOVAR 0x64
000004e9 ee9a                 IORAR 0x65, 0x0
000004ea f6fc                 BTRSS 0x3, 0x2
000004eb c310                 LGOTO 0x4ef; _moduint.o:_00119_DS_=0x4ef
000004ec de00                 MOVIA 0xff
000004ed ff3a                 MOVAR 0x45
000004ee c2e6                 LGOTO 0x519; _moduint.o:_00115_DS_=0x519
000004ef                      _moduint.o:_00119_DS_:
000004ef defe                 MOVIA 0x1
000004f0 e0fc                 BCR 0x3, 0x6
000004f1 ff19                 MOVAR 0x66
000004f2                      _moduint.o:_00107_DS_:
000004f2 e0fc                 BCR 0x3, 0x6
000004f3 f01a                 BTRSC 0x65, 0x7
000004f4 c305                 LGOTO 0x4fa; _moduint.o:_00112_DS_=0x4fa
000004f5 e3fc                 BCR 0x3, 0x0
000004f6 eb1b                 RLR 0x64, 0x1
000004f7 eb1a                 RLR 0x65, 0x1
000004f8 fa19                 INCR 0x66, 0x1
000004f9 c30d                 LGOTO 0x4f2; _moduint.o:_00107_DS_=0x4f2
000004fa                      _moduint.o:_00112_DS_:
000004fa e0fc                 BCR 0x3, 0x6
000004fb fe99                 MOVR 0x66, 0x0
000004fc f2fc                 BTRSC 0x3, 0x2
000004fd c2ea                 LGOTO 0x515; _moduint.o:_00114_DS_=0x515
000004fe fe9a                 MOVR 0x65, 0x0
000004ff fb9c                 SUBAR 0x63, 0x0
00000500 f6fc                 BTRSS 0x3, 0x2
00000501 c2fb                 LGOTO 0x504; _moduint.o:_00137_DS_=0x504
00000502 fe9b                 MOVR 0x64, 0x0
00000503 fb9d                 SUBAR 0x62, 0x0
00000504                      _moduint.o:_00137_DS_:
00000504 f7fc                 BTRSS 0x3, 0x0
00000505 c2f0                 LGOTO 0x50f; _moduint.o:_00001_DS_=0x50f
00000506 e0fc                 BCR 0x3, 0x6
00000507 fe9b                 MOVR 0x64, 0x0
00000508 fb1d                 SUBAR 0x62, 0x1
00000509 fe9a                 MOVR 0x65, 0x0
0000050a f7fc                 BTRSS 0x3, 0x0
0000050b fa9a                 INCR 0x65, 0x0
0000050c f2fc                 BTRSC 0x3, 0x2
0000050d c2f0                 LGOTO 0x50f; _moduint.o:_00001_DS_=0x50f
0000050e fb1c                 SUBAR 0x63, 0x1
0000050f                      _moduint.o:_00001_DS_:
0000050f e3fc                 BCR 0x3, 0x0
00000510 e0fc                 BCR 0x3, 0x6
00000511 ec1a                 RRR 0x65, 0x1
00000512 ec1b                 RRR 0x64, 0x1
00000513 f919                 DECR 0x66, 0x1
00000514 c305                 LGOTO 0x4fa; _moduint.o:_00112_DS_=0x4fa
00000515                      _moduint.o:_00114_DS_:
00000515 e0fc                 BCR 0x3, 0x6
00000516 fe9d                 MOVR 0x62, 0x0
00000517 ff3a                 MOVAR 0x45
00000518 fe9c                 MOVR 0x63, 0x0
00000519                      _moduint.o:_00115_DS_:
00000519 ffef                 RET
0000051a                      __gptrget:
0000051a dbff                 XORIA 0x0
0000051b f2fc                 BTRSC 0x3, 0x2
0000051c c2de                 LGOTO 0x521; _gptrget1.o:__dataptrget1=0x521
0000051d db7f                 XORIA 0x80
0000051e f2fc                 BTRSC 0x3, 0x2
0000051f c2d7                 LGOTO 0x528; __codeptrget1=0x528
00000520 dfff                 RETIA 0x0
00000521                      _gptrget1.o:__dataptrget1:
00000521 febb                 MOVR 0x44, 0x0
00000522 ff7b                 MOVAR 0x4
00000523 e0fc                 BCR 0x3, 0x6
00000524 f03b                 BTRSC 0x44, 0x7
00000525 e4fc                 BSR 0x3, 0x6
00000526 feff                 MOVR 0x0, 0x0
00000527 ffef                 RET
00000528                      __codeptrget1:
00000528 feba                 MOVR 0x45, 0x0
00000529 ffb8                 SFUN 0x7
0000052a febb                 MOVR 0x44, 0x0
0000052b fdee                 TABLEA
0000052c ffef                 RET
0000052d                      ___cinit_load__:
