00000000 c7fe                 LGOTO 0x1; __nyc_ny8_startup=0x1
00000001                      __nyc_ny8_startup:
00000001 d4c4                 LCALL 0x33b; ___cinit_load__=0x33b
00000002 c7ac                 LGOTO 0x53; _main=0x53
00000003                      main.o:_00507_DS_:
00000003 f56f                 BTRSS 0x10, 0x5
00000004 c7fc                 LGOTO 0x3; main.o:_00507_DS_=0x3
00000005 ffef                 RET
00000008 c7f6                 LGOTO 0x9; main.o:__sdcc_interrupt=0x9
00000009                      main.o:__sdcc_interrupt:
00000009 ff5d                 MOVAR 0x22
0000000a eafc                 SWAPR 0x3, 0x0
0000000b fd7c                 CLRR 0x3
0000000c ff5e                 MOVAR 0x21
0000000d fef5                 MOVR 0xa, 0x0
0000000e fd75                 CLRR 0xa
0000000f ff5f                 MOVAR 0x20
00000010 fefb                 MOVR 0x4, 0x0
00000011 ff3d                 MOVAR 0x42
00000012 feda                 MOVR 0x25, 0x0
00000013 ff3c                 MOVAR 0x43
00000014 fedb                 MOVR 0x24, 0x0
00000015 ff3b                 MOVAR 0x44
00000016 f7f0                 BTRSS 0xf, 0x0
00000017 c7bf                 LGOTO 0x40; main.o:_00119_DS_=0x40
00000018 dec8                 MOVIA 0x37
00000019 fc7e                 ADDAR 0x1, 0x1
0000001a fa39                 INCR 0x46, 0x1
0000001b de9b                 MOVIA 0x64
0000001c fbb9                 SUBAR 0x46, 0x0
0000001d f7fc                 BTRSS 0x3, 0x0
0000001e c7bf                 LGOTO 0x40; main.o:_00119_DS_=0x40
0000001f e7ba                 BSR 0x45, 0x0
00000020 fd39                 CLRR 0x46
00000021 feb6                 MOVR 0x49, 0x0
00000022 f2fc                 BTRSC 0x3, 0x2
00000023 c7d8                 LGOTO 0x27; main.o:_00106_DS_=0x27
00000024 fa34                 INCR 0x4b, 0x1
00000025 f2fc                 BTRSC 0x3, 0x2
00000026 fa33                 INCR 0x4c, 0x1
00000027                      main.o:_00106_DS_:
00000027 fa38                 INCR 0x47, 0x1
00000028 ded7                 MOVIA 0x28
00000029 fbb8                 SUBAR 0x47, 0x0
0000002a f3fc                 BTRSC 0x3, 0x0
0000002b fd38                 CLRR 0x47
0000002c fa2a                 INCR 0x55, 0x1
0000002d deeb                 MOVIA 0x14
0000002e fbaa                 SUBAR 0x55, 0x0
0000002f f3fc                 BTRSC 0x3, 0x0
00000030 fd2a                 CLRR 0x55
00000031 fa29                 INCR 0x56, 0x1
00000032 de9b                 MOVIA 0x64
00000033 fba9                 SUBAR 0x56, 0x0
00000034 f7fc                 BTRSS 0x3, 0x0
00000035                      ___cinit_size__:
00000035 c7bf                 LGOTO 0x40; main.o:_00119_DS_=0x40
00000036 fd29                 CLRR 0x56
00000037 feb6                 MOVR 0x49, 0x0
00000038 f2fc                 BTRSC 0x3, 0x2
00000039 c7c1                 LGOTO 0x3e; main.o:_00112_DS_=0x3e
0000003a fa28                 INCR 0x57, 0x1
0000003b f2fc                 BTRSC 0x3, 0x2
0000003c fa27                 INCR 0x58, 0x1
0000003d c7bf                 LGOTO 0x40; main.o:_00119_DS_=0x40
0000003e                      main.o:_00112_DS_:
0000003e fd28                 CLRR 0x57
0000003f fd27                 CLRR 0x58
00000040                      main.o:_00119_DS_:
00000040 f770                 BTRSS 0xf, 0x1
00000041 c7bb                 LGOTO 0x44; main.o:_00121_DS_=0x44
00000042 de02                 MOVIA 0xfd
00000043 ff70                 MOVAR 0xf
00000044                      main.o:_00121_DS_:
00000044 fd70                 CLRR 0xf
00000045 febb                 MOVR 0x44, 0x0
00000046 ff5b                 MOVAR 0x24
00000047 febc                 MOVR 0x43, 0x0
00000048 ff5a                 MOVAR 0x25
00000049 febd                 MOVR 0x42, 0x0
0000004a ff7b                 MOVAR 0x4
0000004b fedf                 MOVR 0x20, 0x0
0000004c ff75                 MOVAR 0xa
0000004d fd7c                 CLRR 0x3
0000004e eade                 SWAPR 0x21, 0x0
0000004f ff7c                 MOVAR 0x3
00000050 ea5d                 SWAPR 0x22, 0x1
00000051 eadd                 SWAPR 0x22, 0x0
00000052                      main.o:END_OF_INTERRUPT:
00000052 ffee                 RETIE
00000053                      _main:
00000053 d54d                 LCALL 0x2b2; _initSys=0x2b2
00000054 d62e                 LCALL 0x1d1; _initAD=0x1d1
00000055                      main.o:_00148_DS_:
00000055 d578                 LCALL 0x287; _ledShow=0x287
00000056 fffd                 CLRWDT
00000057 f7ba                 BTRSS 0x45, 0x0
00000058 c7aa                 LGOTO 0x55; main.o:_00148_DS_=0x55
00000059 e3ba                 BCR 0x45, 0x0
0000005a d578                 LCALL 0x287; _ledShow=0x287
0000005b f63a                 BTRSS 0x45, 0x3
0000005c d529                 LCALL 0x2d6; _keyCtr=0x2d6
0000005d defa                 MOVIA 0x5
0000005e fbaa                 SUBAR 0x55, 0x0
0000005f f3fc                 BTRSC 0x3, 0x0
00000060 c79c                 LGOTO 0x63; main.o:_00134_DS_=0x63
00000061 d6e2                 LCALL 0x11d; _checkBatAD=0x11d
00000062 c794                 LGOTO 0x6b; main.o:_00135_DS_=0x6b
00000063                      main.o:_00134_DS_:
00000063 def4                 MOVIA 0xb
00000064 fbaa                 SUBAR 0x55, 0x0
00000065 f7fc                 BTRSS 0x3, 0x0
00000066 c794                 LGOTO 0x6b; main.o:_00135_DS_=0x6b
00000067 def0                 MOVIA 0xf
00000068 fbaa                 SUBAR 0x55, 0x0
00000069 f7fc                 BTRSS 0x3, 0x0
0000006a d729                 LCALL 0xd6; _checkOutA=0xd6
0000006b                      main.o:_00135_DS_:
0000006b feb6                 MOVR 0x49, 0x0
0000006c f2fc                 BTRSC 0x3, 0x2
0000006d c789                 LGOTO 0x76; main.o:_00137_DS_=0x76
0000006e fea2                 MOVR 0x5d, 0x0
0000006f fbb0                 SUBAR 0x4f, 0x0
00000070 f3fc                 BTRSC 0x3, 0x0
00000071 c789                 LGOTO 0x76; main.o:_00137_DS_=0x76
00000072 de09                 MOVIA 0xf6
00000073 fc22                 ADDAR 0x5d, 0x1
00000074 fea2                 MOVR 0x5d, 0x0
00000075 ffb3                 SFUN 0xc
00000076                      main.o:_00137_DS_:
00000076 d619                 LCALL 0x1e6; _chrgCtr=0x1e6
00000077 feb6                 MOVR 0x49, 0x0
00000078 f6fc                 BTRSS 0x3, 0x2
00000079 c774                 LGOTO 0x8b; main.o:_00142_DS_=0x8b
0000007a feb7                 MOVR 0x48, 0x0
0000007b f6fc                 BTRSS 0x3, 0x2
0000007c c774                 LGOTO 0x8b; main.o:_00142_DS_=0x8b
0000007d f379                 BTRSC 0x6, 0x1
0000007e c774                 LGOTO 0x8b; main.o:_00142_DS_=0x8b
0000007f fa2c                 INCR 0x53, 0x1
00000080 f2fc                 BTRSC 0x3, 0x2
00000081 fa2b                 INCR 0x54, 0x1
00000082 defe                 MOVIA 0x1
00000083 fbab                 SUBAR 0x54, 0x0
00000084 f6fc                 BTRSS 0x3, 0x2
00000085 c777                 LGOTO 0x88; main.o:_00195_DS_=0x88
00000086 de6e                 MOVIA 0x91
00000087 fbac                 SUBAR 0x53, 0x0
00000088                      main.o:_00195_DS_:
00000088 f7fc                 BTRSS 0x3, 0x0
00000089 c774                 LGOTO 0x8b; main.o:_00142_DS_=0x8b
0000008a d5d9                 LCALL 0x226; _gotoSleep=0x226
0000008b                      main.o:_00142_DS_:
0000008b defc                 MOVIA 0x3
0000008c fba7                 SUBAR 0x58, 0x0
0000008d f6fc                 BTRSS 0x3, 0x2
0000008e c76e                 LGOTO 0x91; main.o:_00196_DS_=0x91
0000008f de7b                 MOVIA 0x84
00000090 fba8                 SUBAR 0x57, 0x0
00000091                      main.o:_00196_DS_:
00000091 f7fc                 BTRSS 0x3, 0x0
00000092 c7aa                 LGOTO 0x55; main.o:_00148_DS_=0x55
00000093 d530                 LCALL 0x2cf; _powerOff=0x2cf
00000094 c7aa                 LGOTO 0x55; main.o:_00148_DS_=0x55
00000095 ffef                 RET
00000096                      _F_AIN3_Convert:
00000096 ff41                 MOVAR 0x3e
00000097 fd54                 CLRR 0x2b
00000098 fd56                 CLRR 0x29
00000099 fd55                 CLRR 0x2a
0000009a de6c                 MOVIA 0x93
0000009b ff6f                 MOVAR 0x10
0000009c de37                 MOVIA 0xc8
0000009d d623                 LCALL 0x1dc; _delay=0x1dc
0000009e defe                 MOVIA 0x1
0000009f ff40                 MOVAR 0x3f
000000a0                      main.o:_00500_DS_:
000000a0 fec0                 MOVR 0x3f, 0x0
000000a1 fbc1                 SUBAR 0x3e, 0x0
000000a2 f7fc                 BTRSS 0x3, 0x0
000000a3 c74a                 LGOTO 0xb5; main.o:_00502_DS_=0xb5
000000a4 e4ef                 BSR 0x10, 0x6
000000a5 d7fc                 LCALL 0x3; main.o:_00507_DS_=0x3
000000a6 def0                 MOVIA 0xf
000000a7 efee                 ANDAR 0x11, 0x0
000000a8 fc54                 ADDAR 0x2b, 0x1
000000a9 feed                 MOVR 0x12, 0x0
000000aa ff3f                 MOVAR 0x40
000000ab deff                 MOVIA 0x0
000000ac ff3e                 MOVAR 0x41
000000ad febf                 MOVR 0x40, 0x0
000000ae fc56                 ADDAR 0x29, 0x1
000000af febe                 MOVR 0x41, 0x0
000000b0 f3fc                 BTRSC 0x3, 0x0
000000b1 e9be                 INCRSZ 0x41, 0x0
000000b2 fc55                 ADDAR 0x2a, 0x1
000000b3 fa40                 INCR 0x3f, 0x1
000000b4 c75f                 LGOTO 0xa0; main.o:_00500_DS_=0xa0
000000b5                      main.o:_00502_DS_:
000000b5 ffef                 RET
000000b6                      _F_AIN4_Convert:
000000b6 ff45                 MOVAR 0x3a
000000b7 fd57                 CLRR 0x28
000000b8 fd59                 CLRR 0x26
000000b9 fd58                 CLRR 0x27
000000ba de6b                 MOVIA 0x94
000000bb ff6f                 MOVAR 0x10
000000bc de37                 MOVIA 0xc8
000000bd d623                 LCALL 0x1dc; _delay=0x1dc
000000be defe                 MOVIA 0x1
000000bf ff44                 MOVAR 0x3b
000000c0                      main.o:_00491_DS_:
000000c0 fec4                 MOVR 0x3b, 0x0
000000c1 fbc5                 SUBAR 0x3a, 0x0
000000c2 f7fc                 BTRSS 0x3, 0x0
000000c3 c72a                 LGOTO 0xd5; main.o:_00493_DS_=0xd5
000000c4 e4ef                 BSR 0x10, 0x6
000000c5 d7fc                 LCALL 0x3; main.o:_00507_DS_=0x3
000000c6 def0                 MOVIA 0xf
000000c7 efee                 ANDAR 0x11, 0x0
000000c8 fc57                 ADDAR 0x28, 0x1
000000c9 feed                 MOVR 0x12, 0x0
000000ca ff43                 MOVAR 0x3c
000000cb deff                 MOVIA 0x0
000000cc ff42                 MOVAR 0x3d
000000cd fec3                 MOVR 0x3c, 0x0
000000ce fc59                 ADDAR 0x26, 0x1
000000cf fec2                 MOVR 0x3d, 0x0
000000d0 f3fc                 BTRSC 0x3, 0x0
000000d1 e9c2                 INCRSZ 0x3d, 0x0
000000d2 fc58                 ADDAR 0x27, 0x1
000000d3 fa44                 INCR 0x3b, 0x1
000000d4 c73f                 LGOTO 0xc0; main.o:_00491_DS_=0xc0
000000d5                      main.o:_00493_DS_:
000000d5 ffef                 RET
000000d6                      _checkOutA:
000000d6 fd54                 CLRR 0x2b
000000d7 fd56                 CLRR 0x29
000000d8 fd55                 CLRR 0x2a
000000d9 def7                 MOVIA 0x8
000000da d769                 LCALL 0x96; _F_AIN3_Convert=0x96
000000db ead5                 SWAPR 0x2a, 0x0
000000dc dd0f                 ANDIA 0xf0
000000dd ff55                 MOVAR 0x2a
000000de ead6                 SWAPR 0x29, 0x0
000000df ff56                 MOVAR 0x29
000000e0 ddf0                 ANDIA 0xf
000000e1 ee55                 IORAR 0x2a, 0x1
000000e2 ed56                 XORAR 0x29, 0x1
000000e3 de0f                 MOVIA 0xf0
000000e4 ef54                 ANDAR 0x2b, 0x1
000000e5 fed7                 MOVR 0x28, 0x0
000000e6 ff47                 MOVAR 0x38
000000e7 deff                 MOVIA 0x0
000000e8 ff46                 MOVAR 0x39
000000e9 fec7                 MOVR 0x38, 0x0
000000ea fc56                 ADDAR 0x29, 0x1
000000eb fec6                 MOVR 0x39, 0x0
000000ec f3fc                 BTRSC 0x3, 0x0
000000ed e9c6                 INCRSZ 0x39, 0x0
000000ee fc55                 ADDAR 0x2a, 0x1
000000ef e3fc                 BCR 0x3, 0x0
000000f0 ec55                 RRR 0x2a, 0x1
000000f1 ec56                 RRR 0x29, 0x1
000000f2 e3fc                 BCR 0x3, 0x0
000000f3 ec55                 RRR 0x2a, 0x1
000000f4 ec56                 RRR 0x29, 0x1
000000f5 e3fc                 BCR 0x3, 0x0
000000f6 ec55                 RRR 0x2a, 0x1
000000f7 ec56                 RRR 0x29, 0x1
000000f8 fea4                 MOVR 0x5b, 0x0
000000f9 f2fc                 BTRSC 0x3, 0x2
000000fa c700                 LGOTO 0xff; main.o:_00457_DS_=0xff
000000fb ded2                 MOVIA 0x2d
000000fc ff56                 MOVAR 0x29
000000fd defe                 MOVIA 0x1
000000fe ff55                 MOVAR 0x2a
000000ff                      main.o:_00457_DS_:
000000ff defd                 MOVIA 0x2
00000100 fbd5                 SUBAR 0x2a, 0x0
00000101 f6fc                 BTRSS 0x3, 0x2
00000102 c6fa                 LGOTO 0x105; main.o:_00484_DS_=0x105
00000103 de7e                 MOVIA 0x81
00000104 fbd6                 SUBAR 0x29, 0x0
00000105                      main.o:_00484_DS_:
00000105 f7fc                 BTRSS 0x3, 0x0
00000106 c6ee                 LGOTO 0x111; main.o:_00465_DS_=0x111
00000107 fa25                 INCR 0x5a, 0x1
00000108 def4                 MOVIA 0xb
00000109 fba5                 SUBAR 0x5a, 0x0
0000010a f7fc                 BTRSS 0x3, 0x0
0000010b c6e3                 LGOTO 0x11c; main.o:_00467_DS_=0x11c
0000010c def5                 MOVIA 0xa
0000010d ff25                 MOVAR 0x5a
0000010e de7f                 MOVIA 0x80
0000010f ffb3                 SFUN 0xc
00000110 c6e3                 LGOTO 0x11c; main.o:_00467_DS_=0x11c
00000111                      main.o:_00465_DS_:
00000111 fea5                 MOVR 0x5a, 0x0
00000112 f2fc                 BTRSC 0x3, 0x2
00000113 c6e8                 LGOTO 0x117; main.o:_00461_DS_=0x117
00000114 f925                 DECR 0x5a, 0x1
00000115 feb0                 MOVR 0x4f, 0x0
00000116 ffb3                 SFUN 0xc
00000117                      main.o:_00461_DS_:
00000117 feb6                 MOVR 0x49, 0x0
00000118 f2fc                 BTRSC 0x3, 0x2
00000119 c6e3                 LGOTO 0x11c; main.o:_00467_DS_=0x11c
0000011a feb6                 MOVR 0x49, 0x0
0000011b ff35                 MOVAR 0x4a
0000011c                      main.o:_00467_DS_:
0000011c ffef                 RET
0000011d                      _checkBatAD:
0000011d fd57                 CLRR 0x28
0000011e fd59                 CLRR 0x26
0000011f fd58                 CLRR 0x27
00000120 def7                 MOVIA 0x8
00000121 d749                 LCALL 0xb6; _F_AIN4_Convert=0xb6
00000122 ead8                 SWAPR 0x27, 0x0
00000123 dd0f                 ANDIA 0xf0
00000124 ff58                 MOVAR 0x27
00000125 ead9                 SWAPR 0x26, 0x0
00000126 ff59                 MOVAR 0x26
00000127 ddf0                 ANDIA 0xf
00000128 ee58                 IORAR 0x27, 0x1
00000129 ed59                 XORAR 0x26, 0x1
0000012a de0f                 MOVIA 0xf0
0000012b ef57                 ANDAR 0x28, 0x1
0000012c fed7                 MOVR 0x28, 0x0
0000012d ff49                 MOVAR 0x36
0000012e deff                 MOVIA 0x0
0000012f ff48                 MOVAR 0x37
00000130 fec9                 MOVR 0x36, 0x0
00000131 fc59                 ADDAR 0x26, 0x1
00000132 fec8                 MOVR 0x37, 0x0
00000133 f3fc                 BTRSC 0x3, 0x0
00000134 e9c8                 INCRSZ 0x37, 0x0
00000135 fc58                 ADDAR 0x27, 0x1
00000136 e3fc                 BCR 0x3, 0x0
00000137 ec58                 RRR 0x27, 0x1
00000138 ec59                 RRR 0x26, 0x1
00000139 e3fc                 BCR 0x3, 0x0
0000013a ec58                 RRR 0x27, 0x1
0000013b ec59                 RRR 0x26, 0x1
0000013c e3fc                 BCR 0x3, 0x0
0000013d ec58                 RRR 0x27, 0x1
0000013e ec59                 RRR 0x26, 0x1
0000013f fd23                 CLRR 0x5c
00000140 def0                 MOVIA 0xf
00000141 fbd8                 SUBAR 0x27, 0x0
00000142 f6fc                 BTRSS 0x3, 0x2
00000143 c6b9                 LGOTO 0x146; main.o:_00441_DS_=0x146
00000144 ded6                 MOVIA 0x29
00000145 fbd9                 SUBAR 0x26, 0x0
00000146                      main.o:_00441_DS_:
00000146 f7fc                 BTRSS 0x3, 0x0
00000147 c6b2                 LGOTO 0x14d; main.o:_00372_DS_=0x14d
00000148 ded7                 MOVIA 0x28
00000149 ff59                 MOVAR 0x26
0000014a def0                 MOVIA 0xf
0000014b ff58                 MOVAR 0x27
0000014c c695                 LGOTO 0x16a; main.o:_00373_DS_=0x16a
0000014d                      main.o:_00372_DS_:
0000014d def3                 MOVIA 0xc
0000014e fbd8                 SUBAR 0x27, 0x0
0000014f f6fc                 BTRSS 0x3, 0x2
00000150 c6ac                 LGOTO 0x153; main.o:_00442_DS_=0x153
00000151 de1b                 MOVIA 0xe4
00000152 fbd9                 SUBAR 0x26, 0x0
00000153                      main.o:_00442_DS_:
00000153 f3fc                 BTRSC 0x3, 0x0
00000154 c695                 LGOTO 0x16a; main.o:_00373_DS_=0x16a
00000155 def4                 MOVIA 0xb
00000156 fbd8                 SUBAR 0x27, 0x0
00000157 f6fc                 BTRSS 0x3, 0x2
00000158 c6a4                 LGOTO 0x15b; main.o:_00443_DS_=0x15b
00000159 de47                 MOVIA 0xb8
0000015a fbd9                 SUBAR 0x26, 0x0
0000015b                      main.o:_00443_DS_:
0000015b f3fc                 BTRSC 0x3, 0x0
0000015c c699                 LGOTO 0x166; main.o:_00366_DS_=0x166
0000015d def5                 MOVIA 0xa
0000015e fba5                 SUBAR 0x5a, 0x0
0000015f f3fc                 BTRSC 0x3, 0x0
00000160 c699                 LGOTO 0x166; main.o:_00366_DS_=0x166
00000161 feb6                 MOVR 0x49, 0x0
00000162 f2fc                 BTRSC 0x3, 0x2
00000163 c699                 LGOTO 0x166; main.o:_00366_DS_=0x166
00000164 defe                 MOVIA 0x1
00000165 ff23                 MOVAR 0x5c
00000166                      main.o:_00366_DS_:
00000166 de1b                 MOVIA 0xe4
00000167 ff59                 MOVAR 0x26
00000168 def3                 MOVIA 0xc
00000169 ff58                 MOVAR 0x27
0000016a                      main.o:_00373_DS_:
0000016a dee3                 MOVIA 0x1c
0000016b fc59                 ADDAR 0x26, 0x1
0000016c de0c                 MOVIA 0xf3
0000016d f3fc                 BTRSC 0x3, 0x0
0000016e de0b                 MOVIA 0xf4
0000016f fc58                 ADDAR 0x27, 0x1
00000170 defd                 MOVIA 0x2
00000171 fbd8                 SUBAR 0x27, 0x0
00000172 f6fc                 BTRSS 0x3, 0x2
00000173 c689                 LGOTO 0x176; main.o:_00445_DS_=0x176
00000174 dec5                 MOVIA 0x3a
00000175 fbd9                 SUBAR 0x26, 0x0
00000176                      main.o:_00445_DS_:
00000176 f7fc                 BTRSS 0x3, 0x0
00000177 c684                 LGOTO 0x17b; main.o:_00395_DS_=0x17b
00000178 defa                 MOVIA 0x5
00000179 ff2f                 MOVAR 0x50
0000017a c62f                 LGOTO 0x1d0; main.o:_00397_DS_=0x1d0
0000017b                      main.o:_00395_DS_:
0000017b defe                 MOVIA 0x1
0000017c fbd8                 SUBAR 0x27, 0x0
0000017d f6fc                 BTRSS 0x3, 0x2
0000017e c67e                 LGOTO 0x181; main.o:_00446_DS_=0x181
0000017f de3c                 MOVIA 0xc3
00000180 fbd9                 SUBAR 0x26, 0x0
00000181                      main.o:_00446_DS_:
00000181 f7fc                 BTRSS 0x3, 0x0
00000182 c651                 LGOTO 0x1ae; main.o:_00392_DS_=0x1ae
00000183 feaf                 MOVR 0x50, 0x0
00000184 dbfa                 XORIA 0x5
00000185 f6fc                 BTRSS 0x3, 0x2
00000186 c66d                 LGOTO 0x192; main.o:_00377_DS_=0x192
00000187 defe                 MOVIA 0x1
00000188 fbd8                 SUBAR 0x27, 0x0
00000189 f6fc                 BTRSS 0x3, 0x2
0000018a c672                 LGOTO 0x18d; main.o:_00447_DS_=0x18d
0000018b de0b                 MOVIA 0xf4
0000018c fbd9                 SUBAR 0x26, 0x0
0000018d                      main.o:_00447_DS_:
0000018d f3fc                 BTRSC 0x3, 0x0
0000018e c66b                 LGOTO 0x194; main.o:_00378_DS_=0x194
0000018f defb                 MOVIA 0x4
00000190 ff2f                 MOVAR 0x50
00000191 c66b                 LGOTO 0x194; main.o:_00378_DS_=0x194
00000192                      main.o:_00377_DS_:
00000192 defb                 MOVIA 0x4
00000193 ff2f                 MOVAR 0x50
00000194                      main.o:_00378_DS_:
00000194 defd                 MOVIA 0x2
00000195 fbd8                 SUBAR 0x27, 0x0
00000196 f6fc                 BTRSS 0x3, 0x2
00000197 c665                 LGOTO 0x19a; main.o:_00448_DS_=0x19a
00000198 ded8                 MOVIA 0x27
00000199 fbd9                 SUBAR 0x26, 0x0
0000019a                      main.o:_00448_DS_:
0000019a f7fc                 BTRSS 0x3, 0x0
0000019b c62f                 LGOTO 0x1d0; main.o:_00397_DS_=0x1d0
0000019c fa2e                 INCR 0x51, 0x1
0000019d f2fc                 BTRSC 0x3, 0x2
0000019e fa2d                 INCR 0x52, 0x1
0000019f def8                 MOVIA 0x7
000001a0 fbad                 SUBAR 0x52, 0x0
000001a1 f6fc                 BTRSS 0x3, 0x2
000001a2 c65a                 LGOTO 0x1a5; main.o:_00449_DS_=0x1a5
000001a3 def6                 MOVIA 0x9
000001a4 fbae                 SUBAR 0x51, 0x0
000001a5                      main.o:_00449_DS_:
000001a5 f7fc                 BTRSS 0x3, 0x0
000001a6 c62f                 LGOTO 0x1d0; main.o:_00397_DS_=0x1d0
000001a7 def7                 MOVIA 0x8
000001a8 ff2e                 MOVAR 0x51
000001a9 def8                 MOVIA 0x7
000001aa ff2d                 MOVAR 0x52
000001ab defa                 MOVIA 0x5
000001ac ff2f                 MOVAR 0x50
000001ad c62f                 LGOTO 0x1d0; main.o:_00397_DS_=0x1d0
000001ae                      main.o:_00392_DS_:
000001ae defe                 MOVIA 0x1
000001af fbd8                 SUBAR 0x27, 0x0
000001b0 f6fc                 BTRSS 0x3, 0x2
000001b1 c64b                 LGOTO 0x1b4; main.o:_00450_DS_=0x1b4
000001b2 ded2                 MOVIA 0x2d
000001b3 fbd9                 SUBAR 0x26, 0x0
000001b4                      main.o:_00450_DS_:
000001b4 f7fc                 BTRSS 0x3, 0x0
000001b5 c644                 LGOTO 0x1bb; main.o:_00389_DS_=0x1bb
000001b6 defc                 MOVIA 0x3
000001b7 ff2f                 MOVAR 0x50
000001b8 fd2e                 CLRR 0x51
000001b9 fd2d                 CLRR 0x52
000001ba c62f                 LGOTO 0x1d0; main.o:_00397_DS_=0x1d0
000001bb                      main.o:_00389_DS_:
000001bb deff                 MOVIA 0x0
000001bc fbd8                 SUBAR 0x27, 0x0
000001bd f6fc                 BTRSS 0x3, 0x2
000001be c63e                 LGOTO 0x1c1; main.o:_00451_DS_=0x1c1
000001bf de68                 MOVIA 0x97
000001c0 fbd9                 SUBAR 0x26, 0x0
000001c1                      main.o:_00451_DS_:
000001c1 f7fc                 BTRSS 0x3, 0x0
000001c2 c637                 LGOTO 0x1c8; main.o:_00386_DS_=0x1c8
000001c3 defd                 MOVIA 0x2
000001c4 ff2f                 MOVAR 0x50
000001c5 fd2e                 CLRR 0x51
000001c6 fd2d                 CLRR 0x52
000001c7 c62f                 LGOTO 0x1d0; main.o:_00397_DS_=0x1d0
000001c8                      main.o:_00386_DS_:
000001c8 defe                 MOVIA 0x1
000001c9 ff2f                 MOVAR 0x50
000001ca fd2e                 CLRR 0x51
000001cb fd2d                 CLRR 0x52
000001cc fea1                 MOVR 0x5e, 0x0
000001cd dbfb                 XORIA 0x4
000001ce f2fc                 BTRSC 0x3, 0x2
000001cf fd21                 CLRR 0x5e
000001d0                      main.o:_00397_DS_:
000001d0 ffef                 RET
000001d1                      _initAD:
000001d1 de7b                 MOVIA 0x84
000001d2 ff6f                 MOVAR 0x10
000001d3 fd6c                 CLRR 0x13
000001d4 deef                 MOVIA 0x10
000001d5 ff6e                 MOVAR 0x11
000001d6 defc                 MOVIA 0x3
000001d7 ff6b                 MOVAR 0x14
000001d8 e5ef                 BSR 0x10, 0x4
000001d9 de9b                 MOVIA 0x64
000001da d623                 LCALL 0x1dc; _delay=0x1dc
000001db ffef                 RET
000001dc                      _delay:
000001dc ff4b                 MOVAR 0x34
000001dd fd4a                 CLRR 0x35
000001de                      main.o:_00354_DS_:
000001de fecb                 MOVR 0x34, 0x0
000001df fbca                 SUBAR 0x35, 0x0
000001e0 f3fc                 BTRSC 0x3, 0x0
000001e1 c61a                 LGOTO 0x1e5; main.o:_00356_DS_=0x1e5
000001e2 ffff                 NOP
000001e3 fa4a                 INCR 0x35, 0x1
000001e4 c621                 LGOTO 0x1de; main.o:_00354_DS_=0x1de
000001e5                      main.o:_00356_DS_:
000001e5 ffef                 RET
000001e6                      _chrgCtr:
000001e6 f779                 BTRSS 0x6, 0x1
000001e7 c602                 LGOTO 0x1fd; main.o:_00345_DS_=0x1fd
000001e8 e63a                 BSR 0x45, 0x3
000001e9 fd36                 CLRR 0x49
000001ea d5be                 LCALL 0x241; _pwmStop=0x241
000001eb defb                 MOVIA 0x4
000001ec fbaf                 SUBAR 0x50, 0x0
000001ed f7fc                 BTRSS 0x3, 0x0
000001ee c60d                 LGOTO 0x1f2; main.o:_00340_DS_=0x1f2
000001ef defb                 MOVIA 0x4
000001f0 ff35                 MOVAR 0x4a
000001f1 c5fc                 LGOTO 0x203; main.o:_00347_DS_=0x203
000001f2                      main.o:_00340_DS_:
000001f2 feb8                 MOVR 0x47, 0x0
000001f3 f6fc                 BTRSS 0x3, 0x2
000001f4 c5fc                 LGOTO 0x203; main.o:_00347_DS_=0x203
000001f5 fa35                 INCR 0x4a, 0x1
000001f6 defa                 MOVIA 0x5
000001f7 fbb5                 SUBAR 0x4a, 0x0
000001f8 f7fc                 BTRSS 0x3, 0x0
000001f9 c5fc                 LGOTO 0x203; main.o:_00347_DS_=0x203
000001fa f9af                 DECR 0x50, 0x0
000001fb ff35                 MOVAR 0x4a
000001fc c5fc                 LGOTO 0x203; main.o:_00347_DS_=0x203
000001fd                      main.o:_00345_DS_:
000001fd feb6                 MOVR 0x49, 0x0
000001fe f2fc                 BTRSC 0x3, 0x2
000001ff fd35                 CLRR 0x4a
00000200 e23a                 BCR 0x45, 0x3
00000201 fd2e                 CLRR 0x51
00000202 fd2d                 CLRR 0x52
00000203                      main.o:_00347_DS_:
00000203 ffef                 RET
00000204                      _keyRead:
00000204 ff4c                 MOVAR 0x33
00000205 fecc                 MOVR 0x33, 0x0
00000206 f2fc                 BTRSC 0x3, 0x2
00000207 c5eb                 LGOTO 0x214; main.o:_00328_DS_=0x214
00000208 fa37                 INCR 0x48, 0x1
00000209 de9b                 MOVIA 0x64
0000020a fbb7                 SUBAR 0x48, 0x0
0000020b f7fc                 BTRSS 0x3, 0x0
0000020c c5db                 LGOTO 0x224; main.o:_00329_DS_=0x224
0000020d de9b                 MOVIA 0x64
0000020e ff37                 MOVAR 0x48
0000020f f33a                 BTRSC 0x45, 0x1
00000210 c5db                 LGOTO 0x224; main.o:_00329_DS_=0x224
00000211 e73a                 BSR 0x45, 0x1
00000212 defd                 MOVIA 0x2
00000213 c5da                 LGOTO 0x225; main.o:_00330_DS_=0x225
00000214                      main.o:_00328_DS_:
00000214 de9b                 MOVIA 0x64
00000215 fbb7                 SUBAR 0x48, 0x0
00000216 f7fc                 BTRSS 0x3, 0x0
00000217 c5e3                 LGOTO 0x21c; main.o:_00325_DS_=0x21c
00000218 fd37                 CLRR 0x48
00000219 e33a                 BCR 0x45, 0x1
0000021a deff                 MOVIA 0x0
0000021b c5da                 LGOTO 0x225; main.o:_00330_DS_=0x225
0000021c                      main.o:_00325_DS_:
0000021c def7                 MOVIA 0x8
0000021d fbb7                 SUBAR 0x48, 0x0
0000021e f7fc                 BTRSS 0x3, 0x0
0000021f c5dc                 LGOTO 0x223; main.o:_00326_DS_=0x223
00000220 fd37                 CLRR 0x48
00000221 defe                 MOVIA 0x1
00000222 c5da                 LGOTO 0x225; main.o:_00330_DS_=0x225
00000223                      main.o:_00326_DS_:
00000223 fd37                 CLRR 0x48
00000224                      main.o:_00329_DS_:
00000224 deff                 MOVIA 0x0
00000225                      main.o:_00330_DS_:
00000225 ffef                 RET
00000226                      _gotoSleep:
00000226 d587                 LCALL 0x278; _LedInput=0x278
00000227 fd2c                 CLRR 0x53
00000228 fd2b                 CLRR 0x54
00000229 d5be                 LCALL 0x241; _pwmStop=0x241
0000022a fd36                 CLRR 0x49
0000022b de9f                 MOVIA 0x60
0000022c ff6a                 MOVAR 0x15
0000022d fd32                 CLRR 0x4d
0000022e fd31                 CLRR 0x4e
0000022f fd34                 CLRR 0x4b
00000230 fd33                 CLRR 0x4c
00000231 e2ba                 BCR 0x45, 0x2
00000232 def4                 MOVIA 0xb
00000233 ff71                 MOVAR 0xe
00000234 dee7                 MOVIA 0x18
00000235 ff77                 MOVAR 0x8
00000236 fd70                 CLRR 0xf
00000237 fffd                 CLRWDT
00000238 fffb                 ENI
00000239 fffe                 SLEEP
0000023a fd6a                 CLRR 0x15
0000023b defe                 MOVIA 0x1
0000023c ff71                 MOVAR 0xe
0000023d fd70                 CLRR 0xf
0000023e de47                 MOVIA 0xb8
0000023f ff77                 MOVAR 0x8
00000240 ffef                 RET
00000241                      _pwmStop:
00000241 fdff                 CLRA
00000242 ffb5                 SFUN 0xa
00000243 ffef                 RET
00000244                      _pwmInit:
00000244 ff95                 SFUNR 0xa
00000245 ff4d                 MOVAR 0x32
00000246 f04d                 BTRSC 0x32, 0x7
00000247 c5b0                 LGOTO 0x24f; main.o:_00305_DS_=0x24f
00000248 fd66                 CLRR 0x19
00000249 de7f                 MOVIA 0x80
0000024a ffb6                 SFUN 0x9
0000024b fdff                 CLRA
0000024c ffb4                 SFUN 0xb
0000024d de7c                 MOVIA 0x83
0000024e ffb5                 SFUN 0xa
0000024f                      main.o:_00305_DS_:
0000024f ffef                 RET
00000250                      _LED4ON:
00000250 ffe9                 IOSTR 0x6
00000251 ff4e                 MOVAR 0x31
00000252 e24e                 BCR 0x31, 0x3
00000253 fece                 MOVR 0x31, 0x0
00000254 fff9                 IOST 0x6
00000255 e679                 BSR 0x6, 0x3
00000256 de9b                 MOVIA 0x64
00000257 d623                 LCALL 0x1dc; _delay=0x1dc
00000258 d587                 LCALL 0x278; _LedInput=0x278
00000259 ffef                 RET
0000025a                      _LED3ON:
0000025a ffea                 IOSTR 0x5
0000025b ff4f                 MOVAR 0x30
0000025c e04f                 BCR 0x30, 0x7
0000025d fecf                 MOVR 0x30, 0x0
0000025e fffa                 IOST 0x5
0000025f e47a                 BSR 0x5, 0x7
00000260 de9b                 MOVIA 0x64
00000261 d623                 LCALL 0x1dc; _delay=0x1dc
00000262 d587                 LCALL 0x278; _LedInput=0x278
00000263 ffef                 RET
00000264                      _LED2ON:
00000264 ffea                 IOSTR 0x5
00000265 ff50                 MOVAR 0x2f
00000266 e350                 BCR 0x2f, 0x1
00000267 fed0                 MOVR 0x2f, 0x0
00000268 fffa                 IOST 0x5
00000269 e77a                 BSR 0x5, 0x1
0000026a de9b                 MOVIA 0x64
0000026b d623                 LCALL 0x1dc; _delay=0x1dc
0000026c d587                 LCALL 0x278; _LedInput=0x278
0000026d ffef                 RET
0000026e                      _LED1ON:
0000026e ffea                 IOSTR 0x5
0000026f ff51                 MOVAR 0x2e
00000270 e3d1                 BCR 0x2e, 0x0
00000271 fed1                 MOVR 0x2e, 0x0
00000272 fffa                 IOST 0x5
00000273 e7fa                 BSR 0x5, 0x0
00000274 de9b                 MOVIA 0x64
00000275 d623                 LCALL 0x1dc; _delay=0x1dc
00000276 d587                 LCALL 0x278; _LedInput=0x278
00000277 ffef                 RET
00000278                      _LedInput:
00000278 ffea                 IOSTR 0x5
00000279 ff52                 MOVAR 0x2d
0000027a de7c                 MOVIA 0x83
0000027b ee52                 IORAR 0x2d, 0x1
0000027c fed2                 MOVR 0x2d, 0x0
0000027d fffa                 IOST 0x5
0000027e ffe9                 IOSTR 0x6
0000027f ff52                 MOVAR 0x2d
00000280 e652                 BSR 0x2d, 0x3
00000281 fed2                 MOVR 0x2d, 0x0
00000282 fff9                 IOST 0x6
00000283 de83                 MOVIA 0x7c
00000284 ef7a                 ANDAR 0x5, 0x1
00000285 e279                 BCR 0x6, 0x3
00000286 ffef                 RET
00000287                      _ledShow:
00000287 def5                 MOVIA 0xa
00000288 fba5                 SUBAR 0x5a, 0x0
00000289 f3fc                 BTRSC 0x3, 0x0
0000028a c570                 LGOTO 0x28f; main.o:_00254_DS_=0x28f
0000028b fea3                 MOVR 0x5c, 0x0
0000028c dbfe                 XORIA 0x1
0000028d f6fc                 BTRSS 0x3, 0x2
0000028e c565                 LGOTO 0x29a; main.o:_00252_DS_=0x29a
0000028f                      main.o:_00254_DS_:
0000028f feb6                 MOVR 0x49, 0x0
00000290 f2fc                 BTRSC 0x3, 0x2
00000291 c565                 LGOTO 0x29a; main.o:_00252_DS_=0x29a
00000292 decd                 MOVIA 0x32
00000293 fba9                 SUBAR 0x56, 0x0
00000294 f3fc                 BTRSC 0x3, 0x0
00000295 c566                 LGOTO 0x299; main.o:_00249_DS_=0x299
00000296 feb6                 MOVR 0x49, 0x0
00000297 ff35                 MOVAR 0x4a
00000298 c565                 LGOTO 0x29a; main.o:_00252_DS_=0x29a
00000299                      main.o:_00249_DS_:
00000299 fd35                 CLRR 0x4a
0000029a                      main.o:_00252_DS_:
0000029a d587                 LCALL 0x278; _LedInput=0x278
0000029b defa                 MOVIA 0x5
0000029c fbb5                 SUBAR 0x4a, 0x0
0000029d f3fc                 BTRSC 0x3, 0x0
0000029e c54e                 LGOTO 0x2b1; main.o:_00261_DS_=0x2b1
0000029f defd                 MOVIA 0x2
000002a0 ff75                 MOVAR 0xa
000002a1 feb5                 MOVR 0x4a, 0x0
000002a2 da59                 ADDIA 0xa6
000002a3 f3fc                 BTRSC 0x3, 0x0
000002a4 fa75                 INCR 0xa, 0x1
000002a5 ff7d                 MOVAR 0x2
000002a6                      main.o:_00278_DS_:
000002a6 c554                 LGOTO 0x2ab; main.o:_00255_DS_=0x2ab
000002a7 c54f                 LGOTO 0x2b0; main.o:_00259_DS_=0x2b0
000002a8 c550                 LGOTO 0x2af; main.o:_00258_DS_=0x2af
000002a9 c551                 LGOTO 0x2ae; main.o:_00257_DS_=0x2ae
000002aa c552                 LGOTO 0x2ad; main.o:_00256_DS_=0x2ad
000002ab                      main.o:_00255_DS_:
000002ab d587                 LCALL 0x278; _LedInput=0x278
000002ac c54e                 LGOTO 0x2b1; main.o:_00261_DS_=0x2b1
000002ad                      main.o:_00256_DS_:
000002ad d5af                 LCALL 0x250; _LED4ON=0x250
000002ae                      main.o:_00257_DS_:
000002ae d5a5                 LCALL 0x25a; _LED3ON=0x25a
000002af                      main.o:_00258_DS_:
000002af d59b                 LCALL 0x264; _LED2ON=0x264
000002b0                      main.o:_00259_DS_:
000002b0 d591                 LCALL 0x26e; _LED1ON=0x26e
000002b1                      main.o:_00261_DS_:
000002b1 ffef                 RET
000002b2                      _initSys:
000002b2 ffec                 DISI
000002b3 de87                 MOVIA 0x78
000002b4 fffa                 IOST 0x5
000002b5 defc                 MOVIA 0x3
000002b6 fff9                 IOST 0x6
000002b7 fd79                 CLRR 0x6
000002b8 fd7a                 CLRR 0x5
000002b9 de60                 MOVIA 0x9f
000002ba fff6                 IOST 0x9
000002bb de00                 MOVIA 0xff
000002bc ff73                 MOVAR 0xc
000002bd de20                 MOVIA 0xdf
000002be ff74                 MOVAR 0xb
000002bf defe                 MOVIA 0x1
000002c0 ff71                 MOVAR 0xe
000002c1 fdff                 CLRA
000002c2 fff0                 IOST 0xf
000002c3 dec8                 MOVIA 0x37
000002c4 ff7e                 MOVAR 0x1
000002c5 fdff                 CLRA
000002c6 fffc                 T0MD
000002c7 defe                 MOVIA 0x1
000002c8 fff0                 IOST 0xf
000002c9 de67                 MOVIA 0x98
000002ca ff77                 MOVAR 0x8
000002cb defe                 MOVIA 0x1
000002cc fff0                 IOST 0xf
000002cd fffb                 ENI
000002ce ffef                 RET
000002cf                      _powerOff:
000002cf fd36                 CLRR 0x49
000002d0 d5be                 LCALL 0x241; _pwmStop=0x241
000002d1 defa                 MOVIA 0x5
000002d2 ff35                 MOVAR 0x4a
000002d3 defd                 MOVIA 0x2
000002d4 ff21                 MOVAR 0x5e
000002d5 ffef                 RET
000002d6                      _keyCtr:
000002d6 f8fa                 COMR 0x5, 0x0
000002d7 ff53                 MOVAR 0x2c
000002d8 debf                 MOVIA 0x40
000002d9 ef53                 ANDAR 0x2c, 0x1
000002da fed3                 MOVR 0x2c, 0x0
000002db d5fb                 LCALL 0x204; _keyRead=0x204
000002dc ff53                 MOVAR 0x2c
000002dd dbfe                 XORIA 0x1
000002de f6fc                 BTRSS 0x3, 0x2
000002df c4d9                 LGOTO 0x326; main.o:_00233_DS_=0x326
000002e0 fd38                 CLRR 0x47
000002e1 fd26                 CLRR 0x59
000002e2 fa36                 INCR 0x49, 0x1
000002e3 defa                 MOVIA 0x5
000002e4 fbb6                 SUBAR 0x49, 0x0
000002e5 f3fc                 BTRSC 0x3, 0x0
000002e6 fd36                 CLRR 0x49
000002e7 feb6                 MOVR 0x49, 0x0
000002e8 f6fc                 BTRSS 0x3, 0x2
000002e9 c513                 LGOTO 0x2ec; main.o:_00215_DS_=0x2ec
000002ea d530                 LCALL 0x2cf; _powerOff=0x2cf
000002eb c4f6                 LGOTO 0x309; main.o:_00216_DS_=0x309
000002ec                      main.o:_00215_DS_:
000002ec feb6                 MOVR 0x49, 0x0
000002ed dbfe                 XORIA 0x1
000002ee f6fc                 BTRSS 0x3, 0x2
000002ef c50a                 LGOTO 0x2f5; main.o:_00212_DS_=0x2f5
000002f0 de96                 MOVIA 0x69
000002f1 ff30                 MOVAR 0x4f
000002f2 de82                 MOVIA 0x7d
000002f3 ff22                 MOVAR 0x5d
000002f4 c4f6                 LGOTO 0x309; main.o:_00216_DS_=0x309
000002f5                      main.o:_00212_DS_:
000002f5 feb6                 MOVR 0x49, 0x0
000002f6 dbfd                 XORIA 0x2
000002f7 f6fc                 BTRSS 0x3, 0x2
000002f8 c503                 LGOTO 0x2fc; main.o:_00209_DS_=0x2fc
000002f9 de8e                 MOVIA 0x71
000002fa ff30                 MOVAR 0x4f
000002fb c4f6                 LGOTO 0x309; main.o:_00216_DS_=0x309
000002fc                      main.o:_00209_DS_:
000002fc feb6                 MOVR 0x49, 0x0
000002fd dbfc                 XORIA 0x3
000002fe f6fc                 BTRSS 0x3, 0x2
000002ff c4fc                 LGOTO 0x303; main.o:_00206_DS_=0x303
00000300 de87                 MOVIA 0x78
00000301 ff30                 MOVAR 0x4f
00000302 c4f6                 LGOTO 0x309; main.o:_00216_DS_=0x309
00000303                      main.o:_00206_DS_:
00000303 feb6                 MOVR 0x49, 0x0
00000304 dbfb                 XORIA 0x4
00000305 f6fc                 BTRSS 0x3, 0x2
00000306 c4f6                 LGOTO 0x309; main.o:_00216_DS_=0x309
00000307 de7f                 MOVIA 0x80
00000308 ff30                 MOVAR 0x4f
00000309                      main.o:_00216_DS_:
00000309 feb6                 MOVR 0x49, 0x0
0000030a f2fc                 BTRSC 0x3, 0x2
0000030b c4dc                 LGOTO 0x323; main.o:_00226_DS_=0x323
0000030c feaf                 MOVR 0x50, 0x0
0000030d f2fc                 BTRSC 0x3, 0x2
0000030e c4e6                 LGOTO 0x319; main.o:_00220_DS_=0x319
0000030f defc                 MOVIA 0x3
00000310 fbaf                 SUBAR 0x50, 0x0
00000311 f3fc                 BTRSC 0x3, 0x0
00000312 c4e6                 LGOTO 0x319; main.o:_00220_DS_=0x319
00000313 de83                 MOVIA 0x7c
00000314 fbb0                 SUBAR 0x4f, 0x0
00000315 f3fc                 BTRSC 0x3, 0x0
00000316 c4e6                 LGOTO 0x319; main.o:_00220_DS_=0x319
00000317 defb                 MOVIA 0x4
00000318 fc30                 ADDAR 0x4f, 0x1
00000319                      main.o:_00220_DS_:
00000319 feb6                 MOVR 0x49, 0x0
0000031a dbfe                 XORIA 0x1
0000031b f6fc                 BTRSS 0x3, 0x2
0000031c c4df                 LGOTO 0x320; main.o:_00223_DS_=0x320
0000031d de82                 MOVIA 0x7d
0000031e ffb3                 SFUN 0xc
0000031f c4dd                 LGOTO 0x322; main.o:_00224_DS_=0x322
00000320                      main.o:_00223_DS_:
00000320 feb0                 MOVR 0x4f, 0x0
00000321 ffb3                 SFUN 0xc
00000322                      main.o:_00224_DS_:
00000322 d5bb                 LCALL 0x244; _pwmInit=0x244
00000323                      main.o:_00226_DS_:
00000323 feb6                 MOVR 0x49, 0x0
00000324 ff35                 MOVAR 0x4a
00000325 c4c5                 LGOTO 0x33a; main.o:_00235_DS_=0x33a
00000326                      main.o:_00233_DS_:
00000326 fed3                 MOVR 0x2c, 0x0
00000327 dbfd                 XORIA 0x2
00000328 f6fc                 BTRSS 0x3, 0x2
00000329 c4c5                 LGOTO 0x33a; main.o:_00235_DS_=0x33a
0000032a feb6                 MOVR 0x49, 0x0
0000032b f2fc                 BTRSC 0x3, 0x2
0000032c c4d0                 LGOTO 0x32f; main.o:_00228_DS_=0x32f
0000032d d530                 LCALL 0x2cf; _powerOff=0x2cf
0000032e c4c7                 LGOTO 0x338; main.o:_00229_DS_=0x338
0000032f                      main.o:_00228_DS_:
0000032f defe                 MOVIA 0x1
00000330 ff36                 MOVAR 0x49
00000331 de82                 MOVIA 0x7d
00000332 ffb3                 SFUN 0xc
00000333 de96                 MOVIA 0x69
00000334 ff30                 MOVAR 0x4f
00000335 de82                 MOVIA 0x7d
00000336 ff22                 MOVAR 0x5d
00000337 d5bb                 LCALL 0x244; _pwmInit=0x244
00000338                      main.o:_00229_DS_:
00000338 feb6                 MOVR 0x49, 0x0
00000339 ff35                 MOVAR 0x4a
0000033a                      main.o:_00235_DS_:
0000033a ffef                 RET
0000033b                      ___cinit_load__:
