00000000 c7fe                 LGOTO 0x1; __nyc_ny8_startup=0x1
00000001                      __nyc_ny8_startup:
00000001 d328                 LCALL 0x4d7; ___cinit_load__=0x4d7
00000002 c79f                 LGOTO 0x60; _main=0x60
00000003                      main.o:_00772_DS_:
00000003 f56f                 BTRSS 0x10, 0x5
00000004 c7fc                 LGOTO 0x3; main.o:_00772_DS_=0x3
00000005 ffef                 RET
00000008 c7f6                 LGOTO 0x9; main.o:__sdcc_interrupt=0x9
00000009                      main.o:__sdcc_interrupt:
00000009 ff5d                 MOVAR 0x22
0000000a eafc                 SWAPR 0x3, 0x0
0000000b fd7c                 CLRR 0x3
0000000c ff5e                 MOVAR 0x21
0000000d fef5                 MOVR 0xa, 0x0
0000000e fd75                 CLRR 0xa
0000000f ff5f                 MOVAR 0x20
00000010 fefb                 MOVR 0x4, 0x0
00000011 ff32                 MOVAR 0x4d
00000012 fed8                 MOVR 0x27, 0x0
00000013 ff31                 MOVAR 0x4e
00000014 fed9                 MOVR 0x26, 0x0
00000015 ff30                 MOVAR 0x4f
00000016 f7f0                 BTRSS 0xf, 0x0
00000017 c7b2                 LGOTO 0x4d; main.o:_00126_DS_=0x4d
00000018 dec8                 MOVIA 0x37
00000019 fc7e                 ADDAR 0x1, 0x1
0000001a fa2e                 INCR 0x51, 0x1
0000001b de9b                 MOVIA 0x64
0000001c fbae                 SUBAR 0x51, 0x0
0000001d f7fc                 BTRSS 0x3, 0x0
0000001e c7b2                 LGOTO 0x4d; main.o:_00126_DS_=0x4d
0000001f e7af                 BSR 0x50, 0x0
00000020 fd2e                 CLRR 0x51
00000021 fa2d                 INCR 0x52, 0x1
00000022 ded7                 MOVIA 0x28
00000023 fbad                 SUBAR 0x52, 0x0
00000024 f3fc                 BTRSC 0x3, 0x0
00000025 fd2d                 CLRR 0x52
00000026 fa23                 INCR 0x5c, 0x1
00000027 deeb                 MOVIA 0x14
00000028 fba3                 SUBAR 0x5c, 0x0
00000029 f7fc                 BTRSS 0x3, 0x0
0000002a c7d0                 LGOTO 0x2f; main.o:_00110_DS_=0x2f
0000002b fd23                 CLRR 0x5c
0000002c fe92                 MOVR 0x6d, 0x0
0000002d f6fc                 BTRSS 0x3, 0x2
0000002e f912                 DECR 0x6d, 0x1
0000002f                      main.o:_00110_DS_:
0000002f fa22                 INCR 0x5d, 0x1
00000030 de9b                 MOVIA 0x64
00000031 fba2                 SUBAR 0x5d, 0x0
00000032 f7fc                 BTRSS 0x3, 0x0
00000033 c7b2                 LGOTO 0x4d; main.o:_00126_DS_=0x4d
00000034 fd22                 CLRR 0x5d
00000035 f62f                 BTRSS 0x50, 0x3
00000036 c7c1                 LGOTO 0x3e; main.o:_00112_DS_=0x3e
00000037 fea8                 MOVR 0x57, 0x0
00000038 dbf9                 XORIA 0x6
00000039 f6fc                 BTRSS 0x3, 0x2
0000003a c7c1                 LGOTO 0x3e; main.o:_00112_DS_=0x3e
0000003b fa27                 INCR 0x58, 0x1
0000003c f2fc                 BTRSC 0x3, 0x2
0000003d fa26                 INCR 0x59, 0x1
0000003e                      main.o:_00112_DS_:
0000003e fe9d                 MOVR 0x62, 0x0
0000003f f6fc                 BTRSS 0x3, 0x2
00000040 f91d                 DECR 0x62, 0x1
00000041 fe99                 MOVR 0x66, 0x0
00000042 f6fc                 BTRSS 0x3, 0x2
00000043 f919                 DECR 0x66, 0x1
00000044 feab                 MOVR 0x54, 0x0
00000045 f2fc                 BTRSC 0x3, 0x2
00000046 c7b4                 LGOTO 0x4b; main.o:_00119_DS_=0x4b
00000047 fa21                 INCR 0x5e, 0x1
00000048 f2fc                 BTRSC 0x3, 0x2
00000049 fa20                 INCR 0x5f, 0x1
0000004a c7b2                 LGOTO 0x4d; main.o:_00126_DS_=0x4d
0000004b                      main.o:_00119_DS_:
0000004b fd21                 CLRR 0x5e
0000004c fd20                 CLRR 0x5f
0000004d                      main.o:_00126_DS_:
0000004d f770                 BTRSS 0xf, 0x1
0000004e c7ae                 LGOTO 0x51; main.o:_00128_DS_=0x51
0000004f de02                 MOVIA 0xfd
00000050 ff70                 MOVAR 0xf
00000051                      main.o:_00128_DS_:
00000051 fd70                 CLRR 0xf
00000052 feb0                 MOVR 0x4f, 0x0
00000053 ff59                 MOVAR 0x26
00000054 feb1                 MOVR 0x4e, 0x0
00000055 ff58                 MOVAR 0x27
00000056 feb2                 MOVR 0x4d, 0x0
00000057 ff7b                 MOVAR 0x4
00000058 fedf                 MOVR 0x20, 0x0
00000059                      ___cinit_size__:
00000059 ff75                 MOVAR 0xa
0000005a fd7c                 CLRR 0x3
0000005b eade                 SWAPR 0x21, 0x0
0000005c ff7c                 MOVAR 0x3
0000005d ea5d                 SWAPR 0x22, 0x1
0000005e eadd                 SWAPR 0x22, 0x0
0000005f                      main.o:END_OF_INTERRUPT:
0000005f ffee                 RETIE
00000060                      _main:
00000060 d3c0                 LCALL 0x43f; _initSys=0x43f
00000061 d5ba                 LCALL 0x245; _initAD=0x245
00000062                      main.o:_00171_DS_:
00000062 fffd                 CLRWDT
00000063 d40d                 LCALL 0x3f2; _ledShow=0x3f2
00000064 feab                 MOVR 0x54, 0x0
00000065 f2fc                 BTRSC 0x3, 0x2
00000066 c78f                 LGOTO 0x70; main.o:_00134_DS_=0x70
00000067 fe9c                 MOVR 0x63, 0x0
00000068 fba9                 SUBAR 0x56, 0x0
00000069 f3fc                 BTRSC 0x3, 0x0
0000006a c78f                 LGOTO 0x70; main.o:_00134_DS_=0x70
0000006b f91c                 DECR 0x63, 0x1
0000006c fe9c                 MOVR 0x63, 0x0
0000006d ffb3                 SFUN 0xc
0000006e fe9c                 MOVR 0x63, 0x0
0000006f ff16                 MOVAR 0x69
00000070                      main.o:_00134_DS_:
00000070 f7af                 BTRSS 0x50, 0x0
00000071 c79d                 LGOTO 0x62; main.o:_00171_DS_=0x62
00000072 e3af                 BCR 0x50, 0x0
00000073 fe99                 MOVR 0x66, 0x0
00000074 f6fc                 BTRSS 0x3, 0x2
00000075 c772                 LGOTO 0x8d; main.o:_00141_DS_=0x8d
00000076 fea8                 MOVR 0x57, 0x0
00000077 f6fc                 BTRSS 0x3, 0x2
00000078 c772                 LGOTO 0x8d; main.o:_00141_DS_=0x8d
00000079 feab                 MOVR 0x54, 0x0
0000007a f2fc                 BTRSC 0x3, 0x2
0000007b c772                 LGOTO 0x8d; main.o:_00141_DS_=0x8d
0000007c fa10                 INCR 0x6f, 0x1
0000007d f2fc                 BTRSC 0x3, 0x2
0000007e fa0f                 INCR 0x70, 0x1
0000007f defc                 MOVIA 0x3
00000080 fb8f                 SUBAR 0x70, 0x0
00000081 f6fc                 BTRSS 0x3, 0x2
00000082 c77a                 LGOTO 0x85; main.o:_00245_DS_=0x85
00000083 de17                 MOVIA 0xe8
00000084 fb90                 SUBAR 0x6f, 0x0
00000085                      main.o:_00245_DS_:
00000085 f7fc                 BTRSS 0x3, 0x0
00000086 c770                 LGOTO 0x8f; main.o:_00142_DS_=0x8f
00000087 fd10                 CLRR 0x6f
00000088 fd0f                 CLRR 0x70
00000089 fd2b                 CLRR 0x54
0000008a fd2a                 CLRR 0x55
0000008b d49c                 LCALL 0x363; _pwmStop=0x363
0000008c c770                 LGOTO 0x8f; main.o:_00142_DS_=0x8f
0000008d                      main.o:_00141_DS_:
0000008d fd10                 CLRR 0x6f
0000008e fd0f                 CLRR 0x70
0000008f                      main.o:_00142_DS_:
0000008f defa                 MOVIA 0x5
00000090 fb9e                 SUBAR 0x61, 0x0
00000091 f7fc                 BTRSS 0x3, 0x0
00000092 c757                 LGOTO 0xa8; main.o:_00148_DS_=0xa8
00000093 feab                 MOVR 0x54, 0x0
00000094 f2fc                 BTRSC 0x3, 0x2
00000095 c757                 LGOTO 0xa8; main.o:_00148_DS_=0xa8
00000096 fa14                 INCR 0x6b, 0x1
00000097 f2fc                 BTRSC 0x3, 0x2
00000098 fa13                 INCR 0x6c, 0x1
00000099 defe                 MOVIA 0x1
0000009a fb93                 SUBAR 0x6c, 0x0
0000009b f6fc                 BTRSS 0x3, 0x2
0000009c c760                 LGOTO 0x9f; main.o:_00247_DS_=0x9f
0000009d de0a                 MOVIA 0xf5
0000009e fb94                 SUBAR 0x6b, 0x0
0000009f                      main.o:_00247_DS_:
0000009f f7fc                 BTRSS 0x3, 0x0
000000a0 c755                 LGOTO 0xaa; main.o:_00149_DS_=0xaa
000000a1 fd1e                 CLRR 0x61
000000a2 fd14                 CLRR 0x6b
000000a3 fd13                 CLRR 0x6c
000000a4 dee6                 MOVIA 0x19
000000a5 ff12                 MOVAR 0x6d
000000a6 d3a4                 LCALL 0x45b; _powerOff=0x45b
000000a7 c755                 LGOTO 0xaa; main.o:_00149_DS_=0xaa
000000a8                      main.o:_00148_DS_:
000000a8 fd14                 CLRR 0x6b
000000a9 fd13                 CLRR 0x6c
000000aa                      main.o:_00149_DS_:
000000aa f22f                 BTRSC 0x50, 0x3
000000ab c752                 LGOTO 0xad; main.o:_00152_DS_=0xad
000000ac d3a1                 LCALL 0x45e; _keyCtr=0x45e
000000ad                      main.o:_00152_DS_:
000000ad defc                 MOVIA 0x3
000000ae fba3                 SUBAR 0x5c, 0x0
000000af f3fc                 BTRSC 0x3, 0x0
000000b0 c74c                 LGOTO 0xb3; main.o:_00157_DS_=0xb3
000000b1 d65c                 LCALL 0x1a3; _checkBatAD=0x1a3
000000b2 c744                 LGOTO 0xbb; main.o:_00158_DS_=0xbb
000000b3                      main.o:_00157_DS_:
000000b3 def9                 MOVIA 0x6
000000b4 fba3                 SUBAR 0x5c, 0x0
000000b5 f7fc                 BTRSS 0x3, 0x0
000000b6 c744                 LGOTO 0xbb; main.o:_00158_DS_=0xbb
000000b7 deec                 MOVIA 0x13
000000b8 fba3                 SUBAR 0x5c, 0x0
000000b9 f7fc                 BTRSS 0x3, 0x0
000000ba d6db                 LCALL 0x124; _checkOutA=0x124
000000bb                      main.o:_00158_DS_:
000000bb d5a5                 LCALL 0x25a; _chrgCtr=0x25a
000000bc feab                 MOVR 0x54, 0x0
000000bd f6fc                 BTRSS 0x3, 0x2
000000be c726                 LGOTO 0xd9; main.o:_00162_DS_=0xd9
000000bf feac                 MOVR 0x53, 0x0
000000c0 f6fc                 BTRSS 0x3, 0x2
000000c1 c726                 LGOTO 0xd9; main.o:_00162_DS_=0xd9
000000c2 f27a                 BTRSC 0x5, 0x3
000000c3 c726                 LGOTO 0xd9; main.o:_00162_DS_=0xd9
000000c4 fe9d                 MOVR 0x62, 0x0
000000c5 f6fc                 BTRSS 0x3, 0x2
000000c6 c726                 LGOTO 0xd9; main.o:_00162_DS_=0xd9
000000c7 fe92                 MOVR 0x6d, 0x0
000000c8 f6fc                 BTRSS 0x3, 0x2
000000c9 c726                 LGOTO 0xd9; main.o:_00162_DS_=0xd9
000000ca fe99                 MOVR 0x66, 0x0
000000cb f6fc                 BTRSS 0x3, 0x2
000000cc c726                 LGOTO 0xd9; main.o:_00162_DS_=0xd9
000000cd fa25                 INCR 0x5a, 0x1
000000ce f2fc                 BTRSC 0x3, 0x2
000000cf fa24                 INCR 0x5b, 0x1
000000d0 deff                 MOVIA 0x0
000000d1 fba4                 SUBAR 0x5b, 0x0
000000d2 f6fc                 BTRSS 0x3, 0x2
000000d3 c729                 LGOTO 0xd6; main.o:_00251_DS_=0xd6
000000d4 deea                 MOVIA 0x15
000000d5 fba5                 SUBAR 0x5a, 0x0
000000d6                      main.o:_00251_DS_:
000000d6 f7fc                 BTRSS 0x3, 0x0
000000d7 c726                 LGOTO 0xd9; main.o:_00162_DS_=0xd9
000000d8 d4c3                 LCALL 0x33c; _gotoSleep=0x33c
000000d9                      main.o:_00162_DS_:
000000d9 defc                 MOVIA 0x3
000000da fba0                 SUBAR 0x5f, 0x0
000000db f6fc                 BTRSS 0x3, 0x2
000000dc c720                 LGOTO 0xdf; main.o:_00252_DS_=0xdf
000000dd de7b                 MOVIA 0x84
000000de fba1                 SUBAR 0x5e, 0x0
000000df                      main.o:_00252_DS_:
000000df f7fc                 BTRSS 0x3, 0x0
000000e0 c79d                 LGOTO 0x62; main.o:_00171_DS_=0x62
000000e1 d3a4                 LCALL 0x45b; _powerOff=0x45b
000000e2 c79d                 LGOTO 0x62; main.o:_00171_DS_=0x62
000000e3 ffef                 RET
000000e4                      _F_AIN2_Convert:
000000e4 ff36                 MOVAR 0x49
000000e5 fd52                 CLRR 0x2d
000000e6 fd54                 CLRR 0x2b
000000e7 fd53                 CLRR 0x2c
000000e8 de6d                 MOVIA 0x92
000000e9 ff6f                 MOVAR 0x10
000000ea de37                 MOVIA 0xc8
000000eb d5af                 LCALL 0x250; _delay=0x250
000000ec defe                 MOVIA 0x1
000000ed ff35                 MOVAR 0x4a
000000ee                      main.o:_00765_DS_:
000000ee feb5                 MOVR 0x4a, 0x0
000000ef fbb6                 SUBAR 0x49, 0x0
000000f0 f7fc                 BTRSS 0x3, 0x0
000000f1 c6fc                 LGOTO 0x103; main.o:_00767_DS_=0x103
000000f2 e4ef                 BSR 0x10, 0x6
000000f3 d7fc                 LCALL 0x3; main.o:_00772_DS_=0x3
000000f4 def0                 MOVIA 0xf
000000f5 efee                 ANDAR 0x11, 0x0
000000f6 fc52                 ADDAR 0x2d, 0x1
000000f7 feed                 MOVR 0x12, 0x0
000000f8 ff34                 MOVAR 0x4b
000000f9 deff                 MOVIA 0x0
000000fa ff33                 MOVAR 0x4c
000000fb feb4                 MOVR 0x4b, 0x0
000000fc fc54                 ADDAR 0x2b, 0x1
000000fd feb3                 MOVR 0x4c, 0x0
000000fe f3fc                 BTRSC 0x3, 0x0
000000ff e9b3                 INCRSZ 0x4c, 0x0
00000100 fc53                 ADDAR 0x2c, 0x1
00000101 fa35                 INCR 0x4a, 0x1
00000102 c711                 LGOTO 0xee; main.o:_00765_DS_=0xee
00000103                      main.o:_00767_DS_:
00000103 ffef                 RET
00000104                      _F_AIN4_Convert:
00000104 ff3a                 MOVAR 0x45
00000105 fd55                 CLRR 0x2a
00000106 fd57                 CLRR 0x28
00000107 fd56                 CLRR 0x29
00000108 de6b                 MOVIA 0x94
00000109 ff6f                 MOVAR 0x10
0000010a de37                 MOVIA 0xc8
0000010b d5af                 LCALL 0x250; _delay=0x250
0000010c defe                 MOVIA 0x1
0000010d ff39                 MOVAR 0x46
0000010e                      main.o:_00747_DS_:
0000010e feb9                 MOVR 0x46, 0x0
0000010f fbba                 SUBAR 0x45, 0x0
00000110 f7fc                 BTRSS 0x3, 0x0
00000111 c6dc                 LGOTO 0x123; main.o:_00749_DS_=0x123
00000112 e4ef                 BSR 0x10, 0x6
00000113 d7fc                 LCALL 0x3; main.o:_00772_DS_=0x3
00000114 def0                 MOVIA 0xf
00000115 efee                 ANDAR 0x11, 0x0
00000116 fc55                 ADDAR 0x2a, 0x1
00000117 feed                 MOVR 0x12, 0x0
00000118 ff38                 MOVAR 0x47
00000119 deff                 MOVIA 0x0
0000011a ff37                 MOVAR 0x48
0000011b feb8                 MOVR 0x47, 0x0
0000011c fc57                 ADDAR 0x28, 0x1
0000011d feb7                 MOVR 0x48, 0x0
0000011e f3fc                 BTRSC 0x3, 0x0
0000011f e9b7                 INCRSZ 0x48, 0x0
00000120 fc56                 ADDAR 0x29, 0x1
00000121 fa39                 INCR 0x46, 0x1
00000122 c6f1                 LGOTO 0x10e; main.o:_00747_DS_=0x10e
00000123                      main.o:_00749_DS_:
00000123 ffef                 RET
00000124                      _checkOutA:
00000124 fed7                 MOVR 0x28, 0x0
00000125 ff09                 MOVAR 0x76
00000126 fd55                 CLRR 0x2a
00000127 fd57                 CLRR 0x28
00000128 fd56                 CLRR 0x29
00000129 def7                 MOVIA 0x8
0000012a d6fb                 LCALL 0x104; _F_AIN4_Convert=0x104
0000012b ead6                 SWAPR 0x29, 0x0
0000012c dd0f                 ANDIA 0xf0
0000012d ff56                 MOVAR 0x29
0000012e ead7                 SWAPR 0x28, 0x0
0000012f ff57                 MOVAR 0x28
00000130 ddf0                 ANDIA 0xf
00000131 ee56                 IORAR 0x29, 0x1
00000132 ed57                 XORAR 0x28, 0x1
00000133 de0f                 MOVIA 0xf0
00000134 ef55                 ANDAR 0x2a, 0x1
00000135 fed5                 MOVR 0x2a, 0x0
00000136 ff3e                 MOVAR 0x41
00000137 fd3d                 CLRR 0x42
00000138 febe                 MOVR 0x41, 0x0
00000139 deff                 MOVIA 0x0
0000013a ff3b                 MOVAR 0x44
0000013b febe                 MOVR 0x41, 0x0
0000013c ff3c                 MOVAR 0x43
0000013d fc57                 ADDAR 0x28, 0x1
0000013e febb                 MOVR 0x44, 0x0
0000013f f3fc                 BTRSC 0x3, 0x0
00000140 e9bb                 INCRSZ 0x44, 0x0
00000141 fc56                 ADDAR 0x29, 0x1
00000142 e3fc                 BCR 0x3, 0x0
00000143 ec56                 RRR 0x29, 0x1
00000144 ec57                 RRR 0x28, 0x1
00000145 e3fc                 BCR 0x3, 0x0
00000146 ec56                 RRR 0x29, 0x1
00000147 ec57                 RRR 0x28, 0x1
00000148 e3fc                 BCR 0x3, 0x0
00000149 ec56                 RRR 0x29, 0x1
0000014a ec57                 RRR 0x28, 0x1
0000014b fe84                 MOVR 0x7b, 0x0
0000014c f2fc                 BTRSC 0x3, 0x2
0000014d c6ad                 LGOTO 0x152; main.o:_00682_DS_=0x152
0000014e ded2                 MOVIA 0x2d
0000014f ff57                 MOVAR 0x28
00000150 defe                 MOVIA 0x1
00000151 ff56                 MOVAR 0x29
00000152                      main.o:_00682_DS_:
00000152 fe89                 MOVR 0x76, 0x0
00000153 ff3c                 MOVAR 0x43
00000154 fd3d                 CLRR 0x42
00000155 deff                 MOVIA 0x0
00000156 ff3b                 MOVAR 0x44
00000157 febc                 MOVR 0x43, 0x0
00000158 fcd7                 ADDAR 0x28, 0x0
00000159 ff3e                 MOVAR 0x41
0000015a fed6                 MOVR 0x29, 0x0
0000015b ff3d                 MOVAR 0x42
0000015c febb                 MOVR 0x44, 0x0
0000015d f3fc                 BTRSC 0x3, 0x0
0000015e e9bb                 INCRSZ 0x44, 0x0
0000015f fc3d                 ADDAR 0x42, 0x1
00000160 e3fc                 BCR 0x3, 0x0
00000161 ecbd                 RRR 0x42, 0x0
00000162 ff56                 MOVAR 0x29
00000163 ecbe                 RRR 0x41, 0x0
00000164 ff57                 MOVAR 0x28
00000165 def9                 MOVIA 0x6
00000166 fbab                 SUBAR 0x54, 0x0
00000167 f3fc                 BTRSC 0x3, 0x0
00000168 c684                 LGOTO 0x17b; main.o:_00700_DS_=0x17b
00000169 deff                 MOVIA 0x0
0000016a fbd6                 SUBAR 0x29, 0x0
0000016b f6fc                 BTRSS 0x3, 0x2
0000016c c690                 LGOTO 0x16f; main.o:_00736_DS_=0x16f
0000016d de36                 MOVIA 0xc9
0000016e fbd7                 SUBAR 0x28, 0x0
0000016f                      main.o:_00736_DS_:
0000016f f7fc                 BTRSS 0x3, 0x0
00000170 c684                 LGOTO 0x17b; main.o:_00700_DS_=0x17b
00000171 fa1e                 INCR 0x61, 0x1
00000172 def9                 MOVIA 0x6
00000173 fb9e                 SUBAR 0x61, 0x0
00000174 f7fc                 BTRSS 0x3, 0x0
00000175 c65d                 LGOTO 0x1a2; main.o:_00703_DS_=0x1a2
00000176 defa                 MOVIA 0x5
00000177 ff1e                 MOVAR 0x61
00000178 feab                 MOVR 0x54, 0x0
00000179 ff15                 MOVAR 0x6a
0000017a c65d                 LGOTO 0x1a2; main.o:_00703_DS_=0x1a2
0000017b                      main.o:_00700_DS_:
0000017b defe                 MOVIA 0x1
0000017c fbd6                 SUBAR 0x29, 0x0
0000017d f6fc                 BTRSS 0x3, 0x2
0000017e c67e                 LGOTO 0x181; main.o:_00738_DS_=0x181
0000017f de6e                 MOVIA 0x91
00000180 fbd7                 SUBAR 0x28, 0x0
00000181                      main.o:_00738_DS_:
00000181 f7fc                 BTRSS 0x3, 0x0
00000182 c672                 LGOTO 0x18d; main.o:_00697_DS_=0x18d
00000183 fa1e                 INCR 0x61, 0x1
00000184 def9                 MOVIA 0x6
00000185 fb9e                 SUBAR 0x61, 0x0
00000186 f7fc                 BTRSS 0x3, 0x0
00000187 c65d                 LGOTO 0x1a2; main.o:_00703_DS_=0x1a2
00000188 defa                 MOVIA 0x5
00000189 ff1e                 MOVAR 0x61
0000018a feab                 MOVR 0x54, 0x0
0000018b ff15                 MOVAR 0x6a
0000018c c65d                 LGOTO 0x1a2; main.o:_00703_DS_=0x1a2
0000018d                      main.o:_00697_DS_:
0000018d deff                 MOVIA 0x0
0000018e fbd6                 SUBAR 0x29, 0x0
0000018f f6fc                 BTRSS 0x3, 0x2
00000190 c66c                 LGOTO 0x193; main.o:_00740_DS_=0x193
00000191 ded1                 MOVIA 0x2e
00000192 fbd7                 SUBAR 0x28, 0x0
00000193                      main.o:_00740_DS_:
00000193 f7fc                 BTRSS 0x3, 0x0
00000194 c665                 LGOTO 0x19a; main.o:_00694_DS_=0x19a
00000195 fe9e                 MOVR 0x61, 0x0
00000196 f2fc                 BTRSC 0x3, 0x2
00000197 c65d                 LGOTO 0x1a2; main.o:_00703_DS_=0x1a2
00000198 f91e                 DECR 0x61, 0x1
00000199 c65d                 LGOTO 0x1a2; main.o:_00703_DS_=0x1a2
0000019a                      main.o:_00694_DS_:
0000019a fe9e                 MOVR 0x61, 0x0
0000019b f6fc                 BTRSS 0x3, 0x2
0000019c f91e                 DECR 0x61, 0x1
0000019d feab                 MOVR 0x54, 0x0
0000019e f2fc                 BTRSC 0x3, 0x2
0000019f c65d                 LGOTO 0x1a2; main.o:_00703_DS_=0x1a2
000001a0 feab                 MOVR 0x54, 0x0
000001a1 ff2a                 MOVAR 0x55
000001a2                      main.o:_00703_DS_:
000001a2 ffef                 RET
000001a3                      _checkBatAD:
000001a3 fd52                 CLRR 0x2d
000001a4 fd54                 CLRR 0x2b
000001a5 fd53                 CLRR 0x2c
000001a6 def7                 MOVIA 0x8
000001a7 d71b                 LCALL 0xe4; _F_AIN2_Convert=0xe4
000001a8 ead3                 SWAPR 0x2c, 0x0
000001a9 dd0f                 ANDIA 0xf0
000001aa ff53                 MOVAR 0x2c
000001ab ead4                 SWAPR 0x2b, 0x0
000001ac ff54                 MOVAR 0x2b
000001ad ddf0                 ANDIA 0xf
000001ae ee53                 IORAR 0x2c, 0x1
000001af ed54                 XORAR 0x2b, 0x1
000001b0 de0f                 MOVIA 0xf0
000001b1 ef52                 ANDAR 0x2d, 0x1
000001b2 fed2                 MOVR 0x2d, 0x0
000001b3 ff40                 MOVAR 0x3f
000001b4 deff                 MOVIA 0x0
000001b5 ff3f                 MOVAR 0x40
000001b6 fec0                 MOVR 0x3f, 0x0
000001b7 fc54                 ADDAR 0x2b, 0x1
000001b8 febf                 MOVR 0x40, 0x0
000001b9 f3fc                 BTRSC 0x3, 0x0
000001ba e9bf                 INCRSZ 0x40, 0x0
000001bb fc53                 ADDAR 0x2c, 0x1
000001bc e3fc                 BCR 0x3, 0x0
000001bd ec53                 RRR 0x2c, 0x1
000001be ec54                 RRR 0x2b, 0x1
000001bf e3fc                 BCR 0x3, 0x0
000001c0 ec53                 RRR 0x2c, 0x1
000001c1 ec54                 RRR 0x2b, 0x1
000001c2 e3fc                 BCR 0x3, 0x0
000001c3 ec53                 RRR 0x2c, 0x1
000001c4 ec54                 RRR 0x2b, 0x1
000001c5 fe84                 MOVR 0x7b, 0x0
000001c6 f2fc                 BTRSC 0x3, 0x2
000001c7 c633                 LGOTO 0x1cc; main.o:_00590_DS_=0x1cc
000001c8 def1                 MOVIA 0xe
000001c9 ff54                 MOVAR 0x2b
000001ca def9                 MOVIA 0x6
000001cb ff53                 MOVAR 0x2c
000001cc                      main.o:_00590_DS_:
000001cc def9                 MOVIA 0x6
000001cd fbd3                 SUBAR 0x2c, 0x0
000001ce f6fc                 BTRSS 0x3, 0x2
000001cf c62d                 LGOTO 0x1d2; main.o:_00664_DS_=0x1d2
000001d0 dedc                 MOVIA 0x23
000001d1 fbd4                 SUBAR 0x2b, 0x0
000001d2                      main.o:_00664_DS_:
000001d2 f7fc                 BTRSS 0x3, 0x0
000001d3 c627                 LGOTO 0x1d8; main.o:_00615_DS_=0x1d8
000001d4 fd17                 CLRR 0x68
000001d5 def7                 MOVIA 0x8
000001d6 ff28                 MOVAR 0x57
000001d7 c5cc                 LGOTO 0x233; main.o:_00616_DS_=0x233
000001d8                      main.o:_00615_DS_:
000001d8 defb                 MOVIA 0x4
000001d9 fbd3                 SUBAR 0x2c, 0x0
000001da f6fc                 BTRSS 0x3, 0x2
000001db c621                 LGOTO 0x1de; main.o:_00665_DS_=0x1de
000001dc de81                 MOVIA 0x7e
000001dd fbd4                 SUBAR 0x2b, 0x0
000001de                      main.o:_00665_DS_:
000001de f3fc                 BTRSC 0x3, 0x0
000001df c612                 LGOTO 0x1ed; main.o:_00612_DS_=0x1ed
000001e0 fa17                 INCR 0x68, 0x1
000001e1 def5                 MOVIA 0xa
000001e2 fb97                 SUBAR 0x68, 0x0
000001e3 f7fc                 BTRSS 0x3, 0x0
000001e4 c5bb                 LGOTO 0x244; main.o:_00623_DS_=0x244
000001e5 def5                 MOVIA 0xa
000001e6 ff17                 MOVAR 0x68
000001e7 fd28                 CLRR 0x57
000001e8 de81                 MOVIA 0x7e
000001e9 ff54                 MOVAR 0x2b
000001ea defb                 MOVIA 0x4
000001eb ff53                 MOVAR 0x2c
000001ec c5cc                 LGOTO 0x233; main.o:_00616_DS_=0x233
000001ed                      main.o:_00612_DS_:
000001ed fd17                 CLRR 0x68
000001ee fd18                 CLRR 0x67
000001ef defb                 MOVIA 0x4
000001f0 fbd3                 SUBAR 0x2c, 0x0
000001f1 f6fc                 BTRSS 0x3, 0x2
000001f2 c60a                 LGOTO 0x1f5; main.o:_00667_DS_=0x1f5
000001f3 de09                 MOVIA 0xf6
000001f4 fbd4                 SUBAR 0x2b, 0x0
000001f5                      main.o:_00667_DS_:
000001f5 f3fc                 BTRSC 0x3, 0x0
000001f6 c605                 LGOTO 0x1fa; main.o:_00609_DS_=0x1fa
000001f7 defe                 MOVIA 0x1
000001f8 ff28                 MOVAR 0x57
000001f9 c5cc                 LGOTO 0x233; main.o:_00616_DS_=0x233
000001fa                      main.o:_00609_DS_:
000001fa defa                 MOVIA 0x5
000001fb fbd3                 SUBAR 0x2c, 0x0
000001fc f6fc                 BTRSS 0x3, 0x2
000001fd c5ff                 LGOTO 0x200; main.o:_00668_DS_=0x200
000001fe dec3                 MOVIA 0x3c
000001ff fbd4                 SUBAR 0x2b, 0x0
00000200                      main.o:_00668_DS_:
00000200 f3fc                 BTRSC 0x3, 0x0
00000201 c5fa                 LGOTO 0x205; main.o:_00606_DS_=0x205
00000202 defd                 MOVIA 0x2
00000203 ff28                 MOVAR 0x57
00000204 c5cc                 LGOTO 0x233; main.o:_00616_DS_=0x233
00000205                      main.o:_00606_DS_:
00000205 defa                 MOVIA 0x5
00000206 fbd3                 SUBAR 0x2c, 0x0
00000207 f6fc                 BTRSS 0x3, 0x2
00000208 c5f4                 LGOTO 0x20b; main.o:_00669_DS_=0x20b
00000209 de91                 MOVIA 0x6e
0000020a fbd4                 SUBAR 0x2b, 0x0
0000020b                      main.o:_00669_DS_:
0000020b f3fc                 BTRSC 0x3, 0x0
0000020c c5ef                 LGOTO 0x210; main.o:_00603_DS_=0x210
0000020d defc                 MOVIA 0x3
0000020e ff28                 MOVAR 0x57
0000020f c5cc                 LGOTO 0x233; main.o:_00616_DS_=0x233
00000210                      main.o:_00603_DS_:
00000210 defa                 MOVIA 0x5
00000211 fbd3                 SUBAR 0x2c, 0x0
00000212 f6fc                 BTRSS 0x3, 0x2
00000213 c5e9                 LGOTO 0x216; main.o:_00670_DS_=0x216
00000214 de55                 MOVIA 0xaa
00000215 fbd4                 SUBAR 0x2b, 0x0
00000216                      main.o:_00670_DS_:
00000216 f3fc                 BTRSC 0x3, 0x0
00000217 c5e4                 LGOTO 0x21b; main.o:_00600_DS_=0x21b
00000218 defb                 MOVIA 0x4
00000219 ff28                 MOVAR 0x57
0000021a c5cc                 LGOTO 0x233; main.o:_00616_DS_=0x233
0000021b                      main.o:_00600_DS_:
0000021b defa                 MOVIA 0x5
0000021c fbd3                 SUBAR 0x2c, 0x0
0000021d f6fc                 BTRSS 0x3, 0x2
0000021e c5de                 LGOTO 0x221; main.o:_00671_DS_=0x221
0000021f de19                 MOVIA 0xe6
00000220 fbd4                 SUBAR 0x2b, 0x0
00000221                      main.o:_00671_DS_:
00000221 f3fc                 BTRSC 0x3, 0x0
00000222 c5d9                 LGOTO 0x226; main.o:_00597_DS_=0x226
00000223 defa                 MOVIA 0x5
00000224 ff28                 MOVAR 0x57
00000225 c5cc                 LGOTO 0x233; main.o:_00616_DS_=0x233
00000226                      main.o:_00597_DS_:
00000226 def9                 MOVIA 0x6
00000227 fbd3                 SUBAR 0x2c, 0x0
00000228 f6fc                 BTRSS 0x3, 0x2
00000229 c5d3                 LGOTO 0x22c; main.o:_00672_DS_=0x22c
0000022a defb                 MOVIA 0x4
0000022b fbd4                 SUBAR 0x2b, 0x0
0000022c                      main.o:_00672_DS_:
0000022c f3fc                 BTRSC 0x3, 0x0
0000022d c5ce                 LGOTO 0x231; main.o:_00594_DS_=0x231
0000022e def9                 MOVIA 0x6
0000022f ff28                 MOVAR 0x57
00000230 c5cc                 LGOTO 0x233; main.o:_00616_DS_=0x233
00000231                      main.o:_00594_DS_:
00000231 def8                 MOVIA 0x7
00000232 ff28                 MOVAR 0x57
00000233                      main.o:_00616_DS_:
00000233 fe8d                 MOVR 0x72, 0x0
00000234 f2fc                 BTRSC 0x3, 0x2
00000235 c5c5                 LGOTO 0x23a; main.o:_00617_DS_=0x23a
00000236 fea8                 MOVR 0x57, 0x0
00000237 fb8d                 SUBAR 0x72, 0x0
00000238 f3fc                 BTRSC 0x3, 0x0
00000239 c5c3                 LGOTO 0x23c; main.o:_00618_DS_=0x23c
0000023a                      main.o:_00617_DS_:
0000023a fea8                 MOVR 0x57, 0x0
0000023b ff0d                 MOVAR 0x72
0000023c                      main.o:_00618_DS_:
0000023c fe9d                 MOVR 0x62, 0x0
0000023d f2fc                 BTRSC 0x3, 0x2
0000023e c5bb                 LGOTO 0x244; main.o:_00623_DS_=0x244
0000023f fe8d                 MOVR 0x72, 0x0
00000240 f2fc                 BTRSC 0x3, 0x2
00000241 c5bb                 LGOTO 0x244; main.o:_00623_DS_=0x244
00000242 fe8d                 MOVR 0x72, 0x0
00000243 ff28                 MOVAR 0x57
00000244                      main.o:_00623_DS_:
00000244 ffef                 RET
00000245                      _initAD:
00000245 de7b                 MOVIA 0x84
00000246 ff6f                 MOVAR 0x10
00000247 fd6c                 CLRR 0x13
00000248 deef                 MOVIA 0x10
00000249 ff6e                 MOVAR 0x11
0000024a defc                 MOVIA 0x3
0000024b ff6b                 MOVAR 0x14
0000024c e5ef                 BSR 0x10, 0x4
0000024d de9b                 MOVIA 0x64
0000024e d5af                 LCALL 0x250; _delay=0x250
0000024f ffef                 RET
00000250                      _delay:
00000250 ff42                 MOVAR 0x3d
00000251 fd41                 CLRR 0x3e
00000252                      main.o:_00578_DS_:
00000252 fec2                 MOVR 0x3d, 0x0
00000253 fbc1                 SUBAR 0x3e, 0x0
00000254 f3fc                 BTRSC 0x3, 0x0
00000255 c5a6                 LGOTO 0x259; main.o:_00580_DS_=0x259
00000256 ffff                 NOP
00000257 fa41                 INCR 0x3e, 0x1
00000258 c5ad                 LGOTO 0x252; main.o:_00578_DS_=0x252
00000259                      main.o:_00580_DS_:
00000259 ffef                 RET
0000025a                      _chrgCtr:
0000025a f67a                 BTRSS 0x5, 0x3
0000025b c4f6                 LGOTO 0x309; main.o:_00498_DS_=0x309
0000025c e62f                 BSR 0x50, 0x3
0000025d fd2b                 CLRR 0x54
0000025e fd1d                 CLRR 0x62
0000025f d49c                 LCALL 0x363; _pwmStop=0x363
00000260 def7                 MOVIA 0x8
00000261 fba8                 SUBAR 0x57, 0x0
00000262 f3fc                 BTRSC 0x3, 0x0
00000263 c598                 LGOTO 0x267; main.o:_00491_DS_=0x267
00000264 fe8a                 MOVR 0x75, 0x0
00000265 f2fc                 BTRSC 0x3, 0x2
00000266 c57c                 LGOTO 0x283; main.o:_00492_DS_=0x283
00000267                      main.o:_00491_DS_:
00000267 def9                 MOVIA 0x6
00000268 ff0e                 MOVAR 0x71
00000269 ff2a                 MOVAR 0x55
0000026a fa1b                 INCR 0x64, 0x1
0000026b f2fc                 BTRSC 0x3, 0x2
0000026c fa1a                 INCR 0x65, 0x1
0000026d def8                 MOVIA 0x7
0000026e fb9a                 SUBAR 0x65, 0x0
0000026f f6fc                 BTRSS 0x3, 0x2
00000270 c58c                 LGOTO 0x273; main.o:_00560_DS_=0x273
00000271 de2f                 MOVIA 0xd0
00000272 fb9b                 SUBAR 0x64, 0x0
00000273                      main.o:_00560_DS_:
00000273 f7fc                 BTRSS 0x3, 0x0
00000274 c4e6                 LGOTO 0x319; main.o:_00500_DS_=0x319
00000275 de2f                 MOVIA 0xd0
00000276 ff1b                 MOVAR 0x64
00000277 def8                 MOVIA 0x7
00000278 ff1a                 MOVAR 0x65
00000279 defe                 MOVIA 0x1
0000027a ff0a                 MOVAR 0x75
0000027b d48d                 LCALL 0x372; _pwm1Stop=0x372
0000027c e279                 BCR 0x6, 0x3
0000027d ffe9                 IOSTR 0x6
0000027e ff46                 MOVAR 0x39
0000027f e646                 BSR 0x39, 0x3
00000280 fec6                 MOVR 0x39, 0x0
00000281 fff9                 IOST 0x6
00000282 c4e6                 LGOTO 0x319; main.o:_00500_DS_=0x319
00000283                      main.o:_00492_DS_:
00000283 ffe9                 IOSTR 0x6
00000284 ff46                 MOVAR 0x39
00000285 e246                 BCR 0x39, 0x3
00000286 fec6                 MOVR 0x39, 0x0
00000287 fff9                 IOST 0x6
00000288 fd1b                 CLRR 0x64
00000289 fd1a                 CLRR 0x65
0000028a defe                 MOVIA 0x1
0000028b fba8                 SUBAR 0x57, 0x0
0000028c f3fc                 BTRSC 0x3, 0x0
0000028d c56f                 LGOTO 0x290; main.o:_00458_DS_=0x290
0000028e deec                 MOVIA 0x13
0000028f ff08                 MOVAR 0x77
00000290                      main.o:_00458_DS_:
00000290 defd                 MOVIA 0x2
00000291 fba8                 SUBAR 0x57, 0x0
00000292 f3fc                 BTRSC 0x3, 0x0
00000293 c568                 LGOTO 0x297; main.o:_00463_DS_=0x297
00000294 deeb                 MOVIA 0x14
00000295 ff08                 MOVAR 0x77
00000296 c55f                 LGOTO 0x2a0; main.o:_00464_DS_=0x2a0
00000297                      main.o:_00463_DS_:
00000297 def9                 MOVIA 0x6
00000298 fba8                 SUBAR 0x57, 0x0
00000299 f3fc                 BTRSC 0x3, 0x0
0000029a c561                 LGOTO 0x29e; main.o:_00460_DS_=0x29e
0000029b dee8                 MOVIA 0x17
0000029c ff08                 MOVAR 0x77
0000029d c55f                 LGOTO 0x2a0; main.o:_00464_DS_=0x2a0
0000029e                      main.o:_00460_DS_:
0000029e dee7                 MOVIA 0x18
0000029f ff08                 MOVAR 0x77
000002a0                      main.o:_00464_DS_:
000002a0 fead                 MOVR 0x52, 0x0
000002a1 f6fc                 BTRSS 0x3, 0x2
000002a2 c53a                 LGOTO 0x2c5; main.o:_00470_DS_=0x2c5
000002a3 def8                 MOVIA 0x7
000002a4 fba8                 SUBAR 0x57, 0x0
000002a5 f3fc                 BTRSC 0x3, 0x0
000002a6 c53a                 LGOTO 0x2c5; main.o:_00470_DS_=0x2c5
000002a7 fea8                 MOVR 0x57, 0x0
000002a8 ff46                 MOVAR 0x39
000002a9 fd45                 CLRR 0x3a
000002aa de00                 MOVIA 0xff
000002ab fc46                 ADDAR 0x39, 0x1
000002ac f7fc                 BTRSS 0x3, 0x0
000002ad f945                 DECR 0x3a, 0x1
000002ae fe91                 MOVR 0x6e, 0x0
000002af ff44                 MOVAR 0x3b
000002b0 deff                 MOVIA 0x0
000002b1 da7f                 ADDIA 0x80
000002b2 ff43                 MOVAR 0x3c
000002b3 fec5                 MOVR 0x3a, 0x0
000002b4 da7f                 ADDIA 0x80
000002b5 fbc3                 SUBAR 0x3c, 0x0
000002b6 f6fc                 BTRSS 0x3, 0x2
000002b7 c545                 LGOTO 0x2ba; main.o:_00565_DS_=0x2ba
000002b8 fec6                 MOVR 0x39, 0x0
000002b9 fbc4                 SUBAR 0x3b, 0x0
000002ba                      main.o:_00565_DS_:
000002ba f3fc                 BTRSC 0x3, 0x0
000002bb c541                 LGOTO 0x2be; main.o:_00466_DS_=0x2be
000002bc f9a8                 DECR 0x57, 0x0
000002bd ff11                 MOVAR 0x6e
000002be                      main.o:_00466_DS_:
000002be fa2a                 INCR 0x55, 0x1
000002bf def8                 MOVIA 0x7
000002c0 fbaa                 SUBAR 0x55, 0x0
000002c1 f7fc                 BTRSS 0x3, 0x0
000002c2 c53a                 LGOTO 0x2c5; main.o:_00470_DS_=0x2c5
000002c3 fe91                 MOVR 0x6e, 0x0
000002c4 ff2a                 MOVAR 0x55
000002c5                      main.o:_00470_DS_:
000002c5 fea8                 MOVR 0x57, 0x0
000002c6 dbf8                 XORIA 0x7
000002c7 f6fc                 BTRSS 0x3, 0x2
000002c8 c534                 LGOTO 0x2cb; main.o:_00473_DS_=0x2cb
000002c9 def9                 MOVIA 0x6
000002ca ff2a                 MOVAR 0x55
000002cb                      main.o:_00473_DS_:
000002cb fe8b                 MOVR 0x74, 0x0
000002cc fb88                 SUBAR 0x77, 0x0
000002cd f3fc                 BTRSC 0x3, 0x0
000002ce c52c                 LGOTO 0x2d3; main.o:_00475_DS_=0x2d3
000002cf fe88                 MOVR 0x77, 0x0
000002d0 ff0b                 MOVAR 0x74
000002d1 ffbc                 SFUN 0x3
000002d2 c52a                 LGOTO 0x2d5; main.o:_00476_DS_=0x2d5
000002d3                      main.o:_00475_DS_:
000002d3 fe8c                 MOVR 0x73, 0x0
000002d4 ffbc                 SFUN 0x3
000002d5                      main.o:_00476_DS_:
000002d5 d48a                 LCALL 0x375; _pwm1Init=0x375
000002d6 def9                 MOVIA 0x6
000002d7 fba3                 SUBAR 0x5c, 0x0
000002d8 f7fc                 BTRSS 0x3, 0x0
000002d9 c4e6                 LGOTO 0x319; main.o:_00500_DS_=0x319
000002da deff                 MOVIA 0x0
000002db fbd6                 SUBAR 0x29, 0x0
000002dc f6fc                 BTRSS 0x3, 0x2
000002dd c51f                 LGOTO 0x2e0; main.o:_00569_DS_=0x2e0
000002de ded9                 MOVIA 0x26
000002df fbd7                 SUBAR 0x28, 0x0
000002e0                      main.o:_00569_DS_:
000002e0 f7fc                 BTRSS 0x3, 0x0
000002e1 c512                 LGOTO 0x2ed; main.o:_00484_DS_=0x2ed
000002e2 fa06                 INCR 0x79, 0x1
000002e3 decc                 MOVIA 0x33
000002e4 fb86                 SUBAR 0x79, 0x0
000002e5 f7fc                 BTRSS 0x3, 0x0
000002e6 c514                 LGOTO 0x2eb; main.o:_00478_DS_=0x2eb
000002e7 f90b                 DECR 0x74, 0x1
000002e8 fd06                 CLRR 0x79
000002e9 dedd                 MOVIA 0x22
000002ea ff05                 MOVAR 0x7a
000002eb                      main.o:_00478_DS_:
000002eb fd07                 CLRR 0x78
000002ec c4ff                 LGOTO 0x300; main.o:_00485_DS_=0x300
000002ed                      main.o:_00484_DS_:
000002ed fe85                 MOVR 0x7a, 0x0
000002ee ff46                 MOVAR 0x39
000002ef fd45                 CLRR 0x3a
000002f0 deff                 MOVIA 0x0
000002f1 fbd6                 SUBAR 0x29, 0x0
000002f2 f6fc                 BTRSS 0x3, 0x2
000002f3 c509                 LGOTO 0x2f6; main.o:_00571_DS_=0x2f6
000002f4 fec6                 MOVR 0x39, 0x0
000002f5 fbd7                 SUBAR 0x28, 0x0
000002f6                      main.o:_00571_DS_:
000002f6 f3fc                 BTRSC 0x3, 0x0
000002f7 c4ff                 LGOTO 0x300; main.o:_00485_DS_=0x300
000002f8 fa07                 INCR 0x78, 0x1
000002f9 decc                 MOVIA 0x33
000002fa fb87                 SUBAR 0x78, 0x0
000002fb f7fc                 BTRSS 0x3, 0x0
000002fc c500                 LGOTO 0x2ff; main.o:_00480_DS_=0x2ff
000002fd fa0b                 INCR 0x74, 0x1
000002fe fd07                 CLRR 0x78
000002ff                      main.o:_00480_DS_:
000002ff fd06                 CLRR 0x79
00000300                      main.o:_00485_DS_:
00000300 fe8b                 MOVR 0x74, 0x0
00000301 fb8c                 SUBAR 0x73, 0x0
00000302 f3fc                 BTRSC 0x3, 0x0
00000303 c4f9                 LGOTO 0x306; main.o:_00487_DS_=0x306
00000304 fa0c                 INCR 0x73, 0x1
00000305 c4e6                 LGOTO 0x319; main.o:_00500_DS_=0x319
00000306                      main.o:_00487_DS_:
00000306 fe8b                 MOVR 0x74, 0x0
00000307 ff0c                 MOVAR 0x73
00000308 c4e6                 LGOTO 0x319; main.o:_00500_DS_=0x319
00000309                      main.o:_00498_DS_:
00000309 deda                 MOVIA 0x25
0000030a ff05                 MOVAR 0x7a
0000030b fd0a                 CLRR 0x75
0000030c fd0c                 CLRR 0x73
0000030d fd0b                 CLRR 0x74
0000030e fd0e                 CLRR 0x71
0000030f fd11                 CLRR 0x6e
00000310 fd27                 CLRR 0x58
00000311 fd26                 CLRR 0x59
00000312 d48d                 LCALL 0x372; _pwm1Stop=0x372
00000313 feab                 MOVR 0x54, 0x0
00000314 f2fc                 BTRSC 0x3, 0x2
00000315 fd2a                 CLRR 0x55
00000316 e22f                 BCR 0x50, 0x3
00000317 fd27                 CLRR 0x58
00000318 fd26                 CLRR 0x59
00000319                      main.o:_00500_DS_:
00000319 ffef                 RET
0000031a                      _keyRead:
0000031a ff47                 MOVAR 0x38
0000031b fec7                 MOVR 0x38, 0x0
0000031c f2fc                 BTRSC 0x3, 0x2
0000031d c4d5                 LGOTO 0x32a; main.o:_00448_DS_=0x32a
0000031e fa2c                 INCR 0x53, 0x1
0000031f de9b                 MOVIA 0x64
00000320 fbac                 SUBAR 0x53, 0x0
00000321 f7fc                 BTRSS 0x3, 0x0
00000322 c4c5                 LGOTO 0x33a; main.o:_00449_DS_=0x33a
00000323 de9b                 MOVIA 0x64
00000324 ff2c                 MOVAR 0x53
00000325 f32f                 BTRSC 0x50, 0x1
00000326 c4c5                 LGOTO 0x33a; main.o:_00449_DS_=0x33a
00000327 e72f                 BSR 0x50, 0x1
00000328 defd                 MOVIA 0x2
00000329 c4c4                 LGOTO 0x33b; main.o:_00450_DS_=0x33b
0000032a                      main.o:_00448_DS_:
0000032a de9b                 MOVIA 0x64
0000032b fbac                 SUBAR 0x53, 0x0
0000032c f7fc                 BTRSS 0x3, 0x0
0000032d c4cd                 LGOTO 0x332; main.o:_00445_DS_=0x332
0000032e fd2c                 CLRR 0x53
0000032f e32f                 BCR 0x50, 0x1
00000330 deff                 MOVIA 0x0
00000331 c4c4                 LGOTO 0x33b; main.o:_00450_DS_=0x33b
00000332                      main.o:_00445_DS_:
00000332 defb                 MOVIA 0x4
00000333 fbac                 SUBAR 0x53, 0x0
00000334 f7fc                 BTRSS 0x3, 0x0
00000335 c4c6                 LGOTO 0x339; main.o:_00446_DS_=0x339
00000336 fd2c                 CLRR 0x53
00000337 defe                 MOVIA 0x1
00000338 c4c4                 LGOTO 0x33b; main.o:_00450_DS_=0x33b
00000339                      main.o:_00446_DS_:
00000339 fd2c                 CLRR 0x53
0000033a                      main.o:_00449_DS_:
0000033a deff                 MOVIA 0x0
0000033b                      main.o:_00450_DS_:
0000033b ffef                 RET
0000033c                      _gotoSleep:
0000033c d41c                 LCALL 0x3e3; _LedInput=0x3e3
0000033d fd25                 CLRR 0x5a
0000033e fd24                 CLRR 0x5b
0000033f d49c                 LCALL 0x363; _pwmStop=0x363
00000340 d48d                 LCALL 0x372; _pwm1Stop=0x372
00000341 de37                 MOVIA 0xc8
00000342 fffa                 IOST 0x5
00000343 deb9                 MOVIA 0x46
00000344 ff7a                 MOVAR 0x5
00000345 dec0                 MOVIA 0x3f
00000346 fff6                 IOST 0x9
00000347 fd79                 CLRR 0x6
00000348 fd2b                 CLRR 0x54
00000349 de77                 MOVIA 0x88
0000034a ff6a                 MOVAR 0x15
0000034b fd76                 CLRR 0x9
0000034c e2af                 BCR 0x50, 0x2
0000034d defd                 MOVIA 0x2
0000034e ff71                 MOVAR 0xe
0000034f dee7                 MOVIA 0x18
00000350 ff77                 MOVAR 0x8
00000351 fd70                 CLRR 0xf
00000352 fffd                 CLRWDT
00000353 fffb                 ENI
00000354 fffe                 SLEEP
00000355 fd6a                 CLRR 0x15
00000356 de41                 MOVIA 0xbe
00000357 fffa                 IOST 0x5
00000358 fdff                 CLRA
00000359 fff9                 IOST 0x6
0000035a fd7a                 CLRR 0x5
0000035b de80                 MOVIA 0x7f
0000035c fff6                 IOST 0x9
0000035d defe                 MOVIA 0x1
0000035e ff71                 MOVAR 0xe
0000035f fd70                 CLRR 0xf
00000360 de47                 MOVIA 0xb8
00000361 ff77                 MOVAR 0x8
00000362 ffef                 RET
00000363                      _pwmStop:
00000363 fdff                 CLRA
00000364 ffb5                 SFUN 0xa
00000365 ffef                 RET
00000366                      _pwmInit:
00000366 ff95                 SFUNR 0xa
00000367 ff48                 MOVAR 0x37
00000368 f048                 BTRSC 0x37, 0x7
00000369 c48e                 LGOTO 0x371; main.o:_00425_DS_=0x371
0000036a fd66                 CLRR 0x19
0000036b de9b                 MOVIA 0x64
0000036c ffb6                 SFUN 0x9
0000036d defe                 MOVIA 0x1
0000036e ffb4                 SFUN 0xb
0000036f de7c                 MOVIA 0x83
00000370 ffb5                 SFUN 0xa
00000371                      main.o:_00425_DS_:
00000371 ffef                 RET
00000372                      _pwm1Stop:
00000372 fdff                 CLRA
00000373 ffbe                 SFUN 0x1
00000374 ffef                 RET
00000375                      _pwm1Init:
00000375 ff9e                 SFUNR 0x1
00000376 ff49                 MOVAR 0x36
00000377 f049                 BTRSC 0x36, 0x7
00000378 c47d                 LGOTO 0x382; main.o:_00414_DS_=0x382
00000379 fd66                 CLRR 0x19
0000037a decf                 MOVIA 0x30
0000037b ffbf                 SFUN 0x0
0000037c fdff                 CLRA
0000037d ffbd                 SFUN 0x2
0000037e def7                 MOVIA 0x8
0000037f ffbd                 SFUN 0x2
00000380 de7c                 MOVIA 0x83
00000381 ffbe                 SFUN 0x1
00000382                      main.o:_00414_DS_:
00000382 ffef                 RET
00000383                      _LED6ON:
00000383 ffea                 IOSTR 0x5
00000384 ff4a                 MOVAR 0x35
00000385 e3ca                 BCR 0x35, 0x0
00000386 feca                 MOVR 0x35, 0x0
00000387 fffa                 IOST 0x5
00000388 ffe9                 IOSTR 0x6
00000389 ff4a                 MOVAR 0x35
0000038a e34a                 BCR 0x35, 0x1
0000038b feca                 MOVR 0x35, 0x0
0000038c fff9                 IOST 0x6
0000038d e779                 BSR 0x6, 0x1
0000038e e3fa                 BCR 0x5, 0x0
0000038f de9b                 MOVIA 0x64
00000390 d5af                 LCALL 0x250; _delay=0x250
00000391 d41c                 LCALL 0x3e3; _LedInput=0x3e3
00000392 ffef                 RET
00000393                      _LED5ON:
00000393 ffea                 IOSTR 0x5
00000394 ff4b                 MOVAR 0x34
00000395 e3cb                 BCR 0x34, 0x0
00000396 fecb                 MOVR 0x34, 0x0
00000397 fffa                 IOST 0x5
00000398 ffe9                 IOSTR 0x6
00000399 ff4b                 MOVAR 0x34
0000039a e34b                 BCR 0x34, 0x1
0000039b fecb                 MOVR 0x34, 0x0
0000039c fff9                 IOST 0x6
0000039d e7fa                 BSR 0x5, 0x0
0000039e e379                 BCR 0x6, 0x1
0000039f de9b                 MOVIA 0x64
000003a0 d5af                 LCALL 0x250; _delay=0x250
000003a1 d41c                 LCALL 0x3e3; _LedInput=0x3e3
000003a2 ffef                 RET
000003a3                      _LED4ON:
000003a3 ffe9                 IOSTR 0x6
000003a4 ff4c                 MOVAR 0x33
000003a5 e3cc                 BCR 0x33, 0x0
000003a6 fecc                 MOVR 0x33, 0x0
000003a7 fff9                 IOST 0x6
000003a8 ffea                 IOSTR 0x5
000003a9 ff4c                 MOVAR 0x33
000003aa e3cc                 BCR 0x33, 0x0
000003ab fecc                 MOVR 0x33, 0x0
000003ac fffa                 IOST 0x5
000003ad e7f9                 BSR 0x6, 0x0
000003ae e3fa                 BCR 0x5, 0x0
000003af de9b                 MOVIA 0x64
000003b0 d5af                 LCALL 0x250; _delay=0x250
000003b1 d41c                 LCALL 0x3e3; _LedInput=0x3e3
000003b2 ffef                 RET
000003b3                      _LED3ON:
000003b3 ffe9                 IOSTR 0x6
000003b4 ff4d                 MOVAR 0x32
000003b5 e3cd                 BCR 0x32, 0x0
000003b6 fecd                 MOVR 0x32, 0x0
000003b7 fff9                 IOST 0x6
000003b8 ffe9                 IOSTR 0x6
000003b9 ff4d                 MOVAR 0x32
000003ba e34d                 BCR 0x32, 0x1
000003bb fecd                 MOVR 0x32, 0x0
000003bc fff9                 IOST 0x6
000003bd e779                 BSR 0x6, 0x1
000003be e3f9                 BCR 0x6, 0x0
000003bf de9b                 MOVIA 0x64
000003c0 d5af                 LCALL 0x250; _delay=0x250
000003c1 d41c                 LCALL 0x3e3; _LedInput=0x3e3
000003c2 ffef                 RET
000003c3                      _LED2ON:
000003c3 ffea                 IOSTR 0x5
000003c4 ff4e                 MOVAR 0x31
000003c5 e3ce                 BCR 0x31, 0x0
000003c6 fece                 MOVR 0x31, 0x0
000003c7 fffa                 IOST 0x5
000003c8 ffe9                 IOSTR 0x6
000003c9 ff4e                 MOVAR 0x31
000003ca e3ce                 BCR 0x31, 0x0
000003cb fece                 MOVR 0x31, 0x0
000003cc fff9                 IOST 0x6
000003cd e7fa                 BSR 0x5, 0x0
000003ce e3f9                 BCR 0x6, 0x0
000003cf de9b                 MOVIA 0x64
000003d0 d5af                 LCALL 0x250; _delay=0x250
000003d1 d41c                 LCALL 0x3e3; _LedInput=0x3e3
000003d2 ffef                 RET
000003d3                      _LED1ON:
000003d3 ffe9                 IOSTR 0x6
000003d4 ff4f                 MOVAR 0x30
000003d5 e3cf                 BCR 0x30, 0x0
000003d6 fecf                 MOVR 0x30, 0x0
000003d7 fff9                 IOST 0x6
000003d8 ffe9                 IOSTR 0x6
000003d9 ff4f                 MOVAR 0x30
000003da e34f                 BCR 0x30, 0x1
000003db fecf                 MOVR 0x30, 0x0
000003dc fff9                 IOST 0x6
000003dd e7f9                 BSR 0x6, 0x0
000003de e379                 BCR 0x6, 0x1
000003df de9b                 MOVIA 0x64
000003e0 d5af                 LCALL 0x250; _delay=0x250
000003e1 d41c                 LCALL 0x3e3; _LedInput=0x3e3
000003e2 ffef                 RET
000003e3                      _LedInput:
000003e3 ffea                 IOSTR 0x5
000003e4 ff50                 MOVAR 0x2f
000003e5 e7d0                 BSR 0x2f, 0x0
000003e6 fed0                 MOVR 0x2f, 0x0
000003e7 fffa                 IOST 0x5
000003e8 ffe9                 IOSTR 0x6
000003e9 ff50                 MOVAR 0x2f
000003ea defc                 MOVIA 0x3
000003eb ee50                 IORAR 0x2f, 0x1
000003ec fed0                 MOVR 0x2f, 0x0
000003ed fff9                 IOST 0x6
000003ee e3fa                 BCR 0x5, 0x0
000003ef de03                 MOVIA 0xfc
000003f0 ef79                 ANDAR 0x6, 0x1
000003f1 ffef                 RET
000003f2                      _ledShow:
000003f2 fe92                 MOVR 0x6d, 0x0
000003f3 f2fc                 BTRSC 0x3, 0x2
000003f4 c401                 LGOTO 0x3fe; main.o:_00311_DS_=0x3fe
000003f5 feab                 MOVR 0x54, 0x0
000003f6 f6fc                 BTRSS 0x3, 0x2
000003f7 c401                 LGOTO 0x3fe; main.o:_00311_DS_=0x3fe
000003f8 f392                 BTRSC 0x6d, 0x0
000003f9 c403                 LGOTO 0x3fc; main.o:_00308_DS_=0x3fc
000003fa fd2a                 CLRR 0x55
000003fb c401                 LGOTO 0x3fe; main.o:_00311_DS_=0x3fe
000003fc                      main.o:_00308_DS_:
000003fc fe95                 MOVR 0x6a, 0x0
000003fd ff2a                 MOVAR 0x55
000003fe                      main.o:_00311_DS_:
000003fe fe9d                 MOVR 0x62, 0x0
000003ff f2fc                 BTRSC 0x3, 0x2
00000400 c3ef                 LGOTO 0x410; main.o:_00319_DS_=0x410
00000401 fea8                 MOVR 0x57, 0x0
00000402 f2fc                 BTRSC 0x3, 0x2
00000403 c3ef                 LGOTO 0x410; main.o:_00319_DS_=0x410
00000404 fe9d                 MOVR 0x62, 0x0
00000405 f2fc                 BTRSC 0x3, 0x2
00000406 c3ef                 LGOTO 0x410; main.o:_00319_DS_=0x410
00000407 def8                 MOVIA 0x7
00000408 fba8                 SUBAR 0x57, 0x0
00000409 f7fc                 BTRSS 0x3, 0x0
0000040a c3f1                 LGOTO 0x40e; main.o:_00314_DS_=0x40e
0000040b def9                 MOVIA 0x6
0000040c ff2a                 MOVAR 0x55
0000040d c3ef                 LGOTO 0x410; main.o:_00319_DS_=0x410
0000040e                      main.o:_00314_DS_:
0000040e fea8                 MOVR 0x57, 0x0
0000040f ff2a                 MOVAR 0x55
00000410                      main.o:_00319_DS_:
00000410 fe99                 MOVR 0x66, 0x0
00000411 f2fc                 BTRSC 0x3, 0x2
00000412 c3de                 LGOTO 0x421; main.o:_00325_DS_=0x421
00000413 feab                 MOVR 0x54, 0x0
00000414 f2fc                 BTRSC 0x3, 0x2
00000415 c3de                 LGOTO 0x421; main.o:_00325_DS_=0x421
00000416 fea8                 MOVR 0x57, 0x0
00000417 f6fc                 BTRSS 0x3, 0x2
00000418 c3de                 LGOTO 0x421; main.o:_00325_DS_=0x421
00000419 decd                 MOVIA 0x32
0000041a fba2                 SUBAR 0x5d, 0x0
0000041b f3fc                 BTRSC 0x3, 0x0
0000041c c3df                 LGOTO 0x420; main.o:_00322_DS_=0x420
0000041d feab                 MOVR 0x54, 0x0
0000041e ff2a                 MOVAR 0x55
0000041f c3de                 LGOTO 0x421; main.o:_00325_DS_=0x421
00000420                      main.o:_00322_DS_:
00000420 fd2a                 CLRR 0x55
00000421                      main.o:_00325_DS_:
00000421 d41c                 LCALL 0x3e3; _LedInput=0x3e3
00000422 def6                 MOVIA 0x9
00000423 fbaa                 SUBAR 0x55, 0x0
00000424 f3fc                 BTRSC 0x3, 0x0
00000425 c3c1                 LGOTO 0x43e; main.o:_00338_DS_=0x43e
00000426 defb                 MOVIA 0x4
00000427 ff75                 MOVAR 0xa
00000428 feaa                 MOVR 0x55, 0x0
00000429 dad2                 ADDIA 0x2d
0000042a f3fc                 BTRSC 0x3, 0x0
0000042b fa75                 INCR 0xa, 0x1
0000042c ff7d                 MOVAR 0x2
0000042d                      main.o:_00379_DS_:
0000042d c3c9                 LGOTO 0x436; main.o:_00328_DS_=0x436
0000042e c3c2                 LGOTO 0x43d; main.o:_00336_DS_=0x43d
0000042f c3c3                 LGOTO 0x43c; main.o:_00335_DS_=0x43c
00000430 c3c4                 LGOTO 0x43b; main.o:_00334_DS_=0x43b
00000431 c3c5                 LGOTO 0x43a; main.o:_00333_DS_=0x43a
00000432 c3c6                 LGOTO 0x439; main.o:_00332_DS_=0x439
00000433 c3c7                 LGOTO 0x438; main.o:_00331_DS_=0x438
00000434 c3c7                 LGOTO 0x438; main.o:_00331_DS_=0x438
00000435 c3c7                 LGOTO 0x438; main.o:_00331_DS_=0x438
00000436                      main.o:_00328_DS_:
00000436 d41c                 LCALL 0x3e3; _LedInput=0x3e3
00000437 c3c1                 LGOTO 0x43e; main.o:_00338_DS_=0x43e
00000438                      main.o:_00331_DS_:
00000438 d47c                 LCALL 0x383; _LED6ON=0x383
00000439                      main.o:_00332_DS_:
00000439 d46c                 LCALL 0x393; _LED5ON=0x393
0000043a                      main.o:_00333_DS_:
0000043a d45c                 LCALL 0x3a3; _LED4ON=0x3a3
0000043b                      main.o:_00334_DS_:
0000043b d44c                 LCALL 0x3b3; _LED3ON=0x3b3
0000043c                      main.o:_00335_DS_:
0000043c d43c                 LCALL 0x3c3; _LED2ON=0x3c3
0000043d                      main.o:_00336_DS_:
0000043d d42c                 LCALL 0x3d3; _LED1ON=0x3d3
0000043e                      main.o:_00338_DS_:
0000043e ffef                 RET
0000043f                      _initSys:
0000043f ffec                 DISI
00000440 de41                 MOVIA 0xbe
00000441 fffa                 IOST 0x5
00000442 def7                 MOVIA 0x8
00000443 fff9                 IOST 0x6
00000444 fd79                 CLRR 0x6
00000445 fd7a                 CLRR 0x5
00000446 d41c                 LCALL 0x3e3; _LedInput=0x3e3
00000447 de80                 MOVIA 0x7f
00000448 fff6                 IOST 0x9
00000449 de00                 MOVIA 0xff
0000044a ff73                 MOVAR 0xc
0000044b ff74                 MOVAR 0xb
0000044c defe                 MOVIA 0x1
0000044d ff71                 MOVAR 0xe
0000044e fdff                 CLRA
0000044f fff0                 IOST 0xf
00000450 dec8                 MOVIA 0x37
00000451 ff7e                 MOVAR 0x1
00000452 defe                 MOVIA 0x1
00000453 fffc                 T0MD
00000454 fff0                 IOST 0xf
00000455 de67                 MOVIA 0x98
00000456 ff77                 MOVAR 0x8
00000457 defe                 MOVIA 0x1
00000458 fff0                 IOST 0xf
00000459 fffb                 ENI
0000045a ffef                 RET
0000045b                      _powerOff:
0000045b fd2b                 CLRR 0x54
0000045c d49c                 LCALL 0x363; _pwmStop=0x363
0000045d ffef                 RET
0000045e                      _keyCtr:
0000045e f8fa                 COMR 0x5, 0x0
0000045f ff51                 MOVAR 0x2e
00000460 de7f                 MOVIA 0x80
00000461 ef51                 ANDAR 0x2e, 0x1
00000462 fed1                 MOVR 0x2e, 0x0
00000463 d4e5                 LCALL 0x31a; _keyRead=0x31a
00000464 ff51                 MOVAR 0x2e
00000465 dbfe                 XORIA 0x1
00000466 f6fc                 BTRSS 0x3, 0x2
00000467 c34b                 LGOTO 0x4b4; main.o:_00292_DS_=0x4b4
00000468 fd2d                 CLRR 0x52
00000469 fd1d                 CLRR 0x62
0000046a feab                 MOVR 0x54, 0x0
0000046b f6fc                 BTRSS 0x3, 0x2
0000046c c38d                 LGOTO 0x472; main.o:_00258_DS_=0x472
0000046d fd22                 CLRR 0x5d
0000046e defc                 MOVIA 0x3
0000046f ff1d                 MOVAR 0x62
00000470 fd0d                 CLRR 0x72
00000471 c329                 LGOTO 0x4d6; main.o:_00294_DS_=0x4d6
00000472                      main.o:_00258_DS_:
00000472 fd1f                 CLRR 0x60
00000473 fa2b                 INCR 0x54, 0x1
00000474 def8                 MOVIA 0x7
00000475 fbab                 SUBAR 0x54, 0x0
00000476 f7fc                 BTRSS 0x3, 0x0
00000477 c385                 LGOTO 0x47a; main.o:_00260_DS_=0x47a
00000478 defe                 MOVIA 0x1
00000479 ff2b                 MOVAR 0x54
0000047a                      main.o:_00260_DS_:
0000047a fea8                 MOVR 0x57, 0x0
0000047b f6fc                 BTRSS 0x3, 0x2
0000047c c380                 LGOTO 0x47f; main.o:_00262_DS_=0x47f
0000047d def5                 MOVIA 0xa
0000047e ff19                 MOVAR 0x66
0000047f                      main.o:_00262_DS_:
0000047f feab                 MOVR 0x54, 0x0
00000480 dbfe                 XORIA 0x1
00000481 f6fc                 BTRSS 0x3, 0x2
00000482 c376                 LGOTO 0x489; main.o:_00278_DS_=0x489
00000483 deb6                 MOVIA 0x49
00000484 ff29                 MOVAR 0x56
00000485 deaa                 MOVIA 0x55
00000486 ff1c                 MOVAR 0x63
00000487 fd1d                 CLRR 0x62
00000488 c354                 LGOTO 0x4ab; main.o:_00279_DS_=0x4ab
00000489                      main.o:_00278_DS_:
00000489 feab                 MOVR 0x54, 0x0
0000048a dbfd                 XORIA 0x2
0000048b f6fc                 BTRSS 0x3, 0x2
0000048c c36f                 LGOTO 0x490; main.o:_00275_DS_=0x490
0000048d deb0                 MOVIA 0x4f
0000048e ff29                 MOVAR 0x56
0000048f c354                 LGOTO 0x4ab; main.o:_00279_DS_=0x4ab
00000490                      main.o:_00275_DS_:
00000490 feab                 MOVR 0x54, 0x0
00000491 dbfc                 XORIA 0x3
00000492 f6fc                 BTRSS 0x3, 0x2
00000493 c368                 LGOTO 0x497; main.o:_00272_DS_=0x497
00000494 deab                 MOVIA 0x54
00000495 ff29                 MOVAR 0x56
00000496 c354                 LGOTO 0x4ab; main.o:_00279_DS_=0x4ab
00000497                      main.o:_00272_DS_:
00000497 feab                 MOVR 0x54, 0x0
00000498 dbfb                 XORIA 0x4
00000499 f6fc                 BTRSS 0x3, 0x2
0000049a c361                 LGOTO 0x49e; main.o:_00269_DS_=0x49e
0000049b dea6                 MOVIA 0x59
0000049c ff29                 MOVAR 0x56
0000049d c354                 LGOTO 0x4ab; main.o:_00279_DS_=0x4ab
0000049e                      main.o:_00269_DS_:
0000049e feab                 MOVR 0x54, 0x0
0000049f dbfa                 XORIA 0x5
000004a0 f6fc                 BTRSS 0x3, 0x2
000004a1 c35a                 LGOTO 0x4a5; main.o:_00266_DS_=0x4a5
000004a2 dea1                 MOVIA 0x5e
000004a3 ff29                 MOVAR 0x56
000004a4 c354                 LGOTO 0x4ab; main.o:_00279_DS_=0x4ab
000004a5                      main.o:_00266_DS_:
000004a5 feab                 MOVR 0x54, 0x0
000004a6 dbf9                 XORIA 0x6
000004a7 f6fc                 BTRSS 0x3, 0x2
000004a8 c354                 LGOTO 0x4ab; main.o:_00279_DS_=0x4ab
000004a9 de9b                 MOVIA 0x64
000004aa ff29                 MOVAR 0x56
000004ab                      main.o:_00279_DS_:
000004ab feab                 MOVR 0x54, 0x0
000004ac f2fc                 BTRSC 0x3, 0x2
000004ad c34e                 LGOTO 0x4b1; main.o:_00281_DS_=0x4b1
000004ae fea9                 MOVR 0x56, 0x0
000004af ffb3                 SFUN 0xc
000004b0 d499                 LCALL 0x366; _pwmInit=0x366
000004b1                      main.o:_00281_DS_:
000004b1 feab                 MOVR 0x54, 0x0
000004b2 ff2a                 MOVAR 0x55
000004b3 c329                 LGOTO 0x4d6; main.o:_00294_DS_=0x4d6
000004b4                      main.o:_00292_DS_:
000004b4 fed1                 MOVR 0x2e, 0x0
000004b5 dbfd                 XORIA 0x2
000004b6 f6fc                 BTRSS 0x3, 0x2
000004b7 c329                 LGOTO 0x4d6; main.o:_00294_DS_=0x4d6
000004b8 feab                 MOVR 0x54, 0x0
000004b9 f2fc                 BTRSC 0x3, 0x2
000004ba c342                 LGOTO 0x4bd; main.o:_00287_DS_=0x4bd
000004bb d3a4                 LCALL 0x45b; _powerOff=0x45b
000004bc c32b                 LGOTO 0x4d4; main.o:_00288_DS_=0x4d4
000004bd                      main.o:_00287_DS_:
000004bd fea8                 MOVR 0x57, 0x0
000004be dbf5                 XORIA 0xa
000004bf f6fc                 BTRSS 0x3, 0x2
000004c0 c33b                 LGOTO 0x4c4; main.o:_00283_DS_=0x4c4
000004c1 fd25                 CLRR 0x5a
000004c2 fd24                 CLRR 0x5b
000004c3 c329                 LGOTO 0x4d6; main.o:_00294_DS_=0x4d6
000004c4                      main.o:_00283_DS_:
000004c4 fd1d                 CLRR 0x62
000004c5 defe                 MOVIA 0x1
000004c6 ff2a                 MOVAR 0x55
000004c7 ff2b                 MOVAR 0x54
000004c8 deb6                 MOVIA 0x49
000004c9 ffb3                 SFUN 0xc
000004ca deaa                 MOVIA 0x55
000004cb ff1c                 MOVAR 0x63
000004cc deb6                 MOVIA 0x49
000004cd ff29                 MOVAR 0x56
000004ce d499                 LCALL 0x366; _pwmInit=0x366
000004cf fea8                 MOVR 0x57, 0x0
000004d0 f6fc                 BTRSS 0x3, 0x2
000004d1 c32b                 LGOTO 0x4d4; main.o:_00288_DS_=0x4d4
000004d2 def5                 MOVIA 0xa
000004d3 ff19                 MOVAR 0x66
000004d4                      main.o:_00288_DS_:
000004d4 feab                 MOVR 0x54, 0x0
000004d5 ff2a                 MOVAR 0x55
000004d6                      main.o:_00294_DS_:
000004d6 ffef                 RET
000004d7                      ___cinit_load__:
