00000000 c7fe                 LGOTO 0x1; __nyc_ny8_startup=0x1
00000001                      __nyc_ny8_startup:
00000001 d079                 LCALL 0x786; ___cinit_load__=0x786
00000002 c7a7                 LGOTO 0x58; _main=0x58
00000003                      main.o:_00635_DS_:
00000003 f56f                 BTRSS 0x10, 0x5
00000004 c7fc                 LGOTO 0x3; main.o:_00635_DS_=0x3
00000005 ffef                 RET
00000008 c7f6                 LGOTO 0x9; main.o:__sdcc_interrupt=0x9
00000009                      main.o:__sdcc_interrupt:
00000009 ff3d                 MOVAR 0x42
0000000a eafc                 SWAPR 0x3, 0x0
0000000b fd7c                 CLRR 0x3
0000000c ff3e                 MOVAR 0x41
0000000d fef5                 MOVR 0xa, 0x0
0000000e fd75                 CLRR 0xa
0000000f ff3f                 MOVAR 0x40
00000010 fefb                 MOVR 0x4, 0x0
00000011 e0fc                 BCR 0x3, 0x6
00000012 ff1c                 MOVAR 0x63
00000013 feb6                 MOVR 0x49, 0x0
00000014 ff1b                 MOVAR 0x64
00000015 feb7                 MOVR 0x48, 0x0
00000016 ff1a                 MOVAR 0x65
00000017 f7f0                 BTRSS 0xf, 0x0
00000018 c7bb                 LGOTO 0x44; main.o:_00120_DS_=0x44
00000019 dec6                 MOVIA 0x39
0000001a fc7e                 ADDAR 0x1, 0x1
0000001b fa19                 INCR 0x66, 0x1
0000001c def5                 MOVIA 0xa
0000001d fb99                 SUBAR 0x66, 0x0
0000001e f7fc                 BTRSS 0x3, 0x0
0000001f c7bb                 LGOTO 0x44; main.o:_00120_DS_=0x44
00000020 defe                 MOVIA 0x1
00000021 ff18                 MOVAR 0x67
00000022 fd19                 CLRR 0x66
00000023 fa03                 INCR 0x7c, 0x1
00000024 f2fc                 BTRSC 0x3, 0x2
00000025 fa02                 INCR 0x7d, 0x1
00000026 defc                 MOVIA 0x3
00000027 fb82                 SUBAR 0x7d, 0x0
00000028 f6fc                 BTRSS 0x3, 0x2
00000029 c7d3                 LGOTO 0x2c; main.o:_00150_DS_=0x2c
0000002a de16                 MOVIA 0xe9
0000002b fb83                 SUBAR 0x7c, 0x0
0000002c                      main.o:_00150_DS_:
0000002c f7fc                 BTRSS 0x3, 0x0
0000002d c7bb                 LGOTO 0x44; main.o:_00120_DS_=0x44
0000002e e0fc                 BCR 0x3, 0x6
0000002f fd03                 CLRR 0x7c
00000030 fd02                 CLRR 0x7d
00000031 fe8b                 MOVR 0x74, 0x0
00000032 f2fc                 BTRSC 0x3, 0x2
00000033 c7c9                 LGOTO 0x36; main.o:_00113_DS_=0x36
00000034 f90b                 DECR 0x74, 0x1
00000035 c7bb                 LGOTO 0x44; main.o:_00120_DS_=0x44
00000036                      main.o:_00113_DS_:
00000036 e0fc                 BCR 0x3, 0x6
00000037 fe8c                 MOVR 0x73, 0x0
00000038 f2fc                 BTRSC 0x3, 0x2
00000039 c7c3                 LGOTO 0x3c; main.o:_00110_DS_=0x3c
0000003a f90c                 DECR 0x73, 0x1
0000003b c7bb                 LGOTO 0x44; main.o:_00120_DS_=0x44
0000003c                      main.o:_00110_DS_:
0000003c e4fc                 BSR 0x3, 0x6
0000003d fedf                 MOVR 0x20, 0x0
0000003e f2fc                 BTRSC 0x3, 0x2
0000003f c7bb                 LGOTO 0x44; main.o:_00120_DS_=0x44
00000040 e85f                 DECRSZ 0x20, 0x1
00000041 c7bb                 LGOTO 0x44; main.o:_00120_DS_=0x44
00000042 defe                 MOVIA 0x1
00000043 ff5d                 MOVAR 0x22
00000044                      main.o:_00120_DS_:
00000044 f770                 BTRSS 0xf, 0x1
00000045 c7b7                 LGOTO 0x48; main.o:_00122_DS_=0x48
00000046 de02                 MOVIA 0xfd
00000047 ff70                 MOVAR 0xf
00000048                      main.o:_00122_DS_:
00000048 fd70                 CLRR 0xf
00000049 e0fc                 BCR 0x3, 0x6
0000004a fe9a                 MOVR 0x65, 0x0
0000004b ff37                 MOVAR 0x48
0000004c fe9b                 MOVR 0x64, 0x0
0000004d ff36                 MOVAR 0x49
0000004e fe9c                 MOVR 0x63, 0x0
0000004f ff7b                 MOVAR 0x4
00000050 febf                 MOVR 0x40, 0x0
00000051 ff75                 MOVAR 0xa
00000052 fd7c                 CLRR 0x3
00000053 eabe                 SWAPR 0x41, 0x0
00000054 ff7c                 MOVAR 0x3
00000055 ea3d                 SWAPR 0x42, 0x1
00000056 eabd                 SWAPR 0x42, 0x0
00000057                      main.o:END_OF_INTERRUPT:
00000057 ffee                 RETIE
00000058                      _main:
00000058 d470                 LCALL 0x38f; _initSys=0x38f
00000059 d537                 LCALL 0x2c8; _initAD=0x2c8
0000005a de37                 MOVIA 0xc8
0000005b e4fc                 BSR 0x3, 0x6
0000005c ff54                 MOVAR 0x2b
0000005d                      main.o:_00206_DS_:
0000005d fffd                 CLRWDT
0000005e e0fc                 BCR 0x3, 0x6
0000005f fe94                 MOVR 0x6b, 0x0
00000060 f2fc                 BTRSC 0x3, 0x2
00000061 c79b                 LGOTO 0x64; main.o:_00163_DS_=0x64
00000062 d452                 LCALL 0x3ad; _refreshNub=0x3ad
00000063 c779                 LGOTO 0x86; main.o:_00164_DS_=0x86
00000064                      main.o:_00163_DS_:
00000064 e0fc                 BCR 0x3, 0x6
00000065 fe89                 MOVR 0x76, 0x0
00000066 f2fc                 BTRSC 0x3, 0x2
00000067 c77e                 LGOTO 0x81; main.o:_00159_DS_=0x81
00000068 fe8d                 MOVR 0x72, 0x0
00000069 dbfe                 XORIA 0x1
0000006a f6fc                 BTRSS 0x3, 0x2
0000006b c77e                 LGOTO 0x81; main.o:_00159_DS_=0x81
0000006c de9b                 MOVIA 0x64
0000006d                      ___cinit_size__:
0000006d fb8a                 SUBAR 0x75, 0x0
0000006e f7fc                 BTRSS 0x3, 0x0
0000006f c78a                 LGOTO 0x75; main.o:_00156_DS_=0x75
00000070 defe                 MOVIA 0x1
00000071 ff17                 MOVAR 0x68
00000072 fd15                 CLRR 0x6a
00000073 fd16                 CLRR 0x69
00000074 c780                 LGOTO 0x7f; main.o:_00157_DS_=0x7f
00000075                      main.o:_00156_DS_:
00000075 e0fc                 BCR 0x3, 0x6
00000076 fd17                 CLRR 0x68
00000077 e4fc                 BSR 0x3, 0x6
00000078 fedc                 MOVR 0x23, 0x0
00000079 e0fc                 BCR 0x3, 0x6
0000007a ff16                 MOVAR 0x69
0000007b e4fc                 BSR 0x3, 0x6
0000007c fedb                 MOVR 0x24, 0x0
0000007d e0fc                 BCR 0x3, 0x6
0000007e ff15                 MOVAR 0x6a
0000007f                      main.o:_00157_DS_:
0000007f d452                 LCALL 0x3ad; _refreshNub=0x3ad
00000080 c779                 LGOTO 0x86; main.o:_00164_DS_=0x86
00000081                      main.o:_00159_DS_:
00000081 e0fc                 BCR 0x3, 0x6
00000082 fd15                 CLRR 0x6a
00000083 fd16                 CLRR 0x69
00000084 fd17                 CLRR 0x68
00000085 d2f0                 LCALL 0x50f; _setInput=0x50f
00000086                      main.o:_00164_DS_:
00000086 e0fc                 BCR 0x3, 0x6
00000087 fe98                 MOVR 0x67, 0x0
00000088 f2fc                 BTRSC 0x3, 0x2
00000089 c7a2                 LGOTO 0x5d; main.o:_00206_DS_=0x5d
0000008a fd18                 CLRR 0x67
0000008b def5                 MOVIA 0xa
0000008c ff36                 MOVAR 0x49
0000008d fe8a                 MOVR 0x75, 0x0
0000008e d112                 LCALL 0x6ed; __divuchar=0x6ed
0000008f e4fc                 BSR 0x3, 0x6
00000090 ff5c                 MOVAR 0x23
00000091 def5                 MOVIA 0xa
00000092 ff36                 MOVAR 0x49
00000093 e0fc                 BCR 0x3, 0x6
00000094 fe8a                 MOVR 0x75, 0x0
00000095 d0e9                 LCALL 0x716; __moduchar=0x716
00000096 e4fc                 BSR 0x3, 0x6
00000097 ff5b                 MOVAR 0x24
00000098 e0fc                 BCR 0x3, 0x6
00000099 fe81                 MOVR 0x7e, 0x0
0000009a ee80                 IORAR 0x7f, 0x0
0000009b f2fc                 BTRSC 0x3, 0x2
0000009c c758                 LGOTO 0xa7; main.o:_00185_DS_=0xa7
0000009d e4fc                 BSR 0x3, 0x6
0000009e fed3                 MOVR 0x2c, 0x0
0000009f f6fc                 BTRSS 0x3, 0x2
000000a0 c715                 LGOTO 0xea; main.o:_00186_DS_=0xea
000000a1 de00                 MOVIA 0xff
000000a2 e0fc                 BCR 0x3, 0x6
000000a3 fc01                 ADDAR 0x7e, 0x1
000000a4 f7fc                 BTRSS 0x3, 0x0
000000a5 f900                 DECR 0x7f, 0x1
000000a6 c715                 LGOTO 0xea; main.o:_00186_DS_=0xea
000000a7                      main.o:_00185_DS_:
000000a7 e0fc                 BCR 0x3, 0x6
000000a8 fe8d                 MOVR 0x72, 0x0
000000a9 f2fc                 BTRSC 0x3, 0x2
000000aa c718                 LGOTO 0xe7; main.o:_00182_DS_=0xe7
000000ab e4fc                 BSR 0x3, 0x6
000000ac fa58                 INCR 0x27, 0x1
000000ad f2fc                 BTRSC 0x3, 0x2
000000ae fa57                 INCR 0x28, 0x1
000000af defe                 MOVIA 0x1
000000b0 fbd7                 SUBAR 0x28, 0x0
000000b1 f6fc                 BTRSS 0x3, 0x2
000000b2 c74a                 LGOTO 0xb5; main.o:_00289_DS_=0xb5
000000b3 de8d                 MOVIA 0x72
000000b4 fbd8                 SUBAR 0x27, 0x0
000000b5                      main.o:_00289_DS_:
000000b5 f3fc                 BTRSC 0x3, 0x0
000000b6 c741                 LGOTO 0xbe; main.o:_00177_DS_=0xbe
000000b7 e0fc                 BCR 0x3, 0x6
000000b8 fe92                 MOVR 0x6d, 0x0
000000b9 f6fc                 BTRSS 0x3, 0x2
000000ba c741                 LGOTO 0xbe; main.o:_00177_DS_=0xbe
000000bb fe93                 MOVR 0x6c, 0x0
000000bc f2fc                 BTRSC 0x3, 0x2
000000bd c715                 LGOTO 0xea; main.o:_00186_DS_=0xea
000000be                      main.o:_00177_DS_:
000000be e0fc                 BCR 0x3, 0x6
000000bf fe91                 MOVR 0x6e, 0x0
000000c0 f2fc                 BTRSC 0x3, 0x2
000000c1 c72b                 LGOTO 0xd4; main.o:_00172_DS_=0xd4
000000c2 fef9                 MOVR 0x6, 0x0
000000c3 ddf7                 ANDIA 0x8
000000c4 f6fc                 BTRSS 0x3, 0x2
000000c5 defe                 MOVIA 0x1
000000c6 e4fc                 BSR 0x3, 0x6
000000c7 ff52                 MOVAR 0x2d
000000c8 e779                 BSR 0x6, 0x1
000000c9 deeb                 MOVIA 0x14
000000ca d6d5                 LCALL 0x12a; _delay=0x12a
000000cb d423                 LCALL 0x3dc; _checkIRKey=0x3dc
000000cc e4fc                 BSR 0x3, 0x6
000000cd fd58                 CLRR 0x27
000000ce fd57                 CLRR 0x28
000000cf e379                 BCR 0x6, 0x1
000000d0 e0fc                 BCR 0x3, 0x6
000000d1 e0fa                 BCR 0x5, 0x6
000000d2 fd11                 CLRR 0x6e
000000d3 c723                 LGOTO 0xdc; main.o:_00173_DS_=0xdc
000000d4                      main.o:_00172_DS_:
000000d4 e4fc                 BSR 0x3, 0x6
000000d5 fed3                 MOVR 0x2c, 0x0
000000d6 dbfb                 XORIA 0x4
000000d7 f6fc                 BTRSS 0x3, 0x2
000000d8 c723                 LGOTO 0xdc; main.o:_00173_DS_=0xdc
000000d9 defe                 MOVIA 0x1
000000da e0fc                 BCR 0x3, 0x6
000000db ff11                 MOVAR 0x6e
000000dc                      main.o:_00173_DS_:
000000dc defa                 MOVIA 0x5
000000dd e4fc                 BSR 0x3, 0x6
000000de fbd3                 SUBAR 0x2c, 0x0
000000df f7fc                 BTRSS 0x3, 0x0
000000e0 c71b                 LGOTO 0xe4; main.o:_00175_DS_=0xe4
000000e1 e0fc                 BCR 0x3, 0x6
000000e2 e0fa                 BCR 0x5, 0x6
000000e3 c715                 LGOTO 0xea; main.o:_00186_DS_=0xea
000000e4                      main.o:_00175_DS_:
000000e4 e0fc                 BCR 0x3, 0x6
000000e5 e4fa                 BSR 0x5, 0x6
000000e6 c715                 LGOTO 0xea; main.o:_00186_DS_=0xea
000000e7                      main.o:_00182_DS_:
000000e7 e0fc                 BCR 0x3, 0x6
000000e8 e0fa                 BCR 0x5, 0x6
000000e9 fd11                 CLRR 0x6e
000000ea                      main.o:_00186_DS_:
000000ea e4fc                 BSR 0x3, 0x6
000000eb fa53                 INCR 0x2c, 0x1
000000ec def7                 MOVIA 0x8
000000ed fbd3                 SUBAR 0x2c, 0x0
000000ee f7fc                 BTRSS 0x3, 0x0
000000ef c7a2                 LGOTO 0x5d; main.o:_00206_DS_=0x5d
000000f0 fd53                 CLRR 0x2c
000000f1 d52c                 LCALL 0x2d3; _keyCtr=0x2d3
000000f2 e4fc                 BSR 0x3, 0x6
000000f3 fa56                 INCR 0x29, 0x1
000000f4 de37                 MOVIA 0xc8
000000f5 fbd6                 SUBAR 0x29, 0x0
000000f6 f7fc                 BTRSS 0x3, 0x0
000000f7 c701                 LGOTO 0xfe; main.o:_00190_DS_=0xfe
000000f8 fd56                 CLRR 0x29
000000f9 e0fc                 BCR 0x3, 0x6
000000fa fe90                 MOVR 0x6f, 0x0
000000fb ee8f                 IORAR 0x70, 0x0
000000fc f2fc                 BTRSC 0x3, 0x2
000000fd d6a8                 LCALL 0x157; _checkBat=0x157
000000fe                      main.o:_00190_DS_:
000000fe d3cc                 LCALL 0x433; _chrgCtr=0x433
000000ff e0fc                 BCR 0x3, 0x6
00000100 fefa                 MOVR 0x5, 0x0
00000101 ff5c                 MOVAR 0x23
00000102 fd5b                 CLRR 0x24
00000103 f8dc                 COMR 0x23, 0x0
00000104 ff5c                 MOVAR 0x23
00000105 f8db                 COMR 0x24, 0x0
00000106 ff5b                 MOVAR 0x24
00000107 f55c                 BTRSS 0x23, 0x5
00000108 c6dd                 LGOTO 0x122; main.o:_00194_DS_=0x122
00000109 fe89                 MOVR 0x76, 0x0
0000010a f6fc                 BTRSS 0x3, 0x2
0000010b c6dd                 LGOTO 0x122; main.o:_00194_DS_=0x122
0000010c fe8d                 MOVR 0x72, 0x0
0000010d f6fc                 BTRSS 0x3, 0x2
0000010e c6dd                 LGOTO 0x122; main.o:_00194_DS_=0x122
0000010f fe8b                 MOVR 0x74, 0x0
00000110 f6fc                 BTRSS 0x3, 0x2
00000111 c6dd                 LGOTO 0x122; main.o:_00194_DS_=0x122
00000112 fe8c                 MOVR 0x73, 0x0
00000113 f6fc                 BTRSS 0x3, 0x2
00000114 c6dd                 LGOTO 0x122; main.o:_00194_DS_=0x122
00000115 e4fc                 BSR 0x3, 0x6
00000116 fedf                 MOVR 0x20, 0x0
00000117 f6fc                 BTRSS 0x3, 0x2
00000118 c6dd                 LGOTO 0x122; main.o:_00194_DS_=0x122
00000119 fed4                 MOVR 0x2b, 0x0
0000011a f6fc                 BTRSS 0x3, 0x2
0000011b c6dd                 LGOTO 0x122; main.o:_00194_DS_=0x122
0000011c e0fc                 BCR 0x3, 0x6
0000011d fa07                 INCR 0x78, 0x1
0000011e de9a                 MOVIA 0x65
0000011f fb87                 SUBAR 0x78, 0x0
00000120 f3fc                 BTRSC 0x3, 0x0
00000121 d498                 LCALL 0x367; _gotoSleep=0x367
00000122                      main.o:_00194_DS_:
00000122 e4fc                 BSR 0x3, 0x6
00000123 fedd                 MOVR 0x22, 0x0
00000124 f6fc                 BTRSS 0x3, 0x2
00000125 d498                 LCALL 0x367; _gotoSleep=0x367
00000126 de9b                 MOVIA 0x64
00000127 d6d5                 LCALL 0x12a; _delay=0x12a
00000128 c7a2                 LGOTO 0x5d; main.o:_00206_DS_=0x5d
00000129 ffef                 RET
0000012a                      _delay:
0000012a e0fc                 BCR 0x3, 0x6
0000012b ff48                 MOVAR 0x37
0000012c defe                 MOVIA 0x1
0000012d ff47                 MOVAR 0x38
0000012e                      main.o:_00642_DS_:
0000012e e0fc                 BCR 0x3, 0x6
0000012f fec7                 MOVR 0x38, 0x0
00000130 fbc8                 SUBAR 0x37, 0x0
00000131 f7fc                 BTRSS 0x3, 0x0
00000132 c6ca                 LGOTO 0x135; main.o:_00644_DS_=0x135
00000133 fa47                 INCR 0x38, 0x1
00000134 c6d1                 LGOTO 0x12e; main.o:_00642_DS_=0x12e
00000135                      main.o:_00644_DS_:
00000135 ffef                 RET
00000136                      _F_Quarter_VDD_Convert:
00000136 e0fc                 BCR 0x3, 0x6
00000137 ff4c                 MOVAR 0x33
00000138 de64                 MOVIA 0x9b
00000139 ff6f                 MOVAR 0x10
0000013a defe                 MOVIA 0x1
0000013b ff4b                 MOVAR 0x34
0000013c                      main.o:_00628_DS_:
0000013c e0fc                 BCR 0x3, 0x6
0000013d fecb                 MOVR 0x34, 0x0
0000013e fbcc                 SUBAR 0x33, 0x0
0000013f f7fc                 BTRSS 0x3, 0x0
00000140 c6a9                 LGOTO 0x156; main.o:_00630_DS_=0x156
00000141 e4ef                 BSR 0x10, 0x6
00000142 d7fc                 LCALL 0x3; main.o:_00635_DS_=0x3
00000143 def0                 MOVIA 0xf
00000144 efee                 ANDAR 0x11, 0x0
00000145 e0fc                 BCR 0x3, 0x6
00000146 fc5d                 ADDAR 0x22, 0x1
00000147 feed                 MOVR 0x12, 0x0
00000148 ff4a                 MOVAR 0x35
00000149 deff                 MOVIA 0x0
0000014a ff49                 MOVAR 0x36
0000014b feca                 MOVR 0x35, 0x0
0000014c fc5f                 ADDAR 0x20, 0x1
0000014d fec9                 MOVR 0x36, 0x0
0000014e f3fc                 BTRSC 0x3, 0x0
0000014f fac9                 INCR 0x36, 0x0
00000150 f2fc                 BTRSC 0x3, 0x2
00000151 c6ac                 LGOTO 0x153; main.o:_00001_DS_=0x153
00000152 fc5e                 ADDAR 0x21, 0x1
00000153                      main.o:_00001_DS_:
00000153 e0fc                 BCR 0x3, 0x6
00000154 fa4b                 INCR 0x34, 0x1
00000155 c6c3                 LGOTO 0x13c; main.o:_00628_DS_=0x13c
00000156                      main.o:_00630_DS_:
00000156 ffef                 RET
00000157                      _checkBat:
00000157 e0fc                 BCR 0x3, 0x6
00000158 fd5d                 CLRR 0x22
00000159 fd5f                 CLRR 0x20
0000015a fd5e                 CLRR 0x21
0000015b def7                 MOVIA 0x8
0000015c d6c9                 LCALL 0x136; _F_Quarter_VDD_Convert=0x136
0000015d e0fc                 BCR 0x3, 0x6
0000015e eade                 SWAPR 0x21, 0x0
0000015f dd0f                 ANDIA 0xf0
00000160 ff5e                 MOVAR 0x21
00000161 eadf                 SWAPR 0x20, 0x0
00000162 ff5f                 MOVAR 0x20
00000163 ddf0                 ANDIA 0xf
00000164 ee5e                 IORAR 0x21, 0x1
00000165 ed5f                 XORAR 0x20, 0x1
00000166 de0f                 MOVIA 0xf0
00000167 ef5d                 ANDAR 0x22, 0x1
00000168 fedd                 MOVR 0x22, 0x0
00000169 ff50                 MOVAR 0x2f
0000016a ff52                 MOVAR 0x2d
0000016b fd51                 CLRR 0x2e
0000016c deff                 MOVIA 0x0
0000016d ff4f                 MOVAR 0x30
0000016e fed0                 MOVR 0x2f, 0x0
0000016f fc5f                 ADDAR 0x20, 0x1
00000170 fecf                 MOVR 0x30, 0x0
00000171 f3fc                 BTRSC 0x3, 0x0
00000172 facf                 INCR 0x30, 0x0
00000173 f2fc                 BTRSC 0x3, 0x2
00000174 c689                 LGOTO 0x176; main.o:_00002_DS_=0x176
00000175 fc5e                 ADDAR 0x21, 0x1
00000176                      main.o:_00002_DS_:
00000176 e3fc                 BCR 0x3, 0x0
00000177 e0fc                 BCR 0x3, 0x6
00000178 ec5e                 RRR 0x21, 0x1
00000179 ec5f                 RRR 0x20, 0x1
0000017a e3fc                 BCR 0x3, 0x0
0000017b ec5e                 RRR 0x21, 0x1
0000017c ec5f                 RRR 0x20, 0x1
0000017d e3fc                 BCR 0x3, 0x0
0000017e ec5e                 RRR 0x21, 0x1
0000017f ec5f                 RRR 0x20, 0x1
00000180 defa                 MOVIA 0x5
00000181 fbde                 SUBAR 0x21, 0x0
00000182 f6fc                 BTRSS 0x3, 0x2
00000183 c679                 LGOTO 0x186; main.o:_00607_DS_=0x186
00000184 de55                 MOVIA 0xaa
00000185 fbdf                 SUBAR 0x20, 0x0
00000186                      main.o:_00607_DS_:
00000186 f3fc                 BTRSC 0x3, 0x0
00000187 c669                 LGOTO 0x196; main.o:_00538_DS_=0x196
00000188 e0fc                 BCR 0x3, 0x6
00000189 fd0a                 CLRR 0x75
0000018a e4fc                 BSR 0x3, 0x6
0000018b fd55                 CLRR 0x2a
0000018c e0fc                 BCR 0x3, 0x6
0000018d f17a                 BTRSC 0x5, 0x5
0000018e c547                 LGOTO 0x2b8; main.o:_00539_DS_=0x2b8
0000018f fd0d                 CLRR 0x72
00000190 fd0e                 CLRR 0x71
00000191 fd0c                 CLRR 0x73
00000192 fd0b                 CLRR 0x74
00000193 e4fc                 BSR 0x3, 0x6
00000194 fd5f                 CLRR 0x20
00000195 c547                 LGOTO 0x2b8; main.o:_00539_DS_=0x2b8
00000196                      main.o:_00538_DS_:
00000196 e0fc                 BCR 0x3, 0x6
00000197 fd52                 CLRR 0x2d
00000198 fd51                 CLRR 0x2e
00000199 def7                 MOVIA 0x8
0000019a fbde                 SUBAR 0x21, 0x0
0000019b f6fc                 BTRSS 0x3, 0x2
0000019c c660                 LGOTO 0x19f; main.o:_00608_DS_=0x19f
0000019d de8e                 MOVIA 0x71
0000019e fbdf                 SUBAR 0x20, 0x0
0000019f                      main.o:_00608_DS_:
0000019f f7fc                 BTRSS 0x3, 0x0
000001a0 c655                 LGOTO 0x1aa; main.o:_00507_DS_=0x1aa
000001a1 defe                 MOVIA 0x1
000001a2 e0fc                 BCR 0x3, 0x6
000001a3 ff06                 MOVAR 0x79
000001a4 de9b                 MOVIA 0x64
000001a5 ff0a                 MOVAR 0x75
000001a6 de87                 MOVIA 0x78
000001a7 ff52                 MOVAR 0x2d
000001a8 fd51                 CLRR 0x2e
000001a9 c5d8                 LGOTO 0x227; main.o:_00508_DS_=0x227
000001aa                      main.o:_00507_DS_:
000001aa def7                 MOVIA 0x8
000001ab e0fc                 BCR 0x3, 0x6
000001ac fbde                 SUBAR 0x21, 0x0
000001ad f6fc                 BTRSS 0x3, 0x2
000001ae c64e                 LGOTO 0x1b1; main.o:_00609_DS_=0x1b1
000001af dea3                 MOVIA 0x5c
000001b0 fbdf                 SUBAR 0x20, 0x0
000001b1                      main.o:_00609_DS_:
000001b1 f7fc                 BTRSS 0x3, 0x0
000001b2 c63f                 LGOTO 0x1c0; main.o:_00504_DS_=0x1c0
000001b3 def7                 MOVIA 0x8
000001b4 e0fc                 BCR 0x3, 0x6
000001b5 fcdf                 ADDAR 0x20, 0x0
000001b6 ff52                 MOVAR 0x2d
000001b7 de07                 MOVIA 0xf8
000001b8 ff51                 MOVAR 0x2e
000001b9 fede                 MOVR 0x21, 0x0
000001ba f3fc                 BTRSC 0x3, 0x0
000001bb fade                 INCR 0x21, 0x0
000001bc f2fc                 BTRSC 0x3, 0x2
000001bd c640                 LGOTO 0x1bf; main.o:_00003_DS_=0x1bf
000001be fc51                 ADDAR 0x2e, 0x1
000001bf                      main.o:_00003_DS_:
000001bf c5d8                 LGOTO 0x227; main.o:_00508_DS_=0x227
000001c0                      main.o:_00504_DS_:
000001c0 def7                 MOVIA 0x8
000001c1 e0fc                 BCR 0x3, 0x6
000001c2 fbde                 SUBAR 0x21, 0x0
000001c3 f6fc                 BTRSS 0x3, 0x2
000001c4 c638                 LGOTO 0x1c7; main.o:_00610_DS_=0x1c7
000001c5 decb                 MOVIA 0x34
000001c6 fbdf                 SUBAR 0x20, 0x0
000001c7                      main.o:_00610_DS_:
000001c7 f7fc                 BTRSS 0x3, 0x0
000001c8 c61c                 LGOTO 0x1e3; main.o:_00501_DS_=0x1e3
000001c9 de33                 MOVIA 0xcc
000001ca e0fc                 BCR 0x3, 0x6
000001cb fcdf                 ADDAR 0x20, 0x0
000001cc ff50                 MOVAR 0x2f
000001cd de08                 MOVIA 0xf7
000001ce ff4f                 MOVAR 0x30
000001cf fede                 MOVR 0x21, 0x0
000001d0 f3fc                 BTRSC 0x3, 0x0
000001d1 fade                 INCR 0x21, 0x0
000001d2 f2fc                 BTRSC 0x3, 0x2
000001d3 c62a                 LGOTO 0x1d5; main.o:_00004_DS_=0x1d5
000001d4 fc4f                 ADDAR 0x30, 0x1
000001d5                      main.o:_00004_DS_:
000001d5 e3fc                 BCR 0x3, 0x0
000001d6 e0fc                 BCR 0x3, 0x6
000001d7 eccf                 RRR 0x30, 0x0
000001d8 ff4d                 MOVAR 0x32
000001d9 ecd0                 RRR 0x2f, 0x0
000001da ff4e                 MOVAR 0x31
000001db deaf                 MOVIA 0x50
000001dc fcce                 ADDAR 0x31, 0x0
000001dd ff52                 MOVAR 0x2d
000001de fd51                 CLRR 0x2e
000001df eb51                 RLR 0x2e, 0x1
000001e0 fecd                 MOVR 0x32, 0x0
000001e1 fc51                 ADDAR 0x2e, 0x1
000001e2 c5d8                 LGOTO 0x227; main.o:_00508_DS_=0x227
000001e3                      main.o:_00501_DS_:
000001e3 def8                 MOVIA 0x7
000001e4 e0fc                 BCR 0x3, 0x6
000001e5 fbde                 SUBAR 0x21, 0x0
000001e6 f6fc                 BTRSS 0x3, 0x2
000001e7 c615                 LGOTO 0x1ea; main.o:_00611_DS_=0x1ea
000001e8 dea1                 MOVIA 0x5e
000001e9 fbdf                 SUBAR 0x20, 0x0
000001ea                      main.o:_00611_DS_:
000001ea f7fc                 BTRSS 0x3, 0x0
000001eb c5f6                 LGOTO 0x209; main.o:_00498_DS_=0x209
000001ec de5d                 MOVIA 0xa2
000001ed e0fc                 BCR 0x3, 0x6
000001ee fcdf                 ADDAR 0x20, 0x0
000001ef ff50                 MOVAR 0x2f
000001f0 de07                 MOVIA 0xf8
000001f1 ff4f                 MOVAR 0x30
000001f2 fede                 MOVR 0x21, 0x0
000001f3 f3fc                 BTRSC 0x3, 0x0
000001f4 fade                 INCR 0x21, 0x0
000001f5 f2fc                 BTRSC 0x3, 0x2
000001f6 c607                 LGOTO 0x1f8; main.o:_00005_DS_=0x1f8
000001f7 fc4f                 ADDAR 0x30, 0x1
000001f8                      main.o:_00005_DS_:
000001f8 e3fc                 BCR 0x3, 0x0
000001f9 e0fc                 BCR 0x3, 0x6
000001fa eccf                 RRR 0x30, 0x0
000001fb ff4d                 MOVAR 0x32
000001fc ecd0                 RRR 0x2f, 0x0
000001fd ff4e                 MOVAR 0x31
000001fe e3fc                 BCR 0x3, 0x0
000001ff ec4d                 RRR 0x32, 0x1
00000200 ec4e                 RRR 0x31, 0x1
00000201 dee4                 MOVIA 0x1b
00000202 fcce                 ADDAR 0x31, 0x0
00000203 ff52                 MOVAR 0x2d
00000204 fd51                 CLRR 0x2e
00000205 eb51                 RLR 0x2e, 0x1
00000206 fecd                 MOVR 0x32, 0x0
00000207 fc51                 ADDAR 0x2e, 0x1
00000208 c5d8                 LGOTO 0x227; main.o:_00508_DS_=0x227
00000209                      main.o:_00498_DS_:
00000209 defa                 MOVIA 0x5
0000020a e0fc                 BCR 0x3, 0x6
0000020b fbde                 SUBAR 0x21, 0x0
0000020c f6fc                 BTRSS 0x3, 0x2
0000020d c5ef                 LGOTO 0x210; main.o:_00612_DS_=0x210
0000020e de55                 MOVIA 0xaa
0000020f fbdf                 SUBAR 0x20, 0x0
00000210                      main.o:_00612_DS_:
00000210 f7fc                 BTRSS 0x3, 0x0
00000211 c5d8                 LGOTO 0x227; main.o:_00508_DS_=0x227
00000212 dea9                 MOVIA 0x56
00000213 e0fc                 BCR 0x3, 0x6
00000214 fcdf                 ADDAR 0x20, 0x0
00000215 ff50                 MOVAR 0x2f
00000216 de05                 MOVIA 0xfa
00000217 ff4f                 MOVAR 0x30
00000218 fede                 MOVR 0x21, 0x0
00000219 f3fc                 BTRSC 0x3, 0x0
0000021a fade                 INCR 0x21, 0x0
0000021b f2fc                 BTRSC 0x3, 0x2
0000021c c5e1                 LGOTO 0x21e; main.o:_00006_DS_=0x21e
0000021d fc4f                 ADDAR 0x30, 0x1
0000021e                      main.o:_00006_DS_:
0000021e e0fc                 BCR 0x3, 0x6
0000021f ead0                 SWAPR 0x2f, 0x0
00000220 ddf0                 ANDIA 0xf
00000221 ff52                 MOVAR 0x2d
00000222 eacf                 SWAPR 0x30, 0x0
00000223 ff51                 MOVAR 0x2e
00000224 dd0f                 ANDIA 0xf0
00000225 ee52                 IORAR 0x2d, 0x1
00000226 ed51                 XORAR 0x2e, 0x1
00000227                      main.o:_00508_DS_:
00000227 e0fc                 BCR 0x3, 0x6
00000228 f57a                 BTRSS 0x5, 0x5
00000229 c56a                 LGOTO 0x295; main.o:_00535_DS_=0x295
0000022a deff                 MOVIA 0x0
0000022b fbd1                 SUBAR 0x2e, 0x0
0000022c f6fc                 BTRSS 0x3, 0x2
0000022d c5cf                 LGOTO 0x230; main.o:_00613_DS_=0x230
0000022e def0                 MOVIA 0xf
0000022f fbd2                 SUBAR 0x2d, 0x0
00000230                      main.o:_00613_DS_:
00000230 f3fc                 BTRSC 0x3, 0x0
00000231 c5c8                 LGOTO 0x237; main.o:_00524_DS_=0x237
00000232 defe                 MOVIA 0x1
00000233 e0fc                 BCR 0x3, 0x6
00000234 ff52                 MOVAR 0x2d
00000235 fd51                 CLRR 0x2e
00000236 c579                 LGOTO 0x286; main.o:_00011_DS_=0x286
00000237                      main.o:_00524_DS_:
00000237 deff                 MOVIA 0x0
00000238 e0fc                 BCR 0x3, 0x6
00000239 fbd1                 SUBAR 0x2e, 0x0
0000023a f6fc                 BTRSS 0x3, 0x2
0000023b c5c1                 LGOTO 0x23e; main.o:_00614_DS_=0x23e
0000023c dee1                 MOVIA 0x1e
0000023d fbd2                 SUBAR 0x2d, 0x0
0000023e                      main.o:_00614_DS_:
0000023e f3fc                 BTRSC 0x3, 0x0
0000023f c5b8                 LGOTO 0x247; main.o:_00521_DS_=0x247
00000240 de0f                 MOVIA 0xf0
00000241 e0fc                 BCR 0x3, 0x6
00000242 fc52                 ADDAR 0x2d, 0x1
00000243 f3fc                 BTRSC 0x3, 0x0
00000244 c5b9                 LGOTO 0x246; main.o:_00007_DS_=0x246
00000245 f951                 DECR 0x2e, 0x1
00000246                      main.o:_00007_DS_:
00000246 c579                 LGOTO 0x286; main.o:_00011_DS_=0x286
00000247                      main.o:_00521_DS_:
00000247 deff                 MOVIA 0x0
00000248 e0fc                 BCR 0x3, 0x6
00000249 fbd1                 SUBAR 0x2e, 0x0
0000024a f6fc                 BTRSS 0x3, 0x2
0000024b c5b1                 LGOTO 0x24e; main.o:_00615_DS_=0x24e
0000024c ded7                 MOVIA 0x28
0000024d fbd2                 SUBAR 0x2d, 0x0
0000024e                      main.o:_00615_DS_:
0000024e f3fc                 BTRSC 0x3, 0x0
0000024f c5a8                 LGOTO 0x257; main.o:_00518_DS_=0x257
00000250 de10                 MOVIA 0xef
00000251 e0fc                 BCR 0x3, 0x6
00000252 fc52                 ADDAR 0x2d, 0x1
00000253 f3fc                 BTRSC 0x3, 0x0
00000254 c5a9                 LGOTO 0x256; main.o:_00008_DS_=0x256
00000255 f951                 DECR 0x2e, 0x1
00000256                      main.o:_00008_DS_:
00000256 c579                 LGOTO 0x286; main.o:_00011_DS_=0x286
00000257                      main.o:_00518_DS_:
00000257 deff                 MOVIA 0x0
00000258 e0fc                 BCR 0x3, 0x6
00000259 fbd1                 SUBAR 0x2e, 0x0
0000025a f6fc                 BTRSS 0x3, 0x2
0000025b c5a1                 LGOTO 0x25e; main.o:_00616_DS_=0x25e
0000025c decd                 MOVIA 0x32
0000025d fbd2                 SUBAR 0x2d, 0x0
0000025e                      main.o:_00616_DS_:
0000025e f3fc                 BTRSC 0x3, 0x0
0000025f c598                 LGOTO 0x267; main.o:_00515_DS_=0x267
00000260 de11                 MOVIA 0xee
00000261 e0fc                 BCR 0x3, 0x6
00000262 fc52                 ADDAR 0x2d, 0x1
00000263 f3fc                 BTRSC 0x3, 0x0
00000264 c599                 LGOTO 0x266; main.o:_00009_DS_=0x266
00000265 f951                 DECR 0x2e, 0x1
00000266                      main.o:_00009_DS_:
00000266 c579                 LGOTO 0x286; main.o:_00011_DS_=0x286
00000267                      main.o:_00515_DS_:
00000267 deff                 MOVIA 0x0
00000268 e0fc                 BCR 0x3, 0x6
00000269 fbd1                 SUBAR 0x2e, 0x0
0000026a f6fc                 BTRSS 0x3, 0x2
0000026b c591                 LGOTO 0x26e; main.o:_00617_DS_=0x26e
0000026c dec3                 MOVIA 0x3c
0000026d fbd2                 SUBAR 0x2d, 0x0
0000026e                      main.o:_00617_DS_:
0000026e f3fc                 BTRSC 0x3, 0x0
0000026f c588                 LGOTO 0x277; main.o:_00512_DS_=0x277
00000270 de12                 MOVIA 0xed
00000271 e0fc                 BCR 0x3, 0x6
00000272 fc52                 ADDAR 0x2d, 0x1
00000273 f3fc                 BTRSC 0x3, 0x0
00000274 c589                 LGOTO 0x276; main.o:_00010_DS_=0x276
00000275 f951                 DECR 0x2e, 0x1
00000276                      main.o:_00010_DS_:
00000276 c579                 LGOTO 0x286; main.o:_00011_DS_=0x286
00000277                      main.o:_00512_DS_:
00000277 deff                 MOVIA 0x0
00000278 e0fc                 BCR 0x3, 0x6
00000279 fbd1                 SUBAR 0x2e, 0x0
0000027a f6fc                 BTRSS 0x3, 0x2
0000027b c581                 LGOTO 0x27e; main.o:_00618_DS_=0x27e
0000027c de87                 MOVIA 0x78
0000027d fbd2                 SUBAR 0x2d, 0x0
0000027e                      main.o:_00618_DS_:
0000027e f3fc                 BTRSC 0x3, 0x0
0000027f c579                 LGOTO 0x286; main.o:_00011_DS_=0x286
00000280 de13                 MOVIA 0xec
00000281 e0fc                 BCR 0x3, 0x6
00000282 fc52                 ADDAR 0x2d, 0x1
00000283 f3fc                 BTRSC 0x3, 0x0
00000284 c579                 LGOTO 0x286; main.o:_00011_DS_=0x286
00000285 f951                 DECR 0x2e, 0x1
00000286                      main.o:_00011_DS_:
00000286 e0fc                 BCR 0x3, 0x6
00000287 fe8a                 MOVR 0x75, 0x0
00000288 ff50                 MOVAR 0x2f
00000289 fd4f                 CLRR 0x30
0000028a fed1                 MOVR 0x2e, 0x0
0000028b fbcf                 SUBAR 0x30, 0x0
0000028c f6fc                 BTRSS 0x3, 0x2
0000028d c56f                 LGOTO 0x290; main.o:_00619_DS_=0x290
0000028e fed2                 MOVR 0x2d, 0x0
0000028f fbd0                 SUBAR 0x2f, 0x0
00000290                      main.o:_00619_DS_:
00000290 f3fc                 BTRSC 0x3, 0x0
00000291 c547                 LGOTO 0x2b8; main.o:_00539_DS_=0x2b8
00000292 e0fc                 BCR 0x3, 0x6
00000293 fa0a                 INCR 0x75, 0x1
00000294 c547                 LGOTO 0x2b8; main.o:_00539_DS_=0x2b8
00000295                      main.o:_00535_DS_:
00000295 e0fc                 BCR 0x3, 0x6
00000296 fe8a                 MOVR 0x75, 0x0
00000297 f6fc                 BTRSS 0x3, 0x2
00000298 c564                 LGOTO 0x29b; main.o:_00529_DS_=0x29b
00000299 fed2                 MOVR 0x2d, 0x0
0000029a ff0a                 MOVAR 0x75
0000029b                      main.o:_00529_DS_:
0000029b e0fc                 BCR 0x3, 0x6
0000029c fe8a                 MOVR 0x75, 0x0
0000029d ff50                 MOVAR 0x2f
0000029e fd4f                 CLRR 0x30
0000029f deff                 MOVIA 0x0
000002a0 fbd1                 SUBAR 0x2e, 0x0
000002a1 f6fc                 BTRSS 0x3, 0x2
000002a2 c55a                 LGOTO 0x2a5; main.o:_00620_DS_=0x2a5
000002a3 fed0                 MOVR 0x2f, 0x0
000002a4 fbd2                 SUBAR 0x2d, 0x0
000002a5                      main.o:_00620_DS_:
000002a5 f3fc                 BTRSC 0x3, 0x0
000002a6 c547                 LGOTO 0x2b8; main.o:_00539_DS_=0x2b8
000002a7 e4fc                 BSR 0x3, 0x6
000002a8 fa5a                 INCR 0x25, 0x1
000002a9 f2fc                 BTRSC 0x3, 0x2
000002aa fa59                 INCR 0x26, 0x1
000002ab deff                 MOVIA 0x0
000002ac fbd9                 SUBAR 0x26, 0x0
000002ad f6fc                 BTRSS 0x3, 0x2
000002ae c54e                 LGOTO 0x2b1; main.o:_00621_DS_=0x2b1
000002af def4                 MOVIA 0xb
000002b0 fbda                 SUBAR 0x25, 0x0
000002b1                      main.o:_00621_DS_:
000002b1 f7fc                 BTRSS 0x3, 0x0
000002b2 c547                 LGOTO 0x2b8; main.o:_00539_DS_=0x2b8
000002b3 e4fc                 BSR 0x3, 0x6
000002b4 fd5a                 CLRR 0x25
000002b5 fd59                 CLRR 0x26
000002b6 e0fc                 BCR 0x3, 0x6
000002b7 f90a                 DECR 0x75, 0x1
000002b8                      main.o:_00539_DS_:
000002b8 de86                 MOVIA 0x79
000002b9 e0fc                 BCR 0x3, 0x6
000002ba fb8a                 SUBAR 0x75, 0x0
000002bb f7fc                 BTRSS 0x3, 0x0
000002bc c53f                 LGOTO 0x2c0; main.o:_00543_DS_=0x2c0
000002bd de9b                 MOVIA 0x64
000002be ff0a                 MOVAR 0x75
000002bf c538                 LGOTO 0x2c7; main.o:_00545_DS_=0x2c7
000002c0                      main.o:_00543_DS_:
000002c0 de9a                 MOVIA 0x65
000002c1 e0fc                 BCR 0x3, 0x6
000002c2 fb8a                 SUBAR 0x75, 0x0
000002c3 f7fc                 BTRSS 0x3, 0x0
000002c4 c538                 LGOTO 0x2c7; main.o:_00545_DS_=0x2c7
000002c5 de9c                 MOVIA 0x63
000002c6 ff0a                 MOVAR 0x75
000002c7                      main.o:_00545_DS_:
000002c7 ffef                 RET
000002c8                      _initAD:
000002c8 de7f                 MOVIA 0x80
000002c9 ff6f                 MOVAR 0x10
000002ca fd6c                 CLRR 0x13
000002cb deef                 MOVIA 0x10
000002cc ff6e                 MOVAR 0x11
000002cd defc                 MOVIA 0x3
000002ce ff6b                 MOVAR 0x14
000002cf e5ef                 BSR 0x10, 0x4
000002d0 decd                 MOVIA 0x32
000002d1 d6d5                 LCALL 0x12a; _delay=0x12a
000002d2 ffef                 RET
000002d3                      _keyCtr:
000002d3 e0fc                 BCR 0x3, 0x6
000002d4 f8fa                 COMR 0x5, 0x0
000002d5 ff53                 MOVAR 0x2c
000002d6 de7f                 MOVIA 0x80
000002d7 ef53                 ANDAR 0x2c, 0x1
000002d8 fed3                 MOVR 0x2c, 0x0
000002d9 d4d2                 LCALL 0x32d; _keyRead=0x32d
000002da e0fc                 BCR 0x3, 0x6
000002db ff53                 MOVAR 0x2c
000002dc dbfe                 XORIA 0x1
000002dd f6fc                 BTRSS 0x3, 0x2
000002de c4f7                 LGOTO 0x308; main.o:_00482_DS_=0x308
000002df d6a8                 LCALL 0x157; _checkBat=0x157
000002e0 e0fc                 BCR 0x3, 0x6
000002e1 fe8d                 MOVR 0x72, 0x0
000002e2 f2fc                 BTRSC 0x3, 0x2
000002e3 c4d3                 LGOTO 0x32c; main.o:_00484_DS_=0x32c
000002e4 fe8a                 MOVR 0x75, 0x0
000002e5 f2fc                 BTRSC 0x3, 0x2
000002e6 c4d3                 LGOTO 0x32c; main.o:_00484_DS_=0x32c
000002e7 fe94                 MOVR 0x6b, 0x0
000002e8 f6fc                 BTRSS 0x3, 0x2
000002e9 c510                 LGOTO 0x2ef; main.o:_00467_DS_=0x2ef
000002ea defc                 MOVIA 0x3
000002eb ff0c                 MOVAR 0x73
000002ec e4fc                 BSR 0x3, 0x6
000002ed fd5f                 CLRR 0x20
000002ee c4d3                 LGOTO 0x32c; main.o:_00484_DS_=0x32c
000002ef                      main.o:_00467_DS_:
000002ef e0fc                 BCR 0x3, 0x6
000002f0 fe8b                 MOVR 0x74, 0x0
000002f1 f6fc                 BTRSS 0x3, 0x2
000002f2 c506                 LGOTO 0x2f9; main.o:_00464_DS_=0x2f9
000002f3 fd0c                 CLRR 0x73
000002f4 defd                 MOVIA 0x2
000002f5 ff0b                 MOVAR 0x74
000002f6 e4fc                 BSR 0x3, 0x6
000002f7 fd5f                 CLRR 0x20
000002f8 c4d3                 LGOTO 0x32c; main.o:_00484_DS_=0x32c
000002f9                      main.o:_00464_DS_:
000002f9 e0fc                 BCR 0x3, 0x6
000002fa fd0c                 CLRR 0x73
000002fb fa0e                 INCR 0x71, 0x1
000002fc defb                 MOVIA 0x4
000002fd fb8e                 SUBAR 0x71, 0x0
000002fe f7fc                 BTRSS 0x3, 0x0
000002ff c4fd                 LGOTO 0x302; main.o:_00462_DS_=0x302
00000300 defe                 MOVIA 0x1
00000301 ff0e                 MOVAR 0x71
00000302                      main.o:_00462_DS_:
00000302 defd                 MOVIA 0x2
00000303 e0fc                 BCR 0x3, 0x6
00000304 ff0b                 MOVAR 0x74
00000305 e4fc                 BSR 0x3, 0x6
00000306 fd5f                 CLRR 0x20
00000307 c4d3                 LGOTO 0x32c; main.o:_00484_DS_=0x32c
00000308                      main.o:_00482_DS_:
00000308 e0fc                 BCR 0x3, 0x6
00000309 fed3                 MOVR 0x2c, 0x0
0000030a dbfd                 XORIA 0x2
0000030b f6fc                 BTRSS 0x3, 0x2
0000030c c4d3                 LGOTO 0x32c; main.o:_00484_DS_=0x32c
0000030d d6a8                 LCALL 0x157; _checkBat=0x157
0000030e e0fc                 BCR 0x3, 0x6
0000030f fe8d                 MOVR 0x72, 0x0
00000310 f2fc                 BTRSC 0x3, 0x2
00000311 c4e5                 LGOTO 0x31a; main.o:_00477_DS_=0x31a
00000312 fd0d                 CLRR 0x72
00000313 fd0e                 CLRR 0x71
00000314 fd0c                 CLRR 0x73
00000315 fd0b                 CLRR 0x74
00000316 defa                 MOVIA 0x5
00000317 e4fc                 BSR 0x3, 0x6
00000318 ff5f                 MOVAR 0x20
00000319 c4d3                 LGOTO 0x32c; main.o:_00484_DS_=0x32c
0000031a                      main.o:_00477_DS_:
0000031a e0fc                 BCR 0x3, 0x6
0000031b fe8a                 MOVR 0x75, 0x0
0000031c f2fc                 BTRSC 0x3, 0x2
0000031d c4d3                 LGOTO 0x32c; main.o:_00484_DS_=0x32c
0000031e defe                 MOVIA 0x1
0000031f ff0d                 MOVAR 0x72
00000320 defc                 MOVIA 0x3
00000321 ff0c                 MOVAR 0x73
00000322 defd                 MOVIA 0x2
00000323 ff0b                 MOVAR 0x74
00000324 e4fc                 BSR 0x3, 0x6
00000325 fd5f                 CLRR 0x20
00000326 e0fc                 BCR 0x3, 0x6
00000327 fe8e                 MOVR 0x71, 0x0
00000328 f6fc                 BTRSS 0x3, 0x2
00000329 c4d3                 LGOTO 0x32c; main.o:_00484_DS_=0x32c
0000032a defe                 MOVIA 0x1
0000032b ff0e                 MOVAR 0x71
0000032c                      main.o:_00484_DS_:
0000032c ffef                 RET
0000032d                      _keyRead:
0000032d e0fc                 BCR 0x3, 0x6
0000032e ff54                 MOVAR 0x2b
0000032f fed4                 MOVR 0x2b, 0x0
00000330 f2fc                 BTRSC 0x3, 0x2
00000331 c4bf                 LGOTO 0x340; main.o:_00454_DS_=0x340
00000332 fa09                 INCR 0x76, 0x1
00000333 de37                 MOVIA 0xc8
00000334 fb89                 SUBAR 0x76, 0x0
00000335 f7fc                 BTRSS 0x3, 0x0
00000336 c4ac                 LGOTO 0x353; main.o:_00455_DS_=0x353
00000337 de37                 MOVIA 0xc8
00000338 ff09                 MOVAR 0x76
00000339 fe88                 MOVR 0x77, 0x0
0000033a f6fc                 BTRSS 0x3, 0x2
0000033b c4ac                 LGOTO 0x353; main.o:_00455_DS_=0x353
0000033c defe                 MOVIA 0x1
0000033d ff08                 MOVAR 0x77
0000033e defd                 MOVIA 0x2
0000033f c4ab                 LGOTO 0x354; main.o:_00456_DS_=0x354
00000340                      main.o:_00454_DS_:
00000340 de37                 MOVIA 0xc8
00000341 e0fc                 BCR 0x3, 0x6
00000342 fb89                 SUBAR 0x76, 0x0
00000343 f7fc                 BTRSS 0x3, 0x0
00000344 c4b6                 LGOTO 0x349; main.o:_00451_DS_=0x349
00000345 fd09                 CLRR 0x76
00000346 fd08                 CLRR 0x77
00000347 deff                 MOVIA 0x0
00000348 c4ab                 LGOTO 0x354; main.o:_00456_DS_=0x354
00000349                      main.o:_00451_DS_:
00000349 defb                 MOVIA 0x4
0000034a e0fc                 BCR 0x3, 0x6
0000034b fb89                 SUBAR 0x76, 0x0
0000034c f7fc                 BTRSS 0x3, 0x0
0000034d c4ae                 LGOTO 0x351; main.o:_00452_DS_=0x351
0000034e fd09                 CLRR 0x76
0000034f defe                 MOVIA 0x1
00000350 c4ab                 LGOTO 0x354; main.o:_00456_DS_=0x354
00000351                      main.o:_00452_DS_:
00000351 e0fc                 BCR 0x3, 0x6
00000352 fd09                 CLRR 0x76
00000353                      main.o:_00455_DS_:
00000353 deff                 MOVIA 0x0
00000354                      main.o:_00456_DS_:
00000354 ffef                 RET
00000355                      _pwmStop:
00000355 fdff                 CLRA
00000356 ffb5                 SFUN 0xa
00000357 ffef                 RET
00000358                      _pwmInit:
00000358 ff95                 SFUNR 0xa
00000359 e0fc                 BCR 0x3, 0x6
0000035a ff55                 MOVAR 0x2a
0000035b f055                 BTRSC 0x2a, 0x7
0000035c c499                 LGOTO 0x366; main.o:_00435_DS_=0x366
0000035d fd66                 CLRR 0x19
0000035e de9b                 MOVIA 0x64
0000035f ffb6                 SFUN 0x9
00000360 deba                 MOVIA 0x45
00000361 ffb3                 SFUN 0xc
00000362 def8                 MOVIA 0x7
00000363 ffb4                 SFUN 0xb
00000364 de7c                 MOVIA 0x83
00000365 ffb5                 SFUN 0xa
00000366                      main.o:_00435_DS_:
00000366 ffef                 RET
00000367                      _gotoSleep:
00000367 e4fc                 BSR 0x3, 0x6
00000368 fd5d                 CLRR 0x22
00000369 e0fc                 BCR 0x3, 0x6
0000036a fd01                 CLRR 0x7e
0000036b fd00                 CLRR 0x7f
0000036c d2f0                 LCALL 0x50f; _setInput=0x50f
0000036d e0fc                 BCR 0x3, 0x6
0000036e fd07                 CLRR 0x78
0000036f fd0d                 CLRR 0x72
00000370 d4aa                 LCALL 0x355; _pwmStop=0x355
00000371 de5f                 MOVIA 0xa0
00000372 ff6a                 MOVAR 0x15
00000373 def7                 MOVIA 0x8
00000374 fff9                 IOST 0x6
00000375 e0fc                 BCR 0x3, 0x6
00000376 fd7a                 CLRR 0x5
00000377 fd79                 CLRR 0x6
00000378 defd                 MOVIA 0x2
00000379 ff71                 MOVAR 0xe
0000037a dee7                 MOVIA 0x18
0000037b ff77                 MOVAR 0x8
0000037c fd70                 CLRR 0xf
0000037d fffd                 CLRWDT
0000037e fffb                 ENI
0000037f f17a                 BTRSC 0x5, 0x5
00000380 c47d                 LGOTO 0x382; main.o:_00428_DS_=0x382
00000381 fffe                 SLEEP
00000382                      main.o:_00428_DS_:
00000382 fd6a                 CLRR 0x15
00000383 de5f                 MOVIA 0xa0
00000384 fffa                 IOST 0x5
00000385 def7                 MOVIA 0x8
00000386 fff9                 IOST 0x6
00000387 e0fc                 BCR 0x3, 0x6
00000388 fd7a                 CLRR 0x5
00000389 defc                 MOVIA 0x3
0000038a ff71                 MOVAR 0xe
0000038b fd70                 CLRR 0xf
0000038c de47                 MOVIA 0xb8
0000038d ff77                 MOVAR 0x8
0000038e ffef                 RET
0000038f                      _initSys:
0000038f ffec                 DISI
00000390 de5f                 MOVIA 0xa0
00000391 fffa                 IOST 0x5
00000392 def7                 MOVIA 0x8
00000393 fff9                 IOST 0x6
00000394 fd79                 CLRR 0x6
00000395 e0fc                 BCR 0x3, 0x6
00000396 fd7a                 CLRR 0x5
00000397 d2f0                 LCALL 0x50f; _setInput=0x50f
00000398 de80                 MOVIA 0x7f
00000399 fff6                 IOST 0x9
0000039a de00                 MOVIA 0xff
0000039b ff73                 MOVAR 0xc
0000039c ff74                 MOVAR 0xb
0000039d defc                 MOVIA 0x3
0000039e ff71                 MOVAR 0xe
0000039f fdff                 CLRA
000003a0 fff0                 IOST 0xf
000003a1 dec8                 MOVIA 0x37
000003a2 ff7e                 MOVAR 0x1
000003a3 fdff                 CLRA
000003a4 fffc                 T0MD
000003a5 defe                 MOVIA 0x1
000003a6 fff0                 IOST 0xf
000003a7 de67                 MOVIA 0x98
000003a8 ff77                 MOVAR 0x8
000003a9 defe                 MOVIA 0x1
000003aa fff0                 IOST 0xf
000003ab fffb                 ENI
000003ac ffef                 RET
000003ad                      _refreshNub:
000003ad e0fc                 BCR 0x3, 0x6
000003ae fe97                 MOVR 0x68, 0x0
000003af da51                 ADDIA 0xae
000003b0 ff57                 MOVAR 0x28
000003b1 deff                 MOVIA 0x0
000003b2 f3fc                 BTRSC 0x3, 0x0
000003b3 dafe                 ADDIA 0x1
000003b4 ff56                 MOVAR 0x29
000003b5 fed7                 MOVR 0x28, 0x0
000003b6 ff37                 MOVAR 0x48
000003b7 fed6                 MOVR 0x29, 0x0
000003b8 ff36                 MOVAR 0x49
000003b9 deff                 MOVIA 0x0
000003ba d08c                 LCALL 0x773; __gptrget=0x773
000003bb d1b0                 LCALL 0x64f; _showNubBaiwei=0x64f
000003bc e0fc                 BCR 0x3, 0x6
000003bd fe96                 MOVR 0x69, 0x0
000003be da51                 ADDIA 0xae
000003bf ff57                 MOVAR 0x28
000003c0 deff                 MOVIA 0x0
000003c1 f3fc                 BTRSC 0x3, 0x0
000003c2 dafe                 ADDIA 0x1
000003c3 ff56                 MOVAR 0x29
000003c4 fed7                 MOVR 0x28, 0x0
000003c5 ff37                 MOVAR 0x48
000003c6 fed6                 MOVR 0x29, 0x0
000003c7 ff36                 MOVAR 0x49
000003c8 deff                 MOVIA 0x0
000003c9 d08c                 LCALL 0x773; __gptrget=0x773
000003ca d130                 LCALL 0x6cf; _showNubShiwei=0x6cf
000003cb e0fc                 BCR 0x3, 0x6
000003cc fe95                 MOVR 0x6a, 0x0
000003cd da51                 ADDIA 0xae
000003ce ff57                 MOVAR 0x28
000003cf deff                 MOVIA 0x0
000003d0 f3fc                 BTRSC 0x3, 0x0
000003d1 dafe                 ADDIA 0x1
000003d2 ff56                 MOVAR 0x29
000003d3 fed7                 MOVR 0x28, 0x0
000003d4 ff37                 MOVAR 0x48
000003d5 fed6                 MOVR 0x29, 0x0
000003d6 ff36                 MOVAR 0x49
000003d7 deff                 MOVIA 0x0
000003d8 d08c                 LCALL 0x773; __gptrget=0x773
000003d9 d170                 LCALL 0x68f; _showNubGewei=0x68f
000003da d2f0                 LCALL 0x50f; _setInput=0x50f
000003db ffef                 RET
000003dc                      _checkIRKey:
000003dc e0fc                 BCR 0x3, 0x6
000003dd fe8d                 MOVR 0x72, 0x0
000003de f6fc                 BTRSS 0x3, 0x2
000003df c41d                 LGOTO 0x3e2; main.o:_00394_DS_=0x3e2
000003e0 fd13                 CLRR 0x6c
000003e1 c3cd                 LGOTO 0x432; main.o:_00012_DS_=0x432
000003e2                      main.o:_00394_DS_:
000003e2 e4fc                 BSR 0x3, 0x6
000003e3 fed2                 MOVR 0x2d, 0x0
000003e4 dbfe                 XORIA 0x1
000003e5 f6fc                 BTRSS 0x3, 0x2
000003e6 c3d7                 LGOTO 0x428; main.o:_00411_DS_=0x428
000003e7 fef9                 MOVR 0x6, 0x0
000003e8 ddf7                 ANDIA 0x8
000003e9 f6fc                 BTRSS 0x3, 0x2
000003ea defe                 MOVIA 0x1
000003eb e0fc                 BCR 0x3, 0x6
000003ec ff58                 MOVAR 0x27
000003ed fed8                 MOVR 0x27, 0x0
000003ee f6fc                 BTRSS 0x3, 0x2
000003ef c3d7                 LGOTO 0x428; main.o:_00411_DS_=0x428
000003f0 e4fc                 BSR 0x3, 0x6
000003f1 fd5e                 CLRR 0x21
000003f2 fd58                 CLRR 0x27
000003f3 fd57                 CLRR 0x28
000003f4 e0fc                 BCR 0x3, 0x6
000003f5 fa12                 INCR 0x6d, 0x1
000003f6 def9                 MOVIA 0x6
000003f7 fb92                 SUBAR 0x6d, 0x0
000003f8 f7fc                 BTRSS 0x3, 0x0
000003f9 c403                 LGOTO 0x3fc; main.o:_00396_DS_=0x3fc
000003fa def9                 MOVIA 0x6
000003fb ff12                 MOVAR 0x6d
000003fc                      main.o:_00396_DS_:
000003fc def9                 MOVIA 0x6
000003fd e0fc                 BCR 0x3, 0x6
000003fe fb92                 SUBAR 0x6d, 0x0
000003ff f7fc                 BTRSS 0x3, 0x0
00000400 c3cd                 LGOTO 0x432; main.o:_00012_DS_=0x432
00000401 fe93                 MOVR 0x6c, 0x0
00000402 f6fc                 BTRSS 0x3, 0x2
00000403 c3cd                 LGOTO 0x432; main.o:_00012_DS_=0x432
00000404 defe                 MOVIA 0x1
00000405 ff13                 MOVAR 0x6c
00000406 fe8e                 MOVR 0x71, 0x0
00000407 dbfe                 XORIA 0x1
00000408 f6fc                 BTRSS 0x3, 0x2
00000409 c3f1                 LGOTO 0x40e; main.o:_00403_DS_=0x40e
0000040a dec0                 MOVIA 0x3f
0000040b ff10                 MOVAR 0x6f
0000040c fd0f                 CLRR 0x70
0000040d c3e0                 LGOTO 0x41f; main.o:_00404_DS_=0x41f
0000040e                      main.o:_00403_DS_:
0000040e e0fc                 BCR 0x3, 0x6
0000040f fe8e                 MOVR 0x71, 0x0
00000410 dbfd                 XORIA 0x2
00000411 f6fc                 BTRSS 0x3, 0x2
00000412 c3e8                 LGOTO 0x417; main.o:_00400_DS_=0x417
00000413 de9b                 MOVIA 0x64
00000414 ff10                 MOVAR 0x6f
00000415 fd0f                 CLRR 0x70
00000416 c3e0                 LGOTO 0x41f; main.o:_00404_DS_=0x41f
00000417                      main.o:_00400_DS_:
00000417 e0fc                 BCR 0x3, 0x6
00000418 fe8e                 MOVR 0x71, 0x0
00000419 dbfc                 XORIA 0x3
0000041a f6fc                 BTRSS 0x3, 0x2
0000041b c3e0                 LGOTO 0x41f; main.o:_00404_DS_=0x41f
0000041c de69                 MOVIA 0x96
0000041d ff10                 MOVAR 0x6f
0000041e fd0f                 CLRR 0x70
0000041f                      main.o:_00404_DS_:
0000041f decd                 MOVIA 0x32
00000420 e0fc                 BCR 0x3, 0x6
00000421 fc90                 ADDAR 0x6f, 0x0
00000422 ff01                 MOVAR 0x7e
00000423 fd00                 CLRR 0x7f
00000424 eb00                 RLR 0x7f, 0x1
00000425 fe8f                 MOVR 0x70, 0x0
00000426 fc00                 ADDAR 0x7f, 0x1
00000427 c3cd                 LGOTO 0x432; main.o:_00012_DS_=0x432
00000428                      main.o:_00411_DS_:
00000428 e0fc                 BCR 0x3, 0x6
00000429 fd12                 CLRR 0x6d
0000042a e4fc                 BSR 0x3, 0x6
0000042b fa5e                 INCR 0x21, 0x1
0000042c deea                 MOVIA 0x15
0000042d fbde                 SUBAR 0x21, 0x0
0000042e f7fc                 BTRSS 0x3, 0x0
0000042f c3cd                 LGOTO 0x432; main.o:_00012_DS_=0x432
00000430 e0fc                 BCR 0x3, 0x6
00000431 fd13                 CLRR 0x6c
00000432                      main.o:_00012_DS_:
00000432 ffef                 RET
00000433                      _chrgCtr:
00000433 e0fc                 BCR 0x3, 0x6
00000434 f17a                 BTRSC 0x5, 0x5
00000435 c3c8                 LGOTO 0x437; main.o:_00295_DS_=0x437
00000436 fd06                 CLRR 0x79
00000437                      main.o:_00295_DS_:
00000437 e6f3                 BSR 0xc, 0x2
00000438 ffe9                 IOSTR 0x6
00000439 e0fc                 BCR 0x3, 0x6
0000043a ff5a                 MOVAR 0x25
0000043b e2da                 BCR 0x25, 0x2
0000043c feda                 MOVR 0x25, 0x0
0000043d fff9                 IOST 0x6
0000043e fe90                 MOVR 0x6f, 0x0
0000043f ee8f                 IORAR 0x70, 0x0
00000440 f2fc                 BTRSC 0x3, 0x2
00000441 c3b6                 LGOTO 0x449; main.o:_00297_DS_=0x449
00000442 d4a7                 LCALL 0x358; _pwmInit=0x358
00000443 de00                 MOVIA 0xff
00000444 e0fc                 BCR 0x3, 0x6
00000445 fc10                 ADDAR 0x6f, 0x1
00000446 f7fc                 BTRSS 0x3, 0x0
00000447 f90f                 DECR 0x70, 0x1
00000448 c3b1                 LGOTO 0x44e; main.o:_00298_DS_=0x44e
00000449                      main.o:_00297_DS_:
00000449 e0fc                 BCR 0x3, 0x6
0000044a fd10                 CLRR 0x6f
0000044b fd0f                 CLRR 0x70
0000044c d4aa                 LCALL 0x355; _pwmStop=0x355
0000044d e2f9                 BCR 0x6, 0x2
0000044e                      main.o:_00298_DS_:
0000044e e4fc                 BSR 0x3, 0x6
0000044f fed4                 MOVR 0x2b, 0x0
00000450 f2fc                 BTRSC 0x3, 0x2
00000451 c3a2                 LGOTO 0x45d; main.o:_00333_DS_=0x45d
00000452 d6a8                 LCALL 0x157; _checkBat=0x157
00000453 e4fc                 BSR 0x3, 0x6
00000454 f954                 DECR 0x2b, 0x1
00000455 defe                 MOVIA 0x1
00000456 e0fc                 BCR 0x3, 0x6
00000457 ff14                 MOVAR 0x6b
00000458 def7                 MOVIA 0x8
00000459 ff16                 MOVAR 0x69
0000045a ff17                 MOVAR 0x68
0000045b ff15                 MOVAR 0x6a
0000045c c2fd                 LGOTO 0x502; main.o:_00335_DS_=0x502
0000045d                      main.o:_00333_DS_:
0000045d e0fc                 BCR 0x3, 0x6
0000045e fe8b                 MOVR 0x74, 0x0
0000045f f2fc                 BTRSC 0x3, 0x2
00000460 c397                 LGOTO 0x468; main.o:_00330_DS_=0x468
00000461 defe                 MOVIA 0x1
00000462 ff14                 MOVAR 0x6b
00000463 fd16                 CLRR 0x69
00000464 fd17                 CLRR 0x68
00000465 fe8e                 MOVR 0x71, 0x0
00000466 ff15                 MOVAR 0x6a
00000467 c2fd                 LGOTO 0x502; main.o:_00335_DS_=0x502
00000468                      main.o:_00330_DS_:
00000468 e0fc                 BCR 0x3, 0x6
00000469 fe8c                 MOVR 0x73, 0x0
0000046a f6fc                 BTRSS 0x3, 0x2
0000046b c38f                 LGOTO 0x470; main.o:_00325_DS_=0x470
0000046c fe90                 MOVR 0x6f, 0x0
0000046d ee8f                 IORAR 0x70, 0x0
0000046e f2fc                 BTRSC 0x3, 0x2
0000046f c374                 LGOTO 0x48b; main.o:_00326_DS_=0x48b
00000470                      main.o:_00325_DS_:
00000470 defe                 MOVIA 0x1
00000471 e0fc                 BCR 0x3, 0x6
00000472 ff14                 MOVAR 0x6b
00000473 de9b                 MOVIA 0x64
00000474 fb8a                 SUBAR 0x75, 0x0
00000475 f7fc                 BTRSS 0x3, 0x0
00000476 c383                 LGOTO 0x47c; main.o:_00300_DS_=0x47c
00000477 defe                 MOVIA 0x1
00000478 ff17                 MOVAR 0x68
00000479 fd15                 CLRR 0x6a
0000047a fd16                 CLRR 0x69
0000047b c2fd                 LGOTO 0x502; main.o:_00335_DS_=0x502
0000047c                      main.o:_00300_DS_:
0000047c e0fc                 BCR 0x3, 0x6
0000047d fd17                 CLRR 0x68
0000047e def5                 MOVIA 0xa
0000047f ff36                 MOVAR 0x49
00000480 fe8a                 MOVR 0x75, 0x0
00000481 d112                 LCALL 0x6ed; __divuchar=0x6ed
00000482 e0fc                 BCR 0x3, 0x6
00000483 ff16                 MOVAR 0x69
00000484 def5                 MOVIA 0xa
00000485 ff36                 MOVAR 0x49
00000486 fe8a                 MOVR 0x75, 0x0
00000487 d0e9                 LCALL 0x716; __moduchar=0x716
00000488 e0fc                 BCR 0x3, 0x6
00000489 ff15                 MOVAR 0x6a
0000048a c2fd                 LGOTO 0x502; main.o:_00335_DS_=0x502
0000048b                      main.o:_00326_DS_:
0000048b def9                 MOVIA 0x6
0000048c e0fc                 BCR 0x3, 0x6
0000048d fb8a                 SUBAR 0x75, 0x0
0000048e f3fc                 BTRSC 0x3, 0x0
0000048f c334                 LGOTO 0x4cb; main.o:_00320_DS_=0x4cb
00000490 e4fc                 BSR 0x3, 0x6
00000491 fedf                 MOVR 0x20, 0x0
00000492 f6fc                 BTRSS 0x3, 0x2
00000493 c334                 LGOTO 0x4cb; main.o:_00320_DS_=0x4cb
00000494 e0fc                 BCR 0x3, 0x6
00000495 f17a                 BTRSC 0x5, 0x5
00000496 c334                 LGOTO 0x4cb; main.o:_00320_DS_=0x4cb
00000497 fe8d                 MOVR 0x72, 0x0
00000498 f2fc                 BTRSC 0x3, 0x2
00000499 c334                 LGOTO 0x4cb; main.o:_00320_DS_=0x4cb
0000049a defe                 MOVIA 0x1
0000049b ff14                 MOVAR 0x6b
0000049c fa05                 INCR 0x7a, 0x1
0000049d f2fc                 BTRSC 0x3, 0x2
0000049e fa04                 INCR 0x7b, 0x1
0000049f defe                 MOVIA 0x1
000004a0 fb84                 SUBAR 0x7b, 0x0
000004a1 f6fc                 BTRSS 0x3, 0x2
000004a2 c35a                 LGOTO 0x4a5; main.o:_00387_DS_=0x4a5
000004a3 de0a                 MOVIA 0xf5
000004a4 fb85                 SUBAR 0x7a, 0x0
000004a5                      main.o:_00387_DS_:
000004a5 f7fc                 BTRSS 0x3, 0x0
000004a6 c354                 LGOTO 0x4ab; main.o:_00303_DS_=0x4ab
000004a7 e0fc                 BCR 0x3, 0x6
000004a8 fd05                 CLRR 0x7a
000004a9 fd04                 CLRR 0x7b
000004aa fd14                 CLRR 0x6b
000004ab                      main.o:_00303_DS_:
000004ab de9b                 MOVIA 0x64
000004ac ff38                 MOVAR 0x47
000004ad deff                 MOVIA 0x0
000004ae ff37                 MOVAR 0x48
000004af e0fc                 BCR 0x3, 0x6
000004b0 fe85                 MOVR 0x7a, 0x0
000004b1 ff36                 MOVAR 0x49
000004b2 fe84                 MOVR 0x7b, 0x0
000004b3 d0c5                 LCALL 0x73a; __moduint=0x73a
000004b4 e0fc                 BCR 0x3, 0x6
000004b5 ff59                 MOVAR 0x26
000004b6 feb6                 MOVR 0x49, 0x0
000004b7 ff5a                 MOVAR 0x25
000004b8 deff                 MOVIA 0x0
000004b9 fbd9                 SUBAR 0x26, 0x0
000004ba f6fc                 BTRSS 0x3, 0x2
000004bb c341                 LGOTO 0x4be; main.o:_00388_DS_=0x4be
000004bc decd                 MOVIA 0x32
000004bd fbda                 SUBAR 0x25, 0x0
000004be                      main.o:_00388_DS_:
000004be f3fc                 BTRSC 0x3, 0x0
000004bf c337                 LGOTO 0x4c8; main.o:_00305_DS_=0x4c8
000004c0 defe                 MOVIA 0x1
000004c1 e0fc                 BCR 0x3, 0x6
000004c2 ff14                 MOVAR 0x6b
000004c3 fd17                 CLRR 0x68
000004c4 fd16                 CLRR 0x69
000004c5 fe8a                 MOVR 0x75, 0x0
000004c6 ff15                 MOVAR 0x6a
000004c7 c2fd                 LGOTO 0x502; main.o:_00335_DS_=0x502
000004c8                      main.o:_00305_DS_:
000004c8 e0fc                 BCR 0x3, 0x6
000004c9 fd14                 CLRR 0x6b
000004ca c2fd                 LGOTO 0x502; main.o:_00335_DS_=0x502
000004cb                      main.o:_00320_DS_:
000004cb e4fc                 BSR 0x3, 0x6
000004cc fedf                 MOVR 0x20, 0x0
000004cd f2fc                 BTRSC 0x3, 0x2
000004ce c328                 LGOTO 0x4d7; main.o:_00317_DS_=0x4d7
000004cf defe                 MOVIA 0x1
000004d0 e0fc                 BCR 0x3, 0x6
000004d1 ff14                 MOVAR 0x6b
000004d2 fd17                 CLRR 0x68
000004d3 def5                 MOVIA 0xa
000004d4 ff16                 MOVAR 0x69
000004d5 ff15                 MOVAR 0x6a
000004d6 c2fd                 LGOTO 0x502; main.o:_00335_DS_=0x502
000004d7                      main.o:_00317_DS_:
000004d7 e0fc                 BCR 0x3, 0x6
000004d8 f57a                 BTRSS 0x5, 0x5
000004d9 c2ff                 LGOTO 0x500; main.o:_00314_DS_=0x500
000004da defe                 MOVIA 0x1
000004db ff14                 MOVAR 0x6b
000004dc fe86                 MOVR 0x79, 0x0
000004dd f2fc                 BTRSC 0x3, 0x2
000004de c31a                 LGOTO 0x4e5; main.o:_00311_DS_=0x4e5
000004df defe                 MOVIA 0x1
000004e0 ff06                 MOVAR 0x79
000004e1 ff17                 MOVAR 0x68
000004e2 fd15                 CLRR 0x6a
000004e3 fd16                 CLRR 0x69
000004e4 c2fd                 LGOTO 0x502; main.o:_00335_DS_=0x502
000004e5                      main.o:_00311_DS_:
000004e5 e0fc                 BCR 0x3, 0x6
000004e6 fe8a                 MOVR 0x75, 0x0
000004e7 db9b                 XORIA 0x64
000004e8 f6fc                 BTRSS 0x3, 0x2
000004e9 c30e                 LGOTO 0x4f1; main.o:_00308_DS_=0x4f1
000004ea defe                 MOVIA 0x1
000004eb ff06                 MOVAR 0x79
000004ec fd17                 CLRR 0x68
000004ed def6                 MOVIA 0x9
000004ee ff16                 MOVAR 0x69
000004ef ff15                 MOVAR 0x6a
000004f0 c2fd                 LGOTO 0x502; main.o:_00335_DS_=0x502
000004f1                      main.o:_00308_DS_:
000004f1 e0fc                 BCR 0x3, 0x6
000004f2 fd17                 CLRR 0x68
000004f3 def5                 MOVIA 0xa
000004f4 ff36                 MOVAR 0x49
000004f5 fe8a                 MOVR 0x75, 0x0
000004f6 d112                 LCALL 0x6ed; __divuchar=0x6ed
000004f7 e0fc                 BCR 0x3, 0x6
000004f8 ff16                 MOVAR 0x69
000004f9 def5                 MOVIA 0xa
000004fa ff36                 MOVAR 0x49
000004fb fe8a                 MOVR 0x75, 0x0
000004fc d0e9                 LCALL 0x716; __moduchar=0x716
000004fd e0fc                 BCR 0x3, 0x6
000004fe ff15                 MOVAR 0x6a
000004ff c2fd                 LGOTO 0x502; main.o:_00335_DS_=0x502
00000500                      main.o:_00314_DS_:
00000500 e0fc                 BCR 0x3, 0x6
00000501 fd14                 CLRR 0x6b
00000502                      main.o:_00335_DS_:
00000502 ffef                 RET
00000503                      _delayms:
00000503 e0fc                 BCR 0x3, 0x6
00000504 ff2a                 MOVAR 0x55
00000505 fd29                 CLRR 0x56
00000506                      number.o:_00400_DS_:
00000506 e0fc                 BCR 0x3, 0x6
00000507 feaa                 MOVR 0x55, 0x0
00000508 fba9                 SUBAR 0x56, 0x0
00000509 f3fc                 BTRSC 0x3, 0x0
0000050a c2f1                 LGOTO 0x50e; number.o:_00402_DS_=0x50e
0000050b ffff                 NOP
0000050c fa29                 INCR 0x56, 0x1
0000050d c2f9                 LGOTO 0x506; number.o:_00400_DS_=0x506
0000050e                      number.o:_00402_DS_:
0000050e ffef                 RET
0000050f                      _setInput:
0000050f e3f9                 BCR 0x6, 0x0
00000510 de1f                 MOVIA 0xe0
00000511 e0fc                 BCR 0x3, 0x6
00000512 ef7a                 ANDAR 0x5, 0x1
00000513 de40                 MOVIA 0xbf
00000514 fffa                 IOST 0x5
00000515 ffe9                 IOSTR 0x6
00000516 ff2b                 MOVAR 0x54
00000517 e7ab                 BSR 0x54, 0x0
00000518 feab                 MOVR 0x54, 0x0
00000519 fff9                 IOST 0x6
0000051a ffef                 RET
0000051b                      _setOutput:
0000051b e0fc                 BCR 0x3, 0x6
0000051c ff2c                 MOVAR 0x53
0000051d defe                 MOVIA 0x1
0000051e fbac                 SUBAR 0x53, 0x0
0000051f f7fc                 BTRSS 0x3, 0x0
00000520 c2a3                 LGOTO 0x55c; number.o:_00379_DS_=0x55c
00000521 def8                 MOVIA 0x7
00000522 fbac                 SUBAR 0x53, 0x0
00000523 f3fc                 BTRSC 0x3, 0x0
00000524 c2a3                 LGOTO 0x55c; number.o:_00379_DS_=0x55c
00000525 f92c                 DECR 0x53, 0x1
00000526 defa                 MOVIA 0x5
00000527 ff75                 MOVAR 0xa
00000528 feac                 MOVR 0x53, 0x0
00000529 dad2                 ADDIA 0x2d
0000052a f3fc                 BTRSC 0x3, 0x0
0000052b fa75                 INCR 0xa, 0x1
0000052c ff7d                 MOVAR 0x2
0000052d                      number.o:_00389_DS_:
0000052d c2cc                 LGOTO 0x533; number.o:_00372_DS_=0x533
0000052e c2c5                 LGOTO 0x53a; number.o:_00373_DS_=0x53a
0000052f c2be                 LGOTO 0x541; number.o:_00374_DS_=0x541
00000530 c2b7                 LGOTO 0x548; number.o:_00375_DS_=0x548
00000531 c2b0                 LGOTO 0x54f; number.o:_00376_DS_=0x54f
00000532 c2a9                 LGOTO 0x556; number.o:_00377_DS_=0x556
00000533                      number.o:_00372_DS_:
00000533 ffe9                 IOSTR 0x6
00000534 e0fc                 BCR 0x3, 0x6
00000535 ff2c                 MOVAR 0x53
00000536 e3ac                 BCR 0x53, 0x0
00000537 feac                 MOVR 0x53, 0x0
00000538 fff9                 IOST 0x6
00000539 c2a3                 LGOTO 0x55c; number.o:_00379_DS_=0x55c
0000053a                      number.o:_00373_DS_:
0000053a ffea                 IOSTR 0x5
0000053b e0fc                 BCR 0x3, 0x6
0000053c ff2c                 MOVAR 0x53
0000053d e3ac                 BCR 0x53, 0x0
0000053e feac                 MOVR 0x53, 0x0
0000053f fffa                 IOST 0x5
00000540 c2a3                 LGOTO 0x55c; number.o:_00379_DS_=0x55c
00000541                      number.o:_00374_DS_:
00000541 ffea                 IOSTR 0x5
00000542 e0fc                 BCR 0x3, 0x6
00000543 ff2c                 MOVAR 0x53
00000544 e32c                 BCR 0x53, 0x1
00000545 feac                 MOVR 0x53, 0x0
00000546 fffa                 IOST 0x5
00000547 c2a3                 LGOTO 0x55c; number.o:_00379_DS_=0x55c
00000548                      number.o:_00375_DS_:
00000548 ffea                 IOSTR 0x5
00000549 e0fc                 BCR 0x3, 0x6
0000054a ff2c                 MOVAR 0x53
0000054b e2ac                 BCR 0x53, 0x2
0000054c feac                 MOVR 0x53, 0x0
0000054d fffa                 IOST 0x5
0000054e c2a3                 LGOTO 0x55c; number.o:_00379_DS_=0x55c
0000054f                      number.o:_00376_DS_:
0000054f ffea                 IOSTR 0x5
00000550 e0fc                 BCR 0x3, 0x6
00000551 ff2c                 MOVAR 0x53
00000552 e22c                 BCR 0x53, 0x3
00000553 feac                 MOVR 0x53, 0x0
00000554 fffa                 IOST 0x5
00000555 c2a3                 LGOTO 0x55c; number.o:_00379_DS_=0x55c
00000556                      number.o:_00377_DS_:
00000556 ffea                 IOSTR 0x5
00000557 e0fc                 BCR 0x3, 0x6
00000558 ff2c                 MOVAR 0x53
00000559 e1ac                 BCR 0x53, 0x4
0000055a feac                 MOVR 0x53, 0x0
0000055b fffa                 IOST 0x5
0000055c                      number.o:_00379_DS_:
0000055c ffef                 RET
0000055d                      _setlowOutput:
0000055d e0fc                 BCR 0x3, 0x6
0000055e ff2d                 MOVAR 0x52
0000055f defe                 MOVIA 0x1
00000560 fbad                 SUBAR 0x52, 0x0
00000561 f7fc                 BTRSS 0x3, 0x0
00000562 c27a                 LGOTO 0x585; number.o:_00357_DS_=0x585
00000563 def8                 MOVIA 0x7
00000564 fbad                 SUBAR 0x52, 0x0
00000565 f3fc                 BTRSC 0x3, 0x0
00000566 c27a                 LGOTO 0x585; number.o:_00357_DS_=0x585
00000567 f92d                 DECR 0x52, 0x1
00000568 defa                 MOVIA 0x5
00000569 ff75                 MOVAR 0xa
0000056a fead                 MOVR 0x52, 0x0
0000056b da90                 ADDIA 0x6f
0000056c f3fc                 BTRSC 0x3, 0x0
0000056d fa75                 INCR 0xa, 0x1
0000056e ff7d                 MOVAR 0x2
0000056f                      number.o:_00367_DS_:
0000056f c28a                 LGOTO 0x575; number.o:_00350_DS_=0x575
00000570 c288                 LGOTO 0x577; number.o:_00351_DS_=0x577
00000571 c285                 LGOTO 0x57a; number.o:_00352_DS_=0x57a
00000572 c282                 LGOTO 0x57d; number.o:_00353_DS_=0x57d
00000573 c27f                 LGOTO 0x580; number.o:_00354_DS_=0x580
00000574 c27c                 LGOTO 0x583; number.o:_00355_DS_=0x583
00000575                      number.o:_00350_DS_:
00000575 e3f9                 BCR 0x6, 0x0
00000576 c27a                 LGOTO 0x585; number.o:_00357_DS_=0x585
00000577                      number.o:_00351_DS_:
00000577 e0fc                 BCR 0x3, 0x6
00000578 e3fa                 BCR 0x5, 0x0
00000579 c27a                 LGOTO 0x585; number.o:_00357_DS_=0x585
0000057a                      number.o:_00352_DS_:
0000057a e0fc                 BCR 0x3, 0x6
0000057b e37a                 BCR 0x5, 0x1
0000057c c27a                 LGOTO 0x585; number.o:_00357_DS_=0x585
0000057d                      number.o:_00353_DS_:
0000057d e0fc                 BCR 0x3, 0x6
0000057e e2fa                 BCR 0x5, 0x2
0000057f c27a                 LGOTO 0x585; number.o:_00357_DS_=0x585
00000580                      number.o:_00354_DS_:
00000580 e0fc                 BCR 0x3, 0x6
00000581 e27a                 BCR 0x5, 0x3
00000582 c27a                 LGOTO 0x585; number.o:_00357_DS_=0x585
00000583                      number.o:_00355_DS_:
00000583 e0fc                 BCR 0x3, 0x6
00000584 e1fa                 BCR 0x5, 0x4
00000585                      number.o:_00357_DS_:
00000585 ffef                 RET
00000586                      _setHightOutput:
00000586 e0fc                 BCR 0x3, 0x6
00000587 ff2e                 MOVAR 0x51
00000588 defe                 MOVIA 0x1
00000589 fbae                 SUBAR 0x51, 0x0
0000058a f7fc                 BTRSS 0x3, 0x0
0000058b c251                 LGOTO 0x5ae; number.o:_00335_DS_=0x5ae
0000058c def8                 MOVIA 0x7
0000058d fbae                 SUBAR 0x51, 0x0
0000058e f3fc                 BTRSC 0x3, 0x0
0000058f c251                 LGOTO 0x5ae; number.o:_00335_DS_=0x5ae
00000590 f92e                 DECR 0x51, 0x1
00000591 defa                 MOVIA 0x5
00000592 ff75                 MOVAR 0xa
00000593 feae                 MOVR 0x51, 0x0
00000594 da67                 ADDIA 0x98
00000595 f3fc                 BTRSC 0x3, 0x0
00000596 fa75                 INCR 0xa, 0x1
00000597 ff7d                 MOVAR 0x2
00000598                      number.o:_00345_DS_:
00000598 c261                 LGOTO 0x59e; number.o:_00328_DS_=0x59e
00000599 c25f                 LGOTO 0x5a0; number.o:_00329_DS_=0x5a0
0000059a c25c                 LGOTO 0x5a3; number.o:_00330_DS_=0x5a3
0000059b c259                 LGOTO 0x5a6; number.o:_00331_DS_=0x5a6
0000059c c256                 LGOTO 0x5a9; number.o:_00332_DS_=0x5a9
0000059d c253                 LGOTO 0x5ac; number.o:_00333_DS_=0x5ac
0000059e                      number.o:_00328_DS_:
0000059e e7f9                 BSR 0x6, 0x0
0000059f c251                 LGOTO 0x5ae; number.o:_00335_DS_=0x5ae
000005a0                      number.o:_00329_DS_:
000005a0 e0fc                 BCR 0x3, 0x6
000005a1 e7fa                 BSR 0x5, 0x0
000005a2 c251                 LGOTO 0x5ae; number.o:_00335_DS_=0x5ae
000005a3                      number.o:_00330_DS_:
000005a3 e0fc                 BCR 0x3, 0x6
000005a4 e77a                 BSR 0x5, 0x1
000005a5 c251                 LGOTO 0x5ae; number.o:_00335_DS_=0x5ae
000005a6                      number.o:_00331_DS_:
000005a6 e0fc                 BCR 0x3, 0x6
000005a7 e6fa                 BSR 0x5, 0x2
000005a8 c251                 LGOTO 0x5ae; number.o:_00335_DS_=0x5ae
000005a9                      number.o:_00332_DS_:
000005a9 e0fc                 BCR 0x3, 0x6
000005aa e67a                 BSR 0x5, 0x3
000005ab c251                 LGOTO 0x5ae; number.o:_00335_DS_=0x5ae
000005ac                      number.o:_00333_DS_:
000005ac e0fc                 BCR 0x3, 0x6
000005ad e5fa                 BSR 0x5, 0x4
000005ae                      number.o:_00335_DS_:
000005ae ffef                 RET
000005af                      _showNub:
000005af e0fc                 BCR 0x3, 0x6
000005b0 ff30                 MOVAR 0x4f
000005b1 feb6                 MOVR 0x49, 0x0
000005b2 ff2f                 MOVAR 0x50
000005b3 d2f0                 LCALL 0x50f; _setInput=0x50f
000005b4 e0fc                 BCR 0x3, 0x6
000005b5 feb0                 MOVR 0x4f, 0x0
000005b6 d2e4                 LCALL 0x51b; _setOutput=0x51b
000005b7 e0fc                 BCR 0x3, 0x6
000005b8 feb0                 MOVR 0x4f, 0x0
000005b9 d279                 LCALL 0x586; _setHightOutput=0x586
000005ba e0fc                 BCR 0x3, 0x6
000005bb feaf                 MOVR 0x50, 0x0
000005bc d2e4                 LCALL 0x51b; _setOutput=0x51b
000005bd e0fc                 BCR 0x3, 0x6
000005be feaf                 MOVR 0x50, 0x0
000005bf d2a2                 LCALL 0x55d; _setlowOutput=0x55d
000005c0 def5                 MOVIA 0xa
000005c1 d2fc                 LCALL 0x503; _delayms=0x503
000005c2 fffd                 CLRWDT
000005c3 ffef                 RET
000005c4                      _G3:
000005c4 defe                 MOVIA 0x1
000005c5 ff36                 MOVAR 0x49
000005c6 defa                 MOVIA 0x5
000005c7 d250                 LCALL 0x5af; _showNub=0x5af
000005c8 ffef                 RET
000005c9                      _F3:
000005c9 def9                 MOVIA 0x6
000005ca ff36                 MOVAR 0x49
000005cb defb                 MOVIA 0x4
000005cc d250                 LCALL 0x5af; _showNub=0x5af
000005cd ffef                 RET
000005ce                      _E3:
000005ce defa                 MOVIA 0x5
000005cf ff36                 MOVAR 0x49
000005d0 defb                 MOVIA 0x4
000005d1 d250                 LCALL 0x5af; _showNub=0x5af
000005d2 ffef                 RET
000005d3                      _D3:
000005d3 defc                 MOVIA 0x3
000005d4 ff36                 MOVAR 0x49
000005d5 defb                 MOVIA 0x4
000005d6 d250                 LCALL 0x5af; _showNub=0x5af
000005d7 ffef                 RET
000005d8                      _C3:
000005d8 defd                 MOVIA 0x2
000005d9 ff36                 MOVAR 0x49
000005da defb                 MOVIA 0x4
000005db d250                 LCALL 0x5af; _showNub=0x5af
000005dc ffef                 RET
000005dd                      _B3:
000005dd defe                 MOVIA 0x1
000005de ff36                 MOVAR 0x49
000005df defb                 MOVIA 0x4
000005e0 d250                 LCALL 0x5af; _showNub=0x5af
000005e1 ffef                 RET
000005e2                      _A3:
000005e2 def9                 MOVIA 0x6
000005e3 ff36                 MOVAR 0x49
000005e4 defc                 MOVIA 0x3
000005e5 d250                 LCALL 0x5af; _showNub=0x5af
000005e6 ffef                 RET
000005e7                      _G2:
000005e7 defa                 MOVIA 0x5
000005e8 ff36                 MOVAR 0x49
000005e9 defc                 MOVIA 0x3
000005ea d250                 LCALL 0x5af; _showNub=0x5af
000005eb ffef                 RET
000005ec                      _F2:
000005ec defb                 MOVIA 0x4
000005ed ff36                 MOVAR 0x49
000005ee defc                 MOVIA 0x3
000005ef d250                 LCALL 0x5af; _showNub=0x5af
000005f0 ffef                 RET
000005f1                      _E2:
000005f1 defd                 MOVIA 0x2
000005f2 ff36                 MOVAR 0x49
000005f3 defc                 MOVIA 0x3
000005f4 d250                 LCALL 0x5af; _showNub=0x5af
000005f5 ffef                 RET
000005f6                      _D2:
000005f6 defe                 MOVIA 0x1
000005f7 ff36                 MOVAR 0x49
000005f8 defc                 MOVIA 0x3
000005f9 d250                 LCALL 0x5af; _showNub=0x5af
000005fa ffef                 RET
000005fb                      _C2:
000005fb def9                 MOVIA 0x6
000005fc ff36                 MOVAR 0x49
000005fd defd                 MOVIA 0x2
000005fe d250                 LCALL 0x5af; _showNub=0x5af
000005ff ffef                 RET
00000600                      _B2:
00000600 defa                 MOVIA 0x5
00000601 ff36                 MOVAR 0x49
00000602 defd                 MOVIA 0x2
00000603 d250                 LCALL 0x5af; _showNub=0x5af
00000604 ffef                 RET
00000605                      _A2:
00000605 defb                 MOVIA 0x4
00000606 ff36                 MOVAR 0x49
00000607 defd                 MOVIA 0x2
00000608 d250                 LCALL 0x5af; _showNub=0x5af
00000609 ffef                 RET
0000060a                      _G1:
0000060a defc                 MOVIA 0x3
0000060b ff36                 MOVAR 0x49
0000060c defd                 MOVIA 0x2
0000060d d250                 LCALL 0x5af; _showNub=0x5af
0000060e ffef                 RET
0000060f                      _F1:
0000060f defe                 MOVIA 0x1
00000610 ff36                 MOVAR 0x49
00000611 defd                 MOVIA 0x2
00000612 d250                 LCALL 0x5af; _showNub=0x5af
00000613 ffef                 RET
00000614                      _E1:
00000614 def9                 MOVIA 0x6
00000615 ff36                 MOVAR 0x49
00000616 defe                 MOVIA 0x1
00000617 d250                 LCALL 0x5af; _showNub=0x5af
00000618 ffef                 RET
00000619                      _D1:
00000619 defa                 MOVIA 0x5
0000061a ff36                 MOVAR 0x49
0000061b defe                 MOVIA 0x1
0000061c d250                 LCALL 0x5af; _showNub=0x5af
0000061d ffef                 RET
0000061e                      _C1:
0000061e defb                 MOVIA 0x4
0000061f ff36                 MOVAR 0x49
00000620 defe                 MOVIA 0x1
00000621 d250                 LCALL 0x5af; _showNub=0x5af
00000622 ffef                 RET
00000623                      _B1:
00000623 defc                 MOVIA 0x3
00000624 ff36                 MOVAR 0x49
00000625 defe                 MOVIA 0x1
00000626 d250                 LCALL 0x5af; _showNub=0x5af
00000627 ffef                 RET
00000628                      _A1:
00000628 defd                 MOVIA 0x2
00000629 ff36                 MOVAR 0x49
0000062a defe                 MOVIA 0x1
0000062b d250                 LCALL 0x5af; _showNub=0x5af
0000062c ffef                 RET
0000062d                      _showNubBaiwei2:
0000062d e0fc                 BCR 0x3, 0x6
0000062e ff31                 MOVAR 0x4e
0000062f def8                 MOVIA 0x7
00000630 fbb1                 SUBAR 0x4e, 0x0
00000631 f3fc                 BTRSC 0x3, 0x0
00000632 c1b1                 LGOTO 0x64e; number.o:_00229_DS_=0x64e
00000633 def9                 MOVIA 0x6
00000634 ff75                 MOVAR 0xa
00000635 feb1                 MOVR 0x4e, 0x0
00000636 dac5                 ADDIA 0x3a
00000637 f3fc                 BTRSC 0x3, 0x0
00000638 fa75                 INCR 0xa, 0x1
00000639 ff7d                 MOVAR 0x2
0000063a                      number.o:_00235_DS_:
0000063a c1be                 LGOTO 0x641; number.o:_00221_DS_=0x641
0000063b c1bc                 LGOTO 0x643; number.o:_00222_DS_=0x643
0000063c c1ba                 LGOTO 0x645; number.o:_00223_DS_=0x645
0000063d c1b8                 LGOTO 0x647; number.o:_00224_DS_=0x647
0000063e c1b6                 LGOTO 0x649; number.o:_00225_DS_=0x649
0000063f c1b4                 LGOTO 0x64b; number.o:_00226_DS_=0x64b
00000640 c1b2                 LGOTO 0x64d; number.o:_00227_DS_=0x64d
00000641                      number.o:_00221_DS_:
00000641 d1d7                 LCALL 0x628; _A1=0x628
00000642 c1b1                 LGOTO 0x64e; number.o:_00229_DS_=0x64e
00000643                      number.o:_00222_DS_:
00000643 d1dc                 LCALL 0x623; _B1=0x623
00000644 c1b1                 LGOTO 0x64e; number.o:_00229_DS_=0x64e
00000645                      number.o:_00223_DS_:
00000645 d1e1                 LCALL 0x61e; _C1=0x61e
00000646 c1b1                 LGOTO 0x64e; number.o:_00229_DS_=0x64e
00000647                      number.o:_00224_DS_:
00000647 d1e6                 LCALL 0x619; _D1=0x619
00000648 c1b1                 LGOTO 0x64e; number.o:_00229_DS_=0x64e
00000649                      number.o:_00225_DS_:
00000649 d1eb                 LCALL 0x614; _E1=0x614
0000064a c1b1                 LGOTO 0x64e; number.o:_00229_DS_=0x64e
0000064b                      number.o:_00226_DS_:
0000064b d1f0                 LCALL 0x60f; _F1=0x60f
0000064c c1b1                 LGOTO 0x64e; number.o:_00229_DS_=0x64e
0000064d                      number.o:_00227_DS_:
0000064d d1f5                 LCALL 0x60a; _G1=0x60a
0000064e                      number.o:_00229_DS_:
0000064e ffef                 RET
0000064f                      _showNubBaiwei:
0000064f e0fc                 BCR 0x3, 0x6
00000650 ff34                 MOVAR 0x4b
00000651 fd33                 CLRR 0x4c
00000652                      number.o:_00200_DS_:
00000652 def8                 MOVIA 0x7
00000653 e0fc                 BCR 0x3, 0x6
00000654 fbb3                 SUBAR 0x4c, 0x0
00000655 f3fc                 BTRSC 0x3, 0x0
00000656 c193                 LGOTO 0x66c; number.o:_00202_DS_=0x66c
00000657 feb4                 MOVR 0x4b, 0x0
00000658 ff32                 MOVAR 0x4d
00000659 feb3                 MOVR 0x4c, 0x0
0000065a d8ff                 SUBIA 0x0
0000065b f2fc                 BTRSC 0x3, 0x2
0000065c c19d                 LGOTO 0x662; number.o:_00216_DS_=0x662
0000065d                      number.o:_00215_DS_:
0000065d e0fc                 BCR 0x3, 0x6
0000065e ec32                 RRR 0x4d, 0x1
0000065f dafe                 ADDIA 0x1
00000660 f7fc                 BTRSS 0x3, 0x0
00000661 c1a2                 LGOTO 0x65d; number.o:_00215_DS_=0x65d
00000662                      number.o:_00216_DS_:
00000662 e0fc                 BCR 0x3, 0x6
00000663 f7b2                 BTRSS 0x4d, 0x0
00000664 c197                 LGOTO 0x668; number.o:_00196_DS_=0x668
00000665 feb3                 MOVR 0x4c, 0x0
00000666 d1d2                 LCALL 0x62d; _showNubBaiwei2=0x62d
00000667 c196                 LGOTO 0x669; number.o:_00201_DS_=0x669
00000668                      number.o:_00196_DS_:
00000668 d2f0                 LCALL 0x50f; _setInput=0x50f
00000669                      number.o:_00201_DS_:
00000669 e0fc                 BCR 0x3, 0x6
0000066a fa33                 INCR 0x4c, 0x1
0000066b c1ad                 LGOTO 0x652; number.o:_00200_DS_=0x652
0000066c                      number.o:_00202_DS_:
0000066c ffef                 RET
0000066d                      _showNubGewei2:
0000066d e0fc                 BCR 0x3, 0x6
0000066e ff35                 MOVAR 0x4a
0000066f def8                 MOVIA 0x7
00000670 fbb5                 SUBAR 0x4a, 0x0
00000671 f3fc                 BTRSC 0x3, 0x0
00000672 c171                 LGOTO 0x68e; number.o:_00184_DS_=0x68e
00000673 def9                 MOVIA 0x6
00000674 ff75                 MOVAR 0xa
00000675 feb5                 MOVR 0x4a, 0x0
00000676 da85                 ADDIA 0x7a
00000677 f3fc                 BTRSC 0x3, 0x0
00000678 fa75                 INCR 0xa, 0x1
00000679 ff7d                 MOVAR 0x2
0000067a                      number.o:_00190_DS_:
0000067a c17e                 LGOTO 0x681; number.o:_00176_DS_=0x681
0000067b c17c                 LGOTO 0x683; number.o:_00177_DS_=0x683
0000067c c17a                 LGOTO 0x685; number.o:_00178_DS_=0x685
0000067d c178                 LGOTO 0x687; number.o:_00179_DS_=0x687
0000067e c176                 LGOTO 0x689; number.o:_00180_DS_=0x689
0000067f c174                 LGOTO 0x68b; number.o:_00181_DS_=0x68b
00000680 c172                 LGOTO 0x68d; number.o:_00182_DS_=0x68d
00000681                      number.o:_00176_DS_:
00000681 d21d                 LCALL 0x5e2; _A3=0x5e2
00000682 c171                 LGOTO 0x68e; number.o:_00184_DS_=0x68e
00000683                      number.o:_00177_DS_:
00000683 d222                 LCALL 0x5dd; _B3=0x5dd
00000684 c171                 LGOTO 0x68e; number.o:_00184_DS_=0x68e
00000685                      number.o:_00178_DS_:
00000685 d227                 LCALL 0x5d8; _C3=0x5d8
00000686 c171                 LGOTO 0x68e; number.o:_00184_DS_=0x68e
00000687                      number.o:_00179_DS_:
00000687 d22c                 LCALL 0x5d3; _D3=0x5d3
00000688 c171                 LGOTO 0x68e; number.o:_00184_DS_=0x68e
00000689                      number.o:_00180_DS_:
00000689 d231                 LCALL 0x5ce; _E3=0x5ce
0000068a c171                 LGOTO 0x68e; number.o:_00184_DS_=0x68e
0000068b                      number.o:_00181_DS_:
0000068b d236                 LCALL 0x5c9; _F3=0x5c9
0000068c c171                 LGOTO 0x68e; number.o:_00184_DS_=0x68e
0000068d                      number.o:_00182_DS_:
0000068d d23b                 LCALL 0x5c4; _G3=0x5c4
0000068e                      number.o:_00184_DS_:
0000068e ffef                 RET
0000068f                      _showNubGewei:
0000068f e0fc                 BCR 0x3, 0x6
00000690 ff42                 MOVAR 0x3d
00000691 fd41                 CLRR 0x3e
00000692                      number.o:_00155_DS_:
00000692 def8                 MOVIA 0x7
00000693 e0fc                 BCR 0x3, 0x6
00000694 fbc1                 SUBAR 0x3e, 0x0
00000695 f3fc                 BTRSC 0x3, 0x0
00000696 c153                 LGOTO 0x6ac; number.o:_00157_DS_=0x6ac
00000697 fec2                 MOVR 0x3d, 0x0
00000698 ff40                 MOVAR 0x3f
00000699 fec1                 MOVR 0x3e, 0x0
0000069a d8ff                 SUBIA 0x0
0000069b f2fc                 BTRSC 0x3, 0x2
0000069c c15d                 LGOTO 0x6a2; number.o:_00171_DS_=0x6a2
0000069d                      number.o:_00170_DS_:
0000069d e0fc                 BCR 0x3, 0x6
0000069e ec40                 RRR 0x3f, 0x1
0000069f dafe                 ADDIA 0x1
000006a0 f7fc                 BTRSS 0x3, 0x0
000006a1 c162                 LGOTO 0x69d; number.o:_00170_DS_=0x69d
000006a2                      number.o:_00171_DS_:
000006a2 e0fc                 BCR 0x3, 0x6
000006a3 f7c0                 BTRSS 0x3f, 0x0
000006a4 c157                 LGOTO 0x6a8; number.o:_00151_DS_=0x6a8
000006a5 fec1                 MOVR 0x3e, 0x0
000006a6 d192                 LCALL 0x66d; _showNubGewei2=0x66d
000006a7 c156                 LGOTO 0x6a9; number.o:_00156_DS_=0x6a9
000006a8                      number.o:_00151_DS_:
000006a8 d2f0                 LCALL 0x50f; _setInput=0x50f
000006a9                      number.o:_00156_DS_:
000006a9 e0fc                 BCR 0x3, 0x6
000006aa fa41                 INCR 0x3e, 0x1
000006ab c16d                 LGOTO 0x692; number.o:_00155_DS_=0x692
000006ac                      number.o:_00157_DS_:
000006ac ffef                 RET
000006ad                      _showNubShiwei2:
000006ad e0fc                 BCR 0x3, 0x6
000006ae ff43                 MOVAR 0x3c
000006af def8                 MOVIA 0x7
000006b0 fbc3                 SUBAR 0x3c, 0x0
000006b1 f3fc                 BTRSC 0x3, 0x0
000006b2 c131                 LGOTO 0x6ce; number.o:_00139_DS_=0x6ce
000006b3 def9                 MOVIA 0x6
000006b4 ff75                 MOVAR 0xa
000006b5 fec3                 MOVR 0x3c, 0x0
000006b6 da45                 ADDIA 0xba
000006b7 f3fc                 BTRSC 0x3, 0x0
000006b8 fa75                 INCR 0xa, 0x1
000006b9 ff7d                 MOVAR 0x2
000006ba                      number.o:_00145_DS_:
000006ba c13e                 LGOTO 0x6c1; number.o:_00131_DS_=0x6c1
000006bb c13c                 LGOTO 0x6c3; number.o:_00132_DS_=0x6c3
000006bc c13a                 LGOTO 0x6c5; number.o:_00133_DS_=0x6c5
000006bd c138                 LGOTO 0x6c7; number.o:_00134_DS_=0x6c7
000006be c136                 LGOTO 0x6c9; number.o:_00135_DS_=0x6c9
000006bf c134                 LGOTO 0x6cb; number.o:_00136_DS_=0x6cb
000006c0 c132                 LGOTO 0x6cd; number.o:_00137_DS_=0x6cd
000006c1                      number.o:_00131_DS_:
000006c1 d1fa                 LCALL 0x605; _A2=0x605
000006c2 c131                 LGOTO 0x6ce; number.o:_00139_DS_=0x6ce
000006c3                      number.o:_00132_DS_:
000006c3 d1ff                 LCALL 0x600; _B2=0x600
000006c4 c131                 LGOTO 0x6ce; number.o:_00139_DS_=0x6ce
000006c5                      number.o:_00133_DS_:
000006c5 d204                 LCALL 0x5fb; _C2=0x5fb
000006c6 c131                 LGOTO 0x6ce; number.o:_00139_DS_=0x6ce
000006c7                      number.o:_00134_DS_:
000006c7 d209                 LCALL 0x5f6; _D2=0x5f6
000006c8 c131                 LGOTO 0x6ce; number.o:_00139_DS_=0x6ce
000006c9                      number.o:_00135_DS_:
000006c9 d20e                 LCALL 0x5f1; _E2=0x5f1
000006ca c131                 LGOTO 0x6ce; number.o:_00139_DS_=0x6ce
000006cb                      number.o:_00136_DS_:
000006cb d213                 LCALL 0x5ec; _F2=0x5ec
000006cc c131                 LGOTO 0x6ce; number.o:_00139_DS_=0x6ce
000006cd                      number.o:_00137_DS_:
000006cd d218                 LCALL 0x5e7; _G2=0x5e7
000006ce                      number.o:_00139_DS_:
000006ce ffef                 RET
000006cf                      _showNubShiwei:
000006cf e0fc                 BCR 0x3, 0x6
000006d0 ff46                 MOVAR 0x39
000006d1 fd45                 CLRR 0x3a
000006d2                      number.o:_00110_DS_:
000006d2 def8                 MOVIA 0x7
000006d3 e0fc                 BCR 0x3, 0x6
000006d4 fbc5                 SUBAR 0x3a, 0x0
000006d5 f3fc                 BTRSC 0x3, 0x0
000006d6 c113                 LGOTO 0x6ec; number.o:_00112_DS_=0x6ec
000006d7 fec6                 MOVR 0x39, 0x0
000006d8 ff44                 MOVAR 0x3b
000006d9 fec5                 MOVR 0x3a, 0x0
000006da d8ff                 SUBIA 0x0
000006db f2fc                 BTRSC 0x3, 0x2
000006dc c11d                 LGOTO 0x6e2; number.o:_00126_DS_=0x6e2
000006dd                      number.o:_00125_DS_:
000006dd e0fc                 BCR 0x3, 0x6
000006de ec44                 RRR 0x3b, 0x1
000006df dafe                 ADDIA 0x1
000006e0 f7fc                 BTRSS 0x3, 0x0
000006e1 c122                 LGOTO 0x6dd; number.o:_00125_DS_=0x6dd
000006e2                      number.o:_00126_DS_:
000006e2 e0fc                 BCR 0x3, 0x6
000006e3 f7c4                 BTRSS 0x3b, 0x0
000006e4 c117                 LGOTO 0x6e8; number.o:_00106_DS_=0x6e8
000006e5 fec5                 MOVR 0x3a, 0x0
000006e6 d152                 LCALL 0x6ad; _showNubShiwei2=0x6ad
000006e7 c116                 LGOTO 0x6e9; number.o:_00111_DS_=0x6e9
000006e8                      number.o:_00106_DS_:
000006e8 d2f0                 LCALL 0x50f; _setInput=0x50f
000006e9                      number.o:_00111_DS_:
000006e9 e0fc                 BCR 0x3, 0x6
000006ea fa45                 INCR 0x3a, 0x1
000006eb c12d                 LGOTO 0x6d2; number.o:_00110_DS_=0x6d2
000006ec                      number.o:_00112_DS_:
000006ec ffef                 RET
000006ed                      __divuchar:
000006ed e0fc                 BCR 0x3, 0x6
000006ee ff28                 MOVAR 0x57
000006ef feb6                 MOVR 0x49, 0x0
000006f0 ff27                 MOVAR 0x58
000006f1 fd26                 CLRR 0x59
000006f2 defe                 MOVIA 0x1
000006f3 ff25                 MOVAR 0x5a
000006f4 fea7                 MOVR 0x58, 0x0
000006f5 f6fc                 BTRSS 0x3, 0x2
000006f6 c106                 LGOTO 0x6f9; _divuchar.o:_00107_DS_=0x6f9
000006f7 de00                 MOVIA 0xff
000006f8 c0ea                 LGOTO 0x715; _divuchar.o:_00115_DS_=0x715
000006f9                      _divuchar.o:_00107_DS_:
000006f9 e0fc                 BCR 0x3, 0x6
000006fa f027                 BTRSC 0x58, 0x7
000006fb c0fe                 LGOTO 0x701; _divuchar.o:_00112_DS_=0x701
000006fc e3fc                 BCR 0x3, 0x0
000006fd eb27                 RLR 0x58, 0x1
000006fe e3fc                 BCR 0x3, 0x0
000006ff eb25                 RLR 0x5a, 0x1
00000700 c106                 LGOTO 0x6f9; _divuchar.o:_00107_DS_=0x6f9
00000701                      _divuchar.o:_00112_DS_:
00000701 e0fc                 BCR 0x3, 0x6
00000702 fea5                 MOVR 0x5a, 0x0
00000703 f2fc                 BTRSC 0x3, 0x2
00000704 c0ec                 LGOTO 0x713; _divuchar.o:_00114_DS_=0x713
00000705 fea7                 MOVR 0x58, 0x0
00000706 fba8                 SUBAR 0x57, 0x0
00000707 f7fc                 BTRSS 0x3, 0x0
00000708 c0f2                 LGOTO 0x70d; _divuchar.o:_00111_DS_=0x70d
00000709 fea5                 MOVR 0x5a, 0x0
0000070a fc26                 ADDAR 0x59, 0x1
0000070b fea7                 MOVR 0x58, 0x0
0000070c fb28                 SUBAR 0x57, 0x1
0000070d                      _divuchar.o:_00111_DS_:
0000070d e3fc                 BCR 0x3, 0x0
0000070e e0fc                 BCR 0x3, 0x6
0000070f ec27                 RRR 0x58, 0x1
00000710 e3fc                 BCR 0x3, 0x0
00000711 ec25                 RRR 0x5a, 0x1
00000712 c0fe                 LGOTO 0x701; _divuchar.o:_00112_DS_=0x701
00000713                      _divuchar.o:_00114_DS_:
00000713 e0fc                 BCR 0x3, 0x6
00000714 fea6                 MOVR 0x59, 0x0
00000715                      _divuchar.o:_00115_DS_:
00000715 ffef                 RET
00000716                      __moduchar:
00000716 e0fc                 BCR 0x3, 0x6
00000717 ff24                 MOVAR 0x5b
00000718 feb6                 MOVR 0x49, 0x0
00000719 ff23                 MOVAR 0x5c
0000071a f6fc                 BTRSS 0x3, 0x2
0000071b c0e1                 LGOTO 0x71e; _moduchar.o:_00119_DS_=0x71e
0000071c de00                 MOVIA 0xff
0000071d c0c6                 LGOTO 0x739; _moduchar.o:_00115_DS_=0x739
0000071e                      _moduchar.o:_00119_DS_:
0000071e defe                 MOVIA 0x1
0000071f e0fc                 BCR 0x3, 0x6
00000720 ff22                 MOVAR 0x5d
00000721                      _moduchar.o:_00107_DS_:
00000721 e0fc                 BCR 0x3, 0x6
00000722 f023                 BTRSC 0x5c, 0x7
00000723 c0d7                 LGOTO 0x728; _moduchar.o:_00112_DS_=0x728
00000724 e3fc                 BCR 0x3, 0x0
00000725 eb23                 RLR 0x5c, 0x1
00000726 fa22                 INCR 0x5d, 0x1
00000727 c0de                 LGOTO 0x721; _moduchar.o:_00107_DS_=0x721
00000728                      _moduchar.o:_00112_DS_:
00000728 e0fc                 BCR 0x3, 0x6
00000729 fea2                 MOVR 0x5d, 0x0
0000072a f2fc                 BTRSC 0x3, 0x2
0000072b c0c8                 LGOTO 0x737; _moduchar.o:_00114_DS_=0x737
0000072c fea3                 MOVR 0x5c, 0x0
0000072d fba4                 SUBAR 0x5b, 0x0
0000072e f7fc                 BTRSS 0x3, 0x0
0000072f c0cd                 LGOTO 0x732; _moduchar.o:_00111_DS_=0x732
00000730 fea3                 MOVR 0x5c, 0x0
00000731 fb24                 SUBAR 0x5b, 0x1
00000732                      _moduchar.o:_00111_DS_:
00000732 e3fc                 BCR 0x3, 0x0
00000733 e0fc                 BCR 0x3, 0x6
00000734 ec23                 RRR 0x5c, 0x1
00000735 f922                 DECR 0x5d, 0x1
00000736 c0d7                 LGOTO 0x728; _moduchar.o:_00112_DS_=0x728
00000737                      _moduchar.o:_00114_DS_:
00000737 e0fc                 BCR 0x3, 0x6
00000738 fea4                 MOVR 0x5b, 0x0
00000739                      _moduchar.o:_00115_DS_:
00000739 ffef                 RET
0000073a                      __moduint:
0000073a e0fc                 BCR 0x3, 0x6
0000073b ff20                 MOVAR 0x5f
0000073c feb6                 MOVR 0x49, 0x0
0000073d ff21                 MOVAR 0x5e
0000073e feb7                 MOVR 0x48, 0x0
0000073f ff1e                 MOVAR 0x61
00000740 feb8                 MOVR 0x47, 0x0
00000741 ff1f                 MOVAR 0x60
00000742 ee9e                 IORAR 0x61, 0x0
00000743 f6fc                 BTRSS 0x3, 0x2
00000744 c0b7                 LGOTO 0x748; _moduint.o:_00119_DS_=0x748
00000745 de00                 MOVIA 0xff
00000746 ff36                 MOVAR 0x49
00000747 c08d                 LGOTO 0x772; _moduint.o:_00115_DS_=0x772
00000748                      _moduint.o:_00119_DS_:
00000748 defe                 MOVIA 0x1
00000749 e0fc                 BCR 0x3, 0x6
0000074a ff1d                 MOVAR 0x62
0000074b                      _moduint.o:_00107_DS_:
0000074b e0fc                 BCR 0x3, 0x6
0000074c f01e                 BTRSC 0x61, 0x7
0000074d c0ac                 LGOTO 0x753; _moduint.o:_00112_DS_=0x753
0000074e e3fc                 BCR 0x3, 0x0
0000074f eb1f                 RLR 0x60, 0x1
00000750 eb1e                 RLR 0x61, 0x1
00000751 fa1d                 INCR 0x62, 0x1
00000752 c0b4                 LGOTO 0x74b; _moduint.o:_00107_DS_=0x74b
00000753                      _moduint.o:_00112_DS_:
00000753 e0fc                 BCR 0x3, 0x6
00000754 fe9d                 MOVR 0x62, 0x0
00000755 f2fc                 BTRSC 0x3, 0x2
00000756 c091                 LGOTO 0x76e; _moduint.o:_00114_DS_=0x76e
00000757 fe9e                 MOVR 0x61, 0x0
00000758 fba0                 SUBAR 0x5f, 0x0
00000759 f6fc                 BTRSS 0x3, 0x2
0000075a c0a2                 LGOTO 0x75d; _moduint.o:_00137_DS_=0x75d
0000075b fe9f                 MOVR 0x60, 0x0
0000075c fba1                 SUBAR 0x5e, 0x0
0000075d                      _moduint.o:_00137_DS_:
0000075d f7fc                 BTRSS 0x3, 0x0
0000075e c097                 LGOTO 0x768; _moduint.o:_00001_DS_=0x768
0000075f e0fc                 BCR 0x3, 0x6
00000760 fe9f                 MOVR 0x60, 0x0
00000761 fb21                 SUBAR 0x5e, 0x1
00000762 fe9e                 MOVR 0x61, 0x0
00000763 f7fc                 BTRSS 0x3, 0x0
00000764 fa9e                 INCR 0x61, 0x0
00000765 f2fc                 BTRSC 0x3, 0x2
00000766 c097                 LGOTO 0x768; _moduint.o:_00001_DS_=0x768
00000767 fb20                 SUBAR 0x5f, 0x1
00000768                      _moduint.o:_00001_DS_:
00000768 e3fc                 BCR 0x3, 0x0
00000769 e0fc                 BCR 0x3, 0x6
0000076a ec1e                 RRR 0x61, 0x1
0000076b ec1f                 RRR 0x60, 0x1
0000076c f91d                 DECR 0x62, 0x1
0000076d c0ac                 LGOTO 0x753; _moduint.o:_00112_DS_=0x753
0000076e                      _moduint.o:_00114_DS_:
0000076e e0fc                 BCR 0x3, 0x6
0000076f fea1                 MOVR 0x5e, 0x0
00000770 ff36                 MOVAR 0x49
00000771 fea0                 MOVR 0x5f, 0x0
00000772                      _moduint.o:_00115_DS_:
00000772 ffef                 RET
00000773                      __gptrget:
00000773 dbff                 XORIA 0x0
00000774 f2fc                 BTRSC 0x3, 0x2
00000775 c085                 LGOTO 0x77a; _gptrget1.o:__dataptrget1=0x77a
00000776 db7f                 XORIA 0x80
00000777 f2fc                 BTRSC 0x3, 0x2
00000778 c07e                 LGOTO 0x781; __codeptrget1=0x781
00000779 dfff                 RETIA 0x0
0000077a                      _gptrget1.o:__dataptrget1:
0000077a feb7                 MOVR 0x48, 0x0
0000077b ff7b                 MOVAR 0x4
0000077c e0fc                 BCR 0x3, 0x6
0000077d f037                 BTRSC 0x48, 0x7
0000077e e4fc                 BSR 0x3, 0x6
0000077f feff                 MOVR 0x0, 0x0
00000780 ffef                 RET
00000781                      __codeptrget1:
00000781 feb6                 MOVR 0x49, 0x0
00000782 ffb8                 SFUN 0x7
00000783 feb7                 MOVR 0x48, 0x0
00000784 fdee                 TABLEA
00000785 ffef                 RET
00000786                      ___cinit_load__:
