00000000 c7fe                LGOTO    0x1; __nyc_ny8_startup=0x1
00000001                     __nyc_ny8_startup:
00000001 d3a7                LCALL    0x458; ___cinit_load__=0x458
00000002 c4b8                LGOTO    0x347; _main=0x347
00000003                     _F_wait_eoc:
00000003 f56f                BTRSS    ADMD, EOC
00000004 c7fc                LGOTO    0x3; _F_wait_eoc=0x3
00000005 ffef                RET
00000008 c445                LGOTO    0x3ba; _isr=0x3ba
00000009                     _keyCtr:
00000009 e0fc                BCR      STATUS, BK0
0000000a f8fa                COMR     PORTA, ToAcc
0000000b ff59                MOVAR    0x26
0000000c debf                MOVIA    0x40
0000000d ef59                ANDAR    0x26, ToReg
0000000e fed9                MOVR     0x26, ToAcc
0000000f d34d                LCALL    0x4b2; _keyRead=0x4b2
00000010 e0fc                BCR      STATUS, BK0
00000011 ff59                MOVAR    0x26
00000012 dbfe                XORIA    0x1
00000013 f6fc                BTRSS    STATUS, Z
00000014 c74a                LGOTO    0xb5; main.o:_00306_DS_=0xb5
00000015 fd1e                CLRR     0x61
00000016 fd14                CLRR     0x6b
00000017 fe9c                MOVR     0x63, ToAcc
00000018 f6fc                BTRSS    STATUS, Z
00000019 c7e3                LGOTO    0x1c; main.o:_00240_DS_=0x1c
0000001a fd17                CLRR     0x68
0000001b c719                LGOTO    0xe6; main.o:_00308_DS_=0xe6
0000001c                     main.o:_00240_DS_:
0000001c e0fc                BCR      STATUS, BK0
0000001d fd16                CLRR     0x69
0000001e fa1c                INCR     0x63, ToReg
0000001f def6                MOVIA    0x9
00000020 fb9c                SUBAR    0x63, ToAcc
00000021 f7fc                BTRSS    STATUS, C
00000022 c7da                LGOTO    0x25; main.o:_00242_DS_=0x25
00000023 defe                MOVIA    0x1
00000024 ff1c                MOVAR    0x63
00000025                     main.o:_00242_DS_:
00000025 def9                MOVIA    0x6
00000026 e0fc                BCR      STATUS, BK0
00000027 ff11                MOVAR    0x6e
00000028 defc                MOVIA    0x3
00000029 fb99                SUBAR    0x66, ToAcc
0000002a f3fc                BTRSC    STATUS, C
0000002b c794                LGOTO    0x6b; main.o:_00290_DS_=0x6b
0000002c fe9c                MOVR     0x63, ToAcc
0000002d dbfe                XORIA    0x1
0000002e f6fc                BTRSS    STATUS, Z
0000002f c7cc                LGOTO    0x33; main.o:_00264_DS_=0x33
00000030 decd                MOVIA    0x32
00000031 ff1a                MOVAR    0x65
00000032 c755                LGOTO    0xaa; main.o:_00291_DS_=0xaa
00000033                     main.o:_00264_DS_:
00000033 e0fc                BCR      STATUS, BK0
00000034 fe9c                MOVR     0x63, ToAcc
00000035 dbfd                XORIA    0x2
00000036 f6fc                BTRSS    STATUS, Z
00000037 c7c4                LGOTO    0x3b; main.o:_00261_DS_=0x3b
00000038 decb                MOVIA    0x34
00000039 ff1a                MOVAR    0x65
0000003a c755                LGOTO    0xaa; main.o:_00291_DS_=0xaa
0000003b                     main.o:_00261_DS_:
0000003b e0fc                BCR      STATUS, BK0
0000003c fe9c                MOVR     0x63, ToAcc
0000003d dbfc                XORIA    0x3
0000003e f6fc                BTRSS    STATUS, Z
0000003f c7bc                LGOTO    0x43; main.o:_00258_DS_=0x43
00000040 dec9                MOVIA    0x36
00000041 ff1a                MOVAR    0x65
00000042 c755                LGOTO    0xaa; main.o:_00291_DS_=0xaa
00000043                     main.o:_00258_DS_:
00000043 e0fc                BCR      STATUS, BK0
00000044 fe9c                MOVR     0x63, ToAcc
00000045 dbfb                XORIA    0x4
00000046 f6fc                BTRSS    STATUS, Z
00000047 c7b4                LGOTO    0x4b; main.o:_00255_DS_=0x4b
00000048 dec7                MOVIA    0x38
00000049 ff1a                MOVAR    0x65
0000004a c755                LGOTO    0xaa; main.o:_00291_DS_=0xaa
0000004b                     main.o:_00255_DS_:
0000004b e0fc                BCR      STATUS, BK0
0000004c fe9c                MOVR     0x63, ToAcc
0000004d dbfa                XORIA    0x5
0000004e f6fc                BTRSS    STATUS, Z
0000004f c7ac                LGOTO    0x53; main.o:_00252_DS_=0x53
00000050 dec5                MOVIA    0x3a
00000051 ff1a                MOVAR    0x65
00000052 c755                LGOTO    0xaa; main.o:_00291_DS_=0xaa
00000053                     main.o:_00252_DS_:
00000053 e0fc                BCR      STATUS, BK0
00000054 fe9c                MOVR     0x63, ToAcc
00000055 dbf9                XORIA    0x6
00000056 f6fc                BTRSS    STATUS, Z
00000057 c7a4                LGOTO    0x5b; main.o:_00249_DS_=0x5b
00000058 dec3                MOVIA    0x3c
00000059 ff1a                MOVAR    0x65
0000005a c755                LGOTO    0xaa; main.o:_00291_DS_=0xaa
0000005b                     main.o:_00249_DS_:
0000005b e0fc                BCR      STATUS, BK0
0000005c fe9c                MOVR     0x63, ToAcc
0000005d dbf8                XORIA    0x7
0000005e f6fc                BTRSS    STATUS, Z
0000005f c79c                LGOTO    0x63; main.o:_00246_DS_=0x63
00000060 dec1                MOVIA    0x3e
00000061 ff1a                MOVAR    0x65
00000062 c755                LGOTO    0xaa; main.o:_00291_DS_=0xaa
00000063                     main.o:_00246_DS_:
00000063 e0fc                BCR      STATUS, BK0
00000064 fe9c                MOVR     0x63, ToAcc
00000065 dbf7                XORIA    0x8
00000066 f6fc                BTRSS    STATUS, Z
00000067 c755                LGOTO    0xaa; main.o:_00291_DS_=0xaa
00000068 debf                MOVIA    0x40
00000069 ff1a                MOVAR    0x65
0000006a c755                LGOTO    0xaa; main.o:_00291_DS_=0xaa
0000006b                     main.o:_00290_DS_:
0000006b e0fc                BCR      STATUS, BK0
0000006c fe9c                MOVR     0x63, ToAcc
0000006d dbfe                XORIA    0x1
0000006e f6fc                BTRSS    STATUS, Z
0000006f c78c                LGOTO    0x73; main.o:_00287_DS_=0x73
00000070 ded7                MOVIA    0x28
00000071 ff1a                MOVAR    0x65
00000072 c755                LGOTO    0xaa; main.o:_00291_DS_=0xaa
00000073                     main.o:_00287_DS_:
00000073 e0fc                BCR      STATUS, BK0
00000074 fe9c                MOVR     0x63, ToAcc
00000075 dbfd                XORIA    0x2
00000076 f6fc                BTRSS    STATUS, Z
00000077 c784                LGOTO    0x7b; main.o:_00284_DS_=0x7b
00000078 ded3                MOVIA    0x2c
00000079 ff1a                MOVAR    0x65
0000007a c755                LGOTO    0xaa; main.o:_00291_DS_=0xaa
0000007b                     main.o:_00284_DS_:
0000007b e0fc                BCR      STATUS, BK0
0000007c fe9c                MOVR     0x63, ToAcc
0000007d dbfc                XORIA    0x3
0000007e f6fc                BTRSS    STATUS, Z
0000007f c77c                LGOTO    0x83; main.o:_00281_DS_=0x83
00000080 decf                MOVIA    0x30
00000081 ff1a                MOVAR    0x65
00000082 c755                LGOTO    0xaa; main.o:_00291_DS_=0xaa
00000083                     main.o:_00281_DS_:
00000083 e0fc                BCR      STATUS, BK0
00000084 fe9c                MOVR     0x63, ToAcc
00000085 dbfb                XORIA    0x4
00000086 f6fc                BTRSS    STATUS, Z
00000087 c774                LGOTO    0x8b; main.o:_00278_DS_=0x8b
00000088 decb                MOVIA    0x34
00000089 ff1a                MOVAR    0x65
0000008a c755                LGOTO    0xaa; main.o:_00291_DS_=0xaa
0000008b                     main.o:_00278_DS_:
0000008b e0fc                BCR      STATUS, BK0
0000008c fe9c                MOVR     0x63, ToAcc
0000008d dbfa                XORIA    0x5
0000008e f6fc                BTRSS    STATUS, Z
0000008f c76c                LGOTO    0x93; main.o:_00275_DS_=0x93
00000090 dec8                MOVIA    0x37
00000091 ff1a                MOVAR    0x65
00000092 c755                LGOTO    0xaa; main.o:_00291_DS_=0xaa
00000093                     main.o:_00275_DS_:
00000093 e0fc                BCR      STATUS, BK0
00000094 fe9c                MOVR     0x63, ToAcc
00000095 dbf9                XORIA    0x6
00000096 f6fc                BTRSS    STATUS, Z
00000097 c764                LGOTO    0x9b; main.o:_00272_DS_=0x9b
00000098 dec5                MOVIA    0x3a
00000099 ff1a                MOVAR    0x65
0000009a c755                LGOTO    0xaa; main.o:_00291_DS_=0xaa
0000009b                     main.o:_00272_DS_:
0000009b e0fc                BCR      STATUS, BK0
0000009c fe9c                MOVR     0x63, ToAcc
0000009d dbf8                XORIA    0x7
0000009e f6fc                BTRSS    STATUS, Z
0000009f c75c                LGOTO    0xa3; main.o:_00269_DS_=0xa3
000000a0 dec2                MOVIA    0x3d
000000a1 ff1a                MOVAR    0x65
000000a2 c755                LGOTO    0xaa; main.o:_00291_DS_=0xaa
000000a3                     main.o:_00269_DS_:
000000a3 e0fc                BCR      STATUS, BK0
000000a4 fe9c                MOVR     0x63, ToAcc
000000a5 dbf7                XORIA    0x8
000000a6 f6fc                BTRSS    STATUS, Z
000000a7 c755                LGOTO    0xaa; main.o:_00291_DS_=0xaa
000000a8 debf                MOVIA    0x40
000000a9 ff1a                MOVAR    0x65
000000aa                     main.o:_00291_DS_:
000000aa e0fc                BCR      STATUS, BK0
000000ab fe9c                MOVR     0x63, ToAcc
000000ac f2fc                BTRSC    STATUS, Z
000000ad c74e                LGOTO    0xb1; main.o:_00293_DS_=0xb1
000000ae fe9a                MOVR     0x65, ToAcc
000000af ffb3                SFUN     PWM2DUTY
000000b0 d221                LCALL    0x5de; _pwmInit=0x5de
000000b1                     main.o:_00293_DS_:
000000b1 e0fc                BCR      STATUS, BK0
000000b2 fe9c                MOVR     0x63, ToAcc
000000b3 ff1b                MOVAR    0x64
000000b4 c719                LGOTO    0xe6; main.o:_00308_DS_=0xe6
000000b5                     main.o:_00306_DS_:
000000b5 e0fc                BCR      STATUS, BK0
000000b6 fed9                MOVR     0x26, ToAcc
000000b7 dbfd                XORIA    0x2
000000b8 f6fc                BTRSS    STATUS, Z
000000b9 c719                LGOTO    0xe6; main.o:_00308_DS_=0xe6
000000ba fe9c                MOVR     0x63, ToAcc
000000bb f2fc                BTRSC    STATUS, Z
000000bc c740                LGOTO    0xbf; main.o:_00301_DS_=0xbf
000000bd d1fd                LCALL    0x602; _powerOff=0x602
000000be c71c                LGOTO    0xe3; main.o:_00302_DS_=0xe3
000000bf                     main.o:_00301_DS_:
000000bf e0fc                BCR      STATUS, BK0
000000c0 fe99                MOVR     0x66, ToAcc
000000c1 f2fc                BTRSC    STATUS, Z
000000c2 c739                LGOTO    0xc6; main.o:_00294_DS_=0xc6
000000c3 fe89                MOVR     0x76, ToAcc
000000c4 f2fc                BTRSC    STATUS, Z
000000c5 c731                LGOTO    0xce; main.o:_00295_DS_=0xce
000000c6                     main.o:_00294_DS_:
000000c6 defe                MOVIA    0x1
000000c7 e0fc                BCR      STATUS, BK0
000000c8 ff09                MOVAR    0x76
000000c9 de0b                MOVIA    0xf4
000000ca ff27                MOVAR    0x58
000000cb defe                MOVIA    0x1
000000cc ff26                MOVAR    0x59
000000cd c719                LGOTO    0xe6; main.o:_00308_DS_=0xe6
000000ce                     main.o:_00295_DS_:
000000ce e0fc                BCR      STATUS, BK0
000000cf fd14                CLRR     0x6b
000000d0 defe                MOVIA    0x1
000000d1 ff1c                MOVAR    0x63
000000d2 deaf                MOVIA    0x50
000000d3 ffb3                SFUN     PWM2DUTY
000000d4 ff13                MOVAR    0x6c
000000d5 defc                MOVIA    0x3
000000d6 fb99                SUBAR    0x66, ToAcc
000000d7 f3fc                BTRSC    STATUS, C
000000d8 c723                LGOTO    0xdc; main.o:_00298_DS_=0xdc
000000d9 decd                MOVIA    0x32
000000da ff1a                MOVAR    0x65
000000db c720                LGOTO    0xdf; main.o:_00299_DS_=0xdf
000000dc                     main.o:_00298_DS_:
000000dc ded7                MOVIA    0x28
000000dd e0fc                BCR      STATUS, BK0
000000de ff1a                MOVAR    0x65
000000df                     main.o:_00299_DS_:
000000df d221                LCALL    0x5de; _pwmInit=0x5de
000000e0 deef                MOVIA    0x10
000000e1 e0fc                BCR      STATUS, BK0
000000e2 ff11                MOVAR    0x6e
000000e3                     main.o:_00302_DS_:
000000e3 e0fc                BCR      STATUS, BK0
000000e4 fe9c                MOVR     0x63, ToAcc
000000e5 ff1b                MOVAR    0x64
000000e6                     main.o:_00308_DS_:
000000e6 ffef                RET
000000e7                     _checkOutA:
000000e7 e0fc                BCR      STATUS, BK0
000000e8 fd5a                CLRR     0x25
000000e9 fd5d                CLRR     0x22
000000ea fd5c                CLRR     0x23
000000eb def7                MOVIA    0x8
000000ec d325                LCALL    0x4da; _F_AIN3_Convert=0x4da
000000ed e0fc                BCR      STATUS, BK0
000000ee eadc                SWAPR    0x23, ToAcc
000000ef dd0f                ANDIA    0xf0
000000f0 ff5c                MOVAR    0x23
000000f1 eadd                SWAPR    0x22, ToAcc
000000f2 ff5d                MOVAR    0x22
000000f3 ddf0                ANDIA    0xf
000000f4 ee5c                IORAR    0x23, ToReg
000000f5 ed5d                XORAR    0x22, ToReg
000000f6 de0f                MOVIA    0xf0
000000f7 ef5a                ANDAR    0x25, ToReg
000000f8 feda                MOVR     0x25, ToAcc
000000f9 ff45                MOVAR    0x3a
000000fa fd44                CLRR     0x3b
000000fb deff                MOVIA    0x0
000000fc ff43                MOVAR    0x3c
000000fd fec5                MOVR     0x3a, ToAcc
000000fe fc5d                ADDAR    0x22, ToReg
000000ff fec3                MOVR     0x3c, ToAcc
00000100 f3fc                BTRSC    STATUS, C
00000101 fac3                INCR     0x3c, ToAcc
00000102 f2fc                BTRSC    STATUS, Z
00000103 c6fa                LGOTO    0x105; main.o:_00004_DS_=0x105
00000104 fc5c                ADDAR    0x23, ToReg
00000105                     main.o:_00004_DS_:
00000105 e3fc                BCR      STATUS, C
00000106 e0fc                BCR      STATUS, BK0
00000107 ec5c                RRR      0x23, ToReg
00000108 ec5d                RRR      0x22, ToReg
00000109 e3fc                BCR      STATUS, C
0000010a ec5c                RRR      0x23, ToReg
0000010b ec5d                RRR      0x22, ToReg
0000010c e3fc                BCR      STATUS, C
0000010d ec5c                RRR      0x23, ToReg
0000010e ec5d                RRR      0x22, ToReg
0000010f fe83                MOVR     0x7c, ToAcc
00000110 f2fc                BTRSC    STATUS, Z
00000111 c6e9                LGOTO    0x116; main.o:_00650_DS_=0x116
00000112 ded2                MOVIA    0x2d
00000113 ff5d                MOVAR    0x22
00000114 defe                MOVIA    0x1
00000115 ff5c                MOVAR    0x23
00000116                     main.o:_00650_DS_:
00000116 de37                MOVIA    0xc8
00000117 e0fc                BCR      STATUS, BK0
00000118 ff45                MOVAR    0x3a
00000119 fd44                CLRR     0x3b
0000011a def7                MOVIA    0x8
0000011b fb9c                SUBAR    0x63, ToAcc
0000011c f7fc                BTRSS    STATUS, C
0000011d c6dd                LGOTO    0x122; main.o:_00652_DS_=0x122
0000011e ded3                MOVIA    0x2c
0000011f ff45                MOVAR    0x3a
00000120 defe                MOVIA    0x1
00000121 ff44                MOVAR    0x3b
00000122                     main.o:_00652_DS_:
00000122 defa                MOVIA    0x5
00000123 e0fc                BCR      STATUS, BK0
00000124 fb99                SUBAR    0x66, ToAcc
00000125 f7fc                BTRSS    STATUS, C
00000126 c6d5                LGOTO    0x12a; main.o:_00657_DS_=0x12a
00000127 dec3                MOVIA    0x3c
00000128 ff05                MOVAR    0x7a
00000129 c6ca                LGOTO    0x135; main.o:_00658_DS_=0x135
0000012a                     main.o:_00657_DS_:
0000012a defc                MOVIA    0x3
0000012b e0fc                BCR      STATUS, BK0
0000012c fb99                SUBAR    0x66, ToAcc
0000012d f7fc                BTRSS    STATUS, C
0000012e c6cd                LGOTO    0x132; main.o:_00654_DS_=0x132
0000012f dec8                MOVIA    0x37
00000130 ff05                MOVAR    0x7a
00000131 c6ca                LGOTO    0x135; main.o:_00658_DS_=0x135
00000132                     main.o:_00654_DS_:
00000132 decd                MOVIA    0x32
00000133 e0fc                BCR      STATUS, BK0
00000134 ff05                MOVAR    0x7a
00000135                     main.o:_00658_DS_:
00000135 e0fc                BCR      STATUS, BK0
00000136 fe9c                MOVR     0x63, ToAcc
00000137 dbfe                XORIA    0x1
00000138 f6fc                BTRSS    STATUS, Z
00000139 c6c0                LGOTO    0x13f; main.o:_00680_DS_=0x13f
0000013a deb0                MOVIA    0x4f
0000013b ff10                MOVAR    0x6f
0000013c de18                MOVIA    0xe7
0000013d fc05                ADDAR    0x7a, ToReg
0000013e c67d                LGOTO    0x182; main.o:_00681_DS_=0x182
0000013f                     main.o:_00680_DS_:
0000013f e0fc                BCR      STATUS, BK0
00000140 fe9c                MOVR     0x63, ToAcc
00000141 dbfd                XORIA    0x2
00000142 f6fc                BTRSS    STATUS, Z
00000143 c6b6                LGOTO    0x149; main.o:_00677_DS_=0x149
00000144 dead                MOVIA    0x52
00000145 ff10                MOVAR    0x6f
00000146 de13                MOVIA    0xec
00000147 fc05                ADDAR    0x7a, ToReg
00000148 c67d                LGOTO    0x182; main.o:_00681_DS_=0x182
00000149                     main.o:_00677_DS_:
00000149 e0fc                BCR      STATUS, BK0
0000014a fe9c                MOVR     0x63, ToAcc
0000014b dbfc                XORIA    0x3
0000014c f6fc                BTRSS    STATUS, Z
0000014d c6ac                LGOTO    0x153; main.o:_00674_DS_=0x153
0000014e deaa                MOVIA    0x55
0000014f ff10                MOVAR    0x6f
00000150 de09                MOVIA    0xf6
00000151 fc05                ADDAR    0x7a, ToReg
00000152 c67d                LGOTO    0x182; main.o:_00681_DS_=0x182
00000153                     main.o:_00674_DS_:
00000153 e0fc                BCR      STATUS, BK0
00000154 fe9c                MOVR     0x63, ToAcc
00000155 dbfb                XORIA    0x4
00000156 f6fc                BTRSS    STATUS, Z
00000157 c6a2                LGOTO    0x15d; main.o:_00671_DS_=0x15d
00000158 dea7                MOVIA    0x58
00000159 ff10                MOVAR    0x6f
0000015a de04                MOVIA    0xfb
0000015b fc05                ADDAR    0x7a, ToReg
0000015c c67d                LGOTO    0x182; main.o:_00681_DS_=0x182
0000015d                     main.o:_00671_DS_:
0000015d e0fc                BCR      STATUS, BK0
0000015e fe9c                MOVR     0x63, ToAcc
0000015f dbfa                XORIA    0x5
00000160 f6fc                BTRSS    STATUS, Z
00000161 c69a                LGOTO    0x165; main.o:_00668_DS_=0x165
00000162 dea5                MOVIA    0x5a
00000163 ff10                MOVAR    0x6f
00000164 c67d                LGOTO    0x182; main.o:_00681_DS_=0x182
00000165                     main.o:_00668_DS_:
00000165 e0fc                BCR      STATUS, BK0
00000166 fe9c                MOVR     0x63, ToAcc
00000167 dbf9                XORIA    0x6
00000168 f6fc                BTRSS    STATUS, Z
00000169 c690                LGOTO    0x16f; main.o:_00665_DS_=0x16f
0000016a dea2                MOVIA    0x5d
0000016b ff10                MOVAR    0x6f
0000016c def5                MOVIA    0xa
0000016d fc05                ADDAR    0x7a, ToReg
0000016e c67d                LGOTO    0x182; main.o:_00681_DS_=0x182
0000016f                     main.o:_00665_DS_:
0000016f e0fc                BCR      STATUS, BK0
00000170 fe9c                MOVR     0x63, ToAcc
00000171 dbf8                XORIA    0x7
00000172 f6fc                BTRSS    STATUS, Z
00000173 c686                LGOTO    0x179; main.o:_00662_DS_=0x179
00000174 de9f                MOVIA    0x60
00000175 ff10                MOVAR    0x6f
00000176 deed                MOVIA    0x12
00000177 fc05                ADDAR    0x7a, ToReg
00000178 c67d                LGOTO    0x182; main.o:_00681_DS_=0x182
00000179                     main.o:_00662_DS_:
00000179 e0fc                BCR      STATUS, BK0
0000017a fe9c                MOVR     0x63, ToAcc
0000017b dbf7                XORIA    0x8
0000017c f6fc                BTRSS    STATUS, Z
0000017d c67d                LGOTO    0x182; main.o:_00681_DS_=0x182
0000017e de9c                MOVIA    0x63
0000017f ff10                MOVAR    0x6f
00000180 dee9                MOVIA    0x16
00000181 fc05                ADDAR    0x7a, ToReg
00000182                     main.o:_00681_DS_:
00000182 e0fc                BCR      STATUS, BK0
00000183 fedc                MOVR     0x23, ToAcc
00000184 fbc4                SUBAR    0x3b, ToAcc
00000185 f6fc                BTRSS    STATUS, Z
00000186 c676                LGOTO    0x189; main.o:_00755_DS_=0x189
00000187 fedd                MOVR     0x22, ToAcc
00000188 fbc5                SUBAR    0x3a, ToAcc
00000189                     main.o:_00755_DS_:
00000189 f3fc                BTRSC    STATUS, C
0000018a c66b                LGOTO    0x194; main.o:_00692_DS_=0x194
0000018b e0fc                BCR      STATUS, BK0
0000018c fa15                INCR     0x6a, ToReg
0000018d def9                MOVIA    0x6
0000018e fb95                SUBAR    0x6a, ToAcc
0000018f f7fc                BTRSS    STATUS, C
00000190 c652                LGOTO    0x1ad; main.o:_00693_DS_=0x1ad
00000191 defa                MOVIA    0x5
00000192 ff15                MOVAR    0x6a
00000193 c652                LGOTO    0x1ad; main.o:_00693_DS_=0x1ad
00000194                     main.o:_00692_DS_:
00000194 e0fc                BCR      STATUS, BK0
00000195 fe85                MOVR     0x7a, ToAcc
00000196 ff45                MOVAR    0x3a
00000197 fd44                CLRR     0x3b
00000198 fedc                MOVR     0x23, ToAcc
00000199 fbc4                SUBAR    0x3b, ToAcc
0000019a f6fc                BTRSS    STATUS, Z
0000019b c661                LGOTO    0x19e; main.o:_00757_DS_=0x19e
0000019c fedd                MOVR     0x22, ToAcc
0000019d fbc5                SUBAR    0x3a, ToAcc
0000019e                     main.o:_00757_DS_:
0000019e f3fc                BTRSC    STATUS, C
0000019f c658                LGOTO    0x1a7; main.o:_00689_DS_=0x1a7
000001a0 e0fc                BCR      STATUS, BK0
000001a1 fe95                MOVR     0x6a, ToAcc
000001a2 f6fc                BTRSS    STATUS, Z
000001a3 f915                DECR     0x6a, ToReg
000001a4 fe90                MOVR     0x6f, ToAcc
000001a5 ffb3                SFUN     PWM2DUTY
000001a6 c652                LGOTO    0x1ad; main.o:_00693_DS_=0x1ad
000001a7                     main.o:_00689_DS_:
000001a7 e0fc                BCR      STATUS, BK0
000001a8 fe95                MOVR     0x6a, ToAcc
000001a9 f6fc                BTRSS    STATUS, Z
000001aa f915                DECR     0x6a, ToReg
000001ab fe9a                MOVR     0x65, ToAcc
000001ac ffb3                SFUN     PWM2DUTY
000001ad                     main.o:_00693_DS_:
000001ad e0fc                BCR      STATUS, BK0
000001ae fe9c                MOVR     0x63, ToAcc
000001af f2fc                BTRSC    STATUS, Z
000001b0 c649                LGOTO    0x1b6; main.o:_00696_DS_=0x1b6
000001b1 fe9c                MOVR     0x63, ToAcc
000001b2 ff45                MOVAR    0x3a
000001b3 ff1b                MOVAR    0x64
000001b4 fec5                MOVR     0x3a, ToAcc
000001b5 ff0c                MOVAR    0x73
000001b6                     main.o:_00696_DS_:
000001b6 ffef                RET
000001b7                     _checkBatAD:
000001b7 e0fc                BCR      STATUS, BK0
000001b8 fd5b                CLRR     0x24
000001b9 fd5f                CLRR     0x20
000001ba fd5e                CLRR     0x21
000001bb def7                MOVIA    0x8
000001bc d2fe                LCALL    0x501; _F_AIN4_Convert=0x501
000001bd e0fc                BCR      STATUS, BK0
000001be eade                SWAPR    0x21, ToAcc
000001bf dd0f                ANDIA    0xf0
000001c0 ff5e                MOVAR    0x21
000001c1 eadf                SWAPR    0x20, ToAcc
000001c2 ff5f                MOVAR    0x20
000001c3 ddf0                ANDIA    0xf
000001c4 ee5e                IORAR    0x21, ToReg
000001c5 ed5f                XORAR    0x20, ToReg
000001c6 de0f                MOVIA    0xf0
000001c7 ef5b                ANDAR    0x24, ToReg
000001c8 fedb                MOVR     0x24, ToAcc
000001c9 ff47                MOVAR    0x38
000001ca deff                MOVIA    0x0
000001cb ff46                MOVAR    0x39
000001cc fec7                MOVR     0x38, ToAcc
000001cd fc5f                ADDAR    0x20, ToReg
000001ce fec6                MOVR     0x39, ToAcc
000001cf f3fc                BTRSC    STATUS, C
000001d0 fac6                INCR     0x39, ToAcc
000001d1 f2fc                BTRSC    STATUS, Z
000001d2 c62b                LGOTO    0x1d4; main.o:_00005_DS_=0x1d4
000001d3 fc5e                ADDAR    0x21, ToReg
000001d4                     main.o:_00005_DS_:
000001d4 e3fc                BCR      STATUS, C
000001d5 e0fc                BCR      STATUS, BK0
000001d6 ec5e                RRR      0x21, ToReg
000001d7 ec5f                RRR      0x20, ToReg
000001d8 e3fc                BCR      STATUS, C
000001d9 ec5e                RRR      0x21, ToReg
000001da ec5f                RRR      0x20, ToReg
000001db e3fc                BCR      STATUS, C
000001dc ec5e                RRR      0x21, ToReg
000001dd ec5f                RRR      0x20, ToReg
000001de fede                MOVR     0x21, ToAcc
000001df fba2                SUBAR    0x5d, ToAcc
000001e0 f6fc                BTRSS    STATUS, Z
000001e1 c61b                LGOTO    0x1e4; main.o:_00634_DS_=0x1e4
000001e2 fedf                MOVR     0x20, ToAcc
000001e3 fba3                SUBAR    0x5c, ToAcc
000001e4                     main.o:_00634_DS_:
000001e4 f3fc                BTRSC    STATUS, C
000001e5 c614                LGOTO    0x1eb; main.o:_00563_DS_=0x1eb
000001e6 e0fc                BCR      STATUS, BK0
000001e7 fedf                MOVR     0x20, ToAcc
000001e8 ff23                MOVAR    0x5c
000001e9 fede                MOVR     0x21, ToAcc
000001ea ff22                MOVAR    0x5d
000001eb                     main.o:_00563_DS_:
000001eb def9                MOVIA    0x6
000001ec e0fc                BCR      STATUS, BK0
000001ed fbde                SUBAR    0x21, ToAcc
000001ee f6fc                BTRSS    STATUS, Z
000001ef c60d                LGOTO    0x1f2; main.o:_00635_DS_=0x1f2
000001f0 deeb                MOVIA    0x14
000001f1 fbdf                SUBAR    0x20, ToAcc
000001f2                     main.o:_00635_DS_:
000001f2 f7fc                BTRSS    STATUS, C
000001f3 c5f2                LGOTO    0x20d; main.o:_00568_DS_=0x20d
000001f4 e0fc                BCR      STATUS, BK0
000001f5 fa21                INCR     0x5e, ToReg
000001f6 f2fc                BTRSC    STATUS, Z
000001f7 fa20                INCR     0x5f, ToReg
000001f8 def6                MOVIA    0x9
000001f9 fba0                SUBAR    0x5f, ToAcc
000001fa f6fc                BTRSS    STATUS, Z
000001fb c601                LGOTO    0x1fe; main.o:_00636_DS_=0x1fe
000001fc de3a                MOVIA    0xc5
000001fd fba1                SUBAR    0x5e, ToAcc
000001fe                     main.o:_00636_DS_:
000001fe f7fc                BTRSS    STATUS, C
000001ff c5f8                LGOTO    0x207; main.o:_00565_DS_=0x207
00000200 de3b                MOVIA    0xc4
00000201 e0fc                BCR      STATUS, BK0
00000202 ff21                MOVAR    0x5e
00000203 def6                MOVIA    0x9
00000204 ff20                MOVAR    0x5f
00000205 ff19                MOVAR    0x66
00000206 c579                LGOTO    0x286; main.o:_00596_DS_=0x286
00000207                     main.o:_00565_DS_:
00000207 de9c                MOVIA    0x63
00000208 e0fc                BCR      STATUS, BK0
00000209 ff04                MOVAR    0x7b
0000020a def7                MOVIA    0x8
0000020b ff19                MOVAR    0x66
0000020c c5ef                LGOTO    0x210; main.o:_00569_DS_=0x210
0000020d                     main.o:_00568_DS_:
0000020d e0fc                BCR      STATUS, BK0
0000020e fd21                CLRR     0x5e
0000020f fd20                CLRR     0x5f
00000210                     main.o:_00569_DS_:
00000210 def9                MOVIA    0x6
00000211 e0fc                BCR      STATUS, BK0
00000212 fbde                SUBAR    0x21, ToAcc
00000213 f6fc                BTRSS    STATUS, Z
00000214 c5e8                LGOTO    0x217; main.o:_00637_DS_=0x217
00000215 def6                MOVIA    0x9
00000216 fbdf                SUBAR    0x20, ToAcc
00000217                     main.o:_00637_DS_:
00000217 f7fc                BTRSS    STATUS, C
00000218 c5e2                LGOTO    0x21d; main.o:_00592_DS_=0x21d
00000219 def7                MOVIA    0x8
0000021a e0fc                BCR      STATUS, BK0
0000021b ff19                MOVAR    0x66
0000021c c57f                LGOTO    0x280; main.o:_00593_DS_=0x280
0000021d                     main.o:_00592_DS_:
0000021d defa                MOVIA    0x5
0000021e e0fc                BCR      STATUS, BK0
0000021f fbde                SUBAR    0x21, ToAcc
00000220 f6fc                BTRSS    STATUS, Z
00000221 c5db                LGOTO    0x224; main.o:_00638_DS_=0x224
00000222 de04                MOVIA    0xfb
00000223 fbdf                SUBAR    0x20, ToAcc
00000224                     main.o:_00638_DS_:
00000224 f7fc                BTRSS    STATUS, C
00000225 c5d4                LGOTO    0x22b; main.o:_00589_DS_=0x22b
00000226 def8                MOVIA    0x7
00000227 e0fc                BCR      STATUS, BK0
00000228 ff19                MOVAR    0x66
00000229 fd08                CLRR     0x77
0000022a c57f                LGOTO    0x280; main.o:_00593_DS_=0x280
0000022b                     main.o:_00589_DS_:
0000022b defa                MOVIA    0x5
0000022c e0fc                BCR      STATUS, BK0
0000022d fbde                SUBAR    0x21, ToAcc
0000022e f6fc                BTRSS    STATUS, Z
0000022f c5cd                LGOTO    0x232; main.o:_00639_DS_=0x232
00000230 de1d                MOVIA    0xe2
00000231 fbdf                SUBAR    0x20, ToAcc
00000232                     main.o:_00639_DS_:
00000232 f7fc                BTRSS    STATUS, C
00000233 c5c6                LGOTO    0x239; main.o:_00586_DS_=0x239
00000234 def9                MOVIA    0x6
00000235 e0fc                BCR      STATUS, BK0
00000236 ff19                MOVAR    0x66
00000237 fd08                CLRR     0x77
00000238 c57f                LGOTO    0x280; main.o:_00593_DS_=0x280
00000239                     main.o:_00586_DS_:
00000239 defa                MOVIA    0x5
0000023a e0fc                BCR      STATUS, BK0
0000023b fbde                SUBAR    0x21, ToAcc
0000023c f6fc                BTRSS    STATUS, Z
0000023d c5bf                LGOTO    0x240; main.o:_00640_DS_=0x240
0000023e de31                MOVIA    0xce
0000023f fbdf                SUBAR    0x20, ToAcc
00000240                     main.o:_00640_DS_:
00000240 f7fc                BTRSS    STATUS, C
00000241 c5b8                LGOTO    0x247; main.o:_00583_DS_=0x247
00000242 defa                MOVIA    0x5
00000243 e0fc                BCR      STATUS, BK0
00000244 ff19                MOVAR    0x66
00000245 fd08                CLRR     0x77
00000246 c57f                LGOTO    0x280; main.o:_00593_DS_=0x280
00000247                     main.o:_00583_DS_:
00000247 defa                MOVIA    0x5
00000248 e0fc                BCR      STATUS, BK0
00000249 fbde                SUBAR    0x21, ToAcc
0000024a f6fc                BTRSS    STATUS, Z
0000024b c5b1                LGOTO    0x24e; main.o:_00641_DS_=0x24e
0000024c de4f                MOVIA    0xb0
0000024d fbdf                SUBAR    0x20, ToAcc
0000024e                     main.o:_00641_DS_:
0000024e f7fc                BTRSS    STATUS, C
0000024f c5aa                LGOTO    0x255; main.o:_00580_DS_=0x255
00000250 defb                MOVIA    0x4
00000251 e0fc                BCR      STATUS, BK0
00000252 ff19                MOVAR    0x66
00000253 fd08                CLRR     0x77
00000254 c57f                LGOTO    0x280; main.o:_00593_DS_=0x280
00000255                     main.o:_00580_DS_:
00000255 defa                MOVIA    0x5
00000256 e0fc                BCR      STATUS, BK0
00000257 fbde                SUBAR    0x21, ToAcc
00000258 f6fc                BTRSS    STATUS, Z
00000259 c5a3                LGOTO    0x25c; main.o:_00642_DS_=0x25c
0000025a de7c                MOVIA    0x83
0000025b fbdf                SUBAR    0x20, ToAcc
0000025c                     main.o:_00642_DS_:
0000025c f7fc                BTRSS    STATUS, C
0000025d c59c                LGOTO    0x263; main.o:_00577_DS_=0x263
0000025e defc                MOVIA    0x3
0000025f e0fc                BCR      STATUS, BK0
00000260 ff19                MOVAR    0x66
00000261 fd08                CLRR     0x77
00000262 c57f                LGOTO    0x280; main.o:_00593_DS_=0x280
00000263                     main.o:_00577_DS_:
00000263 defa                MOVIA    0x5
00000264 e0fc                BCR      STATUS, BK0
00000265 fbde                SUBAR    0x21, ToAcc
00000266 f6fc                BTRSS    STATUS, Z
00000267 c595                LGOTO    0x26a; main.o:_00643_DS_=0x26a
00000268 deae                MOVIA    0x51
00000269 fbdf                SUBAR    0x20, ToAcc
0000026a                     main.o:_00643_DS_:
0000026a f7fc                BTRSS    STATUS, C
0000026b c58e                LGOTO    0x271; main.o:_00574_DS_=0x271
0000026c defd                MOVIA    0x2
0000026d e0fc                BCR      STATUS, BK0
0000026e ff19                MOVAR    0x66
0000026f fd08                CLRR     0x77
00000270 c57f                LGOTO    0x280; main.o:_00593_DS_=0x280
00000271                     main.o:_00574_DS_:
00000271 defb                MOVIA    0x4
00000272 e0fc                BCR      STATUS, BK0
00000273 fbde                SUBAR    0x21, ToAcc
00000274 f6fc                BTRSS    STATUS, Z
00000275 c587                LGOTO    0x278; main.o:_00644_DS_=0x278
00000276 de06                MOVIA    0xf9
00000277 fbdf                SUBAR    0x20, ToAcc
00000278                     main.o:_00644_DS_:
00000278 f7fc                BTRSS    STATUS, C
00000279 c581                LGOTO    0x27e; main.o:_00571_DS_=0x27e
0000027a defe                MOVIA    0x1
0000027b e0fc                BCR      STATUS, BK0
0000027c ff19                MOVAR    0x66
0000027d c57f                LGOTO    0x280; main.o:_00593_DS_=0x280
0000027e                     main.o:_00571_DS_:
0000027e e0fc                BCR      STATUS, BK0
0000027f fd19                CLRR     0x66
00000280                     main.o:_00593_DS_:
00000280 e0fc                BCR      STATUS, BK0
00000281 fe9c                MOVR     0x63, ToAcc
00000282 f2fc                BTRSC    STATUS, Z
00000283 c579                LGOTO    0x286; main.o:_00596_DS_=0x286
00000284 fe9c                MOVR     0x63, ToAcc
00000285 ff1b                MOVAR    0x64
00000286                     main.o:_00596_DS_:
00000286 ffef                RET
00000287                     _chrgCtr:
00000287 e0fc                BCR      STATUS, BK0
00000288 f57a                BTRSS    PORTA, PA5
00000289 c500                LGOTO    0x2ff; main.o:_00482_DS_=0x2ff
0000028a fd09                CLRR     0x76
0000028b defe                MOVIA    0x1
0000028c ff0d                MOVAR    0x72
0000028d fd1c                CLRR     0x63
0000028e fd14                CLRR     0x6b
0000028f d1f7                LCALL    0x608; _pwmStop=0x608
00000290 e0fc                BCR      STATUS, BK0
00000291 fe88                MOVR     0x77, ToAcc
00000292 f6fc                BTRSS    STATUS, Z
00000293 c567                LGOTO    0x298; main.o:_00463_DS_=0x298
00000294 def6                MOVIA    0x9
00000295 fb99                SUBAR    0x66, ToAcc
00000296 f7fc                BTRSS    STATUS, C
00000297 c547                LGOTO    0x2b8; main.o:_00464_DS_=0x2b8
00000298                     main.o:_00463_DS_:
00000298 def7                MOVIA    0x8
00000299 e0fc                BCR      STATUS, BK0
0000029a ff1b                MOVAR    0x64
0000029b fa07                INCR     0x78, ToReg
0000029c de36                MOVIA    0xc9
0000029d fb87                SUBAR    0x78, ToAcc
0000029e f7fc                BTRSS    STATUS, C
0000029f c559                LGOTO    0x2a6; main.o:_00446_DS_=0x2a6
000002a0 defe                MOVIA    0x1
000002a1 ff08                MOVAR    0x77
000002a2 de37                MOVIA    0xc8
000002a3 ff07                MOVAR    0x78
000002a4 e6fa                BSR      PORTA, PA2
000002a5 e37a                BCR      PORTA, PA1
000002a6                     main.o:_00446_DS_:
000002a6 e0fc                BCR      STATUS, BK0
000002a7 fe99                MOVR     0x66, ToAcc
000002a8 dbf5                XORIA    0xa
000002a9 f6fc                BTRSS    STATUS, Z
000002aa c4b9                LGOTO    0x346; main.o:_00484_DS_=0x346
000002ab fa12                INCR     0x6d, ToReg
000002ac de9a                MOVIA    0x65
000002ad fb92                SUBAR    0x6d, ToAcc
000002ae f7fc                BTRSS    STATUS, C
000002af c4b9                LGOTO    0x346; main.o:_00484_DS_=0x346
000002b0 ffea                IOSTR    IOSTA
000002b1 ff4d                MOVAR    0x32
000002b2 e7cd                BSR      0x32, 0x0
000002b3 fecd                MOVR     0x32, ToAcc
000002b4 fffa                IOST     IOSTA
000002b5 e6fa                BSR      PORTA, PA2
000002b6 e37a                BCR      PORTA, PA1
000002b7 c4b9                LGOTO    0x346; main.o:_00484_DS_=0x346
000002b8                     main.o:_00464_DS_:
000002b8 e0fc                BCR      STATUS, BK0
000002b9 fd07                CLRR     0x78
000002ba e2fa                BCR      PORTA, PA2
000002bb fd12                CLRR     0x6d
000002bc fe9e                MOVR     0x61, ToAcc
000002bd f6fc                BTRSS    STATUS, Z
000002be c511                LGOTO    0x2ee; main.o:_00458_DS_=0x2ee
000002bf def6                MOVIA    0x9
000002c0 fb99                SUBAR    0x66, ToAcc
000002c1 f3fc                BTRSC    STATUS, C
000002c2 c511                LGOTO    0x2ee; main.o:_00458_DS_=0x2ee
000002c3 fe99                MOVR     0x66, ToAcc
000002c4 ff4d                MOVAR    0x32
000002c5 fd4c                CLRR     0x33
000002c6 de00                MOVIA    0xff
000002c7 fc4d                ADDAR    0x32, ToReg
000002c8 f3fc                BTRSC    STATUS, C
000002c9 c534                LGOTO    0x2cb; main.o:_00006_DS_=0x2cb
000002ca f94c                DECR     0x33, ToReg
000002cb                     main.o:_00006_DS_:
000002cb e0fc                BCR      STATUS, BK0
000002cc fe8a                MOVR     0x75, ToAcc
000002cd ff4b                MOVAR    0x34
000002ce deff                MOVIA    0x0
000002cf da7f                ADDIA    0x80
000002d0 ff4a                MOVAR    0x35
000002d1 fecc                MOVR     0x33, ToAcc
000002d2 da7f                ADDIA    0x80
000002d3 fbca                SUBAR    0x35, ToAcc
000002d4 f6fc                BTRSS    STATUS, Z
000002d5 c527                LGOTO    0x2d8; main.o:_00541_DS_=0x2d8
000002d6 fecd                MOVR     0x32, ToAcc
000002d7 fbcb                SUBAR    0x34, ToAcc
000002d8                     main.o:_00541_DS_:
000002d8 f3fc                BTRSC    STATUS, C
000002d9 c516                LGOTO    0x2e9; main.o:_00455_DS_=0x2e9
000002da e0fc                BCR      STATUS, BK0
000002db fe8a                MOVR     0x75, ToAcc
000002dc f6fc                BTRSS    STATUS, Z
000002dd c51f                LGOTO    0x2e0; main.o:_00451_DS_=0x2e0
000002de f999                DECR     0x66, ToAcc
000002df ff0a                MOVAR    0x75
000002e0                     main.o:_00451_DS_:
000002e0 e0fc                BCR      STATUS, BK0
000002e1 fa06                INCR     0x79, ToReg
000002e2 de9a                MOVIA    0x65
000002e3 fb86                SUBAR    0x79, ToAcc
000002e4 f7fc                BTRSS    STATUS, C
000002e5 c514                LGOTO    0x2eb; main.o:_00456_DS_=0x2eb
000002e6 f999                DECR     0x66, ToAcc
000002e7 ff0a                MOVAR    0x75
000002e8 c514                LGOTO    0x2eb; main.o:_00456_DS_=0x2eb
000002e9                     main.o:_00455_DS_:
000002e9 e0fc                BCR      STATUS, BK0
000002ea fd06                CLRR     0x79
000002eb                     main.o:_00456_DS_:
000002eb e0fc                BCR      STATUS, BK0
000002ec fe8a                MOVR     0x75, ToAcc
000002ed ff1b                MOVAR    0x64
000002ee                     main.o:_00458_DS_:
000002ee dee1                MOVIA    0x1e
000002ef e0fc                BCR      STATUS, BK0
000002f0 fb9e                SUBAR    0x61, ToAcc
000002f1 f3fc                BTRSC    STATUS, C
000002f2 c50a                LGOTO    0x2f5; main.o:_00461_DS_=0x2f5
000002f3 e77a                BSR      PORTA, PA1
000002f4 c508                LGOTO    0x2f7; main.o:_00462_DS_=0x2f7
000002f5                     main.o:_00461_DS_:
000002f5 e0fc                BCR      STATUS, BK0
000002f6 e37a                BCR      PORTA, PA1
000002f7                     main.o:_00462_DS_:
000002f7 ffea                IOSTR    IOSTA
000002f8 e0fc                BCR      STATUS, BK0
000002f9 ff4d                MOVAR    0x32
000002fa e3cd                BCR      0x32, 0x0
000002fb fecd                MOVR     0x32, ToAcc
000002fc fffa                IOST     IOSTA
000002fd e7fa                BSR      PORTA, PA0
000002fe c4b9                LGOTO    0x346; main.o:_00484_DS_=0x346
000002ff                     main.o:_00482_DS_:
000002ff e0fc                BCR      STATUS, BK0
00000300 fd08                CLRR     0x77
00000301 fd07                CLRR     0x78
00000302 fd0a                CLRR     0x75
00000303 fe9c                MOVR     0x63, ToAcc
00000304 f2fc                BTRSC    STATUS, Z
00000305 c4e1                LGOTO    0x31e; main.o:_00470_DS_=0x31e
00000306 fe99                MOVR     0x66, ToAcc
00000307 f6fc                BTRSS    STATUS, Z
00000308 c4e1                LGOTO    0x31e; main.o:_00470_DS_=0x31e
00000309 fa25                INCR     0x5a, ToReg
0000030a f2fc                BTRSC    STATUS, Z
0000030b fa24                INCR     0x5b, ToReg
0000030c dee8                MOVIA    0x17
0000030d fba4                SUBAR    0x5b, ToAcc
0000030e f6fc                BTRSS    STATUS, Z
0000030f c4ed                LGOTO    0x312; main.o:_00544_DS_=0x312
00000310 de8e                MOVIA    0x71
00000311 fba5                SUBAR    0x5a, ToAcc
00000312                     main.o:_00544_DS_:
00000312 f7fc                BTRSS    STATUS, C
00000313 c4de                LGOTO    0x321; main.o:_00471_DS_=0x321
00000314 de0b                MOVIA    0xf4
00000315 e0fc                BCR      STATUS, BK0
00000316 ff27                MOVAR    0x58
00000317 defe                MOVIA    0x1
00000318 ff26                MOVAR    0x59
00000319 ff09                MOVAR    0x76
0000031a fd25                CLRR     0x5a
0000031b fd24                CLRR     0x5b
0000031c d1fd                LCALL    0x602; _powerOff=0x602
0000031d c4de                LGOTO    0x321; main.o:_00471_DS_=0x321
0000031e                     main.o:_00470_DS_:
0000031e e0fc                BCR      STATUS, BK0
0000031f fd25                CLRR     0x5a
00000320 fd24                CLRR     0x5b
00000321                     main.o:_00471_DS_:
00000321 e0fc                BCR      STATUS, BK0
00000322 fea7                MOVR     0x58, ToAcc
00000323 eea6                IORAR    0x59, ToAcc
00000324 f2fc                BTRSC    STATUS, Z
00000325 c4cc                LGOTO    0x333; main.o:_00477_DS_=0x333
00000326 de00                MOVIA    0xff
00000327 fc27                ADDAR    0x58, ToReg
00000328 f7fc                BTRSS    STATUS, C
00000329 f926                DECR     0x59, ToReg
0000032a dee1                MOVIA    0x1e
0000032b fb9e                SUBAR    0x61, ToAcc
0000032c f3fc                BTRSC    STATUS, C
0000032d c4cf                LGOTO    0x330; main.o:_00474_DS_=0x330
0000032e e77a                BSR      PORTA, PA1
0000032f c4ca                LGOTO    0x335; main.o:_00478_DS_=0x335
00000330                     main.o:_00474_DS_:
00000330 e0fc                BCR      STATUS, BK0
00000331 e37a                BCR      PORTA, PA1
00000332 c4ca                LGOTO    0x335; main.o:_00478_DS_=0x335
00000333                     main.o:_00477_DS_:
00000333 e0fc                BCR      STATUS, BK0
00000334 e37a                BCR      PORTA, PA1
00000335                     main.o:_00478_DS_:
00000335 e0fc                BCR      STATUS, BK0
00000336 e2fa                BCR      PORTA, PA2
00000337 ffea                IOSTR    IOSTA
00000338 ff4d                MOVAR    0x32
00000339 e7cd                BSR      0x32, 0x0
0000033a fecd                MOVR     0x32, ToAcc
0000033b fffa                IOST     IOSTA
0000033c fd2f                CLRR     0x50
0000033d fd2e                CLRR     0x51
0000033e fe9c                MOVR     0x63, ToAcc
0000033f f6fc                BTRSS    STATUS, Z
00000340 c4bd                LGOTO    0x342; main.o:_00007_DS_=0x342
00000341 fd1b                CLRR     0x64
00000342                     main.o:_00007_DS_:
00000342 e0fc                BCR      STATUS, BK0
00000343 fd0d                CLRR     0x72
00000344 fd2f                CLRR     0x50
00000345 fd2e                CLRR     0x51
00000346                     main.o:_00484_DS_:
00000346 ffef                RET
00000347                     _main:
00000347 d2d7                LCALL    0x528; _initSys=0x528
00000348 d208                LCALL    0x5f7; _initAD=0x5f7
00000349                     main.o:_00166_DS_:
00000349 fffd                CLRWDT
0000034a d3df                LCALL    0x420; _ledShow=0x420
0000034b e0fc                BCR      STATUS, BK0
0000034c fe8e                MOVR     0x71, ToAcc
0000034d f2fc                BTRSC    STATUS, Z
0000034e c4b6                LGOTO    0x349; main.o:_00166_DS_=0x349
0000034f fd0e                CLRR     0x71
00000350 fe8d                MOVR     0x72, ToAcc
00000351 f2fc                BTRSC    STATUS, Z
00000352 d7f6                LCALL    0x9; _keyCtr=0x9
00000353 defa                MOVIA    0x5
00000354 e0fc                BCR      STATUS, BK0
00000355 fb98                SUBAR    0x67, ToAcc
00000356 f3fc                BTRSC    STATUS, C
00000357 c4a5                LGOTO    0x35a; main.o:_00143_DS_=0x35a
00000358 d648                LCALL    0x1b7; _checkBatAD=0x1b7
00000359 c49c                LGOTO    0x363; main.o:_00144_DS_=0x363
0000035a                     main.o:_00143_DS_:
0000035a def6                MOVIA    0x9
0000035b e0fc                BCR      STATUS, BK0
0000035c fb98                SUBAR    0x67, ToAcc
0000035d f7fc                BTRSS    STATUS, C
0000035e c49c                LGOTO    0x363; main.o:_00144_DS_=0x363
0000035f def4                MOVIA    0xb
00000360 fb98                SUBAR    0x67, ToAcc
00000361 f7fc                BTRSS    STATUS, C
00000362 d718                LCALL    0xe7; _checkOutA=0xe7
00000363                     main.o:_00144_DS_:
00000363 d578                LCALL    0x287; _chrgCtr=0x287
00000364 d3df                LCALL    0x420; _ledShow=0x420
00000365 e0fc                BCR      STATUS, BK0
00000366 fe9c                MOVR     0x63, ToAcc
00000367 f2fc                BTRSC    STATUS, Z
00000368 c48e                LGOTO    0x371; main.o:_00146_DS_=0x371
00000369 fe93                MOVR     0x6c, ToAcc
0000036a fb9a                SUBAR    0x65, ToAcc
0000036b f3fc                BTRSC    STATUS, C
0000036c c48e                LGOTO    0x371; main.o:_00146_DS_=0x371
0000036d de09                MOVIA    0xf6
0000036e fc13                ADDAR    0x6c, ToReg
0000036f fe93                MOVR     0x6c, ToAcc
00000370 ffb3                SFUN     PWM2DUTY
00000371                     main.o:_00146_DS_:
00000371 defa                MOVIA    0x5
00000372 e0fc                BCR      STATUS, BK0
00000373 fb95                SUBAR    0x6a, ToAcc
00000374 f7fc                BTRSS    STATUS, C
00000375 c473                LGOTO    0x38c; main.o:_00151_DS_=0x38c
00000376 fe9c                MOVR     0x63, ToAcc
00000377 f2fc                BTRSC    STATUS, Z
00000378 c473                LGOTO    0x38c; main.o:_00151_DS_=0x38c
00000379 fa29                INCR     0x56, ToReg
0000037a f2fc                BTRSC    STATUS, Z
0000037b fa28                INCR     0x57, ToReg
0000037c defe                MOVIA    0x1
0000037d fba8                SUBAR    0x57, ToAcc
0000037e f6fc                BTRSS    STATUS, Z
0000037f c47d                LGOTO    0x382; main.o:_00232_DS_=0x382
00000380 de0a                MOVIA    0xf5
00000381 fba9                SUBAR    0x56, ToAcc
00000382                     main.o:_00232_DS_:
00000382 f7fc                BTRSS    STATUS, C
00000383 c470                LGOTO    0x38f; main.o:_00152_DS_=0x38f
00000384 e0fc                BCR      STATUS, BK0
00000385 fd15                CLRR     0x6a
00000386 fd29                CLRR     0x56
00000387 fd28                CLRR     0x57
00000388 dee6                MOVIA    0x19
00000389 ff0b                MOVAR    0x74
0000038a d1fd                LCALL    0x602; _powerOff=0x602
0000038b c470                LGOTO    0x38f; main.o:_00152_DS_=0x38f
0000038c                     main.o:_00151_DS_:
0000038c e0fc                BCR      STATUS, BK0
0000038d fd29                CLRR     0x56
0000038e fd28                CLRR     0x57
0000038f                     main.o:_00152_DS_:
0000038f e0fc                BCR      STATUS, BK0
00000390 fe9c                MOVR     0x63, ToAcc
00000391 f6fc                BTRSS    STATUS, Z
00000392 c451                LGOTO    0x3ae; main.o:_00157_DS_=0x3ae
00000393 fe9d                MOVR     0x62, ToAcc
00000394 f6fc                BTRSS    STATUS, Z
00000395 c451                LGOTO    0x3ae; main.o:_00157_DS_=0x3ae
00000396 f17a                BTRSC    PORTA, PA5
00000397 c451                LGOTO    0x3ae; main.o:_00157_DS_=0x3ae
00000398 fe94                MOVR     0x6b, ToAcc
00000399 f6fc                BTRSS    STATUS, Z
0000039a c451                LGOTO    0x3ae; main.o:_00157_DS_=0x3ae
0000039b fe8b                MOVR     0x74, ToAcc
0000039c f6fc                BTRSS    STATUS, Z
0000039d c451                LGOTO    0x3ae; main.o:_00157_DS_=0x3ae
0000039e fea7                MOVR     0x58, ToAcc
0000039f eea6                IORAR    0x59, ToAcc
000003a0 f6fc                BTRSS    STATUS, Z
000003a1 c451                LGOTO    0x3ae; main.o:_00157_DS_=0x3ae
000003a2 fa2d                INCR     0x52, ToReg
000003a3 f2fc                BTRSC    STATUS, Z
000003a4 fa2c                INCR     0x53, ToReg
000003a5 deff                MOVIA    0x0
000003a6 fbac                SUBAR    0x53, ToAcc
000003a7 f6fc                BTRSS    STATUS, Z
000003a8 c454                LGOTO    0x3ab; main.o:_00233_DS_=0x3ab
000003a9 dee0                MOVIA    0x1f
000003aa fbad                SUBAR    0x52, ToAcc
000003ab                     main.o:_00233_DS_:
000003ab f7fc                BTRSS    STATUS, C
000003ac c451                LGOTO    0x3ae; main.o:_00157_DS_=0x3ae
000003ad d376                LCALL    0x489; _gotoSleep=0x489
000003ae                     main.o:_00157_DS_:
000003ae defc                MOVIA    0x3
000003af e0fc                BCR      STATUS, BK0
000003b0 fbaa                SUBAR    0x55, ToAcc
000003b1 f6fc                BTRSS    STATUS, Z
000003b2 c44a                LGOTO    0x3b5; main.o:_00234_DS_=0x3b5
000003b3 de7b                MOVIA    0x84
000003b4 fbab                SUBAR    0x54, ToAcc
000003b5                     main.o:_00234_DS_:
000003b5 f7fc                BTRSS    STATUS, C
000003b6 c4b6                LGOTO    0x349; main.o:_00166_DS_=0x349
000003b7 d1fd                LCALL    0x602; _powerOff=0x602
000003b8 c4b6                LGOTO    0x349; main.o:_00166_DS_=0x349
000003b9 ffef                RET
000003ba                     _isr:
000003ba ff3d                MOVAR    0x42
000003bb eafc                SWAPR    STATUS, ToAcc
000003bc fd7c                CLRR     STATUS
000003bd ff3e                MOVAR    0x41
000003be fef5                MOVR     PCHBUF, ToAcc
000003bf fd75                CLRR     PCHBUF
000003c0 ff3f                MOVAR    0x40
000003c1 fefb                MOVR     FSR, ToAcc
000003c2 e0fc                BCR      STATUS, BK0
000003c3 ff34                MOVAR    0x4b
000003c4 feba                MOVR     0x45, ToAcc
000003c5 ff33                MOVAR    0x4c
000003c6 febb                MOVR     0x44, ToAcc
000003c7 ff32                MOVAR    0x4d
000003c8 f7f0                BTRSS    INTF, T0IF
000003c9 c3f3                LGOTO    0x40c; main.o:_00128_DS_=0x40c
000003ca dec8                MOVIA    0x37
000003cb fc7e                ADDAR    TMR0, ToReg
000003cc fa1f                INCR     0x60, ToReg
000003cd de9b                MOVIA    0x64
000003ce fb9f                SUBAR    0x60, ToAcc
000003cf f7fc                BTRSS    STATUS, C
000003d0 c3f3                LGOTO    0x40c; main.o:_00128_DS_=0x40c
000003d1 defe                MOVIA    0x1
000003d2 ff0e                MOVAR    0x71
000003d3 fd1f                CLRR     0x60
000003d4 fe9c                MOVR     0x63, ToAcc
000003d5 f2fc                BTRSC    STATUS, Z
000003d6 c425                LGOTO    0x3da; main.o:_00106_DS_=0x3da
000003d7 fa31                INCR     0x4e, ToReg
000003d8 f2fc                BTRSC    STATUS, Z
000003d9 fa30                INCR     0x4f, ToReg
000003da                     main.o:_00106_DS_:
000003da e0fc                BCR      STATUS, BK0
000003db fa1e                INCR     0x61, ToReg
000003dc dec3                MOVIA    0x3c
000003dd fb9e                SUBAR    0x61, ToAcc
000003de f3fc                BTRSC    STATUS, C
000003df fd1e                CLRR     0x61
000003e0 fa18                INCR     0x67, ToReg
000003e1 deeb                MOVIA    0x14
000003e2 fb98                SUBAR    0x67, ToAcc
000003e3 f7fc                BTRSS    STATUS, C
000003e4 c416                LGOTO    0x3e9; main.o:_00112_DS_=0x3e9
000003e5 fd18                CLRR     0x67
000003e6 fe8b                MOVR     0x74, ToAcc
000003e7 f6fc                BTRSS    STATUS, Z
000003e8 f90b                DECR     0x74, ToReg
000003e9                     main.o:_00112_DS_:
000003e9 e0fc                BCR      STATUS, BK0
000003ea fa17                INCR     0x68, ToReg
000003eb de9b                MOVIA    0x64
000003ec fb97                SUBAR    0x68, ToAcc
000003ed f7fc                BTRSS    STATUS, C
000003ee c3f3                LGOTO    0x40c; main.o:_00128_DS_=0x40c
000003ef fd17                CLRR     0x68
000003f0 fe8d                MOVR     0x72, ToAcc
000003f1 dbfe                XORIA    0x1
000003f2 f6fc                BTRSS    STATUS, Z
000003f3 c404                LGOTO    0x3fb; main.o:_00114_DS_=0x3fb
000003f4 fe99                MOVR     0x66, ToAcc
000003f5 dbf7                XORIA    0x8
000003f6 f6fc                BTRSS    STATUS, Z
000003f7 c404                LGOTO    0x3fb; main.o:_00114_DS_=0x3fb
000003f8 fa2f                INCR     0x50, ToReg
000003f9 f2fc                BTRSC    STATUS, Z
000003fa fa2e                INCR     0x51, ToReg
000003fb                     main.o:_00114_DS_:
000003fb e0fc                BCR      STATUS, BK0
000003fc fe94                MOVR     0x6b, ToAcc
000003fd f6fc                BTRSS    STATUS, Z
000003fe f914                DECR     0x6b, ToReg
000003ff fe91                MOVR     0x6e, ToAcc
00000400 f6fc                BTRSS    STATUS, Z
00000401 f911                DECR     0x6e, ToReg
00000402 fe9c                MOVR     0x63, ToAcc
00000403 f2fc                BTRSC    STATUS, Z
00000404 c3f6                LGOTO    0x409; main.o:_00121_DS_=0x409
00000405 fa2b                INCR     0x54, ToReg
00000406 f2fc                BTRSC    STATUS, Z
00000407 fa2a                INCR     0x55, ToReg
00000408 c3f3                LGOTO    0x40c; main.o:_00128_DS_=0x40c
00000409                     main.o:_00121_DS_:
00000409 e0fc                BCR      STATUS, BK0
0000040a fd2b                CLRR     0x54
0000040b fd2a                CLRR     0x55
0000040c                     main.o:_00128_DS_:
0000040c f770                BTRSS    INTF, PABIF
0000040d c3ef                LGOTO    0x410; main.o:_00130_DS_=0x410
0000040e de02                MOVIA    0xfd
0000040f ff70                MOVAR    INTF
00000410                     main.o:_00130_DS_:
00000410 fd70                CLRR     INTF
00000411 e0fc                BCR      STATUS, BK0
00000412 feb2                MOVR     0x4d, ToAcc
00000413 ff3b                MOVAR    0x44
00000414 feb3                MOVR     0x4c, ToAcc
00000415 ff3a                MOVAR    0x45
00000416 feb4                MOVR     0x4b, ToAcc
00000417 ff7b                MOVAR    FSR
00000418 febf                MOVR     0x40, ToAcc
00000419 ff75                MOVAR    PCHBUF
0000041a fd7c                CLRR     STATUS
0000041b eabe                SWAPR    0x41, ToAcc
0000041c ff7c                MOVAR    STATUS
0000041d ea3d                SWAPR    0x42, ToReg
0000041e eabd                SWAPR    0x42, ToAcc
0000041f                     main.o:END_OF_INTERRUPT:
0000041f ffee                RETIE
00000420                     _ledShow:
00000420 e0fc                BCR      STATUS, BK0
00000421 fe8b                MOVR     0x74, ToAcc
00000422 f2fc                BTRSC    STATUS, Z
00000423 c3d1                LGOTO    0x42e; main.o:_00325_DS_=0x42e
00000424 fe9c                MOVR     0x63, ToAcc
00000425 f6fc                BTRSS    STATUS, Z
00000426 c3d1                LGOTO    0x42e; main.o:_00325_DS_=0x42e
00000427 f38b                BTRSC    0x74, 0x0
00000428 c3d4                LGOTO    0x42b; main.o:_00322_DS_=0x42b
00000429 fd1b                CLRR     0x64
0000042a c3d1                LGOTO    0x42e; main.o:_00325_DS_=0x42e
0000042b                     main.o:_00322_DS_:
0000042b e0fc                BCR      STATUS, BK0
0000042c fe8c                MOVR     0x73, ToAcc
0000042d ff1b                MOVAR    0x64
0000042e                     main.o:_00325_DS_:
0000042e e0fc                BCR      STATUS, BK0
0000042f fe94                MOVR     0x6b, ToAcc
00000430 f2fc                BTRSC    STATUS, Z
00000431 c3c8                LGOTO    0x437; main.o:_00328_DS_=0x437
00000432 fe99                MOVR     0x66, ToAcc
00000433 f2fc                BTRSC    STATUS, Z
00000434 c3c8                LGOTO    0x437; main.o:_00328_DS_=0x437
00000435 fe8c                MOVR     0x73, ToAcc
00000436 ff1b                MOVAR    0x64
00000437                     main.o:_00328_DS_:
00000437 d231                LCALL    0x5ce; _LedInput=0x5ce
00000438 def6                MOVIA    0x9
00000439 e0fc                BCR      STATUS, BK0
0000043a fb9b                SUBAR    0x64, ToAcc
0000043b f3fc                BTRSC    STATUS, C
0000043c c3a8                LGOTO    0x457; main.o:_00340_DS_=0x457
0000043d defb                MOVIA    0x4
0000043e ff75                MOVAR    PCHBUF
0000043f fe9b                MOVR     0x64, ToAcc
00000440 dabb                ADDIA    0x44
00000441 f3fc                BTRSC    STATUS, C
00000442 fa75                INCR     PCHBUF, ToReg
00000443 ff7d                MOVAR    PCL
00000444                     main.o:_00361_DS_:
00000444 c3b2                LGOTO    0x44d; main.o:_00330_DS_=0x44d
00000445 c3a9                LGOTO    0x456; main.o:_00338_DS_=0x456
00000446 c3aa                LGOTO    0x455; main.o:_00337_DS_=0x455
00000447 c3ab                LGOTO    0x454; main.o:_00336_DS_=0x454
00000448 c3ac                LGOTO    0x453; main.o:_00335_DS_=0x453
00000449 c3ad                LGOTO    0x452; main.o:_00334_DS_=0x452
0000044a c3ae                LGOTO    0x451; main.o:_00333_DS_=0x451
0000044b c3af                LGOTO    0x450; main.o:_00332_DS_=0x450
0000044c c3b0                LGOTO    0x44f; main.o:_00331_DS_=0x44f
0000044d                     main.o:_00330_DS_:
0000044d d231                LCALL    0x5ce; _LedInput=0x5ce
0000044e c3a8                LGOTO    0x457; main.o:_00340_DS_=0x457
0000044f                     main.o:_00331_DS_:
0000044f d2b9                LCALL    0x546; _LED8ON=0x546
00000450                     main.o:_00332_DS_:
00000450 d2a8                LCALL    0x557; _LED7ON=0x557
00000451                     main.o:_00333_DS_:
00000451 d297                LCALL    0x568; _LED6ON=0x568
00000452                     main.o:_00334_DS_:
00000452 d286                LCALL    0x579; _LED5ON=0x579
00000453                     main.o:_00335_DS_:
00000453 d275                LCALL    0x58a; _LED4ON=0x58a
00000454                     main.o:_00336_DS_:
00000454 d264                LCALL    0x59b; _LED3ON=0x59b
00000455                     main.o:_00337_DS_:
00000455 d253                LCALL    0x5ac; _LED2ON=0x5ac
00000456                     main.o:_00338_DS_:
00000456 d242                LCALL    0x5bd; _LED1ON=0x5bd
00000457                     main.o:_00340_DS_:
00000457 ffef                RET
00000458                     ___cinit_load__:
00000458 e0fc                BCR      STATUS, BK0
00000459 fd1f                CLRR     0x60
0000045a fd1e                CLRR     0x61
0000045b fd1d                CLRR     0x62
0000045c fd1c                CLRR     0x63
0000045d fd1b                CLRR     0x64
0000045e fd31                CLRR     0x4e
0000045f fd30                CLRR     0x4f
00000460 fd1a                CLRR     0x65
00000461 fd19                CLRR     0x66
00000462 fd2f                CLRR     0x50
00000463 fd2e                CLRR     0x51
00000464 fd2d                CLRR     0x52
00000465 fd2c                CLRR     0x53
00000466 fd18                CLRR     0x67
00000467 fd17                CLRR     0x68
00000468 fd2b                CLRR     0x54
00000469 fd2a                CLRR     0x55
0000046a fd16                CLRR     0x69
0000046b fd15                CLRR     0x6a
0000046c fd14                CLRR     0x6b
0000046d fd13                CLRR     0x6c
0000046e fd12                CLRR     0x6d
0000046f fd11                CLRR     0x6e
00000470 fd10                CLRR     0x6f
00000471 fd0f                CLRR     0x70
00000472 fd0e                CLRR     0x71
00000473 fd0d                CLRR     0x72
00000474 fd0c                CLRR     0x73
00000475 fd29                CLRR     0x56
00000476 fd28                CLRR     0x57
00000477 fd0b                CLRR     0x74
00000478 fd0a                CLRR     0x75
00000479 fd27                CLRR     0x58
0000047a fd26                CLRR     0x59
0000047b fd25                CLRR     0x5a
0000047c fd24                CLRR     0x5b
0000047d fd09                CLRR     0x76
0000047e fd08                CLRR     0x77
0000047f fd07                CLRR     0x78
00000480 fd06                CLRR     0x79
00000481 fd05                CLRR     0x7a
00000482 fd04                CLRR     0x7b
00000483 fd23                CLRR     0x5c
00000484 fd22                CLRR     0x5d
00000485 fd21                CLRR     0x5e
00000486 fd20                CLRR     0x5f
00000487 fd03                CLRR     0x7c
00000488 ffef                RET
00000489                     _gotoSleep:
00000489 e0fc                BCR      STATUS, BK0
0000048a fd2b                CLRR     0x54
0000048b fd2a                CLRR     0x55
0000048c d231                LCALL    0x5ce; _LedInput=0x5ce
0000048d d1f7                LCALL    0x608; _pwmStop=0x608
0000048e de9f                MOVIA    0x60
0000048f fffa                IOST     IOSTA
00000490 fdff                CLRA
00000491 fff9                IOST     IOSTB
00000492 de60                MOVIA    0x9f
00000493 fff6                IOST     APHCON
00000494 fd79                CLRR     PORTB
00000495 e0fc                BCR      STATUS, BK0
00000496 fd7a                CLRR     PORTA
00000497 fd2d                CLRR     0x52
00000498 fd2c                CLRR     0x53
00000499 fd1c                CLRR     0x63
0000049a de9f                MOVIA    0x60
0000049b ff6a                MOVAR    AWUCON
0000049c defd                MOVIA    0x2
0000049d ff71                MOVAR    INTE
0000049e dee7                MOVIA    0x18
0000049f ff77                MOVAR    PCON
000004a0 fd70                CLRR     INTF
000004a1 fffd                CLRWDT
000004a2 fffb                ENI
000004a3 fffe                SLEEP
000004a4 fd6a                CLRR     AWUCON
000004a5 de40                MOVIA    0xbf
000004a6 fff6                IOST     APHCON
000004a7 fd79                CLRR     PORTB
000004a8 debf                MOVIA    0x40
000004a9 ff7a                MOVAR    PORTA
000004aa de87                MOVIA    0x78
000004ab fffa                IOST     IOSTA
000004ac defe                MOVIA    0x1
000004ad ff71                MOVAR    INTE
000004ae fd70                CLRR     INTF
000004af de47                MOVIA    0xb8
000004b0 ff77                MOVAR    PCON
000004b1 ffef                RET
000004b2                     _keyRead:
000004b2 e0fc                BCR      STATUS, BK0
000004b3 ff4e                MOVAR    0x31
000004b4 fece                MOVR     0x31, ToAcc
000004b5 f2fc                BTRSC    STATUS, Z
000004b6 c33a                LGOTO    0x4c5; main.o:_00438_DS_=0x4c5
000004b7 fa1d                INCR     0x62, ToReg
000004b8 de9b                MOVIA    0x64
000004b9 fb9d                SUBAR    0x62, ToAcc
000004ba f7fc                BTRSS    STATUS, C
000004bb c327                LGOTO    0x4d8; main.o:_00439_DS_=0x4d8
000004bc de9b                MOVIA    0x64
000004bd ff1d                MOVAR    0x62
000004be fe8f                MOVR     0x70, ToAcc
000004bf f6fc                BTRSS    STATUS, Z
000004c0 c327                LGOTO    0x4d8; main.o:_00439_DS_=0x4d8
000004c1 defe                MOVIA    0x1
000004c2 ff0f                MOVAR    0x70
000004c3 defd                MOVIA    0x2
000004c4 c326                LGOTO    0x4d9; main.o:_00440_DS_=0x4d9
000004c5                     main.o:_00438_DS_:
000004c5 de9b                MOVIA    0x64
000004c6 e0fc                BCR      STATUS, BK0
000004c7 fb9d                SUBAR    0x62, ToAcc
000004c8 f7fc                BTRSS    STATUS, C
000004c9 c331                LGOTO    0x4ce; main.o:_00435_DS_=0x4ce
000004ca fd1d                CLRR     0x62
000004cb fd0f                CLRR     0x70
000004cc deff                MOVIA    0x0
000004cd c326                LGOTO    0x4d9; main.o:_00440_DS_=0x4d9
000004ce                     main.o:_00435_DS_:
000004ce defb                MOVIA    0x4
000004cf e0fc                BCR      STATUS, BK0
000004d0 fb9d                SUBAR    0x62, ToAcc
000004d1 f7fc                BTRSS    STATUS, C
000004d2 c329                LGOTO    0x4d6; main.o:_00436_DS_=0x4d6
000004d3 fd1d                CLRR     0x62
000004d4 defe                MOVIA    0x1
000004d5 c326                LGOTO    0x4d9; main.o:_00440_DS_=0x4d9
000004d6                     main.o:_00436_DS_:
000004d6 e0fc                BCR      STATUS, BK0
000004d7 fd1d                CLRR     0x62
000004d8                     main.o:_00439_DS_:
000004d8 deff                MOVIA    0x0
000004d9                     main.o:_00440_DS_:
000004d9 ffef                RET
000004da                     _F_AIN3_Convert:
000004da e0fc                BCR      STATUS, BK0
000004db ff38                MOVAR    0x47
000004dc fd5a                CLRR     0x25
000004dd fd5d                CLRR     0x22
000004de fd5c                CLRR     0x23
000004df de6c                MOVIA    0x93
000004e0 ff6f                MOVAR    ADMD
000004e1 de37                MOVIA    0xc8
000004e2 d214                LCALL    0x5eb; _delay=0x5eb
000004e3 defe                MOVIA    0x1
000004e4 e0fc                BCR      STATUS, BK0
000004e5 ff37                MOVAR    0x48
000004e6                     main.o:_00773_DS_:
000004e6 e0fc                BCR      STATUS, BK0
000004e7 feb7                MOVR     0x48, ToAcc
000004e8 fbb8                SUBAR    0x47, ToAcc
000004e9 f7fc                BTRSS    STATUS, C
000004ea c2ff                LGOTO    0x500; main.o:_00775_DS_=0x500
000004eb e4ef                BSR      ADMD, START
000004ec d7fc                LCALL    0x3; _F_wait_eoc=0x3
000004ed def0                MOVIA    0xf
000004ee efee                ANDAR    ADR, ToAcc
000004ef e0fc                BCR      STATUS, BK0
000004f0 fc5a                ADDAR    0x25, ToReg
000004f1 feed                MOVR     ADD, ToAcc
000004f2 ff36                MOVAR    0x49
000004f3 deff                MOVIA    0x0
000004f4 ff35                MOVAR    0x4a
000004f5 feb6                MOVR     0x49, ToAcc
000004f6 fc5d                ADDAR    0x22, ToReg
000004f7 feb5                MOVR     0x4a, ToAcc
000004f8 f3fc                BTRSC    STATUS, C
000004f9 fab5                INCR     0x4a, ToAcc
000004fa f2fc                BTRSC    STATUS, Z
000004fb c302                LGOTO    0x4fd; main.o:_00002_DS_=0x4fd
000004fc fc5c                ADDAR    0x23, ToReg
000004fd                     main.o:_00002_DS_:
000004fd e0fc                BCR      STATUS, BK0
000004fe fa37                INCR     0x48, ToReg
000004ff c319                LGOTO    0x4e6; main.o:_00773_DS_=0x4e6
00000500                     main.o:_00775_DS_:
00000500 ffef                RET
00000501                     _F_AIN4_Convert:
00000501 e0fc                BCR      STATUS, BK0
00000502 ff42                MOVAR    0x3d
00000503 fd5b                CLRR     0x24
00000504 fd5f                CLRR     0x20
00000505 fd5e                CLRR     0x21
00000506 de6b                MOVIA    0x94
00000507 ff6f                MOVAR    ADMD
00000508 de37                MOVIA    0xc8
00000509 d214                LCALL    0x5eb; _delay=0x5eb
0000050a defe                MOVIA    0x1
0000050b e0fc                BCR      STATUS, BK0
0000050c ff41                MOVAR    0x3e
0000050d                     main.o:_00764_DS_:
0000050d e0fc                BCR      STATUS, BK0
0000050e fec1                MOVR     0x3e, ToAcc
0000050f fbc2                SUBAR    0x3d, ToAcc
00000510 f7fc                BTRSS    STATUS, C
00000511 c2d8                LGOTO    0x527; main.o:_00766_DS_=0x527
00000512 e4ef                BSR      ADMD, START
00000513 d7fc                LCALL    0x3; _F_wait_eoc=0x3
00000514 def0                MOVIA    0xf
00000515 efee                ANDAR    ADR, ToAcc
00000516 e0fc                BCR      STATUS, BK0
00000517 fc5b                ADDAR    0x24, ToReg
00000518 feed                MOVR     ADD, ToAcc
00000519 ff40                MOVAR    0x3f
0000051a deff                MOVIA    0x0
0000051b ff39                MOVAR    0x46
0000051c fec0                MOVR     0x3f, ToAcc
0000051d fc5f                ADDAR    0x20, ToReg
0000051e feb9                MOVR     0x46, ToAcc
0000051f f3fc                BTRSC    STATUS, C
00000520 fab9                INCR     0x46, ToAcc
00000521 f2fc                BTRSC    STATUS, Z
00000522 c2db                LGOTO    0x524; main.o:_00003_DS_=0x524
00000523 fc5e                ADDAR    0x21, ToReg
00000524                     main.o:_00003_DS_:
00000524 e0fc                BCR      STATUS, BK0
00000525 fa41                INCR     0x3e, ToReg
00000526 c2f2                LGOTO    0x50d; main.o:_00764_DS_=0x50d
00000527                     main.o:_00766_DS_:
00000527 ffef                RET
00000528                     _initSys:
00000528 ffec                DISI
00000529 de87                MOVIA    0x78
0000052a fffa                IOST     IOSTA
0000052b fdff                CLRA
0000052c fff9                IOST     IOSTB
0000052d fd79                CLRR     PORTB
0000052e e0fc                BCR      STATUS, BK0
0000052f fd7a                CLRR     PORTA
00000530 d231                LCALL    0x5ce; _LedInput=0x5ce
00000531 de40                MOVIA    0xbf
00000532 fff6                IOST     APHCON
00000533 de00                MOVIA    0xff
00000534 ff73                MOVAR    BPHCON
00000535 ff74                MOVAR    ABPLCON
00000536 defe                MOVIA    0x1
00000537 ff71                MOVAR    INTE
00000538 fdff                CLRA
00000539 fff0                IOST     PCON1
0000053a dec8                MOVIA    0x37
0000053b ff7e                MOVAR    TMR0
0000053c fdff                CLRA
0000053d fffc                T0MD
0000053e defe                MOVIA    0x1
0000053f fff0                IOST     PCON1
00000540 de67                MOVIA    0x98
00000541 ff77                MOVAR    PCON
00000542 defe                MOVIA    0x1
00000543 fff0                IOST     PCON1
00000544 fffb                ENI
00000545 ffef                RET
00000546                     _LED8ON:
00000546 ffe9                IOSTR    IOSTB
00000547 e0fc                BCR      STATUS, BK0
00000548 ff50                MOVAR    0x2f
00000549 e3d0                BCR      0x2f, 0x0
0000054a fed0                MOVR     0x2f, ToAcc
0000054b fff9                IOST     IOSTB
0000054c ffe9                IOSTR    IOSTB
0000054d ff50                MOVAR    0x2f
0000054e e250                BCR      0x2f, 0x3
0000054f fed0                MOVR     0x2f, ToAcc
00000550 fff9                IOST     IOSTB
00000551 e7f9                BSR      PORTB, PB0
00000552 e279                BCR      PORTB, PB3
00000553 deaf                MOVIA    0x50
00000554 d214                LCALL    0x5eb; _delay=0x5eb
00000555 d231                LCALL    0x5ce; _LedInput=0x5ce
00000556 ffef                RET
00000557                     _LED7ON:
00000557 ffe9                IOSTR    IOSTB
00000558 e0fc                BCR      STATUS, BK0
00000559 ff51                MOVAR    0x2e
0000055a e3d1                BCR      0x2e, 0x0
0000055b fed1                MOVR     0x2e, ToAcc
0000055c fff9                IOST     IOSTB
0000055d ffe9                IOSTR    IOSTB
0000055e ff51                MOVAR    0x2e
0000055f e251                BCR      0x2e, 0x3
00000560 fed1                MOVR     0x2e, ToAcc
00000561 fff9                IOST     IOSTB
00000562 e679                BSR      PORTB, PB3
00000563 e3f9                BCR      PORTB, PB0
00000564 deaf                MOVIA    0x50
00000565 d214                LCALL    0x5eb; _delay=0x5eb
00000566 d231                LCALL    0x5ce; _LedInput=0x5ce
00000567 ffef                RET
00000568                     _LED6ON:
00000568 ffe9                IOSTR    IOSTB
00000569 e0fc                BCR      STATUS, BK0
0000056a ff52                MOVAR    0x2d
0000056b e3d2                BCR      0x2d, 0x0
0000056c fed2                MOVR     0x2d, ToAcc
0000056d fff9                IOST     IOSTB
0000056e ffea                IOSTR    IOSTA
0000056f ff52                MOVAR    0x2d
00000570 e052                BCR      0x2d, 0x7
00000571 fed2                MOVR     0x2d, ToAcc
00000572 fffa                IOST     IOSTA
00000573 e47a                BSR      PORTA, PA7
00000574 e3f9                BCR      PORTB, PB0
00000575 deaf                MOVIA    0x50
00000576 d214                LCALL    0x5eb; _delay=0x5eb
00000577 d231                LCALL    0x5ce; _LedInput=0x5ce
00000578 ffef                RET
00000579                     _LED5ON:
00000579 ffe9                IOSTR    IOSTB
0000057a e0fc                BCR      STATUS, BK0
0000057b ff53                MOVAR    0x2c
0000057c e3d3                BCR      0x2c, 0x0
0000057d fed3                MOVR     0x2c, ToAcc
0000057e fff9                IOST     IOSTB
0000057f ffea                IOSTR    IOSTA
00000580 ff53                MOVAR    0x2c
00000581 e053                BCR      0x2c, 0x7
00000582 fed3                MOVR     0x2c, ToAcc
00000583 fffa                IOST     IOSTA
00000584 e7f9                BSR      PORTB, PB0
00000585 e07a                BCR      PORTA, PA7
00000586 deaf                MOVIA    0x50
00000587 d214                LCALL    0x5eb; _delay=0x5eb
00000588 d231                LCALL    0x5ce; _LedInput=0x5ce
00000589 ffef                RET
0000058a                     _LED4ON:
0000058a ffe9                IOSTR    IOSTB
0000058b e0fc                BCR      STATUS, BK0
0000058c ff54                MOVAR    0x2b
0000058d e354                BCR      0x2b, 0x1
0000058e fed4                MOVR     0x2b, ToAcc
0000058f fff9                IOST     IOSTB
00000590 ffe9                IOSTR    IOSTB
00000591 ff54                MOVAR    0x2b
00000592 e254                BCR      0x2b, 0x3
00000593 fed4                MOVR     0x2b, ToAcc
00000594 fff9                IOST     IOSTB
00000595 e779                BSR      PORTB, PB1
00000596 e279                BCR      PORTB, PB3
00000597 deaf                MOVIA    0x50
00000598 d214                LCALL    0x5eb; _delay=0x5eb
00000599 d231                LCALL    0x5ce; _LedInput=0x5ce
0000059a ffef                RET
0000059b                     _LED3ON:
0000059b ffe9                IOSTR    IOSTB
0000059c e0fc                BCR      STATUS, BK0
0000059d ff55                MOVAR    0x2a
0000059e e355                BCR      0x2a, 0x1
0000059f fed5                MOVR     0x2a, ToAcc
000005a0 fff9                IOST     IOSTB
000005a1 ffe9                IOSTR    IOSTB
000005a2 ff55                MOVAR    0x2a
000005a3 e255                BCR      0x2a, 0x3
000005a4 fed5                MOVR     0x2a, ToAcc
000005a5 fff9                IOST     IOSTB
000005a6 e679                BSR      PORTB, PB3
000005a7 e379                BCR      PORTB, PB1
000005a8 deaf                MOVIA    0x50
000005a9 d214                LCALL    0x5eb; _delay=0x5eb
000005aa d231                LCALL    0x5ce; _LedInput=0x5ce
000005ab ffef                RET
000005ac                     _LED2ON:
000005ac ffea                IOSTR    IOSTA
000005ad e0fc                BCR      STATUS, BK0
000005ae ff56                MOVAR    0x29
000005af e056                BCR      0x29, 0x7
000005b0 fed6                MOVR     0x29, ToAcc
000005b1 fffa                IOST     IOSTA
000005b2 ffe9                IOSTR    IOSTB
000005b3 ff56                MOVAR    0x29
000005b4 e356                BCR      0x29, 0x1
000005b5 fed6                MOVR     0x29, ToAcc
000005b6 fff9                IOST     IOSTB
000005b7 e779                BSR      PORTB, PB1
000005b8 e07a                BCR      PORTA, PA7
000005b9 deaf                MOVIA    0x50
000005ba d214                LCALL    0x5eb; _delay=0x5eb
000005bb d231                LCALL    0x5ce; _LedInput=0x5ce
000005bc ffef                RET
000005bd                     _LED1ON:
000005bd ffe9                IOSTR    IOSTB
000005be e0fc                BCR      STATUS, BK0
000005bf ff57                MOVAR    0x28
000005c0 e357                BCR      0x28, 0x1
000005c1 fed7                MOVR     0x28, ToAcc
000005c2 fff9                IOST     IOSTB
000005c3 ffea                IOSTR    IOSTA
000005c4 ff57                MOVAR    0x28
000005c5 e057                BCR      0x28, 0x7
000005c6 fed7                MOVR     0x28, ToAcc
000005c7 fffa                IOST     IOSTA
000005c8 e47a                BSR      PORTA, PA7
000005c9 e379                BCR      PORTB, PB1
000005ca deaf                MOVIA    0x50
000005cb d214                LCALL    0x5eb; _delay=0x5eb
000005cc d231                LCALL    0x5ce; _LedInput=0x5ce
000005cd ffef                RET
000005ce                     _LedInput:
000005ce ffea                IOSTR    IOSTA
000005cf e0fc                BCR      STATUS, BK0
000005d0 ff58                MOVAR    0x27
000005d1 e458                BSR      0x27, 0x7
000005d2 fed8                MOVR     0x27, ToAcc
000005d3 fffa                IOST     IOSTA
000005d4 ffe9                IOSTR    IOSTB
000005d5 ff58                MOVAR    0x27
000005d6 def4                MOVIA    0xb
000005d7 ee58                IORAR    0x27, ToReg
000005d8 fed8                MOVR     0x27, ToAcc
000005d9 fff9                IOST     IOSTB
000005da e07a                BCR      PORTA, PA7
000005db de0b                MOVIA    0xf4
000005dc ef79                ANDAR    PORTB, ToReg
000005dd ffef                RET
000005de                     _pwmInit:
000005de ff95                SFUNR    T2CR1
000005df e0fc                BCR      STATUS, BK0
000005e0 ff4f                MOVAR    0x30
000005e1 f04f                BTRSC    0x30, 0x7
000005e2 c215                LGOTO    0x5ea; main.o:_00415_DS_=0x5ea
000005e3 fd66                CLRR     TMRH
000005e4 de9c                MOVIA    0x63
000005e5 ffb6                SFUN     TMR2
000005e6 fdff                CLRA
000005e7 ffb4                SFUN     T2CR2
000005e8 de7c                MOVIA    0x83
000005e9 ffb5                SFUN     T2CR1
000005ea                     main.o:_00415_DS_:
000005ea ffef                RET
000005eb                     _delay:
000005eb e0fc                BCR      STATUS, BK0
000005ec ff49                MOVAR    0x36
000005ed fd48                CLRR     0x37
000005ee                     main.o:_00551_DS_:
000005ee e0fc                BCR      STATUS, BK0
000005ef fec9                MOVR     0x36, ToAcc
000005f0 fbc8                SUBAR    0x37, ToAcc
000005f1 f3fc                BTRSC    STATUS, C
000005f2 c209                LGOTO    0x5f6; main.o:_00553_DS_=0x5f6
000005f3 ffff                NOP
000005f4 fa48                INCR     0x37, ToReg
000005f5 c211                LGOTO    0x5ee; main.o:_00551_DS_=0x5ee
000005f6                     main.o:_00553_DS_:
000005f6 ffef                RET
000005f7                     _initAD:
000005f7 de7b                MOVIA    0x84
000005f8 ff6f                MOVAR    ADMD
000005f9 fd6c                CLRR     ADVREFH
000005fa deef                MOVIA    0x10
000005fb ff6e                MOVAR    ADR
000005fc defc                MOVIA    0x3
000005fd ff6b                MOVAR    ADCR
000005fe e5ef                BSR      ADMD, GCHS
000005ff de9b                MOVIA    0x64
00000600 d214                LCALL    0x5eb; _delay=0x5eb
00000601 ffef                RET
00000602                     _powerOff:
00000602 e0fc                BCR      STATUS, BK0
00000603 fd1c                CLRR     0x63
00000604 d1f7                LCALL    0x608; _pwmStop=0x608
00000605 e0fc                BCR      STATUS, BK0
00000606 fd1b                CLRR     0x64
00000607 ffef                RET
00000608                     _pwmStop:
00000608 fdff                CLRA
00000609 ffb5                SFUN     T2CR1
0000060a ffef                RET

