00000000 c7fe                 LGOTO 0x1; __nyc_ny8_startup=0x1
00000001                      __nyc_ny8_startup:
00000001 d103                 LCALL 0x6fc; ___cinit_load__=0x6fc
00000002 c7ad                 LGOTO 0x52; _main=0x52
00000003                      main.o:_00415_DS_:
00000003 f56f                 BTRSS 0x10, 0x5
00000004 c7fc                 LGOTO 0x3; main.o:_00415_DS_=0x3
00000005 ffef                 RET
00000008 c7f6                 LGOTO 0x9; main.o:__sdcc_interrupt=0x9
00000009                      main.o:__sdcc_interrupt:
00000009 ff3d                 MOVAR 0x42
0000000a eafc                 SWAPR 0x3, 0x0
0000000b fd7c                 CLRR 0x3
0000000c ff3e                 MOVAR 0x41
0000000d fef5                 MOVR 0xa, 0x0
0000000e fd75                 CLRR 0xa
0000000f ff3f                 MOVAR 0x40
00000010 fefb                 MOVR 0x4, 0x0
00000011 e0fc                 BCR 0x3, 0x6
00000012 ff13                 MOVAR 0x6c
00000013 feb8                 MOVR 0x47, 0x0
00000014 ff12                 MOVAR 0x6d
00000015 feb9                 MOVR 0x46, 0x0
00000016 ff11                 MOVAR 0x6e
00000017 f7f0                 BTRSS 0xf, 0x0
00000018 c7c1                 LGOTO 0x3e; main.o:_00120_DS_=0x3e
00000019 dec8                 MOVIA 0x37
0000001a fc7e                 ADDAR 0x1, 0x1
0000001b fa10                 INCR 0x6f, 0x1
0000001c de9b                 MOVIA 0x64
0000001d fb90                 SUBAR 0x6f, 0x0
0000001e f7fc                 BTRSS 0x3, 0x0
0000001f c7c1                 LGOTO 0x3e; main.o:_00120_DS_=0x3e
00000020 defe                 MOVIA 0x1
00000021 ff0f                 MOVAR 0x70
00000022 fd10                 CLRR 0x6f
00000023 e4fc                 BSR 0x3, 0x6
00000024 fa5c                 INCR 0x23, 0x1
00000025 de9a                 MOVIA 0x65
00000026 fbdc                 SUBAR 0x23, 0x0
00000027 f7fc                 BTRSS 0x3, 0x0
00000028 c7c1                 LGOTO 0x3e; main.o:_00120_DS_=0x3e
00000029 fd5c                 CLRR 0x23
0000002a e0fc                 BCR 0x3, 0x6
0000002b fe84                 MOVR 0x7b, 0x0
0000002c f2fc                 BTRSC 0x3, 0x2
0000002d c7cf                 LGOTO 0x30; main.o:_00113_DS_=0x30
0000002e f904                 DECR 0x7b, 0x1
0000002f c7c1                 LGOTO 0x3e; main.o:_00120_DS_=0x3e
00000030                      main.o:_00113_DS_:
00000030 e0fc                 BCR 0x3, 0x6
00000031 fe85                 MOVR 0x7a, 0x0
00000032 f2fc                 BTRSC 0x3, 0x2
00000033 c7c9                 LGOTO 0x36; main.o:_00110_DS_=0x36
00000034 f905                 DECR 0x7a, 0x1
00000035 c7c1                 LGOTO 0x3e; main.o:_00120_DS_=0x3e
00000036                      main.o:_00110_DS_:
00000036 e4fc                 BSR 0x3, 0x6
00000037 fed9                 MOVR 0x26, 0x0
00000038 f2fc                 BTRSC 0x3, 0x2
00000039 c7c1                 LGOTO 0x3e; main.o:_00120_DS_=0x3e
0000003a e859                 DECRSZ 0x26, 0x1
0000003b c7c1                 LGOTO 0x3e; main.o:_00120_DS_=0x3e
0000003c defe                 MOVIA 0x1
0000003d ff57                 MOVAR 0x28
0000003e                      main.o:_00120_DS_:
0000003e f770                 BTRSS 0xf, 0x1
0000003f c7bd                 LGOTO 0x42; main.o:_00122_DS_=0x42
00000040 de02                 MOVIA 0xfd
00000041 ff70                 MOVAR 0xf
00000042                      main.o:_00122_DS_:
00000042 fd70                 CLRR 0xf
00000043 e0fc                 BCR 0x3, 0x6
00000044 fe91                 MOVR 0x6e, 0x0
00000045 ff39                 MOVAR 0x46
00000046 fe92                 MOVR 0x6d, 0x0
00000047 ff38                 MOVAR 0x47
00000048 fe93                 MOVR 0x6c, 0x0
00000049 ff7b                 MOVAR 0x4
0000004a febf                 MOVR 0x40, 0x0
0000004b ff75                 MOVAR 0xa
0000004c fd7c                 CLRR 0x3
0000004d eabe                 SWAPR 0x41, 0x0
0000004e ff7c                 MOVAR 0x3
0000004f ea3d                 SWAPR 0x42, 0x1
00000050 eabd                 SWAPR 0x42, 0x0
00000051                      main.o:END_OF_INTERRUPT:
00000051 ffee                 RETIE
00000052                      _main:
00000052 d53a                 LCALL 0x2c5; _initSys=0x2c5
00000053 d5ea                 LCALL 0x215; _initAD=0x215
00000054 d55e                 LCALL 0x2a1; _gotoSleep=0x2a1
00000055                      main.o:_00153_DS_:
00000055 fffd                 CLRWDT
00000056 e0fc                 BCR 0x3, 0x6
00000057 fe8b                 MOVR 0x74, 0x0
00000058 f2fc                 BTRSC 0x3, 0x2
00000059                      ___cinit_size__:
00000059 c7a3                 LGOTO 0x5c; main.o:_00135_DS_=0x5c
0000005a d51b                 LCALL 0x2e4; _refreshNub=0x2e4
0000005b c781                 LGOTO 0x7e; main.o:_00136_DS_=0x7e
0000005c                      main.o:_00135_DS_:
0000005c e0fc                 BCR 0x3, 0x6
0000005d fe82                 MOVR 0x7d, 0x0
0000005e f2fc                 BTRSC 0x3, 0x2
0000005f c786                 LGOTO 0x79; main.o:_00131_DS_=0x79
00000060 fe86                 MOVR 0x79, 0x0
00000061 dbfe                 XORIA 0x1
00000062 f6fc                 BTRSS 0x3, 0x2
00000063 c786                 LGOTO 0x79; main.o:_00131_DS_=0x79
00000064 de9b                 MOVIA 0x64
00000065 fb83                 SUBAR 0x7c, 0x0
00000066 f7fc                 BTRSS 0x3, 0x0
00000067 c792                 LGOTO 0x6d; main.o:_00128_DS_=0x6d
00000068 defe                 MOVIA 0x1
00000069 ff0e                 MOVAR 0x71
0000006a fd0c                 CLRR 0x73
0000006b fd0d                 CLRR 0x72
0000006c c788                 LGOTO 0x77; main.o:_00129_DS_=0x77
0000006d                      main.o:_00128_DS_:
0000006d e0fc                 BCR 0x3, 0x6
0000006e fd0e                 CLRR 0x71
0000006f e4fc                 BSR 0x3, 0x6
00000070 fed6                 MOVR 0x29, 0x0
00000071 e0fc                 BCR 0x3, 0x6
00000072 ff0d                 MOVAR 0x72
00000073 e4fc                 BSR 0x3, 0x6
00000074 fed5                 MOVR 0x2a, 0x0
00000075 e0fc                 BCR 0x3, 0x6
00000076 ff0c                 MOVAR 0x73
00000077                      main.o:_00129_DS_:
00000077 d51b                 LCALL 0x2e4; _refreshNub=0x2e4
00000078 c781                 LGOTO 0x7e; main.o:_00136_DS_=0x7e
00000079                      main.o:_00131_DS_:
00000079 e0fc                 BCR 0x3, 0x6
0000007a fd0c                 CLRR 0x73
0000007b fd0d                 CLRR 0x72
0000007c fd0e                 CLRR 0x71
0000007d d3c4                 LCALL 0x43b; _setInput=0x43b
0000007e                      main.o:_00136_DS_:
0000007e e0fc                 BCR 0x3, 0x6
0000007f fe8f                 MOVR 0x70, 0x0
00000080 f2fc                 BTRSC 0x3, 0x2
00000081 c7aa                 LGOTO 0x55; main.o:_00153_DS_=0x55
00000082 fd0f                 CLRR 0x70
00000083 def5                 MOVIA 0xa
00000084 ff38                 MOVAR 0x47
00000085 fe83                 MOVR 0x7c, 0x0
00000086 d1e6                 LCALL 0x619; __divuchar=0x619
00000087 e4fc                 BSR 0x3, 0x6
00000088 ff56                 MOVAR 0x29
00000089 def5                 MOVIA 0xa
0000008a ff38                 MOVAR 0x47
0000008b e0fc                 BCR 0x3, 0x6
0000008c fe83                 MOVR 0x7c, 0x0
0000008d d173                 LCALL 0x68c; __moduchar=0x68c
0000008e e4fc                 BSR 0x3, 0x6
0000008f ff55                 MOVAR 0x2a
00000090 e0fc                 BCR 0x3, 0x6
00000091 e4fa                 BSR 0x5, 0x6
00000092 d4ec                 LCALL 0x313; _checkIRKey=0x313
00000093 d6f8                 LCALL 0x107; _checkBat=0x107
00000094 e0fc                 BCR 0x3, 0x6
00000095 e0fa                 BCR 0x5, 0x6
00000096 d5dd                 LCALL 0x222; _keyCtr=0x222
00000097 d48e                 LCALL 0x371; _chrgCtr=0x371
00000098 e4fc                 BSR 0x3, 0x6
00000099 fedb                 MOVR 0x24, 0x0
0000009a eeda                 IORAR 0x25, 0x0
0000009b f2fc                 BTRSC 0x3, 0x2
0000009c c75e                 LGOTO 0xa1; main.o:_00140_DS_=0xa1
0000009d de00                 MOVIA 0xff
0000009e fc5b                 ADDAR 0x24, 0x1
0000009f f7fc                 BTRSS 0x3, 0x0
000000a0 f95a                 DECR 0x25, 0x1
000000a1                      main.o:_00140_DS_:
000000a1 e0fc                 BCR 0x3, 0x6
000000a2 fefa                 MOVR 0x5, 0x0
000000a3 ff5c                 MOVAR 0x23
000000a4 fd5b                 CLRR 0x24
000000a5 f8dc                 COMR 0x23, 0x0
000000a6 ff5c                 MOVAR 0x23
000000a7 f8db                 COMR 0x24, 0x0
000000a8 ff5b                 MOVAR 0x24
000000a9 f55c                 BTRSS 0x23, 0x5
000000aa c73e                 LGOTO 0xc1; main.o:_00144_DS_=0xc1
000000ab fe82                 MOVR 0x7d, 0x0
000000ac f6fc                 BTRSS 0x3, 0x2
000000ad c73e                 LGOTO 0xc1; main.o:_00144_DS_=0xc1
000000ae fe86                 MOVR 0x79, 0x0
000000af f6fc                 BTRSS 0x3, 0x2
000000b0 c73e                 LGOTO 0xc1; main.o:_00144_DS_=0xc1
000000b1 fe84                 MOVR 0x7b, 0x0
000000b2 f6fc                 BTRSS 0x3, 0x2
000000b3 c73e                 LGOTO 0xc1; main.o:_00144_DS_=0xc1
000000b4 fe85                 MOVR 0x7a, 0x0
000000b5 f6fc                 BTRSS 0x3, 0x2
000000b6 c73e                 LGOTO 0xc1; main.o:_00144_DS_=0xc1
000000b7 e4fc                 BSR 0x3, 0x6
000000b8 fed9                 MOVR 0x26, 0x0
000000b9 f6fc                 BTRSS 0x3, 0x2
000000ba c73e                 LGOTO 0xc1; main.o:_00144_DS_=0xc1
000000bb e0fc                 BCR 0x3, 0x6
000000bc fa00                 INCR 0x7f, 0x1
000000bd de9a                 MOVIA 0x65
000000be fb80                 SUBAR 0x7f, 0x0
000000bf f3fc                 BTRSC 0x3, 0x0
000000c0 d55e                 LCALL 0x2a1; _gotoSleep=0x2a1
000000c1                      main.o:_00144_DS_:
000000c1 e4fc                 BSR 0x3, 0x6
000000c2 fed7                 MOVR 0x28, 0x0
000000c3 f6fc                 BTRSS 0x3, 0x2
000000c4 d55e                 LCALL 0x2a1; _gotoSleep=0x2a1
000000c5 de9b                 MOVIA 0x64
000000c6 ff38                 MOVAR 0x47
000000c7 deff                 MOVIA 0x0
000000c8 d734                 LCALL 0xcb; _delay=0xcb
000000c9 c7aa                 LGOTO 0x55; main.o:_00153_DS_=0x55
000000ca ffef                 RET
000000cb                      _delay:
000000cb e0fc                 BCR 0x3, 0x6
000000cc ff47                 MOVAR 0x38
000000cd feb8                 MOVR 0x47, 0x0
000000ce ff48                 MOVAR 0x37
000000cf defe                 MOVIA 0x1
000000d0 ff46                 MOVAR 0x39
000000d1 fd45                 CLRR 0x3a
000000d2                      main.o:_00422_DS_:
000000d2 e0fc                 BCR 0x3, 0x6
000000d3 fec7                 MOVR 0x38, 0x0
000000d4 da7f                 ADDIA 0x80
000000d5 ff44                 MOVAR 0x3b
000000d6 fec5                 MOVR 0x3a, 0x0
000000d7 da7f                 ADDIA 0x80
000000d8 fbc4                 SUBAR 0x3b, 0x0
000000d9 f6fc                 BTRSS 0x3, 0x2
000000da c722                 LGOTO 0xdd; main.o:_00433_DS_=0xdd
000000db fec6                 MOVR 0x39, 0x0
000000dc fbc8                 SUBAR 0x37, 0x0
000000dd                      main.o:_00433_DS_:
000000dd f7fc                 BTRSS 0x3, 0x0
000000de c71a                 LGOTO 0xe5; main.o:_00424_DS_=0xe5
000000df e0fc                 BCR 0x3, 0x6
000000e0 fa46                 INCR 0x39, 0x1
000000e1 f6fc                 BTRSS 0x3, 0x2
000000e2 c71b                 LGOTO 0xe4; main.o:_00001_DS_=0xe4
000000e3 fa45                 INCR 0x3a, 0x1
000000e4                      main.o:_00001_DS_:
000000e4 c72d                 LGOTO 0xd2; main.o:_00422_DS_=0xd2
000000e5                      main.o:_00424_DS_:
000000e5 ffef                 RET
000000e6                      _F_Quarter_VDD_Convert:
000000e6 e0fc                 BCR 0x3, 0x6
000000e7 ff4c                 MOVAR 0x33
000000e8 de69                 MOVIA 0x96
000000e9 ff6f                 MOVAR 0x10
000000ea defe                 MOVIA 0x1
000000eb ff4b                 MOVAR 0x34
000000ec                      main.o:_00408_DS_:
000000ec e0fc                 BCR 0x3, 0x6
000000ed fecb                 MOVR 0x34, 0x0
000000ee fbcc                 SUBAR 0x33, 0x0
000000ef f7fc                 BTRSS 0x3, 0x0
000000f0 c6f9                 LGOTO 0x106; main.o:_00410_DS_=0x106
000000f1 e4ef                 BSR 0x10, 0x6
000000f2 d7fc                 LCALL 0x3; main.o:_00415_DS_=0x3
000000f3 def0                 MOVIA 0xf
000000f4 efee                 ANDAR 0x11, 0x0
000000f5 e0fc                 BCR 0x3, 0x6
000000f6 fc5d                 ADDAR 0x22, 0x1
000000f7 feed                 MOVR 0x12, 0x0
000000f8 ff4a                 MOVAR 0x35
000000f9 deff                 MOVIA 0x0
000000fa ff49                 MOVAR 0x36
000000fb feca                 MOVR 0x35, 0x0
000000fc fc5f                 ADDAR 0x20, 0x1
000000fd fec9                 MOVR 0x36, 0x0
000000fe f3fc                 BTRSC 0x3, 0x0
000000ff fac9                 INCR 0x36, 0x0
00000100 f2fc                 BTRSC 0x3, 0x2
00000101 c6fc                 LGOTO 0x103; main.o:_00002_DS_=0x103
00000102 fc5e                 ADDAR 0x21, 0x1
00000103                      main.o:_00002_DS_:
00000103 e0fc                 BCR 0x3, 0x6
00000104 fa4b                 INCR 0x34, 0x1
00000105 c713                 LGOTO 0xec; main.o:_00408_DS_=0xec
00000106                      main.o:_00410_DS_:
00000106 ffef                 RET
00000107                      _checkBat:
00000107 e0fc                 BCR 0x3, 0x6
00000108 fd5d                 CLRR 0x22
00000109 fd5f                 CLRR 0x20
0000010a fd5e                 CLRR 0x21
0000010b def7                 MOVIA 0x8
0000010c d719                 LCALL 0xe6; _F_Quarter_VDD_Convert=0xe6
0000010d e0fc                 BCR 0x3, 0x6
0000010e eade                 SWAPR 0x21, 0x0
0000010f dd0f                 ANDIA 0xf0
00000110 ff5e                 MOVAR 0x21
00000111 eadf                 SWAPR 0x20, 0x0
00000112 ff5f                 MOVAR 0x20
00000113 ddf0                 ANDIA 0xf
00000114 ee5e                 IORAR 0x21, 0x1
00000115 ed5f                 XORAR 0x20, 0x1
00000116 de0f                 MOVIA 0xf0
00000117 ef5d                 ANDAR 0x22, 0x1
00000118 fedd                 MOVR 0x22, 0x0
00000119 ff4f                 MOVAR 0x30
0000011a ff51                 MOVAR 0x2e
0000011b fd50                 CLRR 0x2f
0000011c deff                 MOVIA 0x0
0000011d ff4e                 MOVAR 0x31
0000011e fecf                 MOVR 0x30, 0x0
0000011f fc5f                 ADDAR 0x20, 0x1
00000120 fece                 MOVR 0x31, 0x0
00000121 f3fc                 BTRSC 0x3, 0x0
00000122 face                 INCR 0x31, 0x0
00000123 f2fc                 BTRSC 0x3, 0x2
00000124 c6d9                 LGOTO 0x126; main.o:_00003_DS_=0x126
00000125 fc5e                 ADDAR 0x21, 0x1
00000126                      main.o:_00003_DS_:
00000126 e3fc                 BCR 0x3, 0x0
00000127 e0fc                 BCR 0x3, 0x6
00000128 ec5e                 RRR 0x21, 0x1
00000129 ec5f                 RRR 0x20, 0x1
0000012a e3fc                 BCR 0x3, 0x0
0000012b ec5e                 RRR 0x21, 0x1
0000012c ec5f                 RRR 0x20, 0x1
0000012d e3fc                 BCR 0x3, 0x0
0000012e ec5e                 RRR 0x21, 0x1
0000012f ec5f                 RRR 0x20, 0x1
00000130 defc                 MOVIA 0x3
00000131 fbde                 SUBAR 0x21, 0x0
00000132 f6fc                 BTRSS 0x3, 0x2
00000133 c6c9                 LGOTO 0x136; main.o:_00392_DS_=0x136
00000134 def1                 MOVIA 0xe
00000135 fbdf                 SUBAR 0x20, 0x0
00000136                      main.o:_00392_DS_:
00000136 f7fc                 BTRSS 0x3, 0x0
00000137 c6c3                 LGOTO 0x13c; main.o:_00355_DS_=0x13c
00000138 de9b                 MOVIA 0x64
00000139 e0fc                 BCR 0x3, 0x6
0000013a ff03                 MOVAR 0x7c
0000013b c5eb                 LGOTO 0x214; main.o:_00357_DS_=0x214
0000013c                      main.o:_00355_DS_:
0000013c defd                 MOVIA 0x2
0000013d e0fc                 BCR 0x3, 0x6
0000013e fbde                 SUBAR 0x21, 0x0
0000013f f6fc                 BTRSS 0x3, 0x2
00000140 c6bc                 LGOTO 0x143; main.o:_00393_DS_=0x143
00000141 ded9                 MOVIA 0x26
00000142 fbdf                 SUBAR 0x20, 0x0
00000143                      main.o:_00393_DS_:
00000143 f3fc                 BTRSC 0x3, 0x0
00000144 c6b7                 LGOTO 0x148; main.o:_00352_DS_=0x148
00000145 e0fc                 BCR 0x3, 0x6
00000146 fd03                 CLRR 0x7c
00000147 c5eb                 LGOTO 0x214; main.o:_00357_DS_=0x214
00000148                      main.o:_00352_DS_:
00000148 defd                 MOVIA 0x2
00000149 e0fc                 BCR 0x3, 0x6
0000014a fbde                 SUBAR 0x21, 0x0
0000014b f6fc                 BTRSS 0x3, 0x2
0000014c c6b0                 LGOTO 0x14f; main.o:_00394_DS_=0x14f
0000014d de2f                 MOVIA 0xd0
0000014e fbdf                 SUBAR 0x20, 0x0
0000014f                      main.o:_00394_DS_:
0000014f f7fc                 BTRSS 0x3, 0x0
00000150 c6a1                 LGOTO 0x15e; main.o:_00336_DS_=0x15e
00000151 dea7                 MOVIA 0x58
00000152 e0fc                 BCR 0x3, 0x6
00000153 fcdf                 ADDAR 0x20, 0x0
00000154 ff51                 MOVAR 0x2e
00000155 de02                 MOVIA 0xfd
00000156 ff50                 MOVAR 0x2f
00000157 fede                 MOVR 0x21, 0x0
00000158 f3fc                 BTRSC 0x3, 0x0
00000159 fade                 INCR 0x21, 0x0
0000015a f2fc                 BTRSC 0x3, 0x2
0000015b c6a2                 LGOTO 0x15d; main.o:_00004_DS_=0x15d
0000015c fc50                 ADDAR 0x2f, 0x1
0000015d                      main.o:_00004_DS_:
0000015d c652                 LGOTO 0x1ad; main.o:_00337_DS_=0x1ad
0000015e                      main.o:_00336_DS_:
0000015e defd                 MOVIA 0x2
0000015f e0fc                 BCR 0x3, 0x6
00000160 fbde                 SUBAR 0x21, 0x0
00000161 f6fc                 BTRSS 0x3, 0x2
00000162 c69a                 LGOTO 0x165; main.o:_00395_DS_=0x165
00000163 de89                 MOVIA 0x76
00000164 fbdf                 SUBAR 0x20, 0x0
00000165                      main.o:_00395_DS_:
00000165 f7fc                 BTRSS 0x3, 0x0
00000166 c677                 LGOTO 0x188; main.o:_00333_DS_=0x188
00000167 de75                 MOVIA 0x8a
00000168 e0fc                 BCR 0x3, 0x6
00000169 fcdf                 ADDAR 0x20, 0x0
0000016a ff4f                 MOVAR 0x30
0000016b de02                 MOVIA 0xfd
0000016c ff4e                 MOVAR 0x31
0000016d fede                 MOVR 0x21, 0x0
0000016e f3fc                 BTRSC 0x3, 0x0
0000016f fade                 INCR 0x21, 0x0
00000170 f2fc                 BTRSC 0x3, 0x2
00000171 c68c                 LGOTO 0x173; main.o:_00005_DS_=0x173
00000172 fc4e                 ADDAR 0x31, 0x1
00000173                      main.o:_00005_DS_:
00000173 defc                 MOVIA 0x3
00000174 ff3a                 MOVAR 0x45
00000175 deff                 MOVIA 0x0
00000176 ff39                 MOVAR 0x46
00000177 e0fc                 BCR 0x3, 0x6
00000178 fecf                 MOVR 0x30, 0x0
00000179 ff38                 MOVAR 0x47
0000017a fece                 MOVR 0x31, 0x0
0000017b d1bd                 LCALL 0x642; __divuint=0x642
0000017c e0fc                 BCR 0x3, 0x6
0000017d ff4e                 MOVAR 0x31
0000017e feb8                 MOVR 0x47, 0x0
0000017f ff4f                 MOVAR 0x30
00000180 def5                 MOVIA 0xa
00000181 fccf                 ADDAR 0x30, 0x0
00000182 ff51                 MOVAR 0x2e
00000183 fd50                 CLRR 0x2f
00000184 eb50                 RLR 0x2f, 0x1
00000185 fece                 MOVR 0x31, 0x0
00000186 fc50                 ADDAR 0x2f, 0x1
00000187 c652                 LGOTO 0x1ad; main.o:_00337_DS_=0x1ad
00000188                      main.o:_00333_DS_:
00000188 defd                 MOVIA 0x2
00000189 e0fc                 BCR 0x3, 0x6
0000018a fbde                 SUBAR 0x21, 0x0
0000018b f6fc                 BTRSS 0x3, 0x2
0000018c c670                 LGOTO 0x18f; main.o:_00396_DS_=0x18f
0000018d ded8                 MOVIA 0x27
0000018e fbdf                 SUBAR 0x20, 0x0
0000018f                      main.o:_00396_DS_:
0000018f f7fc                 BTRSS 0x3, 0x0
00000190 c655                 LGOTO 0x1aa; main.o:_00330_DS_=0x1aa
00000191 de75                 MOVIA 0x8a
00000192 e0fc                 BCR 0x3, 0x6
00000193 fcdf                 ADDAR 0x20, 0x0
00000194 ff4f                 MOVAR 0x30
00000195 de02                 MOVIA 0xfd
00000196 ff4e                 MOVAR 0x31
00000197 fede                 MOVR 0x21, 0x0
00000198 f3fc                 BTRSC 0x3, 0x0
00000199 fade                 INCR 0x21, 0x0
0000019a f2fc                 BTRSC 0x3, 0x2
0000019b c662                 LGOTO 0x19d; main.o:_00006_DS_=0x19d
0000019c fc4e                 ADDAR 0x31, 0x1
0000019d                      main.o:_00006_DS_:
0000019d e3fc                 BCR 0x3, 0x0
0000019e e0fc                 BCR 0x3, 0x6
0000019f ecce                 RRR 0x31, 0x0
000001a0 ff50                 MOVAR 0x2f
000001a1 eccf                 RRR 0x30, 0x0
000001a2 ff51                 MOVAR 0x2e
000001a3 e3fc                 BCR 0x3, 0x0
000001a4 ec50                 RRR 0x2f, 0x1
000001a5 ec51                 RRR 0x2e, 0x1
000001a6 e3fc                 BCR 0x3, 0x0
000001a7 ec50                 RRR 0x2f, 0x1
000001a8 ec51                 RRR 0x2e, 0x1
000001a9 c652                 LGOTO 0x1ad; main.o:_00337_DS_=0x1ad
000001aa                      main.o:_00330_DS_:
000001aa e0fc                 BCR 0x3, 0x6
000001ab fd51                 CLRR 0x2e
000001ac fd50                 CLRR 0x2f
000001ad                      main.o:_00337_DS_:
000001ad e0fc                 BCR 0x3, 0x6
000001ae f57a                 BTRSS 0x5, 0x5
000001af c5fe                 LGOTO 0x201; main.o:_00349_DS_=0x201
000001b0 deff                 MOVIA 0x0
000001b1 fbd0                 SUBAR 0x2f, 0x0
000001b2 f6fc                 BTRSS 0x3, 0x2
000001b3 c649                 LGOTO 0x1b6; main.o:_00397_DS_=0x1b6
000001b4 def4                 MOVIA 0xb
000001b5 fbd1                 SUBAR 0x2e, 0x0
000001b6                      main.o:_00397_DS_:
000001b6 f7fc                 BTRSS 0x3, 0x0
000001b7 c61c                 LGOTO 0x1e3; main.o:_00008_DS_=0x1e3
000001b8 deff                 MOVIA 0x0
000001b9 e0fc                 BCR 0x3, 0x6
000001ba fbd0                 SUBAR 0x2f, 0x0
000001bb f6fc                 BTRSS 0x3, 0x2
000001bc c640                 LGOTO 0x1bf; main.o:_00398_DS_=0x1bf
000001bd de9c                 MOVIA 0x63
000001be fbd1                 SUBAR 0x2e, 0x0
000001bf                      main.o:_00398_DS_:
000001bf f3fc                 BTRSC 0x3, 0x0
000001c0 c61c                 LGOTO 0x1e3; main.o:_00008_DS_=0x1e3
000001c1 de09                 MOVIA 0xf6
000001c2 e0fc                 BCR 0x3, 0x6
000001c3 fcd1                 ADDAR 0x2e, 0x0
000001c4 ff4f                 MOVAR 0x30
000001c5 de00                 MOVIA 0xff
000001c6 ff4e                 MOVAR 0x31
000001c7 fed0                 MOVR 0x2f, 0x0
000001c8 f3fc                 BTRSC 0x3, 0x0
000001c9 fad0                 INCR 0x2f, 0x0
000001ca f2fc                 BTRSC 0x3, 0x2
000001cb c632                 LGOTO 0x1cd; main.o:_00007_DS_=0x1cd
000001cc fc4e                 ADDAR 0x31, 0x1
000001cd                      main.o:_00007_DS_:
000001cd def5                 MOVIA 0xa
000001ce ff3a                 MOVAR 0x45
000001cf deff                 MOVIA 0x0
000001d0 ff39                 MOVAR 0x46
000001d1 e0fc                 BCR 0x3, 0x6
000001d2 fed1                 MOVR 0x2e, 0x0
000001d3 ff38                 MOVAR 0x47
000001d4 fed0                 MOVR 0x2f, 0x0
000001d5 d1bd                 LCALL 0x642; __divuint=0x642
000001d6 e0fc                 BCR 0x3, 0x6
000001d7 ff4d                 MOVAR 0x32
000001d8 feb8                 MOVR 0x47, 0x0
000001d9 fccf                 ADDAR 0x30, 0x0
000001da ff51                 MOVAR 0x2e
000001db fece                 MOVR 0x31, 0x0
000001dc ff50                 MOVAR 0x2f
000001dd fecd                 MOVR 0x32, 0x0
000001de f3fc                 BTRSC 0x3, 0x0
000001df facd                 INCR 0x32, 0x0
000001e0 f2fc                 BTRSC 0x3, 0x2
000001e1 c61c                 LGOTO 0x1e3; main.o:_00008_DS_=0x1e3
000001e2 fc50                 ADDAR 0x2f, 0x1
000001e3                      main.o:_00008_DS_:
000001e3 e0fc                 BCR 0x3, 0x6
000001e4 fe83                 MOVR 0x7c, 0x0
000001e5 ff4f                 MOVAR 0x30
000001e6 fd4e                 CLRR 0x31
000001e7 fed0                 MOVR 0x2f, 0x0
000001e8 fbce                 SUBAR 0x31, 0x0
000001e9 f6fc                 BTRSS 0x3, 0x2
000001ea c612                 LGOTO 0x1ed; main.o:_00399_DS_=0x1ed
000001eb fed1                 MOVR 0x2e, 0x0
000001ec fbcf                 SUBAR 0x30, 0x0
000001ed                      main.o:_00399_DS_:
000001ed f3fc                 BTRSC 0x3, 0x0
000001ee c5eb                 LGOTO 0x214; main.o:_00357_DS_=0x214
000001ef e4fc                 BSR 0x3, 0x6
000001f0 fa54                 INCR 0x2b, 0x1
000001f1 f2fc                 BTRSC 0x3, 0x2
000001f2 fa53                 INCR 0x2c, 0x1
000001f3 defe                 MOVIA 0x1
000001f4 fbd3                 SUBAR 0x2c, 0x0
000001f5 f6fc                 BTRSS 0x3, 0x2
000001f6 c606                 LGOTO 0x1f9; main.o:_00400_DS_=0x1f9
000001f7 de0a                 MOVIA 0xf5
000001f8 fbd4                 SUBAR 0x2b, 0x0
000001f9                      main.o:_00400_DS_:
000001f9 f7fc                 BTRSS 0x3, 0x0
000001fa c5eb                 LGOTO 0x214; main.o:_00357_DS_=0x214
000001fb e4fc                 BSR 0x3, 0x6
000001fc fd54                 CLRR 0x2b
000001fd fd53                 CLRR 0x2c
000001fe e0fc                 BCR 0x3, 0x6
000001ff fa03                 INCR 0x7c, 0x1
00000200 c5eb                 LGOTO 0x214; main.o:_00357_DS_=0x214
00000201                      main.o:_00349_DS_:
00000201 e0fc                 BCR 0x3, 0x6
00000202 fe83                 MOVR 0x7c, 0x0
00000203 ff4f                 MOVAR 0x30
00000204 fd4e                 CLRR 0x31
00000205 deff                 MOVIA 0x0
00000206 fbd0                 SUBAR 0x2f, 0x0
00000207 f6fc                 BTRSS 0x3, 0x2
00000208 c5f4                 LGOTO 0x20b; main.o:_00401_DS_=0x20b
00000209 fecf                 MOVR 0x30, 0x0
0000020a fbd1                 SUBAR 0x2e, 0x0
0000020b                      main.o:_00401_DS_:
0000020b f7fc                 BTRSS 0x3, 0x0
0000020c c5ee                 LGOTO 0x211; main.o:_00345_DS_=0x211
0000020d e0fc                 BCR 0x3, 0x6
0000020e fe83                 MOVR 0x7c, 0x0
0000020f f6fc                 BTRSS 0x3, 0x2
00000210 c5eb                 LGOTO 0x214; main.o:_00357_DS_=0x214
00000211                      main.o:_00345_DS_:
00000211 e0fc                 BCR 0x3, 0x6
00000212 fed1                 MOVR 0x2e, 0x0
00000213 ff03                 MOVAR 0x7c
00000214                      main.o:_00357_DS_:
00000214 ffef                 RET
00000215                      _initAD:
00000215 de7f                 MOVIA 0x80
00000216 ff6f                 MOVAR 0x10
00000217 fd6c                 CLRR 0x13
00000218 deef                 MOVIA 0x10
00000219 ff6e                 MOVAR 0x11
0000021a defc                 MOVIA 0x3
0000021b ff6b                 MOVAR 0x14
0000021c e5ef                 BSR 0x10, 0x4
0000021d decd                 MOVIA 0x32
0000021e ff38                 MOVAR 0x47
0000021f deff                 MOVIA 0x0
00000220 d734                 LCALL 0xcb; _delay=0xcb
00000221 ffef                 RET
00000222                      _keyCtr:
00000222 e0fc                 BCR 0x3, 0x6
00000223 f8fa                 COMR 0x5, 0x0
00000224 ff52                 MOVAR 0x2d
00000225 de7f                 MOVIA 0x80
00000226 ef52                 ANDAR 0x2d, 0x1
00000227 fed2                 MOVR 0x2d, 0x0
00000228 d597                 LCALL 0x268; _keyRead=0x268
00000229 e0fc                 BCR 0x3, 0x6
0000022a ff52                 MOVAR 0x2d
0000022b dbfe                 XORIA 0x1
0000022c f6fc                 BTRSS 0x3, 0x2
0000022d c5b7                 LGOTO 0x248; main.o:_00318_DS_=0x248
0000022e fe86                 MOVR 0x79, 0x0
0000022f f2fc                 BTRSC 0x3, 0x2
00000230 c598                 LGOTO 0x267; main.o:_00320_DS_=0x267
00000231 fe8b                 MOVR 0x74, 0x0
00000232 f6fc                 BTRSS 0x3, 0x2
00000233 c5c6                 LGOTO 0x239; main.o:_00306_DS_=0x239
00000234 defc                 MOVIA 0x3
00000235 ff05                 MOVAR 0x7a
00000236 e4fc                 BSR 0x3, 0x6
00000237 fd59                 CLRR 0x26
00000238 c598                 LGOTO 0x267; main.o:_00320_DS_=0x267
00000239                      main.o:_00306_DS_:
00000239 e0fc                 BCR 0x3, 0x6
0000023a fd05                 CLRR 0x7a
0000023b fa07                 INCR 0x78, 0x1
0000023c defb                 MOVIA 0x4
0000023d fb87                 SUBAR 0x78, 0x0
0000023e f7fc                 BTRSS 0x3, 0x0
0000023f c5bd                 LGOTO 0x242; main.o:_00304_DS_=0x242
00000240 defe                 MOVIA 0x1
00000241 ff07                 MOVAR 0x78
00000242                      main.o:_00304_DS_:
00000242 defd                 MOVIA 0x2
00000243 e0fc                 BCR 0x3, 0x6
00000244 ff04                 MOVAR 0x7b
00000245 e4fc                 BSR 0x3, 0x6
00000246 fd59                 CLRR 0x26
00000247 c598                 LGOTO 0x267; main.o:_00320_DS_=0x267
00000248                      main.o:_00318_DS_:
00000248 e0fc                 BCR 0x3, 0x6
00000249 fed2                 MOVR 0x2d, 0x0
0000024a dbfd                 XORIA 0x2
0000024b f6fc                 BTRSS 0x3, 0x2
0000024c c598                 LGOTO 0x267; main.o:_00320_DS_=0x267
0000024d fe86                 MOVR 0x79, 0x0
0000024e f2fc                 BTRSC 0x3, 0x2
0000024f c5a7                 LGOTO 0x258; main.o:_00313_DS_=0x258
00000250 fd06                 CLRR 0x79
00000251 fd07                 CLRR 0x78
00000252 fd05                 CLRR 0x7a
00000253 fd04                 CLRR 0x7b
00000254 defa                 MOVIA 0x5
00000255 e4fc                 BSR 0x3, 0x6
00000256 ff59                 MOVAR 0x26
00000257 c598                 LGOTO 0x267; main.o:_00320_DS_=0x267
00000258                      main.o:_00313_DS_:
00000258 defe                 MOVIA 0x1
00000259 e0fc                 BCR 0x3, 0x6
0000025a ff06                 MOVAR 0x79
0000025b defc                 MOVIA 0x3
0000025c ff05                 MOVAR 0x7a
0000025d defd                 MOVIA 0x2
0000025e ff04                 MOVAR 0x7b
0000025f e4fc                 BSR 0x3, 0x6
00000260 fd59                 CLRR 0x26
00000261 e0fc                 BCR 0x3, 0x6
00000262 fe87                 MOVR 0x78, 0x0
00000263 f6fc                 BTRSS 0x3, 0x2
00000264 c598                 LGOTO 0x267; main.o:_00320_DS_=0x267
00000265 defe                 MOVIA 0x1
00000266 ff07                 MOVAR 0x78
00000267                      main.o:_00320_DS_:
00000267 ffef                 RET
00000268                      _keyRead:
00000268 e0fc                 BCR 0x3, 0x6
00000269 ff53                 MOVAR 0x2c
0000026a fed3                 MOVR 0x2c, 0x0
0000026b f2fc                 BTRSC 0x3, 0x2
0000026c c584                 LGOTO 0x27b; main.o:_00296_DS_=0x27b
0000026d fa02                 INCR 0x7d, 0x1
0000026e de37                 MOVIA 0xc8
0000026f fb82                 SUBAR 0x7d, 0x0
00000270 f7fc                 BTRSS 0x3, 0x0
00000271 c571                 LGOTO 0x28e; main.o:_00297_DS_=0x28e
00000272 de37                 MOVIA 0xc8
00000273 ff02                 MOVAR 0x7d
00000274 fe81                 MOVR 0x7e, 0x0
00000275 f6fc                 BTRSS 0x3, 0x2
00000276 c571                 LGOTO 0x28e; main.o:_00297_DS_=0x28e
00000277 defe                 MOVIA 0x1
00000278 ff01                 MOVAR 0x7e
00000279 defd                 MOVIA 0x2
0000027a c570                 LGOTO 0x28f; main.o:_00298_DS_=0x28f
0000027b                      main.o:_00296_DS_:
0000027b de37                 MOVIA 0xc8
0000027c e0fc                 BCR 0x3, 0x6
0000027d fb82                 SUBAR 0x7d, 0x0
0000027e f7fc                 BTRSS 0x3, 0x0
0000027f c57b                 LGOTO 0x284; main.o:_00293_DS_=0x284
00000280 fd02                 CLRR 0x7d
00000281 fd01                 CLRR 0x7e
00000282 deff                 MOVIA 0x0
00000283 c570                 LGOTO 0x28f; main.o:_00298_DS_=0x28f
00000284                      main.o:_00293_DS_:
00000284 defb                 MOVIA 0x4
00000285 e0fc                 BCR 0x3, 0x6
00000286 fb82                 SUBAR 0x7d, 0x0
00000287 f7fc                 BTRSS 0x3, 0x0
00000288 c573                 LGOTO 0x28c; main.o:_00294_DS_=0x28c
00000289 fd02                 CLRR 0x7d
0000028a defe                 MOVIA 0x1
0000028b c570                 LGOTO 0x28f; main.o:_00298_DS_=0x28f
0000028c                      main.o:_00294_DS_:
0000028c e0fc                 BCR 0x3, 0x6
0000028d fd02                 CLRR 0x7d
0000028e                      main.o:_00297_DS_:
0000028e deff                 MOVIA 0x0
0000028f                      main.o:_00298_DS_:
0000028f ffef                 RET
00000290                      _pwmStop:
00000290 fdff                 CLRA
00000291 ffb5                 SFUN 0xa
00000292 ffef                 RET
00000293                      _pwmInit:
00000293 ff95                 SFUNR 0xa
00000294 e0fc                 BCR 0x3, 0x6
00000295 ff54                 MOVAR 0x2b
00000296 f054                 BTRSC 0x2b, 0x7
00000297 c55f                 LGOTO 0x2a0; main.o:_00277_DS_=0x2a0
00000298 fd66                 CLRR 0x19
00000299 de9b                 MOVIA 0x64
0000029a ffb6                 SFUN 0x9
0000029b ffb3                 SFUN 0xc
0000029c defe                 MOVIA 0x1
0000029d ffb4                 SFUN 0xb
0000029e de7c                 MOVIA 0x83
0000029f ffb5                 SFUN 0xa
000002a0                      main.o:_00277_DS_:
000002a0 ffef                 RET
000002a1                      _gotoSleep:
000002a1 e4fc                 BSR 0x3, 0x6
000002a2 fd57                 CLRR 0x28
000002a3 fd5b                 CLRR 0x24
000002a4 fd5a                 CLRR 0x25
000002a5 d3c4                 LCALL 0x43b; _setInput=0x43b
000002a6 e0fc                 BCR 0x3, 0x6
000002a7 fd00                 CLRR 0x7f
000002a8 d56f                 LCALL 0x290; _pwmStop=0x290
000002a9 de5f                 MOVIA 0xa0
000002aa ff6a                 MOVAR 0x15
000002ab fd76                 CLRR 0x9
000002ac def5                 MOVIA 0xa
000002ad fff9                 IOST 0x6
000002ae e0fc                 BCR 0x3, 0x6
000002af fd7a                 CLRR 0x5
000002b0 fd79                 CLRR 0x6
000002b1 defd                 MOVIA 0x2
000002b2 ff71                 MOVAR 0xe
000002b3 dee7                 MOVIA 0x18
000002b4 ff77                 MOVAR 0x8
000002b5 fd70                 CLRR 0xf
000002b6 fffd                 CLRWDT
000002b7 fffb                 ENI
000002b8 fffe                 SLEEP
000002b9 fd6a                 CLRR 0x15
000002ba de5f                 MOVIA 0xa0
000002bb fffa                 IOST 0x5
000002bc def5                 MOVIA 0xa
000002bd fff9                 IOST 0x6
000002be fd7a                 CLRR 0x5
000002bf defe                 MOVIA 0x1
000002c0 ff71                 MOVAR 0xe
000002c1 fd70                 CLRR 0xf
000002c2 de47                 MOVIA 0xb8
000002c3 ff77                 MOVAR 0x8
000002c4 ffef                 RET
000002c5                      _initSys:
000002c5 ffec                 DISI
000002c6 de5f                 MOVIA 0xa0
000002c7 fffa                 IOST 0x5
000002c8 def5                 MOVIA 0xa
000002c9 fff9                 IOST 0x6
000002ca fd79                 CLRR 0x6
000002cb e0fc                 BCR 0x3, 0x6
000002cc fd7a                 CLRR 0x5
000002cd d3c4                 LCALL 0x43b; _setInput=0x43b
000002ce de80                 MOVIA 0x7f
000002cf fff6                 IOST 0x9
000002d0 de08                 MOVIA 0xf7
000002d1 ff73                 MOVAR 0xc
000002d2 de00                 MOVIA 0xff
000002d3 ff74                 MOVAR 0xb
000002d4 defe                 MOVIA 0x1
000002d5 ff71                 MOVAR 0xe
000002d6 fdff                 CLRA
000002d7 fff0                 IOST 0xf
000002d8 dec8                 MOVIA 0x37
000002d9 ff7e                 MOVAR 0x1
000002da fdff                 CLRA
000002db fffc                 T0MD
000002dc defe                 MOVIA 0x1
000002dd fff0                 IOST 0xf
000002de de67                 MOVIA 0x98
000002df ff77                 MOVAR 0x8
000002e0 defe                 MOVIA 0x1
000002e1 fff0                 IOST 0xf
000002e2 fffb                 ENI
000002e3 ffef                 RET
000002e4                      _refreshNub:
000002e4 e0fc                 BCR 0x3, 0x6
000002e5 fe8e                 MOVR 0x71, 0x0
000002e6 da52                 ADDIA 0xad
000002e7 ff56                 MOVAR 0x29
000002e8 deff                 MOVIA 0x0
000002e9 f3fc                 BTRSC 0x3, 0x0
000002ea dafe                 ADDIA 0x1
000002eb ff55                 MOVAR 0x2a
000002ec fed6                 MOVR 0x29, 0x0
000002ed ff39                 MOVAR 0x46
000002ee fed5                 MOVR 0x2a, 0x0
000002ef ff38                 MOVAR 0x47
000002f0 deff                 MOVIA 0x0
000002f1 d116                 LCALL 0x6e9; __gptrget=0x6e9
000002f2 d284                 LCALL 0x57b; _showNubBaiwei=0x57b
000002f3 e0fc                 BCR 0x3, 0x6
000002f4 fe8d                 MOVR 0x72, 0x0
000002f5 da52                 ADDIA 0xad
000002f6 ff56                 MOVAR 0x29
000002f7 deff                 MOVIA 0x0
000002f8 f3fc                 BTRSC 0x3, 0x0
000002f9 dafe                 ADDIA 0x1
000002fa ff55                 MOVAR 0x2a
000002fb fed6                 MOVR 0x29, 0x0
000002fc ff39                 MOVAR 0x46
000002fd fed5                 MOVR 0x2a, 0x0
000002fe ff38                 MOVAR 0x47
000002ff deff                 MOVIA 0x0
00000300 d116                 LCALL 0x6e9; __gptrget=0x6e9
00000301 d204                 LCALL 0x5fb; _showNubShiwei=0x5fb
00000302 e0fc                 BCR 0x3, 0x6
00000303 fe8c                 MOVR 0x73, 0x0
00000304 da52                 ADDIA 0xad
00000305 ff56                 MOVAR 0x29
00000306 deff                 MOVIA 0x0
00000307 f3fc                 BTRSC 0x3, 0x0
00000308 dafe                 ADDIA 0x1
00000309 ff55                 MOVAR 0x2a
0000030a fed6                 MOVR 0x29, 0x0
0000030b ff39                 MOVAR 0x46
0000030c fed5                 MOVR 0x2a, 0x0
0000030d ff38                 MOVAR 0x47
0000030e deff                 MOVIA 0x0
0000030f d116                 LCALL 0x6e9; __gptrget=0x6e9
00000310 d244                 LCALL 0x5bb; _showNubGewei=0x5bb
00000311 d3c4                 LCALL 0x43b; _setInput=0x43b
00000312 ffef                 RET
00000313                      _checkIRKey:
00000313 e0fc                 BCR 0x3, 0x6
00000314 f57a                 BTRSS 0x5, 0x5
00000315 c4e7                 LGOTO 0x318; main.o:_00239_DS_=0x318
00000316 fd0a                 CLRR 0x75
00000317 c48f                 LGOTO 0x370; main.o:_00258_DS_=0x370
00000318                      main.o:_00239_DS_:
00000318 dee1                 MOVIA 0x1e
00000319 ff38                 MOVAR 0x47
0000031a deff                 MOVIA 0x0
0000031b d734                 LCALL 0xcb; _delay=0xcb
0000031c fef9                 MOVR 0x6, 0x0
0000031d ddf7                 ANDIA 0x8
0000031e f6fc                 BTRSS 0x3, 0x2
0000031f defe                 MOVIA 0x1
00000320 e0fc                 BCR 0x3, 0x6
00000321 ff58                 MOVAR 0x27
00000322 fed8                 MOVR 0x27, 0x0
00000323 f6fc                 BTRSS 0x3, 0x2
00000324 c49c                 LGOTO 0x363; main.o:_00256_DS_=0x363
00000325 e4fc                 BSR 0x3, 0x6
00000326 fd58                 CLRR 0x27
00000327 e0fc                 BCR 0x3, 0x6
00000328 fa09                 INCR 0x76, 0x1
00000329 defc                 MOVIA 0x3
0000032a fb89                 SUBAR 0x76, 0x0
0000032b f7fc                 BTRSS 0x3, 0x0
0000032c c48f                 LGOTO 0x370; main.o:_00258_DS_=0x370
0000032d fe8a                 MOVR 0x75, 0x0
0000032e f6fc                 BTRSS 0x3, 0x2
0000032f c48f                 LGOTO 0x370; main.o:_00258_DS_=0x370
00000330 e4fc                 BSR 0x3, 0x6
00000331 fedb                 MOVR 0x24, 0x0
00000332 eeda                 IORAR 0x25, 0x0
00000333 f6fc                 BTRSS 0x3, 0x2
00000334 c48f                 LGOTO 0x370; main.o:_00258_DS_=0x370
00000335 e0fc                 BCR 0x3, 0x6
00000336 fe87                 MOVR 0x78, 0x0
00000337 dbfe                 XORIA 0x1
00000338 f6fc                 BTRSS 0x3, 0x2
00000339 c4c2                 LGOTO 0x33d; main.o:_00246_DS_=0x33d
0000033a decd                 MOVIA 0x32
0000033b ff08                 MOVAR 0x77
0000033c c4b3                 LGOTO 0x34c; main.o:_00247_DS_=0x34c
0000033d                      main.o:_00246_DS_:
0000033d e0fc                 BCR 0x3, 0x6
0000033e fe87                 MOVR 0x78, 0x0
0000033f dbfd                 XORIA 0x2
00000340 f6fc                 BTRSS 0x3, 0x2
00000341 c4ba                 LGOTO 0x345; main.o:_00243_DS_=0x345
00000342 de9b                 MOVIA 0x64
00000343 ff08                 MOVAR 0x77
00000344 c4b3                 LGOTO 0x34c; main.o:_00247_DS_=0x34c
00000345                      main.o:_00243_DS_:
00000345 e0fc                 BCR 0x3, 0x6
00000346 fe87                 MOVR 0x78, 0x0
00000347 dbfc                 XORIA 0x3
00000348 f6fc                 BTRSS 0x3, 0x2
00000349 c4b3                 LGOTO 0x34c; main.o:_00247_DS_=0x34c
0000034a de69                 MOVIA 0x96
0000034b ff08                 MOVAR 0x77
0000034c                      main.o:_00247_DS_:
0000034c e0fc                 BCR 0x3, 0x6
0000034d fe88                 MOVR 0x77, 0x0
0000034e ff58                 MOVAR 0x27
0000034f fd57                 CLRR 0x28
00000350 ded3                 MOVIA 0x2c
00000351 fcd8                 ADDAR 0x27, 0x0
00000352 e4fc                 BSR 0x3, 0x6
00000353 ff5b                 MOVAR 0x24
00000354 defe                 MOVIA 0x1
00000355 ff5a                 MOVAR 0x25
00000356 deff                 MOVIA 0x0
00000357 f7fc                 BTRSS 0x3, 0x0
00000358 c4a2                 LGOTO 0x35d; main.o:_00009_DS_=0x35d
00000359 e0fc                 BCR 0x3, 0x6
0000035a fad7                 INCR 0x28, 0x0
0000035b f2fc                 BTRSC 0x3, 0x2
0000035c c4a0                 LGOTO 0x35f; main.o:_00010_DS_=0x35f
0000035d                      main.o:_00009_DS_:
0000035d e4fc                 BSR 0x3, 0x6
0000035e fc5a                 ADDAR 0x25, 0x1
0000035f                      main.o:_00010_DS_:
0000035f defe                 MOVIA 0x1
00000360 e0fc                 BCR 0x3, 0x6
00000361 ff0a                 MOVAR 0x75
00000362 c48f                 LGOTO 0x370; main.o:_00258_DS_=0x370
00000363                      main.o:_00256_DS_:
00000363 e0fc                 BCR 0x3, 0x6
00000364 fd09                 CLRR 0x76
00000365 e4fc                 BSR 0x3, 0x6
00000366 fa58                 INCR 0x27, 0x1
00000367 def9                 MOVIA 0x6
00000368 fbd8                 SUBAR 0x27, 0x0
00000369 f7fc                 BTRSS 0x3, 0x0
0000036a c48f                 LGOTO 0x370; main.o:_00258_DS_=0x370
0000036b defa                 MOVIA 0x5
0000036c ff58                 MOVAR 0x27
0000036d e0fc                 BCR 0x3, 0x6
0000036e fd09                 CLRR 0x76
0000036f fd0a                 CLRR 0x75
00000370                      main.o:_00258_DS_:
00000370 ffef                 RET
00000371                      _chrgCtr:
00000371 e0fc                 BCR 0x3, 0x6
00000372 f57a                 BTRSS 0x5, 0x5
00000373 c45a                 LGOTO 0x3a5; main.o:_00190_DS_=0x3a5
00000374 d56f                 LCALL 0x290; _pwmStop=0x290
00000375 e2f3                 BCR 0xc, 0x2
00000376 ffe9                 IOSTR 0x6
00000377 e0fc                 BCR 0x3, 0x6
00000378 ff5a                 MOVAR 0x25
00000379 e6da                 BSR 0x25, 0x2
0000037a feda                 MOVR 0x25, 0x0
0000037b fff9                 IOST 0x6
0000037c defe                 MOVIA 0x1
0000037d ff0b                 MOVAR 0x74
0000037e f2f9                 BTRSC 0x6, 0x2
0000037f c47b                 LGOTO 0x384; main.o:_00161_DS_=0x384
00000380 e4fc                 BSR 0x3, 0x6
00000381 fedf                 MOVR 0x20, 0x0
00000382 f2fc                 BTRSC 0x3, 0x2
00000383 c473                 LGOTO 0x38c; main.o:_00162_DS_=0x38c
00000384                      main.o:_00161_DS_:
00000384 defe                 MOVIA 0x1
00000385 e4fc                 BSR 0x3, 0x6
00000386 ff5f                 MOVAR 0x20
00000387 e0fc                 BCR 0x3, 0x6
00000388 ff0e                 MOVAR 0x71
00000389 fd0c                 CLRR 0x73
0000038a fd0d                 CLRR 0x72
0000038b c3d1                 LGOTO 0x42e; main.o:_00192_DS_=0x42e
0000038c                      main.o:_00162_DS_:
0000038c e0fc                 BCR 0x3, 0x6
0000038d fe83                 MOVR 0x7c, 0x0
0000038e db9b                 XORIA 0x64
0000038f f6fc                 BTRSS 0x3, 0x2
00000390 c469                 LGOTO 0x396; main.o:_00159_DS_=0x396
00000391 fd0e                 CLRR 0x71
00000392 def6                 MOVIA 0x9
00000393 ff0d                 MOVAR 0x72
00000394 ff0c                 MOVAR 0x73
00000395 c3d1                 LGOTO 0x42e; main.o:_00192_DS_=0x42e
00000396                      main.o:_00159_DS_:
00000396 e0fc                 BCR 0x3, 0x6
00000397 fd0e                 CLRR 0x71
00000398 def5                 MOVIA 0xa
00000399 ff38                 MOVAR 0x47
0000039a fe83                 MOVR 0x7c, 0x0
0000039b d1e6                 LCALL 0x619; __divuchar=0x619
0000039c e0fc                 BCR 0x3, 0x6
0000039d ff0d                 MOVAR 0x72
0000039e def5                 MOVIA 0xa
0000039f ff38                 MOVAR 0x47
000003a0 fe83                 MOVR 0x7c, 0x0
000003a1 d173                 LCALL 0x68c; __moduchar=0x68c
000003a2 e0fc                 BCR 0x3, 0x6
000003a3 ff0c                 MOVAR 0x73
000003a4 c3d1                 LGOTO 0x42e; main.o:_00192_DS_=0x42e
000003a5                      main.o:_00190_DS_:
000003a5 e4fc                 BSR 0x3, 0x6
000003a6 fd5f                 CLRR 0x20
000003a7 e6f3                 BSR 0xc, 0x2
000003a8 ffe9                 IOSTR 0x6
000003a9 e0fc                 BCR 0x3, 0x6
000003aa ff5a                 MOVAR 0x25
000003ab e2da                 BCR 0x25, 0x2
000003ac feda                 MOVR 0x25, 0x0
000003ad fff9                 IOST 0x6
000003ae fe88                 MOVR 0x77, 0x0
000003af f2fc                 BTRSC 0x3, 0x2
000003b0 c44a                 LGOTO 0x3b5; main.o:_00166_DS_=0x3b5
000003b1 d56c                 LCALL 0x293; _pwmInit=0x293
000003b2 e0fc                 BCR 0x3, 0x6
000003b3 f908                 DECR 0x77, 0x1
000003b4 c448                 LGOTO 0x3b7; main.o:_00167_DS_=0x3b7
000003b5                      main.o:_00166_DS_:
000003b5 d56f                 LCALL 0x290; _pwmStop=0x290
000003b6 e2f9                 BCR 0x6, 0x2
000003b7                      main.o:_00167_DS_:
000003b7 e0fc                 BCR 0x3, 0x6
000003b8 fe85                 MOVR 0x7a, 0x0
000003b9 f2fc                 BTRSC 0x3, 0x2
000003ba c42a                 LGOTO 0x3d5; main.o:_00187_DS_=0x3d5
000003bb defe                 MOVIA 0x1
000003bc ff0b                 MOVAR 0x74
000003bd de9b                 MOVIA 0x64
000003be fb83                 SUBAR 0x7c, 0x0
000003bf f7fc                 BTRSS 0x3, 0x0
000003c0 c439                 LGOTO 0x3c6; main.o:_00169_DS_=0x3c6
000003c1 defe                 MOVIA 0x1
000003c2 ff0e                 MOVAR 0x71
000003c3 fd0c                 CLRR 0x73
000003c4 fd0d                 CLRR 0x72
000003c5 c3d1                 LGOTO 0x42e; main.o:_00192_DS_=0x42e
000003c6                      main.o:_00169_DS_:
000003c6 e0fc                 BCR 0x3, 0x6
000003c7 fd0e                 CLRR 0x71
000003c8 def5                 MOVIA 0xa
000003c9 ff38                 MOVAR 0x47
000003ca fe83                 MOVR 0x7c, 0x0
000003cb d1e6                 LCALL 0x619; __divuchar=0x619
000003cc e0fc                 BCR 0x3, 0x6
000003cd ff0d                 MOVAR 0x72
000003ce def5                 MOVIA 0xa
000003cf ff38                 MOVAR 0x47
000003d0 fe83                 MOVR 0x7c, 0x0
000003d1 d173                 LCALL 0x68c; __moduchar=0x68c
000003d2 e0fc                 BCR 0x3, 0x6
000003d3 ff0c                 MOVAR 0x73
000003d4 c3d1                 LGOTO 0x42e; main.o:_00192_DS_=0x42e
000003d5                      main.o:_00187_DS_:
000003d5 e0fc                 BCR 0x3, 0x6
000003d6 fe84                 MOVR 0x7b, 0x0
000003d7 f2fc                 BTRSC 0x3, 0x2
000003d8 c41f                 LGOTO 0x3e0; main.o:_00184_DS_=0x3e0
000003d9 defe                 MOVIA 0x1
000003da ff0b                 MOVAR 0x74
000003db fd0d                 CLRR 0x72
000003dc fd0e                 CLRR 0x71
000003dd fe87                 MOVR 0x78, 0x0
000003de ff0c                 MOVAR 0x73
000003df c3d1                 LGOTO 0x42e; main.o:_00192_DS_=0x42e
000003e0                      main.o:_00184_DS_:
000003e0 def9                 MOVIA 0x6
000003e1 e0fc                 BCR 0x3, 0x6
000003e2 fb83                 SUBAR 0x7c, 0x0
000003e3 f3fc                 BTRSC 0x3, 0x0
000003e4 c3df                 LGOTO 0x420; main.o:_00180_DS_=0x420
000003e5 e4fc                 BSR 0x3, 0x6
000003e6 fed9                 MOVR 0x26, 0x0
000003e7 f6fc                 BTRSS 0x3, 0x2
000003e8 c3df                 LGOTO 0x420; main.o:_00180_DS_=0x420
000003e9 defe                 MOVIA 0x1
000003ea e0fc                 BCR 0x3, 0x6
000003eb ff0b                 MOVAR 0x74
000003ec e4fc                 BSR 0x3, 0x6
000003ed fa5e                 INCR 0x21, 0x1
000003ee f2fc                 BTRSC 0x3, 0x2
000003ef fa5d                 INCR 0x22, 0x1
000003f0 defe                 MOVIA 0x1
000003f1 fbdd                 SUBAR 0x22, 0x0
000003f2 f6fc                 BTRSS 0x3, 0x2
000003f3 c409                 LGOTO 0x3f6; main.o:_00232_DS_=0x3f6
000003f4 de0a                 MOVIA 0xf5
000003f5 fbde                 SUBAR 0x21, 0x0
000003f6                      main.o:_00232_DS_:
000003f6 f7fc                 BTRSS 0x3, 0x0
000003f7 c3ff                 LGOTO 0x400; main.o:_00172_DS_=0x400
000003f8 e4fc                 BSR 0x3, 0x6
000003f9 fd5e                 CLRR 0x21
000003fa fd5d                 CLRR 0x22
000003fb e0fc                 BCR 0x3, 0x6
000003fc fd0b                 CLRR 0x74
000003fd defa                 MOVIA 0x5
000003fe e4fc                 BSR 0x3, 0x6
000003ff ff59                 MOVAR 0x26
00000400                      main.o:_00172_DS_:
00000400 de9b                 MOVIA 0x64
00000401 ff3a                 MOVAR 0x45
00000402 deff                 MOVIA 0x0
00000403 ff39                 MOVAR 0x46
00000404 e4fc                 BSR 0x3, 0x6
00000405 fede                 MOVR 0x21, 0x0
00000406 ff38                 MOVAR 0x47
00000407 fedd                 MOVR 0x22, 0x0
00000408 d14f                 LCALL 0x6b0; __moduint=0x6b0
00000409 e0fc                 BCR 0x3, 0x6
0000040a ff59                 MOVAR 0x26
0000040b feb8                 MOVR 0x47, 0x0
0000040c ff5a                 MOVAR 0x25
0000040d deff                 MOVIA 0x0
0000040e fbd9                 SUBAR 0x26, 0x0
0000040f f6fc                 BTRSS 0x3, 0x2
00000410 c3ec                 LGOTO 0x413; main.o:_00233_DS_=0x413
00000411 decd                 MOVIA 0x32
00000412 fbda                 SUBAR 0x25, 0x0
00000413                      main.o:_00233_DS_:
00000413 f3fc                 BTRSC 0x3, 0x0
00000414 c3e2                 LGOTO 0x41d; main.o:_00174_DS_=0x41d
00000415 defe                 MOVIA 0x1
00000416 e0fc                 BCR 0x3, 0x6
00000417 ff0b                 MOVAR 0x74
00000418 fd0e                 CLRR 0x71
00000419 fd0d                 CLRR 0x72
0000041a fe83                 MOVR 0x7c, 0x0
0000041b ff0c                 MOVAR 0x73
0000041c c3d1                 LGOTO 0x42e; main.o:_00192_DS_=0x42e
0000041d                      main.o:_00174_DS_:
0000041d e0fc                 BCR 0x3, 0x6
0000041e fd0b                 CLRR 0x74
0000041f c3d1                 LGOTO 0x42e; main.o:_00192_DS_=0x42e
00000420                      main.o:_00180_DS_:
00000420 e4fc                 BSR 0x3, 0x6
00000421 fed9                 MOVR 0x26, 0x0
00000422 f2fc                 BTRSC 0x3, 0x2
00000423 c3d3                 LGOTO 0x42c; main.o:_00177_DS_=0x42c
00000424 defe                 MOVIA 0x1
00000425 e0fc                 BCR 0x3, 0x6
00000426 ff0b                 MOVAR 0x74
00000427 fd0e                 CLRR 0x71
00000428 def5                 MOVIA 0xa
00000429 ff0d                 MOVAR 0x72
0000042a ff0c                 MOVAR 0x73
0000042b c3d1                 LGOTO 0x42e; main.o:_00192_DS_=0x42e
0000042c                      main.o:_00177_DS_:
0000042c e0fc                 BCR 0x3, 0x6
0000042d fd0b                 CLRR 0x74
0000042e                      main.o:_00192_DS_:
0000042e ffef                 RET
0000042f                      _delayms:
0000042f e0fc                 BCR 0x3, 0x6
00000430 ff29                 MOVAR 0x56
00000431 fd28                 CLRR 0x57
00000432                      number.o:_00400_DS_:
00000432 e0fc                 BCR 0x3, 0x6
00000433 fea9                 MOVR 0x56, 0x0
00000434 fba8                 SUBAR 0x57, 0x0
00000435 f3fc                 BTRSC 0x3, 0x0
00000436 c3c5                 LGOTO 0x43a; number.o:_00402_DS_=0x43a
00000437 ffff                 NOP
00000438 fa28                 INCR 0x57, 0x1
00000439 c3cd                 LGOTO 0x432; number.o:_00400_DS_=0x432
0000043a                      number.o:_00402_DS_:
0000043a ffef                 RET
0000043b                      _setInput:
0000043b e3f9                 BCR 0x6, 0x0
0000043c de1f                 MOVIA 0xe0
0000043d e0fc                 BCR 0x3, 0x6
0000043e ef7a                 ANDAR 0x5, 0x1
0000043f de40                 MOVIA 0xbf
00000440 fffa                 IOST 0x5
00000441 ffe9                 IOSTR 0x6
00000442 ff2a                 MOVAR 0x55
00000443 e7aa                 BSR 0x55, 0x0
00000444 feaa                 MOVR 0x55, 0x0
00000445 fff9                 IOST 0x6
00000446 ffef                 RET
00000447                      _setOutput:
00000447 e0fc                 BCR 0x3, 0x6
00000448 ff2b                 MOVAR 0x54
00000449 defe                 MOVIA 0x1
0000044a fbab                 SUBAR 0x54, 0x0
0000044b f7fc                 BTRSS 0x3, 0x0
0000044c c377                 LGOTO 0x488; number.o:_00379_DS_=0x488
0000044d def8                 MOVIA 0x7
0000044e fbab                 SUBAR 0x54, 0x0
0000044f f3fc                 BTRSC 0x3, 0x0
00000450 c377                 LGOTO 0x488; number.o:_00379_DS_=0x488
00000451 f92b                 DECR 0x54, 0x1
00000452 defb                 MOVIA 0x4
00000453 ff75                 MOVAR 0xa
00000454 feab                 MOVR 0x54, 0x0
00000455 daa6                 ADDIA 0x59
00000456 f3fc                 BTRSC 0x3, 0x0
00000457 fa75                 INCR 0xa, 0x1
00000458 ff7d                 MOVAR 0x2
00000459                      number.o:_00389_DS_:
00000459 c3a0                 LGOTO 0x45f; number.o:_00372_DS_=0x45f
0000045a c399                 LGOTO 0x466; number.o:_00373_DS_=0x466
0000045b c392                 LGOTO 0x46d; number.o:_00374_DS_=0x46d
0000045c c38b                 LGOTO 0x474; number.o:_00375_DS_=0x474
0000045d c384                 LGOTO 0x47b; number.o:_00376_DS_=0x47b
0000045e c37d                 LGOTO 0x482; number.o:_00377_DS_=0x482
0000045f                      number.o:_00372_DS_:
0000045f ffe9                 IOSTR 0x6
00000460 e0fc                 BCR 0x3, 0x6
00000461 ff2b                 MOVAR 0x54
00000462 e3ab                 BCR 0x54, 0x0
00000463 feab                 MOVR 0x54, 0x0
00000464 fff9                 IOST 0x6
00000465 c377                 LGOTO 0x488; number.o:_00379_DS_=0x488
00000466                      number.o:_00373_DS_:
00000466 ffea                 IOSTR 0x5
00000467 e0fc                 BCR 0x3, 0x6
00000468 ff2b                 MOVAR 0x54
00000469 e3ab                 BCR 0x54, 0x0
0000046a feab                 MOVR 0x54, 0x0
0000046b fffa                 IOST 0x5
0000046c c377                 LGOTO 0x488; number.o:_00379_DS_=0x488
0000046d                      number.o:_00374_DS_:
0000046d ffea                 IOSTR 0x5
0000046e e0fc                 BCR 0x3, 0x6
0000046f ff2b                 MOVAR 0x54
00000470 e32b                 BCR 0x54, 0x1
00000471 feab                 MOVR 0x54, 0x0
00000472 fffa                 IOST 0x5
00000473 c377                 LGOTO 0x488; number.o:_00379_DS_=0x488
00000474                      number.o:_00375_DS_:
00000474 ffea                 IOSTR 0x5
00000475 e0fc                 BCR 0x3, 0x6
00000476 ff2b                 MOVAR 0x54
00000477 e2ab                 BCR 0x54, 0x2
00000478 feab                 MOVR 0x54, 0x0
00000479 fffa                 IOST 0x5
0000047a c377                 LGOTO 0x488; number.o:_00379_DS_=0x488
0000047b                      number.o:_00376_DS_:
0000047b ffea                 IOSTR 0x5
0000047c e0fc                 BCR 0x3, 0x6
0000047d ff2b                 MOVAR 0x54
0000047e e22b                 BCR 0x54, 0x3
0000047f feab                 MOVR 0x54, 0x0
00000480 fffa                 IOST 0x5
00000481 c377                 LGOTO 0x488; number.o:_00379_DS_=0x488
00000482                      number.o:_00377_DS_:
00000482 ffea                 IOSTR 0x5
00000483 e0fc                 BCR 0x3, 0x6
00000484 ff2b                 MOVAR 0x54
00000485 e1ab                 BCR 0x54, 0x4
00000486 feab                 MOVR 0x54, 0x0
00000487 fffa                 IOST 0x5
00000488                      number.o:_00379_DS_:
00000488 ffef                 RET
00000489                      _setlowOutput:
00000489 e0fc                 BCR 0x3, 0x6
0000048a ff2c                 MOVAR 0x53
0000048b defe                 MOVIA 0x1
0000048c fbac                 SUBAR 0x53, 0x0
0000048d f7fc                 BTRSS 0x3, 0x0
0000048e c34e                 LGOTO 0x4b1; number.o:_00357_DS_=0x4b1
0000048f def8                 MOVIA 0x7
00000490 fbac                 SUBAR 0x53, 0x0
00000491 f3fc                 BTRSC 0x3, 0x0
00000492 c34e                 LGOTO 0x4b1; number.o:_00357_DS_=0x4b1
00000493 f92c                 DECR 0x53, 0x1
00000494 defb                 MOVIA 0x4
00000495 ff75                 MOVAR 0xa
00000496 feac                 MOVR 0x53, 0x0
00000497 da64                 ADDIA 0x9b
00000498 f3fc                 BTRSC 0x3, 0x0
00000499 fa75                 INCR 0xa, 0x1
0000049a ff7d                 MOVAR 0x2
0000049b                      number.o:_00367_DS_:
0000049b c35e                 LGOTO 0x4a1; number.o:_00350_DS_=0x4a1
0000049c c35c                 LGOTO 0x4a3; number.o:_00351_DS_=0x4a3
0000049d c359                 LGOTO 0x4a6; number.o:_00352_DS_=0x4a6
0000049e c356                 LGOTO 0x4a9; number.o:_00353_DS_=0x4a9
0000049f c353                 LGOTO 0x4ac; number.o:_00354_DS_=0x4ac
000004a0 c350                 LGOTO 0x4af; number.o:_00355_DS_=0x4af
000004a1                      number.o:_00350_DS_:
000004a1 e3f9                 BCR 0x6, 0x0
000004a2 c34e                 LGOTO 0x4b1; number.o:_00357_DS_=0x4b1
000004a3                      number.o:_00351_DS_:
000004a3 e0fc                 BCR 0x3, 0x6
000004a4 e3fa                 BCR 0x5, 0x0
000004a5 c34e                 LGOTO 0x4b1; number.o:_00357_DS_=0x4b1
000004a6                      number.o:_00352_DS_:
000004a6 e0fc                 BCR 0x3, 0x6
000004a7 e37a                 BCR 0x5, 0x1
000004a8 c34e                 LGOTO 0x4b1; number.o:_00357_DS_=0x4b1
000004a9                      number.o:_00353_DS_:
000004a9 e0fc                 BCR 0x3, 0x6
000004aa e2fa                 BCR 0x5, 0x2
000004ab c34e                 LGOTO 0x4b1; number.o:_00357_DS_=0x4b1
000004ac                      number.o:_00354_DS_:
000004ac e0fc                 BCR 0x3, 0x6
000004ad e27a                 BCR 0x5, 0x3
000004ae c34e                 LGOTO 0x4b1; number.o:_00357_DS_=0x4b1
000004af                      number.o:_00355_DS_:
000004af e0fc                 BCR 0x3, 0x6
000004b0 e1fa                 BCR 0x5, 0x4
000004b1                      number.o:_00357_DS_:
000004b1 ffef                 RET
000004b2                      _setHightOutput:
000004b2 e0fc                 BCR 0x3, 0x6
000004b3 ff2d                 MOVAR 0x52
000004b4 defe                 MOVIA 0x1
000004b5 fbad                 SUBAR 0x52, 0x0
000004b6 f7fc                 BTRSS 0x3, 0x0
000004b7 c325                 LGOTO 0x4da; number.o:_00335_DS_=0x4da
000004b8 def8                 MOVIA 0x7
000004b9 fbad                 SUBAR 0x52, 0x0
000004ba f3fc                 BTRSC 0x3, 0x0
000004bb c325                 LGOTO 0x4da; number.o:_00335_DS_=0x4da
000004bc f92d                 DECR 0x52, 0x1
000004bd defb                 MOVIA 0x4
000004be ff75                 MOVAR 0xa
000004bf fead                 MOVR 0x52, 0x0
000004c0 da3b                 ADDIA 0xc4
000004c1 f3fc                 BTRSC 0x3, 0x0
000004c2 fa75                 INCR 0xa, 0x1
000004c3 ff7d                 MOVAR 0x2
000004c4                      number.o:_00345_DS_:
000004c4 c335                 LGOTO 0x4ca; number.o:_00328_DS_=0x4ca
000004c5 c333                 LGOTO 0x4cc; number.o:_00329_DS_=0x4cc
000004c6 c330                 LGOTO 0x4cf; number.o:_00330_DS_=0x4cf
000004c7 c32d                 LGOTO 0x4d2; number.o:_00331_DS_=0x4d2
000004c8 c32a                 LGOTO 0x4d5; number.o:_00332_DS_=0x4d5
000004c9 c327                 LGOTO 0x4d8; number.o:_00333_DS_=0x4d8
000004ca                      number.o:_00328_DS_:
000004ca e7f9                 BSR 0x6, 0x0
000004cb c325                 LGOTO 0x4da; number.o:_00335_DS_=0x4da
000004cc                      number.o:_00329_DS_:
000004cc e0fc                 BCR 0x3, 0x6
000004cd e7fa                 BSR 0x5, 0x0
000004ce c325                 LGOTO 0x4da; number.o:_00335_DS_=0x4da
000004cf                      number.o:_00330_DS_:
000004cf e0fc                 BCR 0x3, 0x6
000004d0 e77a                 BSR 0x5, 0x1
000004d1 c325                 LGOTO 0x4da; number.o:_00335_DS_=0x4da
000004d2                      number.o:_00331_DS_:
000004d2 e0fc                 BCR 0x3, 0x6
000004d3 e6fa                 BSR 0x5, 0x2
000004d4 c325                 LGOTO 0x4da; number.o:_00335_DS_=0x4da
000004d5                      number.o:_00332_DS_:
000004d5 e0fc                 BCR 0x3, 0x6
000004d6 e67a                 BSR 0x5, 0x3
000004d7 c325                 LGOTO 0x4da; number.o:_00335_DS_=0x4da
000004d8                      number.o:_00333_DS_:
000004d8 e0fc                 BCR 0x3, 0x6
000004d9 e5fa                 BSR 0x5, 0x4
000004da                      number.o:_00335_DS_:
000004da ffef                 RET
000004db                      _showNub:
000004db e0fc                 BCR 0x3, 0x6
000004dc ff2f                 MOVAR 0x50
000004dd feb8                 MOVR 0x47, 0x0
000004de ff2e                 MOVAR 0x51
000004df d3c4                 LCALL 0x43b; _setInput=0x43b
000004e0 e0fc                 BCR 0x3, 0x6
000004e1 feaf                 MOVR 0x50, 0x0
000004e2 d3b8                 LCALL 0x447; _setOutput=0x447
000004e3 e0fc                 BCR 0x3, 0x6
000004e4 feaf                 MOVR 0x50, 0x0
000004e5 d34d                 LCALL 0x4b2; _setHightOutput=0x4b2
000004e6 e0fc                 BCR 0x3, 0x6
000004e7 feae                 MOVR 0x51, 0x0
000004e8 d3b8                 LCALL 0x447; _setOutput=0x447
000004e9 e0fc                 BCR 0x3, 0x6
000004ea feae                 MOVR 0x51, 0x0
000004eb d376                 LCALL 0x489; _setlowOutput=0x489
000004ec def5                 MOVIA 0xa
000004ed d3d0                 LCALL 0x42f; _delayms=0x42f
000004ee fffd                 CLRWDT
000004ef ffef                 RET
000004f0                      _G3:
000004f0 defe                 MOVIA 0x1
000004f1 ff38                 MOVAR 0x47
000004f2 defa                 MOVIA 0x5
000004f3 d324                 LCALL 0x4db; _showNub=0x4db
000004f4 ffef                 RET
000004f5                      _F3:
000004f5 def9                 MOVIA 0x6
000004f6 ff38                 MOVAR 0x47
000004f7 defb                 MOVIA 0x4
000004f8 d324                 LCALL 0x4db; _showNub=0x4db
000004f9 ffef                 RET
000004fa                      _E3:
000004fa defa                 MOVIA 0x5
000004fb ff38                 MOVAR 0x47
000004fc defb                 MOVIA 0x4
000004fd d324                 LCALL 0x4db; _showNub=0x4db
000004fe ffef                 RET
000004ff                      _D3:
000004ff defc                 MOVIA 0x3
00000500 ff38                 MOVAR 0x47
00000501 defb                 MOVIA 0x4
00000502 d324                 LCALL 0x4db; _showNub=0x4db
00000503 ffef                 RET
00000504                      _C3:
00000504 defd                 MOVIA 0x2
00000505 ff38                 MOVAR 0x47
00000506 defb                 MOVIA 0x4
00000507 d324                 LCALL 0x4db; _showNub=0x4db
00000508 ffef                 RET
00000509                      _B3:
00000509 defe                 MOVIA 0x1
0000050a ff38                 MOVAR 0x47
0000050b defb                 MOVIA 0x4
0000050c d324                 LCALL 0x4db; _showNub=0x4db
0000050d ffef                 RET
0000050e                      _A3:
0000050e def9                 MOVIA 0x6
0000050f ff38                 MOVAR 0x47
00000510 defc                 MOVIA 0x3
00000511 d324                 LCALL 0x4db; _showNub=0x4db
00000512 ffef                 RET
00000513                      _G2:
00000513 defa                 MOVIA 0x5
00000514 ff38                 MOVAR 0x47
00000515 defc                 MOVIA 0x3
00000516 d324                 LCALL 0x4db; _showNub=0x4db
00000517 ffef                 RET
00000518                      _F2:
00000518 defb                 MOVIA 0x4
00000519 ff38                 MOVAR 0x47
0000051a defc                 MOVIA 0x3
0000051b d324                 LCALL 0x4db; _showNub=0x4db
0000051c ffef                 RET
0000051d                      _E2:
0000051d defd                 MOVIA 0x2
0000051e ff38                 MOVAR 0x47
0000051f defc                 MOVIA 0x3
00000520 d324                 LCALL 0x4db; _showNub=0x4db
00000521 ffef                 RET
00000522                      _D2:
00000522 defe                 MOVIA 0x1
00000523 ff38                 MOVAR 0x47
00000524 defc                 MOVIA 0x3
00000525 d324                 LCALL 0x4db; _showNub=0x4db
00000526 ffef                 RET
00000527                      _C2:
00000527 def9                 MOVIA 0x6
00000528 ff38                 MOVAR 0x47
00000529 defd                 MOVIA 0x2
0000052a d324                 LCALL 0x4db; _showNub=0x4db
0000052b ffef                 RET
0000052c                      _B2:
0000052c defa                 MOVIA 0x5
0000052d ff38                 MOVAR 0x47
0000052e defd                 MOVIA 0x2
0000052f d324                 LCALL 0x4db; _showNub=0x4db
00000530 ffef                 RET
00000531                      _A2:
00000531 defb                 MOVIA 0x4
00000532 ff38                 MOVAR 0x47
00000533 defd                 MOVIA 0x2
00000534 d324                 LCALL 0x4db; _showNub=0x4db
00000535 ffef                 RET
00000536                      _G1:
00000536 defc                 MOVIA 0x3
00000537 ff38                 MOVAR 0x47
00000538 defd                 MOVIA 0x2
00000539 d324                 LCALL 0x4db; _showNub=0x4db
0000053a ffef                 RET
0000053b                      _F1:
0000053b defe                 MOVIA 0x1
0000053c ff38                 MOVAR 0x47
0000053d defd                 MOVIA 0x2
0000053e d324                 LCALL 0x4db; _showNub=0x4db
0000053f ffef                 RET
00000540                      _E1:
00000540 def9                 MOVIA 0x6
00000541 ff38                 MOVAR 0x47
00000542 defe                 MOVIA 0x1
00000543 d324                 LCALL 0x4db; _showNub=0x4db
00000544 ffef                 RET
00000545                      _D1:
00000545 defa                 MOVIA 0x5
00000546 ff38                 MOVAR 0x47
00000547 defe                 MOVIA 0x1
00000548 d324                 LCALL 0x4db; _showNub=0x4db
00000549 ffef                 RET
0000054a                      _C1:
0000054a defb                 MOVIA 0x4
0000054b ff38                 MOVAR 0x47
0000054c defe                 MOVIA 0x1
0000054d d324                 LCALL 0x4db; _showNub=0x4db
0000054e ffef                 RET
0000054f                      _B1:
0000054f defc                 MOVIA 0x3
00000550 ff38                 MOVAR 0x47
00000551 defe                 MOVIA 0x1
00000552 d324                 LCALL 0x4db; _showNub=0x4db
00000553 ffef                 RET
00000554                      _A1:
00000554 defd                 MOVIA 0x2
00000555 ff38                 MOVAR 0x47
00000556 defe                 MOVIA 0x1
00000557 d324                 LCALL 0x4db; _showNub=0x4db
00000558 ffef                 RET
00000559                      _showNubBaiwei2:
00000559 e0fc                 BCR 0x3, 0x6
0000055a ff30                 MOVAR 0x4f
0000055b def8                 MOVIA 0x7
0000055c fbb0                 SUBAR 0x4f, 0x0
0000055d f3fc                 BTRSC 0x3, 0x0
0000055e c285                 LGOTO 0x57a; number.o:_00229_DS_=0x57a
0000055f defa                 MOVIA 0x5
00000560 ff75                 MOVAR 0xa
00000561 feb0                 MOVR 0x4f, 0x0
00000562 da99                 ADDIA 0x66
00000563 f3fc                 BTRSC 0x3, 0x0
00000564 fa75                 INCR 0xa, 0x1
00000565 ff7d                 MOVAR 0x2
00000566                      number.o:_00235_DS_:
00000566 c292                 LGOTO 0x56d; number.o:_00221_DS_=0x56d
00000567 c290                 LGOTO 0x56f; number.o:_00222_DS_=0x56f
00000568 c28e                 LGOTO 0x571; number.o:_00223_DS_=0x571
00000569 c28c                 LGOTO 0x573; number.o:_00224_DS_=0x573
0000056a c28a                 LGOTO 0x575; number.o:_00225_DS_=0x575
0000056b c288                 LGOTO 0x577; number.o:_00226_DS_=0x577
0000056c c286                 LGOTO 0x579; number.o:_00227_DS_=0x579
0000056d                      number.o:_00221_DS_:
0000056d d2ab                 LCALL 0x554; _A1=0x554
0000056e c285                 LGOTO 0x57a; number.o:_00229_DS_=0x57a
0000056f                      number.o:_00222_DS_:
0000056f d2b0                 LCALL 0x54f; _B1=0x54f
00000570 c285                 LGOTO 0x57a; number.o:_00229_DS_=0x57a
00000571                      number.o:_00223_DS_:
00000571 d2b5                 LCALL 0x54a; _C1=0x54a
00000572 c285                 LGOTO 0x57a; number.o:_00229_DS_=0x57a
00000573                      number.o:_00224_DS_:
00000573 d2ba                 LCALL 0x545; _D1=0x545
00000574 c285                 LGOTO 0x57a; number.o:_00229_DS_=0x57a
00000575                      number.o:_00225_DS_:
00000575 d2bf                 LCALL 0x540; _E1=0x540
00000576 c285                 LGOTO 0x57a; number.o:_00229_DS_=0x57a
00000577                      number.o:_00226_DS_:
00000577 d2c4                 LCALL 0x53b; _F1=0x53b
00000578 c285                 LGOTO 0x57a; number.o:_00229_DS_=0x57a
00000579                      number.o:_00227_DS_:
00000579 d2c9                 LCALL 0x536; _G1=0x536
0000057a                      number.o:_00229_DS_:
0000057a ffef                 RET
0000057b                      _showNubBaiwei:
0000057b e0fc                 BCR 0x3, 0x6
0000057c ff33                 MOVAR 0x4c
0000057d fd32                 CLRR 0x4d
0000057e                      number.o:_00200_DS_:
0000057e def8                 MOVIA 0x7
0000057f e0fc                 BCR 0x3, 0x6
00000580 fbb2                 SUBAR 0x4d, 0x0
00000581 f3fc                 BTRSC 0x3, 0x0
00000582 c267                 LGOTO 0x598; number.o:_00202_DS_=0x598
00000583 feb3                 MOVR 0x4c, 0x0
00000584 ff31                 MOVAR 0x4e
00000585 feb2                 MOVR 0x4d, 0x0
00000586 d8ff                 SUBIA 0x0
00000587 f2fc                 BTRSC 0x3, 0x2
00000588 c271                 LGOTO 0x58e; number.o:_00216_DS_=0x58e
00000589                      number.o:_00215_DS_:
00000589 e0fc                 BCR 0x3, 0x6
0000058a ec31                 RRR 0x4e, 0x1
0000058b dafe                 ADDIA 0x1
0000058c f7fc                 BTRSS 0x3, 0x0
0000058d c276                 LGOTO 0x589; number.o:_00215_DS_=0x589
0000058e                      number.o:_00216_DS_:
0000058e e0fc                 BCR 0x3, 0x6
0000058f f7b1                 BTRSS 0x4e, 0x0
00000590 c26b                 LGOTO 0x594; number.o:_00196_DS_=0x594
00000591 feb2                 MOVR 0x4d, 0x0
00000592 d2a6                 LCALL 0x559; _showNubBaiwei2=0x559
00000593 c26a                 LGOTO 0x595; number.o:_00201_DS_=0x595
00000594                      number.o:_00196_DS_:
00000594 d3c4                 LCALL 0x43b; _setInput=0x43b
00000595                      number.o:_00201_DS_:
00000595 e0fc                 BCR 0x3, 0x6
00000596 fa32                 INCR 0x4d, 0x1
00000597 c281                 LGOTO 0x57e; number.o:_00200_DS_=0x57e
00000598                      number.o:_00202_DS_:
00000598 ffef                 RET
00000599                      _showNubGewei2:
00000599 e0fc                 BCR 0x3, 0x6
0000059a ff34                 MOVAR 0x4b
0000059b def8                 MOVIA 0x7
0000059c fbb4                 SUBAR 0x4b, 0x0
0000059d f3fc                 BTRSC 0x3, 0x0
0000059e c245                 LGOTO 0x5ba; number.o:_00184_DS_=0x5ba
0000059f defa                 MOVIA 0x5
000005a0 ff75                 MOVAR 0xa
000005a1 feb4                 MOVR 0x4b, 0x0
000005a2 da59                 ADDIA 0xa6
000005a3 f3fc                 BTRSC 0x3, 0x0
000005a4 fa75                 INCR 0xa, 0x1
000005a5 ff7d                 MOVAR 0x2
000005a6                      number.o:_00190_DS_:
000005a6 c252                 LGOTO 0x5ad; number.o:_00176_DS_=0x5ad
000005a7 c250                 LGOTO 0x5af; number.o:_00177_DS_=0x5af
000005a8 c24e                 LGOTO 0x5b1; number.o:_00178_DS_=0x5b1
000005a9 c24c                 LGOTO 0x5b3; number.o:_00179_DS_=0x5b3
000005aa c24a                 LGOTO 0x5b5; number.o:_00180_DS_=0x5b5
000005ab c248                 LGOTO 0x5b7; number.o:_00181_DS_=0x5b7
000005ac c246                 LGOTO 0x5b9; number.o:_00182_DS_=0x5b9
000005ad                      number.o:_00176_DS_:
000005ad d2f1                 LCALL 0x50e; _A3=0x50e
000005ae c245                 LGOTO 0x5ba; number.o:_00184_DS_=0x5ba
000005af                      number.o:_00177_DS_:
000005af d2f6                 LCALL 0x509; _B3=0x509
000005b0 c245                 LGOTO 0x5ba; number.o:_00184_DS_=0x5ba
000005b1                      number.o:_00178_DS_:
000005b1 d2fb                 LCALL 0x504; _C3=0x504
000005b2 c245                 LGOTO 0x5ba; number.o:_00184_DS_=0x5ba
000005b3                      number.o:_00179_DS_:
000005b3 d300                 LCALL 0x4ff; _D3=0x4ff
000005b4 c245                 LGOTO 0x5ba; number.o:_00184_DS_=0x5ba
000005b5                      number.o:_00180_DS_:
000005b5 d305                 LCALL 0x4fa; _E3=0x4fa
000005b6 c245                 LGOTO 0x5ba; number.o:_00184_DS_=0x5ba
000005b7                      number.o:_00181_DS_:
000005b7 d30a                 LCALL 0x4f5; _F3=0x4f5
000005b8 c245                 LGOTO 0x5ba; number.o:_00184_DS_=0x5ba
000005b9                      number.o:_00182_DS_:
000005b9 d30f                 LCALL 0x4f0; _G3=0x4f0
000005ba                      number.o:_00184_DS_:
000005ba ffef                 RET
000005bb                      _showNubGewei:
000005bb e0fc                 BCR 0x3, 0x6
000005bc ff37                 MOVAR 0x48
000005bd fd36                 CLRR 0x49
000005be                      number.o:_00155_DS_:
000005be def8                 MOVIA 0x7
000005bf e0fc                 BCR 0x3, 0x6
000005c0 fbb6                 SUBAR 0x49, 0x0
000005c1 f3fc                 BTRSC 0x3, 0x0
000005c2 c227                 LGOTO 0x5d8; number.o:_00157_DS_=0x5d8
000005c3 feb7                 MOVR 0x48, 0x0
000005c4 ff35                 MOVAR 0x4a
000005c5 feb6                 MOVR 0x49, 0x0
000005c6 d8ff                 SUBIA 0x0
000005c7 f2fc                 BTRSC 0x3, 0x2
000005c8 c231                 LGOTO 0x5ce; number.o:_00171_DS_=0x5ce
000005c9                      number.o:_00170_DS_:
000005c9 e0fc                 BCR 0x3, 0x6
000005ca ec35                 RRR 0x4a, 0x1
000005cb dafe                 ADDIA 0x1
000005cc f7fc                 BTRSS 0x3, 0x0
000005cd c236                 LGOTO 0x5c9; number.o:_00170_DS_=0x5c9
000005ce                      number.o:_00171_DS_:
000005ce e0fc                 BCR 0x3, 0x6
000005cf f7b5                 BTRSS 0x4a, 0x0
000005d0 c22b                 LGOTO 0x5d4; number.o:_00151_DS_=0x5d4
000005d1 feb6                 MOVR 0x49, 0x0
000005d2 d266                 LCALL 0x599; _showNubGewei2=0x599
000005d3 c22a                 LGOTO 0x5d5; number.o:_00156_DS_=0x5d5
000005d4                      number.o:_00151_DS_:
000005d4 d3c4                 LCALL 0x43b; _setInput=0x43b
000005d5                      number.o:_00156_DS_:
000005d5 e0fc                 BCR 0x3, 0x6
000005d6 fa36                 INCR 0x49, 0x1
000005d7 c241                 LGOTO 0x5be; number.o:_00155_DS_=0x5be
000005d8                      number.o:_00157_DS_:
000005d8 ffef                 RET
000005d9                      _showNubShiwei2:
000005d9 e0fc                 BCR 0x3, 0x6
000005da ff40                 MOVAR 0x3f
000005db def8                 MOVIA 0x7
000005dc fbc0                 SUBAR 0x3f, 0x0
000005dd f3fc                 BTRSC 0x3, 0x0
000005de c205                 LGOTO 0x5fa; number.o:_00139_DS_=0x5fa
000005df defa                 MOVIA 0x5
000005e0 ff75                 MOVAR 0xa
000005e1 fec0                 MOVR 0x3f, 0x0
000005e2 da19                 ADDIA 0xe6
000005e3 f3fc                 BTRSC 0x3, 0x0
000005e4 fa75                 INCR 0xa, 0x1
000005e5 ff7d                 MOVAR 0x2
000005e6                      number.o:_00145_DS_:
000005e6 c212                 LGOTO 0x5ed; number.o:_00131_DS_=0x5ed
000005e7 c210                 LGOTO 0x5ef; number.o:_00132_DS_=0x5ef
000005e8 c20e                 LGOTO 0x5f1; number.o:_00133_DS_=0x5f1
000005e9 c20c                 LGOTO 0x5f3; number.o:_00134_DS_=0x5f3
000005ea c20a                 LGOTO 0x5f5; number.o:_00135_DS_=0x5f5
000005eb c208                 LGOTO 0x5f7; number.o:_00136_DS_=0x5f7
000005ec c206                 LGOTO 0x5f9; number.o:_00137_DS_=0x5f9
000005ed                      number.o:_00131_DS_:
000005ed d2ce                 LCALL 0x531; _A2=0x531
000005ee c205                 LGOTO 0x5fa; number.o:_00139_DS_=0x5fa
000005ef                      number.o:_00132_DS_:
000005ef d2d3                 LCALL 0x52c; _B2=0x52c
000005f0 c205                 LGOTO 0x5fa; number.o:_00139_DS_=0x5fa
000005f1                      number.o:_00133_DS_:
000005f1 d2d8                 LCALL 0x527; _C2=0x527
000005f2 c205                 LGOTO 0x5fa; number.o:_00139_DS_=0x5fa
000005f3                      number.o:_00134_DS_:
000005f3 d2dd                 LCALL 0x522; _D2=0x522
000005f4 c205                 LGOTO 0x5fa; number.o:_00139_DS_=0x5fa
000005f5                      number.o:_00135_DS_:
000005f5 d2e2                 LCALL 0x51d; _E2=0x51d
000005f6 c205                 LGOTO 0x5fa; number.o:_00139_DS_=0x5fa
000005f7                      number.o:_00136_DS_:
000005f7 d2e7                 LCALL 0x518; _F2=0x518
000005f8 c205                 LGOTO 0x5fa; number.o:_00139_DS_=0x5fa
000005f9                      number.o:_00137_DS_:
000005f9 d2ec                 LCALL 0x513; _G2=0x513
000005fa                      number.o:_00139_DS_:
000005fa ffef                 RET
000005fb                      _showNubShiwei:
000005fb e0fc                 BCR 0x3, 0x6
000005fc ff43                 MOVAR 0x3c
000005fd fd42                 CLRR 0x3d
000005fe                      number.o:_00110_DS_:
000005fe def8                 MOVIA 0x7
000005ff e0fc                 BCR 0x3, 0x6
00000600 fbc2                 SUBAR 0x3d, 0x0
00000601 f3fc                 BTRSC 0x3, 0x0
00000602 c1e7                 LGOTO 0x618; number.o:_00112_DS_=0x618
00000603 fec3                 MOVR 0x3c, 0x0
00000604 ff41                 MOVAR 0x3e
00000605 fec2                 MOVR 0x3d, 0x0
00000606 d8ff                 SUBIA 0x0
00000607 f2fc                 BTRSC 0x3, 0x2
00000608 c1f1                 LGOTO 0x60e; number.o:_00126_DS_=0x60e
00000609                      number.o:_00125_DS_:
00000609 e0fc                 BCR 0x3, 0x6
0000060a ec41                 RRR 0x3e, 0x1
0000060b dafe                 ADDIA 0x1
0000060c f7fc                 BTRSS 0x3, 0x0
0000060d c1f6                 LGOTO 0x609; number.o:_00125_DS_=0x609
0000060e                      number.o:_00126_DS_:
0000060e e0fc                 BCR 0x3, 0x6
0000060f f7c1                 BTRSS 0x3e, 0x0
00000610 c1eb                 LGOTO 0x614; number.o:_00106_DS_=0x614
00000611 fec2                 MOVR 0x3d, 0x0
00000612 d226                 LCALL 0x5d9; _showNubShiwei2=0x5d9
00000613 c1ea                 LGOTO 0x615; number.o:_00111_DS_=0x615
00000614                      number.o:_00106_DS_:
00000614 d3c4                 LCALL 0x43b; _setInput=0x43b
00000615                      number.o:_00111_DS_:
00000615 e0fc                 BCR 0x3, 0x6
00000616 fa42                 INCR 0x3d, 0x1
00000617 c201                 LGOTO 0x5fe; number.o:_00110_DS_=0x5fe
00000618                      number.o:_00112_DS_:
00000618 ffef                 RET
00000619                      __divuchar:
00000619 e0fc                 BCR 0x3, 0x6
0000061a ff27                 MOVAR 0x58
0000061b feb8                 MOVR 0x47, 0x0
0000061c ff26                 MOVAR 0x59
0000061d fd25                 CLRR 0x5a
0000061e defe                 MOVIA 0x1
0000061f ff24                 MOVAR 0x5b
00000620 fea6                 MOVR 0x59, 0x0
00000621 f6fc                 BTRSS 0x3, 0x2
00000622 c1da                 LGOTO 0x625; _divuchar.o:_00107_DS_=0x625
00000623 de00                 MOVIA 0xff
00000624 c1be                 LGOTO 0x641; _divuchar.o:_00115_DS_=0x641
00000625                      _divuchar.o:_00107_DS_:
00000625 e0fc                 BCR 0x3, 0x6
00000626 f026                 BTRSC 0x59, 0x7
00000627 c1d2                 LGOTO 0x62d; _divuchar.o:_00112_DS_=0x62d
00000628 e3fc                 BCR 0x3, 0x0
00000629 eb26                 RLR 0x59, 0x1
0000062a e3fc                 BCR 0x3, 0x0
0000062b eb24                 RLR 0x5b, 0x1
0000062c c1da                 LGOTO 0x625; _divuchar.o:_00107_DS_=0x625
0000062d                      _divuchar.o:_00112_DS_:
0000062d e0fc                 BCR 0x3, 0x6
0000062e fea4                 MOVR 0x5b, 0x0
0000062f f2fc                 BTRSC 0x3, 0x2
00000630 c1c0                 LGOTO 0x63f; _divuchar.o:_00114_DS_=0x63f
00000631 fea6                 MOVR 0x59, 0x0
00000632 fba7                 SUBAR 0x58, 0x0
00000633 f7fc                 BTRSS 0x3, 0x0
00000634 c1c6                 LGOTO 0x639; _divuchar.o:_00111_DS_=0x639
00000635 fea4                 MOVR 0x5b, 0x0
00000636 fc25                 ADDAR 0x5a, 0x1
00000637 fea6                 MOVR 0x59, 0x0
00000638 fb27                 SUBAR 0x58, 0x1
00000639                      _divuchar.o:_00111_DS_:
00000639 e3fc                 BCR 0x3, 0x0
0000063a e0fc                 BCR 0x3, 0x6
0000063b ec26                 RRR 0x59, 0x1
0000063c e3fc                 BCR 0x3, 0x0
0000063d ec24                 RRR 0x5b, 0x1
0000063e c1d2                 LGOTO 0x62d; _divuchar.o:_00112_DS_=0x62d
0000063f                      _divuchar.o:_00114_DS_:
0000063f e0fc                 BCR 0x3, 0x6
00000640 fea5                 MOVR 0x5a, 0x0
00000641                      _divuchar.o:_00115_DS_:
00000641 ffef                 RET
00000642                      __divuint:
00000642 e0fc                 BCR 0x3, 0x6
00000643 ff22                 MOVAR 0x5d
00000644 feb8                 MOVR 0x47, 0x0
00000645 ff23                 MOVAR 0x5c
00000646 feb9                 MOVR 0x46, 0x0
00000647 ff20                 MOVAR 0x5f
00000648 feba                 MOVR 0x45, 0x0
00000649 ff21                 MOVAR 0x5e
0000064a fd1f                 CLRR 0x60
0000064b fd1e                 CLRR 0x61
0000064c defe                 MOVIA 0x1
0000064d ff1d                 MOVAR 0x62
0000064e fd1c                 CLRR 0x63
0000064f fea1                 MOVR 0x5e, 0x0
00000650 eea0                 IORAR 0x5f, 0x0
00000651 f6fc                 BTRSS 0x3, 0x2
00000652 c1a9                 LGOTO 0x656; _divuint.o:_00107_DS_=0x656
00000653 de00                 MOVIA 0xff
00000654 ff38                 MOVAR 0x47
00000655 c174                 LGOTO 0x68b; _divuint.o:_00115_DS_=0x68b
00000656                      _divuint.o:_00107_DS_:
00000656 e0fc                 BCR 0x3, 0x6
00000657 f020                 BTRSC 0x5f, 0x7
00000658 c19f                 LGOTO 0x660; _divuint.o:_00112_DS_=0x660
00000659 e3fc                 BCR 0x3, 0x0
0000065a eb21                 RLR 0x5e, 0x1
0000065b eb20                 RLR 0x5f, 0x1
0000065c e3fc                 BCR 0x3, 0x0
0000065d eb1d                 RLR 0x62, 0x1
0000065e eb1c                 RLR 0x63, 0x1
0000065f c1a9                 LGOTO 0x656; _divuint.o:_00107_DS_=0x656
00000660                      _divuint.o:_00112_DS_:
00000660 e0fc                 BCR 0x3, 0x6
00000661 fe9d                 MOVR 0x62, 0x0
00000662 ee9c                 IORAR 0x63, 0x0
00000663 f2fc                 BTRSC 0x3, 0x2
00000664 c178                 LGOTO 0x687; _divuint.o:_00114_DS_=0x687
00000665 fea0                 MOVR 0x5f, 0x0
00000666 fba2                 SUBAR 0x5d, 0x0
00000667 f6fc                 BTRSS 0x3, 0x2
00000668 c194                 LGOTO 0x66b; _divuint.o:_00135_DS_=0x66b
00000669 fea1                 MOVR 0x5e, 0x0
0000066a fba3                 SUBAR 0x5c, 0x0
0000066b                      _divuint.o:_00135_DS_:
0000066b f7fc                 BTRSS 0x3, 0x0
0000066c c180                 LGOTO 0x67f; _divuint.o:_00002_DS_=0x67f
0000066d e0fc                 BCR 0x3, 0x6
0000066e fe9d                 MOVR 0x62, 0x0
0000066f fc1f                 ADDAR 0x60, 0x1
00000670 fe9c                 MOVR 0x63, 0x0
00000671 f3fc                 BTRSC 0x3, 0x0
00000672 fa9c                 INCR 0x63, 0x0
00000673 f2fc                 BTRSC 0x3, 0x2
00000674 c189                 LGOTO 0x676; _divuint.o:_00001_DS_=0x676
00000675 fc1e                 ADDAR 0x61, 0x1
00000676                      _divuint.o:_00001_DS_:
00000676 e0fc                 BCR 0x3, 0x6
00000677 fea1                 MOVR 0x5e, 0x0
00000678 fb23                 SUBAR 0x5c, 0x1
00000679 fea0                 MOVR 0x5f, 0x0
0000067a f7fc                 BTRSS 0x3, 0x0
0000067b faa0                 INCR 0x5f, 0x0
0000067c f2fc                 BTRSC 0x3, 0x2
0000067d c180                 LGOTO 0x67f; _divuint.o:_00002_DS_=0x67f
0000067e fb22                 SUBAR 0x5d, 0x1
0000067f                      _divuint.o:_00002_DS_:
0000067f e3fc                 BCR 0x3, 0x0
00000680 e0fc                 BCR 0x3, 0x6
00000681 ec20                 RRR 0x5f, 0x1
00000682 ec21                 RRR 0x5e, 0x1
00000683 e3fc                 BCR 0x3, 0x0
00000684 ec1c                 RRR 0x63, 0x1
00000685 ec1d                 RRR 0x62, 0x1
00000686 c19f                 LGOTO 0x660; _divuint.o:_00112_DS_=0x660
00000687                      _divuint.o:_00114_DS_:
00000687 e0fc                 BCR 0x3, 0x6
00000688 fe9f                 MOVR 0x60, 0x0
00000689 ff38                 MOVAR 0x47
0000068a fe9e                 MOVR 0x61, 0x0
0000068b                      _divuint.o:_00115_DS_:
0000068b ffef                 RET
0000068c                      __moduchar:
0000068c e0fc                 BCR 0x3, 0x6
0000068d ff1b                 MOVAR 0x64
0000068e feb8                 MOVR 0x47, 0x0
0000068f ff1a                 MOVAR 0x65
00000690 f6fc                 BTRSS 0x3, 0x2
00000691 c16b                 LGOTO 0x694; _moduchar.o:_00119_DS_=0x694
00000692 de00                 MOVIA 0xff
00000693 c150                 LGOTO 0x6af; _moduchar.o:_00115_DS_=0x6af
00000694                      _moduchar.o:_00119_DS_:
00000694 defe                 MOVIA 0x1
00000695 e0fc                 BCR 0x3, 0x6
00000696 ff19                 MOVAR 0x66
00000697                      _moduchar.o:_00107_DS_:
00000697 e0fc                 BCR 0x3, 0x6
00000698 f01a                 BTRSC 0x65, 0x7
00000699 c161                 LGOTO 0x69e; _moduchar.o:_00112_DS_=0x69e
0000069a e3fc                 BCR 0x3, 0x0
0000069b eb1a                 RLR 0x65, 0x1
0000069c fa19                 INCR 0x66, 0x1
0000069d c168                 LGOTO 0x697; _moduchar.o:_00107_DS_=0x697
0000069e                      _moduchar.o:_00112_DS_:
0000069e e0fc                 BCR 0x3, 0x6
0000069f fe99                 MOVR 0x66, 0x0
000006a0 f2fc                 BTRSC 0x3, 0x2
000006a1 c152                 LGOTO 0x6ad; _moduchar.o:_00114_DS_=0x6ad
000006a2 fe9a                 MOVR 0x65, 0x0
000006a3 fb9b                 SUBAR 0x64, 0x0
000006a4 f7fc                 BTRSS 0x3, 0x0
000006a5 c157                 LGOTO 0x6a8; _moduchar.o:_00111_DS_=0x6a8
000006a6 fe9a                 MOVR 0x65, 0x0
000006a7 fb1b                 SUBAR 0x64, 0x1
000006a8                      _moduchar.o:_00111_DS_:
000006a8 e3fc                 BCR 0x3, 0x0
000006a9 e0fc                 BCR 0x3, 0x6
000006aa ec1a                 RRR 0x65, 0x1
000006ab f919                 DECR 0x66, 0x1
000006ac c161                 LGOTO 0x69e; _moduchar.o:_00112_DS_=0x69e
000006ad                      _moduchar.o:_00114_DS_:
000006ad e0fc                 BCR 0x3, 0x6
000006ae fe9b                 MOVR 0x64, 0x0
000006af                      _moduchar.o:_00115_DS_:
000006af ffef                 RET
000006b0                      __moduint:
000006b0 e0fc                 BCR 0x3, 0x6
000006b1 ff17                 MOVAR 0x68
000006b2 feb8                 MOVR 0x47, 0x0
000006b3 ff18                 MOVAR 0x67
000006b4 feb9                 MOVR 0x46, 0x0
000006b5 ff15                 MOVAR 0x6a
000006b6 feba                 MOVR 0x45, 0x0
000006b7 ff16                 MOVAR 0x69
000006b8 ee95                 IORAR 0x6a, 0x0
000006b9 f6fc                 BTRSS 0x3, 0x2
000006ba c141                 LGOTO 0x6be; _moduint.o:_00119_DS_=0x6be
000006bb de00                 MOVIA 0xff
000006bc ff38                 MOVAR 0x47
000006bd c117                 LGOTO 0x6e8; _moduint.o:_00115_DS_=0x6e8
000006be                      _moduint.o:_00119_DS_:
000006be defe                 MOVIA 0x1
000006bf e0fc                 BCR 0x3, 0x6
000006c0 ff14                 MOVAR 0x6b
000006c1                      _moduint.o:_00107_DS_:
000006c1 e0fc                 BCR 0x3, 0x6
000006c2 f015                 BTRSC 0x6a, 0x7
000006c3 c136                 LGOTO 0x6c9; _moduint.o:_00112_DS_=0x6c9
000006c4 e3fc                 BCR 0x3, 0x0
000006c5 eb16                 RLR 0x69, 0x1
000006c6 eb15                 RLR 0x6a, 0x1
000006c7 fa14                 INCR 0x6b, 0x1
000006c8 c13e                 LGOTO 0x6c1; _moduint.o:_00107_DS_=0x6c1
000006c9                      _moduint.o:_00112_DS_:
000006c9 e0fc                 BCR 0x3, 0x6
000006ca fe94                 MOVR 0x6b, 0x0
000006cb f2fc                 BTRSC 0x3, 0x2
000006cc c11b                 LGOTO 0x6e4; _moduint.o:_00114_DS_=0x6e4
000006cd fe95                 MOVR 0x6a, 0x0
000006ce fb97                 SUBAR 0x68, 0x0
000006cf f6fc                 BTRSS 0x3, 0x2
000006d0 c12c                 LGOTO 0x6d3; _moduint.o:_00137_DS_=0x6d3
000006d1 fe96                 MOVR 0x69, 0x0
000006d2 fb98                 SUBAR 0x67, 0x0
000006d3                      _moduint.o:_00137_DS_:
000006d3 f7fc                 BTRSS 0x3, 0x0
000006d4 c121                 LGOTO 0x6de; _moduint.o:_00001_DS_=0x6de
000006d5 e0fc                 BCR 0x3, 0x6
000006d6 fe96                 MOVR 0x69, 0x0
000006d7 fb18                 SUBAR 0x67, 0x1
000006d8 fe95                 MOVR 0x6a, 0x0
000006d9 f7fc                 BTRSS 0x3, 0x0
000006da fa95                 INCR 0x6a, 0x0
000006db f2fc                 BTRSC 0x3, 0x2
000006dc c121                 LGOTO 0x6de; _moduint.o:_00001_DS_=0x6de
000006dd fb17                 SUBAR 0x68, 0x1
000006de                      _moduint.o:_00001_DS_:
000006de e3fc                 BCR 0x3, 0x0
000006df e0fc                 BCR 0x3, 0x6
000006e0 ec15                 RRR 0x6a, 0x1
000006e1 ec16                 RRR 0x69, 0x1
000006e2 f914                 DECR 0x6b, 0x1
000006e3 c136                 LGOTO 0x6c9; _moduint.o:_00112_DS_=0x6c9
000006e4                      _moduint.o:_00114_DS_:
000006e4 e0fc                 BCR 0x3, 0x6
000006e5 fe98                 MOVR 0x67, 0x0
000006e6 ff38                 MOVAR 0x47
000006e7 fe97                 MOVR 0x68, 0x0
000006e8                      _moduint.o:_00115_DS_:
000006e8 ffef                 RET
000006e9                      __gptrget:
000006e9 dbff                 XORIA 0x0
000006ea f2fc                 BTRSC 0x3, 0x2
000006eb c10f                 LGOTO 0x6f0; _gptrget1.o:__dataptrget1=0x6f0
000006ec db7f                 XORIA 0x80
000006ed f2fc                 BTRSC 0x3, 0x2
000006ee c108                 LGOTO 0x6f7; __codeptrget1=0x6f7
000006ef dfff                 RETIA 0x0
000006f0                      _gptrget1.o:__dataptrget1:
000006f0 feb9                 MOVR 0x46, 0x0
000006f1 ff7b                 MOVAR 0x4
000006f2 e0fc                 BCR 0x3, 0x6
000006f3 f039                 BTRSC 0x46, 0x7
000006f4 e4fc                 BSR 0x3, 0x6
000006f5 feff                 MOVR 0x0, 0x0
000006f6 ffef                 RET
000006f7                      __codeptrget1:
000006f7 feb8                 MOVR 0x47, 0x0
000006f8 ffb8                 SFUN 0x7
000006f9 feb9                 MOVR 0x46, 0x0
000006fa fdee                 TABLEA
000006fb ffef                 RET
000006fc                      ___cinit_load__:
