00000000 c7fe                LGOTO    0x1; __nyc_ny8_startup=0x1
00000001                     __nyc_ny8_startup:
00000001 d6f0                LCALL    0x10f; ___cinit_load__=0x10f
00000002 c74e                LGOTO    0xb1; _main=0xb1
00000003                     crt0.o:crt0_end:
00000008 c77a                LGOTO    0x85; _isr=0x85
00000009                     _workCtr:
00000009 fa57                INCR     0x28, ToReg
0000000a de37                MOVIA    0xc8
0000000b fbd7                SUBAR    0x28, ToAcc
0000000c f7fc                BTRSS    STATUS, C
0000000d c7e1                LGOTO    0x1e; main.o:_00135_DS_=0x1e
0000000e fd57                CLRR     0x28
0000000f fed8                MOVR     0x27, ToAcc
00000010 f6fc                BTRSS    STATUS, Z
00000011 c7e1                LGOTO    0x1e; main.o:_00135_DS_=0x1e
00000012 fa60                INCR     0x1f, ToReg
00000013 f2fc                BTRSC    STATUS, Z
00000014 fa5f                INCR     0x20, ToReg
00000015 de8f                MOVIA    0x70
00000016 fbdf                SUBAR    0x20, ToAcc
00000017 f6fc                BTRSS    STATUS, Z
00000018 c7e4                LGOTO    0x1b; main.o:_00191_DS_=0x1b
00000019 de7e                MOVIA    0x81
0000001a fbe0                SUBAR    0x1f, ToAcc
0000001b                     main.o:_00191_DS_:
0000001b f7fc                BTRSS    STATUS, C
0000001c c7e1                LGOTO    0x1e; main.o:_00135_DS_=0x1e
0000001d d707                LCALL    0xf8; _gotoSleep=0xf8
0000001e                     main.o:_00135_DS_:
0000001e fa5e                INCR     0x21, ToReg
0000001f de3c                MOVIA    0xc3
00000020 fbde                SUBAR    0x21, ToAcc
00000021 f3fc                BTRSC    STATUS, C
00000022 fd5e                CLRR     0x21
00000023 dedd                MOVIA    0x22
00000024 fbde                SUBAR    0x21, ToAcc
00000025 f7fc                BTRSS    STATUS, C
00000026 c7d2                LGOTO    0x2d; main.o:_00141_DS_=0x2d
00000027 fed8                MOVR     0x27, ToAcc
00000028 dbfe                XORIA    0x1
00000029 f6fc                BTRSS    STATUS, Z
0000002a c7d2                LGOTO    0x2d; main.o:_00141_DS_=0x2d
0000002b defd                MOVIA    0x2
0000002c ff58                MOVAR    0x27
0000002d                     main.o:_00141_DS_:
0000002d fed8                MOVR     0x27, ToAcc
0000002e f2fc                BTRSC    STATUS, Z
0000002f c7cb                LGOTO    0x34; main.o:_00151_DS_=0x34
00000030 fed8                MOVR     0x27, ToAcc
00000031 dbfd                XORIA    0x2
00000032 f6fc                BTRSS    STATUS, Z
00000033 c7b7                LGOTO    0x48; main.o:_00152_DS_=0x48
00000034                     main.o:_00151_DS_:
00000034 fede                MOVR     0x21, ToAcc
00000035 dbfe                XORIA    0x1
00000036 f2fc                BTRSC    STATUS, Z
00000037 c7bb                LGOTO    0x44; main.o:_00142_DS_=0x44
00000038 fede                MOVR     0x21, ToAcc
00000039 dbfc                XORIA    0x3
0000003a f2fc                BTRSC    STATUS, Z
0000003b c7bb                LGOTO    0x44; main.o:_00142_DS_=0x44
0000003c fede                MOVR     0x21, ToAcc
0000003d dbc9                XORIA    0x36
0000003e f2fc                BTRSC    STATUS, Z
0000003f c7bb                LGOTO    0x44; main.o:_00142_DS_=0x44
00000040 fede                MOVR     0x21, ToAcc
00000041 dbc7                XORIA    0x38
00000042 f6fc                BTRSS    STATUS, Z
00000043 c7b9                LGOTO    0x46; main.o:_00143_DS_=0x46
00000044                     main.o:_00142_DS_:
00000044 e6f9                BSR      PORTB, PB2
00000045 c7b2                LGOTO    0x4d; main.o:_00155_DS_=0x4d
00000046                     main.o:_00143_DS_:
00000046 e2f9                BCR      PORTB, PB2
00000047 c7b2                LGOTO    0x4d; main.o:_00155_DS_=0x4d
00000048                     main.o:_00152_DS_:
00000048 f3de                BTRSC    0x21, 0x0
00000049 c7b3                LGOTO    0x4c; main.o:_00149_DS_=0x4c
0000004a e6f9                BSR      PORTB, PB2
0000004b c7b2                LGOTO    0x4d; main.o:_00155_DS_=0x4d
0000004c                     main.o:_00149_DS_:
0000004c e2f9                BCR      PORTB, PB2
0000004d                     main.o:_00155_DS_:
0000004d ffef                RET
0000004e                     _keyRead:
0000004e ff67                MOVAR    0x18
0000004f fee7                MOVR     0x18, ToAcc
00000050 f2fc                BTRSC    STATUS, Z
00000051 c796                LGOTO    0x69; main.o:_00211_DS_=0x69
00000052 fd5a                CLRR     0x25
00000053 fa62                INCR     0x1d, ToReg
00000054 f2fc                BTRSC    STATUS, Z
00000055 fa61                INCR     0x1e, ToReg
00000056 defe                MOVIA    0x1
00000057 fbe1                SUBAR    0x1e, ToAcc
00000058 f6fc                BTRSS    STATUS, Z
00000059 c7a3                LGOTO    0x5c; main.o:_00230_DS_=0x5c
0000005a de6f                MOVIA    0x90
0000005b fbe2                SUBAR    0x1d, ToAcc
0000005c                     main.o:_00230_DS_:
0000005c f7fc                BTRSS    STATUS, C
0000005d c77c                LGOTO    0x83; main.o:_00212_DS_=0x83
0000005e de6f                MOVIA    0x90
0000005f ff62                MOVAR    0x1d
00000060 defe                MOVIA    0x1
00000061 ff61                MOVAR    0x1e
00000062 fed9                MOVR     0x26, ToAcc
00000063 f6fc                BTRSS    STATUS, Z
00000064 c77c                LGOTO    0x83; main.o:_00212_DS_=0x83
00000065 defe                MOVIA    0x1
00000066 ff59                MOVAR    0x26
00000067 defd                MOVIA    0x2
00000068 c77b                LGOTO    0x84; main.o:_00213_DS_=0x84
00000069                     main.o:_00211_DS_:
00000069 defe                MOVIA    0x1
0000006a fbe1                SUBAR    0x1e, ToAcc
0000006b f6fc                BTRSS    STATUS, Z
0000006c c790                LGOTO    0x6f; main.o:_00231_DS_=0x6f
0000006d de6f                MOVIA    0x90
0000006e fbe2                SUBAR    0x1d, ToAcc
0000006f                     main.o:_00231_DS_:
0000006f f7fc                BTRSS    STATUS, C
00000070 c78a                LGOTO    0x75; main.o:_00208_DS_=0x75
00000071 fd59                CLRR     0x26
00000072 fd62                CLRR     0x1d
00000073 fd61                CLRR     0x1e
00000074 c77e                LGOTO    0x81; main.o:_00209_DS_=0x81
00000075                     main.o:_00208_DS_:
00000075 deff                MOVIA    0x0
00000076 fbe1                SUBAR    0x1e, ToAcc
00000077 f6fc                BTRSS    STATUS, Z
00000078 c784                LGOTO    0x7b; main.o:_00232_DS_=0x7b
00000079 deef                MOVIA    0x10
0000007a fbe2                SUBAR    0x1d, ToAcc
0000007b                     main.o:_00232_DS_:
0000007b f7fc                BTRSS    STATUS, C
0000007c c77e                LGOTO    0x81; main.o:_00209_DS_=0x81
0000007d fd62                CLRR     0x1d
0000007e fd61                CLRR     0x1e
0000007f defe                MOVIA    0x1
00000080 c77b                LGOTO    0x84; main.o:_00213_DS_=0x84
00000081                     main.o:_00209_DS_:
00000081 fd62                CLRR     0x1d
00000082 fd61                CLRR     0x1e
00000083                     main.o:_00212_DS_:
00000083 deff                MOVIA    0x0
00000084                     main.o:_00213_DS_:
00000084 ffef                RET
00000085                     _isr:
00000085 ff6d                MOVAR    0x12
00000086 eafc                SWAPR    STATUS, ToAcc
00000087 fd7c                CLRR     STATUS
00000088 ff6e                MOVAR    0x11
00000089 fef5                MOVR     PCHBUF, ToAcc
0000008a fd75                CLRR     PCHBUF
0000008b ff6f                MOVAR    0x10
0000008c fefb                MOVR     FSR, ToAcc
0000008d ff65                MOVAR    0x1a
0000008e fee8                MOVR     0x17, ToAcc
0000008f ff64                MOVAR    0x1b
00000090 fee9                MOVR     0x16, ToAcc
00000091 ff63                MOVAR    0x1c
00000092 f7f0                BTRSS    INTF, T0IF
00000093 c761                LGOTO    0x9e; main.o:_00108_DS_=0x9e
00000094 dec5                MOVIA    0x3a
00000095 fc7e                ADDAR    TMR0, ToReg
00000096 fa5c                INCR     0x23, ToReg
00000097 decd                MOVIA    0x32
00000098 fbdc                SUBAR    0x23, ToAcc
00000099 f7fc                BTRSS    STATUS, C
0000009a c761                LGOTO    0x9e; main.o:_00108_DS_=0x9e
0000009b fd5c                CLRR     0x23
0000009c defe                MOVIA    0x1
0000009d ff5d                MOVAR    0x22
0000009e                     main.o:_00108_DS_:
0000009e f770                BTRSS    INTF, PBIF
0000009f c75d                LGOTO    0xa2; main.o:_00110_DS_=0xa2
000000a0 de02                MOVIA    0xfd
000000a1 ff70                MOVAR    INTF
000000a2                     main.o:_00110_DS_:
000000a2 fd70                CLRR     INTF
000000a3 fee3                MOVR     0x1c, ToAcc
000000a4 ff69                MOVAR    0x16
000000a5 fee4                MOVR     0x1b, ToAcc
000000a6 ff68                MOVAR    0x17
000000a7 fee5                MOVR     0x1a, ToAcc
000000a8 ff7b                MOVAR    FSR
000000a9 feef                MOVR     0x10, ToAcc
000000aa ff75                MOVAR    PCHBUF
000000ab fd7c                CLRR     STATUS
000000ac eaee                SWAPR    0x11, ToAcc
000000ad ff7c                MOVAR    STATUS
000000ae ea6d                SWAPR    0x12, ToReg
000000af eaed                SWAPR    0x12, ToAcc
000000b0                     main.o:END_OF_INTERRUPT:
000000b0 ffee                RETIE
000000b1                     _main:
000000b1 ffec                DISI
000000b2 de01                MOVIA    0xfe
000000b3 ff73                MOVAR    BPHCON
000000b4 defe                MOVIA    0x1
000000b5 fff9                IOST     IOSTB
000000b6 fd79                CLRR     PORTB
000000b7 defe                MOVIA    0x1
000000b8 ff71                MOVAR    INTE
000000b9 dec8                MOVIA    0x37
000000ba ff7e                MOVAR    TMR0
000000bb fdff                CLRA
000000bc fffc                T0MD
000000bd de77                MOVIA    0x88
000000be ff77                MOVAR    PCON
000000bf defe                MOVIA    0x1
000000c0 fff0                IOST     PCON1
000000c1 fffb                ENI
000000c2 d707                LCALL    0xf8; _gotoSleep=0xf8
000000c3                     main.o:_00125_DS_:
000000c3 fffd                CLRWDT
000000c4 fedd                MOVR     0x22, ToAcc
000000c5 f2fc                BTRSC    STATUS, Z
000000c6 c73c                LGOTO    0xc3; main.o:_00125_DS_=0xc3
000000c7 fd5d                CLRR     0x22
000000c8 d724                LCALL    0xdb; _keyCtr=0xdb
000000c9 fedb                MOVR     0x24, ToAcc
000000ca f2fc                BTRSC    STATUS, Z
000000cb c731                LGOTO    0xce; main.o:_00121_DS_=0xce
000000cc d7f6                LCALL    0x9; _workCtr=0x9
000000cd c73c                LGOTO    0xc3; main.o:_00125_DS_=0xc3
000000ce                     main.o:_00121_DS_:
000000ce fd79                CLRR     PORTB
000000cf fee2                MOVR     0x1d, ToAcc
000000d0 eee1                IORAR    0x1e, ToAcc
000000d1 f6fc                BTRSS    STATUS, Z
000000d2 c73c                LGOTO    0xc3; main.o:_00125_DS_=0xc3
000000d3 fa5a                INCR     0x25, ToReg
000000d4 de36                MOVIA    0xc9
000000d5 fbda                SUBAR    0x25, ToAcc
000000d6 f7fc                BTRSS    STATUS, C
000000d7 c73c                LGOTO    0xc3; main.o:_00125_DS_=0xc3
000000d8 d707                LCALL    0xf8; _gotoSleep=0xf8
000000d9 c73c                LGOTO    0xc3; main.o:_00125_DS_=0xc3
000000da ffef                RET
000000db                     _keyCtr:
000000db f8f9                COMR     PORTB, ToAcc
000000dc ff66                MOVAR    0x19
000000dd defe                MOVIA    0x1
000000de ef66                ANDAR    0x19, ToReg
000000df fee6                MOVR     0x19, ToAcc
000000e0 d7b1                LCALL    0x4e; _keyRead=0x4e
000000e1 ff66                MOVAR    0x19
000000e2 dbfe                XORIA    0x1
000000e3 f6fc                BTRSS    STATUS, Z
000000e4 c710                LGOTO    0xef; main.o:_00243_DS_=0xef
000000e5 fd5e                CLRR     0x21
000000e6 fd58                CLRR     0x27
000000e7 fedb                MOVR     0x24, ToAcc
000000e8 f6fc                BTRSS    STATUS, Z
000000e9 c712                LGOTO    0xed; main.o:_00238_DS_=0xed
000000ea defe                MOVIA    0x1
000000eb ff5b                MOVAR    0x24
000000ec c708                LGOTO    0xf7; main.o:_00245_DS_=0xf7
000000ed                     main.o:_00238_DS_:
000000ed fd5b                CLRR     0x24
000000ee c708                LGOTO    0xf7; main.o:_00245_DS_=0xf7
000000ef                     main.o:_00243_DS_:
000000ef fee6                MOVR     0x19, ToAcc
000000f0 dbfd                XORIA    0x2
000000f1 f6fc                BTRSS    STATUS, Z
000000f2 c708                LGOTO    0xf7; main.o:_00245_DS_=0xf7
000000f3 fd5e                CLRR     0x21
000000f4 defe                MOVIA    0x1
000000f5 ff5b                MOVAR    0x24
000000f6 ff58                MOVAR    0x27
000000f7                     main.o:_00245_DS_:
000000f7 ffef                RET
000000f8                     _gotoSleep:
000000f8 fd60                CLRR     0x1f
000000f9 fd5f                CLRR     0x20
000000fa fd5a                CLRR     0x25
000000fb defe                MOVIA    0x1
000000fc fff9                IOST     IOSTB
000000fd fd79                CLRR     PORTB
000000fe defe                MOVIA    0x1
000000ff ff76                MOVAR    BWUCON
00000100 defc                MOVIA    0x3
00000101 ff71                MOVAR    INTE
00000102 def7                MOVIA    0x8
00000103 ff77                MOVAR    PCON
00000104 fd70                CLRR     INTF
00000105 fffd                CLRWDT
00000106 fffb                ENI
00000107 fffe                SLEEP
00000108 fd76                CLRR     BWUCON
00000109 defe                MOVIA    0x1
0000010a ff71                MOVAR    INTE
0000010b fd70                CLRR     INTF
0000010c de77                MOVIA    0x88
0000010d ff77                MOVAR    PCON
0000010e ffef                RET
0000010f                     ___cinit_load__:
0000010f fd5e                CLRR     0x21
00000110 fd5d                CLRR     0x22
00000111 fd5c                CLRR     0x23
00000112 fd5b                CLRR     0x24
00000113 fd62                CLRR     0x1d
00000114 fd61                CLRR     0x1e
00000115 fd5a                CLRR     0x25
00000116 fd59                CLRR     0x26
00000117 fd58                CLRR     0x27
00000118 fd57                CLRR     0x28
00000119 fd60                CLRR     0x1f
0000011a fd5f                CLRR     0x20
0000011b ffef                RET

