00000000 c7f6                 LGOTO 0x9; __nyc_ny8_startup=0x9
00000001                      main.o:_00531_DS_:
00000001 f56f                 BTRSS 0x10, 0x5
00000002 c7fe                 LGOTO 0x1; main.o:_00531_DS_=0x1
00000003 ffef                 RET
00000004                      _pwmStop:
00000004 fdff                 CLRA
00000005 ffbe                 SFUN 0x1
00000006 ffef                 RET
00000008 c7ec                 LGOTO 0x13; main.o:__sdcc_interrupt=0x13
00000009                      __nyc_ny8_startup:
00000009 de5f                 MOVIA 0xa0
0000000a ff7b                 MOVAR 0x4
0000000b                      crt0.o:.l0:
0000000b e4fc                 BSR 0x3, 0x6
0000000c fd7f                 CLRR 0x0
0000000d e0fc                 BCR 0x3, 0x6
0000000e fd7f                 CLRR 0x0
0000000f e97b                 INCRSZ 0x4, 0x1
00000010 c7f4                 LGOTO 0xb; crt0.o:.l0=0xb
00000011 d184                 LCALL 0x67b; ___cinit_load__=0x67b
00000012 c784                 LGOTO 0x7b; _main=0x7b
00000013                      main.o:__sdcc_interrupt:
00000013 ff3d                 MOVAR 0x42
00000014 eafc                 SWAPR 0x3, 0x0
00000015 fd7c                 CLRR 0x3
00000016 ff3e                 MOVAR 0x41
00000017 fef5                 MOVR 0xa, 0x0
00000018 fd75                 CLRR 0xa
00000019 ff3f                 MOVAR 0x40
0000001a fefb                 MOVR 0x4, 0x0
0000001b e0fc                 BCR 0x3, 0x6
0000001c ff12                 MOVAR 0x6d
0000001d feb0                 MOVR 0x4f, 0x0
0000001e ff11                 MOVAR 0x6e
0000001f feb1                 MOVR 0x4e, 0x0
00000020 ff10                 MOVAR 0x6f
00000021 f7f0                 BTRSS 0xf, 0x0
00000022 c79b                 LGOTO 0x64; main.o:_00126_DS_=0x64
00000023 dec8                 MOVIA 0x37
00000024 ff7e                 MOVAR 0x1
00000025 fa0f                 INCR 0x70, 0x1
00000026 e4fc                 BSR 0x3, 0x6
00000027 fed6                 MOVR 0x29, 0x0
00000028 f2fc                 BTRSC 0x3, 0x2
00000029 c7c5                 LGOTO 0x3a; main.o:_00106_DS_=0x3a
0000002a fed9                 MOVR 0x26, 0x0
0000002b ff30                 MOVAR 0x4f
0000002c defd                 MOVIA 0x2
0000002d d5f1                 LCALL 0x20e; _setPWMduty=0x20e
0000002e e4fc                 BSR 0x3, 0x6
0000002f fed8                 MOVR 0x27, 0x0
00000030 ff30                 MOVAR 0x4f
00000031 de7f                 MOVIA 0x80
00000032 d606                 LCALL 0x1f9; _setPWMdutyG=0x1f9
00000033 e4fc                 BSR 0x3, 0x6
00000034 fed7                 MOVR 0x28, 0x0
00000035 ff30                 MOVAR 0x4f
00000036 defb                 MOVIA 0x4
00000037 d5f1                 LCALL 0x20e; _setPWMduty=0x20e
00000038 e0fc                 BCR 0x3, 0x6
00000039 fa0c                 INCR 0x73, 0x1
0000003a                      main.o:_00106_DS_:
0000003a e0fc                 BCR 0x3, 0x6
0000003b fa0f                 INCR 0x70, 0x1
0000003c de9b                 MOVIA 0x64
0000003d fb8f                 SUBAR 0x70, 0x0
0000003e f7fc                 BTRSS 0x3, 0x0
0000003f c79b                 LGOTO 0x64; main.o:_00126_DS_=0x64
00000040 fd0f                 CLRR 0x70
00000041 defe                 MOVIA 0x1
00000042 ff0e                 MOVAR 0x71
00000043 e4fc                 BSR 0x3, 0x6
00000044 fede                 MOVR 0x21, 0x0
00000045 f2fc                 BTRSC 0x3, 0x2
00000046 c79b                 LGOTO 0x64; main.o:_00126_DS_=0x64
00000047 e85e                 DECRSZ 0x21, 0x1
00000048 c79b                 LGOTO 0x64; main.o:_00126_DS_=0x64
00000049 fed2                 MOVR 0x2d, 0x0
0000004a f2fc                 BTRSC 0x3, 0x2
0000004b c7a7                 LGOTO 0x58; main.o:_00117_DS_=0x58
0000004c fecd                 MOVR 0x32, 0x0
0000004d f6fc                 BTRSS 0x3, 0x2
0000004e c79d                 LGOTO 0x62; main.o:_00118_DS_=0x62
0000004f fed5                 MOVR 0x2a, 0x0
00000050 f2fc                 BTRSC 0x3, 0x2
00000051 c7ab                 LGOTO 0x54; main.o:_00108_DS_=0x54
00000052 fd55                 CLRR 0x2a
00000053 c79d                 LGOTO 0x62; main.o:_00118_DS_=0x62
00000054                      main.o:_00108_DS_:
00000054 defe                 MOVIA 0x1
00000055 e4fc                 BSR 0x3, 0x6
00000056 ff55                 MOVAR 0x2a
00000057 c79d                 LGOTO 0x62; main.o:_00118_DS_=0x62
00000058                      main.o:_00117_DS_:
00000058 e4fc                 BSR 0x3, 0x6
00000059 fecd                 MOVR 0x32, 0x0
0000005a f6fc                 BTRSS 0x3, 0x2
0000005b c79d                 LGOTO 0x62; main.o:_00118_DS_=0x62
0000005c e0fc                 BCR 0x3, 0x6
0000005d fa0d                 INCR 0x72, 0x1
0000005e defc                 MOVIA 0x3
0000005f fb8d                 SUBAR 0x72, 0x0
00000060 f3fc                 BTRSC 0x3, 0x0
00000061                      ___cinit_size__:
00000061 fd0d                 CLRR 0x72
00000062                      main.o:_00118_DS_:
00000062 e4fc                 BSR 0x3, 0x6
00000063 fd52                 CLRR 0x2d
00000064                      main.o:_00126_DS_:
00000064 f7f0                 BTRSS 0xf, 0x0
00000065 c798                 LGOTO 0x67; main.o:_00128_DS_=0x67
00000066 fd70                 CLRR 0xf
00000067                      main.o:_00128_DS_:
00000067 f770                 BTRSS 0xf, 0x1
00000068 c794                 LGOTO 0x6b; main.o:_00130_DS_=0x6b
00000069 de02                 MOVIA 0xfd
0000006a ff70                 MOVAR 0xf
0000006b                      main.o:_00130_DS_:
0000006b fd70                 CLRR 0xf
0000006c e0fc                 BCR 0x3, 0x6
0000006d fe90                 MOVR 0x6f, 0x0
0000006e ff31                 MOVAR 0x4e
0000006f fe91                 MOVR 0x6e, 0x0
00000070 ff30                 MOVAR 0x4f
00000071 fe92                 MOVR 0x6d, 0x0
00000072 ff7b                 MOVAR 0x4
00000073 febf                 MOVR 0x40, 0x0
00000074 ff75                 MOVAR 0xa
00000075 fd7c                 CLRR 0x3
00000076 eabe                 SWAPR 0x41, 0x0
00000077 ff7c                 MOVAR 0x3
00000078 ea3d                 SWAPR 0x42, 0x1
00000079 eabd                 SWAPR 0x42, 0x0
0000007a                      main.o:END_OF_INTERRUPT:
0000007a ffee                 RETIE
0000007b                      _main:
0000007b ffec                 DISI
0000007c debf                 MOVIA 0x40
0000007d fffa                 IOST 0x5
0000007e deee                 MOVIA 0x11
0000007f fff9                 IOST 0x6
00000080 fd79                 CLRR 0x6
00000081 fd7a                 CLRR 0x5
00000082 de40                 MOVIA 0xbf
00000083 fff6                 IOST 0x9
00000084 de00                 MOVIA 0xff
00000085 ff73                 MOVAR 0xc
00000086 defe                 MOVIA 0x1
00000087 ff71                 MOVAR 0xe
00000088 fdff                 CLRA
00000089 fff0                 IOST 0xf
0000008a dec8                 MOVIA 0x37
0000008b ff7e                 MOVAR 0x1
0000008c fdff                 CLRA
0000008d fffc                 T0MD
0000008e defe                 MOVIA 0x1
0000008f fff0                 IOST 0xf
00000090 de77                 MOVIA 0x88
00000091 ff77                 MOVAR 0x8
00000092 defe                 MOVIA 0x1
00000093 fff0                 IOST 0xf
00000094 fffb                 ENI
00000095 d492                 LCALL 0x36d; _initAD=0x36d
00000096                      main.o:_00183_DS_:
00000096 fffd                 CLRWDT
00000097 e0fc                 BCR 0x3, 0x6
00000098 fe8e                 MOVR 0x71, 0x0
00000099 f2fc                 BTRSC 0x3, 0x2
0000009a c769                 LGOTO 0x96; main.o:_00183_DS_=0x96
0000009b fd0e                 CLRR 0x71
0000009c d410                 LCALL 0x3ef; _refreshNub=0x3ef
0000009d d458                 LCALL 0x3a7; _workCtr=0x3a7
0000009e c769                 LGOTO 0x96; main.o:_00183_DS_=0x96
0000009f ffef                 RET
000000a0                      _delay:
000000a0 e0fc                 BCR 0x3, 0x6
000000a1 ff42                 MOVAR 0x3d
000000a2 feb0                 MOVR 0x4f, 0x0
000000a3 ff43                 MOVAR 0x3c
000000a4 fd41                 CLRR 0x3e
000000a5 fd40                 CLRR 0x3f
000000a6                      main.o:_00538_DS_:
000000a6 e0fc                 BCR 0x3, 0x6
000000a7 fec2                 MOVR 0x3d, 0x0
000000a8 fbc0                 SUBAR 0x3f, 0x0
000000a9 f6fc                 BTRSS 0x3, 0x2
000000aa c752                 LGOTO 0xad; main.o:_00549_DS_=0xad
000000ab fec3                 MOVR 0x3c, 0x0
000000ac fbc1                 SUBAR 0x3e, 0x0
000000ad                      main.o:_00549_DS_:
000000ad f3fc                 BTRSC 0x3, 0x0
000000ae c74a                 LGOTO 0xb5; main.o:_00540_DS_=0xb5
000000af e0fc                 BCR 0x3, 0x6
000000b0 fa41                 INCR 0x3e, 0x1
000000b1 f6fc                 BTRSS 0x3, 0x2
000000b2 c74b                 LGOTO 0xb4; main.o:_00001_DS_=0xb4
000000b3 fa40                 INCR 0x3f, 0x1
000000b4                      main.o:_00001_DS_:
000000b4 c759                 LGOTO 0xa6; main.o:_00538_DS_=0xa6
000000b5                      main.o:_00540_DS_:
000000b5 ffef                 RET
000000b6                      _gotoSleep:
000000b6 d39f                 LCALL 0x460; _setInput=0x460
000000b7 e0fc                 BCR 0x3, 0x6
000000b8 fd08                 CLRR 0x77
000000b9 e4fc                 BSR 0x3, 0x6
000000ba fd5d                 CLRR 0x22
000000bb fd5c                 CLRR 0x23
000000bc d7fb                 LCALL 0x4; _pwmStop=0x4
000000bd e0fc                 BCR 0x3, 0x6
000000be fd0b                 CLRR 0x74
000000bf fd0d                 CLRR 0x72
000000c0 debf                 MOVIA 0x40
000000c1 ff6a                 MOVAR 0x15
000000c2 def4                 MOVIA 0xb
000000c3 ff71                 MOVAR 0xe
000000c4 def7                 MOVIA 0x8
000000c5 ff77                 MOVAR 0x8
000000c6 fd70                 CLRR 0xf
000000c7 fffd                 CLRWDT
000000c8 fffb                 ENI
000000c9 fffe                 SLEEP
000000ca fd6a                 CLRR 0x15
000000cb defe                 MOVIA 0x1
000000cc ff71                 MOVAR 0xe
000000cd fd70                 CLRR 0xf
000000ce de57                 MOVIA 0xa8
000000cf ff77                 MOVAR 0x8
000000d0 ffef                 RET
000000d1                      _keyRead:
000000d1 e0fc                 BCR 0x3, 0x6
000000d2 ff44                 MOVAR 0x3b
000000d3 fec4                 MOVR 0x3b, 0x0
000000d4 f2fc                 BTRSC 0x3, 0x2
000000d5 c716                 LGOTO 0xe9; main.o:_00520_DS_=0xe9
000000d6 e4fc                 BSR 0x3, 0x6
000000d7 fa54                 INCR 0x2b, 0x1
000000d8 de37                 MOVIA 0xc8
000000d9 fbd4                 SUBAR 0x2b, 0x0
000000da f7fc                 BTRSS 0x3, 0x0
000000db c700                 LGOTO 0xff; main.o:_00521_DS_=0xff
000000dc de37                 MOVIA 0xc8
000000dd ff54                 MOVAR 0x2b
000000de e0fc                 BCR 0x3, 0x6
000000df fe89                 MOVR 0x76, 0x0
000000e0 f6fc                 BTRSS 0x3, 0x2
000000e1 c700                 LGOTO 0xff; main.o:_00521_DS_=0xff
000000e2 defe                 MOVIA 0x1
000000e3 ff09                 MOVAR 0x76
000000e4 e4fc                 BSR 0x3, 0x6
000000e5 fd5d                 CLRR 0x22
000000e6 fd5c                 CLRR 0x23
000000e7 defd                 MOVIA 0x2
000000e8 c6ff                 LGOTO 0x100; main.o:_00522_DS_=0x100
000000e9                      main.o:_00520_DS_:
000000e9 de37                 MOVIA 0xc8
000000ea e4fc                 BSR 0x3, 0x6
000000eb fbd4                 SUBAR 0x2b, 0x0
000000ec f7fc                 BTRSS 0x3, 0x0
000000ed c70c                 LGOTO 0xf3; main.o:_00517_DS_=0xf3
000000ee fd54                 CLRR 0x2b
000000ef e0fc                 BCR 0x3, 0x6
000000f0 fd09                 CLRR 0x76
000000f1 deff                 MOVIA 0x0
000000f2 c6ff                 LGOTO 0x100; main.o:_00522_DS_=0x100
000000f3                      main.o:_00517_DS_:
000000f3 def7                 MOVIA 0x8
000000f4 e4fc                 BSR 0x3, 0x6
000000f5 fbd4                 SUBAR 0x2b, 0x0
000000f6 f7fc                 BTRSS 0x3, 0x0
000000f7 c702                 LGOTO 0xfd; main.o:_00518_DS_=0xfd
000000f8 fd54                 CLRR 0x2b
000000f9 fd5d                 CLRR 0x22
000000fa fd5c                 CLRR 0x23
000000fb defe                 MOVIA 0x1
000000fc c6ff                 LGOTO 0x100; main.o:_00522_DS_=0x100
000000fd                      main.o:_00518_DS_:
000000fd e4fc                 BSR 0x3, 0x6
000000fe fd54                 CLRR 0x2b
000000ff                      main.o:_00521_DS_:
000000ff deff                 MOVIA 0x0
00000100                      main.o:_00522_DS_:
00000100 ffef                 RET
00000101                      _ledCon:
00000101 defa                 MOVIA 0x5
00000102 ff32                 MOVAR 0x4d
00000103 deff                 MOVIA 0x0
00000104 ff31                 MOVAR 0x4e
00000105 e4fc                 BSR 0x3, 0x6
00000106 fedb                 MOVR 0x24, 0x0
00000107 ff30                 MOVAR 0x4f
00000108 feda                 MOVR 0x25, 0x0
00000109 d1d0                 LCALL 0x62f; __moduint=0x62f
0000010a eeb0                 IORAR 0x4f, 0x0
0000010b f6fc                 BTRSS 0x3, 0x2
0000010c c624                 LGOTO 0x1db; main.o:_00431_DS_=0x1db
0000010d defe                 MOVIA 0x1
0000010e e4fc                 BSR 0x3, 0x6
0000010f fbda                 SUBAR 0x25, 0x0
00000110 f6fc                 BTRSS 0x3, 0x2
00000111 c6eb                 LGOTO 0x114; main.o:_00490_DS_=0x114
00000112 de0b                 MOVIA 0xf4
00000113 fbdb                 SUBAR 0x24, 0x0
00000114                      main.o:_00490_DS_:
00000114 f3fc                 BTRSC 0x3, 0x0
00000115 c6e2                 LGOTO 0x11d; main.o:_00428_DS_=0x11d
00000116 deeb                 MOVIA 0x14
00000117 e4fc                 BSR 0x3, 0x6
00000118 ff58                 MOVAR 0x27
00000119 ff59                 MOVAR 0x26
0000011a de9b                 MOVIA 0x64
0000011b ff57                 MOVAR 0x28
0000011c c624                 LGOTO 0x1db; main.o:_00431_DS_=0x1db
0000011d                      main.o:_00428_DS_:
0000011d defd                 MOVIA 0x2
0000011e e4fc                 BSR 0x3, 0x6
0000011f fbda                 SUBAR 0x25, 0x0
00000120 f6fc                 BTRSS 0x3, 0x2
00000121 c6db                 LGOTO 0x124; main.o:_00491_DS_=0x124
00000122 dea7                 MOVIA 0x58
00000123 fbdb                 SUBAR 0x24, 0x0
00000124                      main.o:_00491_DS_:
00000124 f3fc                 BTRSC 0x3, 0x0
00000125 c6d6                 LGOTO 0x129; main.o:_00425_DS_=0x129
00000126 e4fc                 BSR 0x3, 0x6
00000127 f959                 DECR 0x26, 0x1
00000128 c624                 LGOTO 0x1db; main.o:_00431_DS_=0x1db
00000129                      main.o:_00425_DS_:
00000129 defc                 MOVIA 0x3
0000012a e4fc                 BSR 0x3, 0x6
0000012b fbda                 SUBAR 0x25, 0x0
0000012c f6fc                 BTRSS 0x3, 0x2
0000012d c6cf                 LGOTO 0x130; main.o:_00492_DS_=0x130
0000012e de17                 MOVIA 0xe8
0000012f fbdb                 SUBAR 0x24, 0x0
00000130                      main.o:_00492_DS_:
00000130 f3fc                 BTRSC 0x3, 0x0
00000131 c6c9                 LGOTO 0x136; main.o:_00422_DS_=0x136
00000132 e4fc                 BSR 0x3, 0x6
00000133 fd59                 CLRR 0x26
00000134 fa58                 INCR 0x27, 0x1
00000135 c624                 LGOTO 0x1db; main.o:_00431_DS_=0x1db
00000136                      main.o:_00422_DS_:
00000136 defa                 MOVIA 0x5
00000137 e4fc                 BSR 0x3, 0x6
00000138 fbda                 SUBAR 0x25, 0x0
00000139 f6fc                 BTRSS 0x3, 0x2
0000013a c6c2                 LGOTO 0x13d; main.o:_00493_DS_=0x13d
0000013b de23                 MOVIA 0xdc
0000013c fbdb                 SUBAR 0x24, 0x0
0000013d                      main.o:_00493_DS_:
0000013d f3fc                 BTRSC 0x3, 0x0
0000013e c6bb                 LGOTO 0x144; main.o:_00419_DS_=0x144
0000013f e4fc                 BSR 0x3, 0x6
00000140 fd59                 CLRR 0x26
00000141 de9b                 MOVIA 0x64
00000142 ff58                 MOVAR 0x27
00000143 c624                 LGOTO 0x1db; main.o:_00431_DS_=0x1db
00000144                      main.o:_00419_DS_:
00000144 def8                 MOVIA 0x7
00000145 e4fc                 BSR 0x3, 0x6
00000146 fbda                 SUBAR 0x25, 0x0
00000147 f6fc                 BTRSS 0x3, 0x2
00000148 c6b4                 LGOTO 0x14b; main.o:_00494_DS_=0x14b
00000149 de93                 MOVIA 0x6c
0000014a fbdb                 SUBAR 0x24, 0x0
0000014b                      main.o:_00494_DS_:
0000014b f3fc                 BTRSC 0x3, 0x0
0000014c c6af                 LGOTO 0x150; main.o:_00416_DS_=0x150
0000014d e4fc                 BSR 0x3, 0x6
0000014e f957                 DECR 0x28, 0x1
0000014f c624                 LGOTO 0x1db; main.o:_00431_DS_=0x1db
00000150                      main.o:_00416_DS_:
00000150 def8                 MOVIA 0x7
00000151 e4fc                 BSR 0x3, 0x6
00000152 fbda                 SUBAR 0x25, 0x0
00000153 f6fc                 BTRSS 0x3, 0x2
00000154 c6a8                 LGOTO 0x157; main.o:_00495_DS_=0x157
00000155 de2f                 MOVIA 0xd0
00000156 fbdb                 SUBAR 0x24, 0x0
00000157                      main.o:_00495_DS_:
00000157 f3fc                 BTRSC 0x3, 0x0
00000158 c6a1                 LGOTO 0x15e; main.o:_00413_DS_=0x15e
00000159 deeb                 MOVIA 0x14
0000015a e4fc                 BSR 0x3, 0x6
0000015b ff57                 MOVAR 0x28
0000015c fa59                 INCR 0x26, 0x1
0000015d c624                 LGOTO 0x1db; main.o:_00431_DS_=0x1db
0000015e                      main.o:_00413_DS_:
0000015e def6                 MOVIA 0x9
0000015f e4fc                 BSR 0x3, 0x6
00000160 fbda                 SUBAR 0x25, 0x0
00000161 f6fc                 BTRSS 0x3, 0x2
00000162 c69a                 LGOTO 0x165; main.o:_00496_DS_=0x165
00000163 de3b                 MOVIA 0xc4
00000164 fbdb                 SUBAR 0x24, 0x0
00000165                      main.o:_00496_DS_:
00000165 f3fc                 BTRSC 0x3, 0x0
00000166 c694                 LGOTO 0x16b; main.o:_00410_DS_=0x16b
00000167 deeb                 MOVIA 0x14
00000168 e4fc                 BSR 0x3, 0x6
00000169 ff59                 MOVAR 0x26
0000016a c624                 LGOTO 0x1db; main.o:_00431_DS_=0x1db
0000016b                      main.o:_00410_DS_:
0000016b def5                 MOVIA 0xa
0000016c e4fc                 BSR 0x3, 0x6
0000016d fbda                 SUBAR 0x25, 0x0
0000016e f6fc                 BTRSS 0x3, 0x2
0000016f c68d                 LGOTO 0x172; main.o:_00497_DS_=0x172
00000170 ded7                 MOVIA 0x28
00000171 fbdb                 SUBAR 0x24, 0x0
00000172                      main.o:_00497_DS_:
00000172 f3fc                 BTRSC 0x3, 0x0
00000173 c688                 LGOTO 0x177; main.o:_00407_DS_=0x177
00000174 e4fc                 BSR 0x3, 0x6
00000175 f957                 DECR 0x28, 0x1
00000176 c624                 LGOTO 0x1db; main.o:_00431_DS_=0x1db
00000177                      main.o:_00407_DS_:
00000177 def4                 MOVIA 0xb
00000178 e4fc                 BSR 0x3, 0x6
00000179 fbda                 SUBAR 0x25, 0x0
0000017a f6fc                 BTRSS 0x3, 0x2
0000017b c681                 LGOTO 0x17e; main.o:_00498_DS_=0x17e
0000017c de47                 MOVIA 0xb8
0000017d fbdb                 SUBAR 0x24, 0x0
0000017e                      main.o:_00498_DS_:
0000017e f3fc                 BTRSC 0x3, 0x0
0000017f c67b                 LGOTO 0x184; main.o:_00404_DS_=0x184
00000180 e4fc                 BSR 0x3, 0x6
00000181 fd57                 CLRR 0x28
00000182 fa59                 INCR 0x26, 0x1
00000183 c624                 LGOTO 0x1db; main.o:_00431_DS_=0x1db
00000184                      main.o:_00404_DS_:
00000184 def2                 MOVIA 0xd
00000185 e4fc                 BSR 0x3, 0x6
00000186 fbda                 SUBAR 0x25, 0x0
00000187 f6fc                 BTRSS 0x3, 0x2
00000188 c674                 LGOTO 0x18b; main.o:_00499_DS_=0x18b
00000189 de53                 MOVIA 0xac
0000018a fbdb                 SUBAR 0x24, 0x0
0000018b                      main.o:_00499_DS_:
0000018b f3fc                 BTRSC 0x3, 0x0
0000018c c66e                 LGOTO 0x191; main.o:_00401_DS_=0x191
0000018d de9b                 MOVIA 0x64
0000018e e4fc                 BSR 0x3, 0x6
0000018f ff59                 MOVAR 0x26
00000190 c624                 LGOTO 0x1db; main.o:_00431_DS_=0x1db
00000191                      main.o:_00401_DS_:
00000191 def0                 MOVIA 0xf
00000192 e4fc                 BSR 0x3, 0x6
00000193 fbda                 SUBAR 0x25, 0x0
00000194 f6fc                 BTRSS 0x3, 0x2
00000195 c667                 LGOTO 0x198; main.o:_00500_DS_=0x198
00000196 de5f                 MOVIA 0xa0
00000197 fbdb                 SUBAR 0x24, 0x0
00000198                      main.o:_00500_DS_:
00000198 f3fc                 BTRSC 0x3, 0x0
00000199 c662                 LGOTO 0x19d; main.o:_00398_DS_=0x19d
0000019a e4fc                 BSR 0x3, 0x6
0000019b f958                 DECR 0x27, 0x1
0000019c c624                 LGOTO 0x1db; main.o:_00431_DS_=0x1db
0000019d                      main.o:_00398_DS_:
0000019d deee                 MOVIA 0x11
0000019e e4fc                 BSR 0x3, 0x6
0000019f fbda                 SUBAR 0x25, 0x0
000001a0 f6fc                 BTRSS 0x3, 0x2
000001a1 c65b                 LGOTO 0x1a4; main.o:_00501_DS_=0x1a4
000001a2 de6b                 MOVIA 0x94
000001a3 fbdb                 SUBAR 0x24, 0x0
000001a4                      main.o:_00501_DS_:
000001a4 f3fc                 BTRSC 0x3, 0x0
000001a5 c656                 LGOTO 0x1a9; main.o:_00395_DS_=0x1a9
000001a6 e4fc                 BSR 0x3, 0x6
000001a7 fd58                 CLRR 0x27
000001a8 c624                 LGOTO 0x1db; main.o:_00431_DS_=0x1db
000001a9                      main.o:_00395_DS_:
000001a9 deec                 MOVIA 0x13
000001aa e4fc                 BSR 0x3, 0x6
000001ab fbda                 SUBAR 0x25, 0x0
000001ac f6fc                 BTRSS 0x3, 0x2
000001ad c64f                 LGOTO 0x1b0; main.o:_00502_DS_=0x1b0
000001ae de77                 MOVIA 0x88
000001af fbdb                 SUBAR 0x24, 0x0
000001b0                      main.o:_00502_DS_:
000001b0 f3fc                 BTRSC 0x3, 0x0
000001b1 c64a                 LGOTO 0x1b5; main.o:_00392_DS_=0x1b5
000001b2 e4fc                 BSR 0x3, 0x6
000001b3 fa57                 INCR 0x28, 0x1
000001b4 c624                 LGOTO 0x1db; main.o:_00431_DS_=0x1db
000001b5                      main.o:_00392_DS_:
000001b5 deea                 MOVIA 0x15
000001b6 e4fc                 BSR 0x3, 0x6
000001b7 fbda                 SUBAR 0x25, 0x0
000001b8 f6fc                 BTRSS 0x3, 0x2
000001b9 c643                 LGOTO 0x1bc; main.o:_00503_DS_=0x1bc
000001ba de83                 MOVIA 0x7c
000001bb fbdb                 SUBAR 0x24, 0x0
000001bc                      main.o:_00503_DS_:
000001bc f3fc                 BTRSC 0x3, 0x0
000001bd c63d                 LGOTO 0x1c2; main.o:_00389_DS_=0x1c2
000001be de9b                 MOVIA 0x64
000001bf e4fc                 BSR 0x3, 0x6
000001c0 ff57                 MOVAR 0x28
000001c1 c624                 LGOTO 0x1db; main.o:_00431_DS_=0x1db
000001c2                      main.o:_00389_DS_:
000001c2 dee8                 MOVIA 0x17
000001c3 e4fc                 BSR 0x3, 0x6
000001c4 fbda                 SUBAR 0x25, 0x0
000001c5 f6fc                 BTRSS 0x3, 0x2
000001c6 c636                 LGOTO 0x1c9; main.o:_00504_DS_=0x1c9
000001c7 def3                 MOVIA 0xc
000001c8 fbdb                 SUBAR 0x24, 0x0
000001c9                      main.o:_00504_DS_:
000001c9 f3fc                 BTRSC 0x3, 0x0
000001ca c631                 LGOTO 0x1ce; main.o:_00386_DS_=0x1ce
000001cb e4fc                 BSR 0x3, 0x6
000001cc f959                 DECR 0x26, 0x1
000001cd c624                 LGOTO 0x1db; main.o:_00431_DS_=0x1db
000001ce                      main.o:_00386_DS_:
000001ce dee8                 MOVIA 0x17
000001cf e4fc                 BSR 0x3, 0x6
000001d0 fbda                 SUBAR 0x25, 0x0
000001d1 f6fc                 BTRSS 0x3, 0x2
000001d2 c62a                 LGOTO 0x1d5; main.o:_00505_DS_=0x1d5
000001d3 de8f                 MOVIA 0x70
000001d4 fbdb                 SUBAR 0x24, 0x0
000001d5                      main.o:_00505_DS_:
000001d5 f3fc                 BTRSC 0x3, 0x0
000001d6 c624                 LGOTO 0x1db; main.o:_00431_DS_=0x1db
000001d7 deeb                 MOVIA 0x14
000001d8 e4fc                 BSR 0x3, 0x6
000001d9 ff59                 MOVAR 0x26
000001da fa58                 INCR 0x27, 0x1
000001db                      main.o:_00431_DS_:
000001db e4fc                 BSR 0x3, 0x6
000001dc fa5b                 INCR 0x24, 0x1
000001dd f2fc                 BTRSC 0x3, 0x2
000001de fa5a                 INCR 0x25, 0x1
000001df fedb                 MOVR 0x24, 0x0
000001e0 db8f                 XORIA 0x70
000001e1 f6fc                 BTRSS 0x3, 0x2
000001e2 c616                 LGOTO 0x1e9; main.o:_00434_DS_=0x1e9
000001e3 feda                 MOVR 0x25, 0x0
000001e4 dbe8                 XORIA 0x17
000001e5 f6fc                 BTRSS 0x3, 0x2
000001e6 c616                 LGOTO 0x1e9; main.o:_00434_DS_=0x1e9
000001e7 fd5b                 CLRR 0x24
000001e8 fd5a                 CLRR 0x25
000001e9                      main.o:_00434_DS_:
000001e9 ffef                 RET
000001ea                      _pwmStart:
000001ea ff9e                 SFUNR 0x1
000001eb e0fc                 BCR 0x3, 0x6
000001ec ff45                 MOVAR 0x3a
000001ed f045                 BTRSC 0x3a, 0x7
000001ee c607                 LGOTO 0x1f8; main.o:_00374_DS_=0x1f8
000001ef fd66                 CLRR 0x19
000001f0 deee                 MOVIA 0x11
000001f1 ffbf                 SFUN 0x0
000001f2 def7                 MOVIA 0x8
000001f3 ffbc                 SFUN 0x3
000001f4 fdff                 CLRA
000001f5 ffbd                 SFUN 0x2
000001f6 de7c                 MOVIA 0x83
000001f7 ffbe                 SFUN 0x1
000001f8                      main.o:_00374_DS_:
000001f8 ffef                 RET
000001f9                      _setPWMdutyG:
000001f9 e0fc                 BCR 0x3, 0x6
000001fa ff47                 MOVAR 0x38
000001fb feb0                 MOVR 0x4f, 0x0
000001fc ff46                 MOVAR 0x39
000001fd fe8c                 MOVR 0x73, 0x0
000001fe fbc6                 SUBAR 0x39, 0x0
000001ff f7fc                 BTRSS 0x3, 0x0
00000200 c5fb                 LGOTO 0x204; main.o:_00363_DS_=0x204
00000201 fec7                 MOVR 0x38, 0x0
00000202 ee7a                 IORAR 0x5, 0x1
00000203 c5f7                 LGOTO 0x208; main.o:_00364_DS_=0x208
00000204                      main.o:_00363_DS_:
00000204 e0fc                 BCR 0x3, 0x6
00000205 f8c7                 COMR 0x38, 0x0
00000206 ff47                 MOVAR 0x38
00000207 ef7a                 ANDAR 0x5, 0x1
00000208                      main.o:_00364_DS_:
00000208 e0fc                 BCR 0x3, 0x6
00000209 fe8c                 MOVR 0x73, 0x0
0000020a db9b                 XORIA 0x64
0000020b f2fc                 BTRSC 0x3, 0x2
0000020c fd0c                 CLRR 0x73
0000020d ffef                 RET
0000020e                      _setPWMduty:
0000020e e0fc                 BCR 0x3, 0x6
0000020f ff49                 MOVAR 0x36
00000210 feb0                 MOVR 0x4f, 0x0
00000211 ff48                 MOVAR 0x37
00000212 fe8c                 MOVR 0x73, 0x0
00000213 fbc8                 SUBAR 0x37, 0x0
00000214 f7fc                 BTRSS 0x3, 0x0
00000215 c5e6                 LGOTO 0x219; main.o:_00353_DS_=0x219
00000216 fec9                 MOVR 0x36, 0x0
00000217 ee79                 IORAR 0x6, 0x1
00000218 c5e2                 LGOTO 0x21d; main.o:_00354_DS_=0x21d
00000219                      main.o:_00353_DS_:
00000219 e0fc                 BCR 0x3, 0x6
0000021a f8c9                 COMR 0x36, 0x0
0000021b ff49                 MOVAR 0x36
0000021c ef79                 ANDAR 0x6, 0x1
0000021d                      main.o:_00354_DS_:
0000021d e0fc                 BCR 0x3, 0x6
0000021e fe8c                 MOVR 0x73, 0x0
0000021f db9b                 XORIA 0x64
00000220 f2fc                 BTRSC 0x3, 0x2
00000221 fd0c                 CLRR 0x73
00000222 ffef                 RET
00000223                      _pwmCtr:
00000223 e0fc                 BCR 0x3, 0x6
00000224 fa08                 INCR 0x77, 0x1
00000225 de9b                 MOVIA 0x64
00000226 fb88                 SUBAR 0x77, 0x0
00000227 f3fc                 BTRSC 0x3, 0x0
00000228 fd08                 CLRR 0x77
00000229 fe8d                 MOVR 0x72, 0x0
0000022a dbfe                 XORIA 0x1
0000022b f6fc                 BTRSS 0x3, 0x2
0000022c c5d0                 LGOTO 0x22f; main.o:_00345_DS_=0x22f
0000022d d615                 LCALL 0x1ea; _pwmStart=0x1ea
0000022e c5b6                 LGOTO 0x249; main.o:_00347_DS_=0x249
0000022f                      main.o:_00345_DS_:
0000022f e0fc                 BCR 0x3, 0x6
00000230 fe8d                 MOVR 0x72, 0x0
00000231 dbfd                 XORIA 0x2
00000232 f6fc                 BTRSS 0x3, 0x2
00000233 c5ba                 LGOTO 0x245; main.o:_00342_DS_=0x245
00000234 fe88                 MOVR 0x77, 0x0
00000235 f6fc                 BTRSS 0x3, 0x2
00000236 c5b6                 LGOTO 0x249; main.o:_00347_DS_=0x249
00000237 fe8a                 MOVR 0x75, 0x0
00000238 dbf7                 XORIA 0x8
00000239 f2fc                 BTRSC 0x3, 0x2
0000023a d7fb                 LCALL 0x4; _pwmStop=0x4
0000023b deef                 MOVIA 0x10
0000023c e0fc                 BCR 0x3, 0x6
0000023d fb8a                 SUBAR 0x75, 0x0
0000023e f7fc                 BTRSS 0x3, 0x0
0000023f c5bd                 LGOTO 0x242; main.o:_00336_DS_=0x242
00000240 fd0a                 CLRR 0x75
00000241 d615                 LCALL 0x1ea; _pwmStart=0x1ea
00000242                      main.o:_00336_DS_:
00000242 e0fc                 BCR 0x3, 0x6
00000243 fa0a                 INCR 0x75, 0x1
00000244 c5b6                 LGOTO 0x249; main.o:_00347_DS_=0x249
00000245                      main.o:_00342_DS_:
00000245 e0fc                 BCR 0x3, 0x6
00000246 fe8d                 MOVR 0x72, 0x0
00000247 f2fc                 BTRSC 0x3, 0x2
00000248 d7fb                 LCALL 0x4; _pwmStop=0x4
00000249                      main.o:_00347_DS_:
00000249 ffef                 RET
0000024a                      _F_AIN9_Convert:
0000024a e0fc                 BCR 0x3, 0x6
0000024b ff4d                 MOVAR 0x32
0000024c fd5a                 CLRR 0x25
0000024d fd5c                 CLRR 0x23
0000024e fd5b                 CLRR 0x24
0000024f de66                 MOVIA 0x99
00000250 ff6f                 MOVAR 0x10
00000251 de37                 MOVIA 0xc8
00000252 ff30                 MOVAR 0x4f
00000253 deff                 MOVIA 0x0
00000254 d75f                 LCALL 0xa0; _delay=0xa0
00000255 defe                 MOVIA 0x1
00000256 e0fc                 BCR 0x3, 0x6
00000257 ff4c                 MOVAR 0x33
00000258                      main.o:_00324_DS_:
00000258 e0fc                 BCR 0x3, 0x6
00000259 fecc                 MOVR 0x33, 0x0
0000025a fbcd                 SUBAR 0x32, 0x0
0000025b f7fc                 BTRSS 0x3, 0x0
0000025c c58d                 LGOTO 0x272; main.o:_00326_DS_=0x272
0000025d e4ef                 BSR 0x10, 0x6
0000025e d7fe                 LCALL 0x1; main.o:_00531_DS_=0x1
0000025f def0                 MOVIA 0xf
00000260 efee                 ANDAR 0x11, 0x0
00000261 e0fc                 BCR 0x3, 0x6
00000262 fc5a                 ADDAR 0x25, 0x1
00000263 feed                 MOVR 0x12, 0x0
00000264 ff4b                 MOVAR 0x34
00000265 deff                 MOVIA 0x0
00000266 ff4a                 MOVAR 0x35
00000267 fecb                 MOVR 0x34, 0x0
00000268 fc5c                 ADDAR 0x23, 0x1
00000269 feca                 MOVR 0x35, 0x0
0000026a f3fc                 BTRSC 0x3, 0x0
0000026b faca                 INCR 0x35, 0x0
0000026c f2fc                 BTRSC 0x3, 0x2
0000026d c590                 LGOTO 0x26f; main.o:_00002_DS_=0x26f
0000026e fc5b                 ADDAR 0x24, 0x1
0000026f                      main.o:_00002_DS_:
0000026f e0fc                 BCR 0x3, 0x6
00000270 fa4c                 INCR 0x33, 0x1
00000271 c5a7                 LGOTO 0x258; main.o:_00324_DS_=0x258
00000272                      main.o:_00326_DS_:
00000272 ffef                 RET
00000273                      _F_AIN5_Convert:
00000273 e0fc                 BCR 0x3, 0x6
00000274 ff51                 MOVAR 0x2e
00000275 fd5d                 CLRR 0x22
00000276 fd5f                 CLRR 0x20
00000277 fd5e                 CLRR 0x21
00000278 de64                 MOVIA 0x9b
00000279 ff6f                 MOVAR 0x10
0000027a de37                 MOVIA 0xc8
0000027b ff30                 MOVAR 0x4f
0000027c deff                 MOVIA 0x0
0000027d d75f                 LCALL 0xa0; _delay=0xa0
0000027e defe                 MOVIA 0x1
0000027f e0fc                 BCR 0x3, 0x6
00000280 ff50                 MOVAR 0x2f
00000281                      main.o:_00315_DS_:
00000281 e0fc                 BCR 0x3, 0x6
00000282 fed0                 MOVR 0x2f, 0x0
00000283 fbd1                 SUBAR 0x2e, 0x0
00000284 f7fc                 BTRSS 0x3, 0x0
00000285 c564                 LGOTO 0x29b; main.o:_00317_DS_=0x29b
00000286 e4ef                 BSR 0x10, 0x6
00000287 d7fe                 LCALL 0x1; main.o:_00531_DS_=0x1
00000288 def0                 MOVIA 0xf
00000289 efee                 ANDAR 0x11, 0x0
0000028a e0fc                 BCR 0x3, 0x6
0000028b fc5d                 ADDAR 0x22, 0x1
0000028c feed                 MOVR 0x12, 0x0
0000028d ff4f                 MOVAR 0x30
0000028e deff                 MOVIA 0x0
0000028f ff4e                 MOVAR 0x31
00000290 fecf                 MOVR 0x30, 0x0
00000291 fc5f                 ADDAR 0x20, 0x1
00000292 fece                 MOVR 0x31, 0x0
00000293 f3fc                 BTRSC 0x3, 0x0
00000294 face                 INCR 0x31, 0x0
00000295 f2fc                 BTRSC 0x3, 0x2
00000296 c567                 LGOTO 0x298; main.o:_00003_DS_=0x298
00000297 fc5e                 ADDAR 0x21, 0x1
00000298                      main.o:_00003_DS_:
00000298 e0fc                 BCR 0x3, 0x6
00000299 fa50                 INCR 0x2f, 0x1
0000029a c57e                 LGOTO 0x281; main.o:_00315_DS_=0x281
0000029b                      main.o:_00317_DS_:
0000029b ffef                 RET
0000029c                      _checkBatAD:
0000029c e0fc                 BCR 0x3, 0x6
0000029d fe8d                 MOVR 0x72, 0x0
0000029e dbfd                 XORIA 0x2
0000029f f6fc                 BTRSS 0x3, 0x2
000002a0 c55a                 LGOTO 0x2a5; main.o:_00284_DS_=0x2a5
000002a1 def7                 MOVIA 0x8
000002a2 fb8a                 SUBAR 0x75, 0x0
000002a3 f7fc                 BTRSS 0x3, 0x0
000002a4 c4d1                 LGOTO 0x32e; main.o:_00292_DS_=0x32e
000002a5                      main.o:_00284_DS_:
000002a5 e0fc                 BCR 0x3, 0x6
000002a6 fd5d                 CLRR 0x22
000002a7 fd5f                 CLRR 0x20
000002a8 fd5e                 CLRR 0x21
000002a9 def7                 MOVIA 0x8
000002aa d58c                 LCALL 0x273; _F_AIN5_Convert=0x273
000002ab e0fc                 BCR 0x3, 0x6
000002ac eade                 SWAPR 0x21, 0x0
000002ad dd0f                 ANDIA 0xf0
000002ae ff5e                 MOVAR 0x21
000002af eadf                 SWAPR 0x20, 0x0
000002b0 ff5f                 MOVAR 0x20
000002b1 ddf0                 ANDIA 0xf
000002b2 ee5e                 IORAR 0x21, 0x1
000002b3 ed5f                 XORAR 0x20, 0x1
000002b4 de0f                 MOVIA 0xf0
000002b5 ef5d                 ANDAR 0x22, 0x1
000002b6 fedd                 MOVR 0x22, 0x0
000002b7 ff54                 MOVAR 0x2b
000002b8 fd53                 CLRR 0x2c
000002b9 deff                 MOVIA 0x0
000002ba ff52                 MOVAR 0x2d
000002bb fed4                 MOVR 0x2b, 0x0
000002bc fc5f                 ADDAR 0x20, 0x1
000002bd fed2                 MOVR 0x2d, 0x0
000002be f3fc                 BTRSC 0x3, 0x0
000002bf fad2                 INCR 0x2d, 0x0
000002c0 f2fc                 BTRSC 0x3, 0x2
000002c1 c53c                 LGOTO 0x2c3; main.o:_00004_DS_=0x2c3
000002c2 fc5e                 ADDAR 0x21, 0x1
000002c3                      main.o:_00004_DS_:
000002c3 e3fc                 BCR 0x3, 0x0
000002c4 e0fc                 BCR 0x3, 0x6
000002c5 ec5e                 RRR 0x21, 0x1
000002c6 ec5f                 RRR 0x20, 0x1
000002c7 e3fc                 BCR 0x3, 0x0
000002c8 ec5e                 RRR 0x21, 0x1
000002c9 ec5f                 RRR 0x20, 0x1
000002ca e3fc                 BCR 0x3, 0x0
000002cb ec5e                 RRR 0x21, 0x1
000002cc ec5f                 RRR 0x20, 0x1
000002cd defb                 MOVIA 0x4
000002ce fbde                 SUBAR 0x21, 0x0
000002cf f6fc                 BTRSS 0x3, 0x2
000002d0 c52c                 LGOTO 0x2d3; main.o:_00307_DS_=0x2d3
000002d1 debd                 MOVIA 0x42
000002d2 fbdf                 SUBAR 0x20, 0x0
000002d3                      main.o:_00307_DS_:
000002d3 f3fc                 BTRSC 0x3, 0x0
000002d4 c519                 LGOTO 0x2e6; main.o:_00290_DS_=0x2e6
000002d5 e0fc                 BCR 0x3, 0x6
000002d6 fd01                 CLRR 0x7e
000002d7 fd00                 CLRR 0x7f
000002d8 e4fc                 BSR 0x3, 0x6
000002d9 fd5f                 CLRR 0x20
000002da defe                 MOVIA 0x1
000002db ff4d                 MOVAR 0x32
000002dc e0fc                 BCR 0x3, 0x6
000002dd fd0d                 CLRR 0x72
000002de e4fc                 BSR 0x3, 0x6
000002df fd56                 CLRR 0x29
000002e0 de06                 MOVIA 0xf9
000002e1 ef79                 ANDAR 0x6, 0x1
000002e2 e07a                 BCR 0x5, 0x7
000002e3 fd5b                 CLRR 0x24
000002e4 fd5a                 CLRR 0x25
000002e5 c4d1                 LGOTO 0x32e; main.o:_00292_DS_=0x32e
000002e6                      main.o:_00290_DS_:
000002e6 defa                 MOVIA 0x5
000002e7 e0fc                 BCR 0x3, 0x6
000002e8 fbde                 SUBAR 0x21, 0x0
000002e9 f6fc                 BTRSS 0x3, 0x2
000002ea c512                 LGOTO 0x2ed; main.o:_00308_DS_=0x2ed
000002eb de90                 MOVIA 0x6f
000002ec fbdf                 SUBAR 0x20, 0x0
000002ed                      main.o:_00308_DS_:
000002ed f7fc                 BTRSS 0x3, 0x0
000002ee c508                 LGOTO 0x2f7; main.o:_00287_DS_=0x2f7
000002ef defe                 MOVIA 0x1
000002f0 e0fc                 BCR 0x3, 0x6
000002f1 ff01                 MOVAR 0x7e
000002f2 fd00                 CLRR 0x7f
000002f3 e4fc                 BSR 0x3, 0x6
000002f4 fd5f                 CLRR 0x20
000002f5 fd4d                 CLRR 0x32
000002f6 c4d1                 LGOTO 0x32e; main.o:_00292_DS_=0x32e
000002f7                      main.o:_00287_DS_:
000002f7 e0fc                 BCR 0x3, 0x6
000002f8 fd01                 CLRR 0x7e
000002f9 de41                 MOVIA 0xbe
000002fa fcdf                 ADDAR 0x20, 0x0
000002fb ff54                 MOVAR 0x2b
000002fc de04                 MOVIA 0xfb
000002fd ff53                 MOVAR 0x2c
000002fe fede                 MOVR 0x21, 0x0
000002ff f3fc                 BTRSC 0x3, 0x0
00000300 fade                 INCR 0x21, 0x0
00000301 f2fc                 BTRSC 0x3, 0x2
00000302 c4fb                 LGOTO 0x304; main.o:_00005_DS_=0x304
00000303 fc53                 ADDAR 0x2c, 0x1
00000304                      main.o:_00005_DS_:
00000304 defc                 MOVIA 0x3
00000305 ff32                 MOVAR 0x4d
00000306 deff                 MOVIA 0x0
00000307 ff31                 MOVAR 0x4e
00000308 e0fc                 BCR 0x3, 0x6
00000309 fed4                 MOVR 0x2b, 0x0
0000030a ff30                 MOVAR 0x4f
0000030b fed3                 MOVR 0x2c, 0x0
0000030c d21a                 LCALL 0x5e5; __divuint=0x5e5
0000030d e4fc                 BSR 0x3, 0x6
0000030e ff4e                 MOVAR 0x31
0000030f feb0                 MOVR 0x4f, 0x0
00000310 ff4f                 MOVAR 0x30
00000311 def5                 MOVIA 0xa
00000312 ff32                 MOVAR 0x4d
00000313 deff                 MOVIA 0x0
00000314 ff31                 MOVAR 0x4e
00000315 fecf                 MOVR 0x30, 0x0
00000316 ff30                 MOVAR 0x4f
00000317 fece                 MOVR 0x31, 0x0
00000318 d21a                 LCALL 0x5e5; __divuint=0x5e5
00000319 e0fc                 BCR 0x3, 0x6
0000031a ff53                 MOVAR 0x2c
0000031b feb0                 MOVR 0x4f, 0x0
0000031c ff54                 MOVAR 0x2b
0000031d ff00                 MOVAR 0x7f
0000031e def5                 MOVIA 0xa
0000031f ff32                 MOVAR 0x4d
00000320 deff                 MOVIA 0x0
00000321 ff31                 MOVAR 0x4e
00000322 e4fc                 BSR 0x3, 0x6
00000323 fecf                 MOVR 0x30, 0x0
00000324 ff30                 MOVAR 0x4f
00000325 fece                 MOVR 0x31, 0x0
00000326 d1d0                 LCALL 0x62f; __moduint=0x62f
00000327 e0fc                 BCR 0x3, 0x6
00000328 ff53                 MOVAR 0x2c
00000329 feb0                 MOVR 0x4f, 0x0
0000032a ff54                 MOVAR 0x2b
0000032b e4fc                 BSR 0x3, 0x6
0000032c ff5f                 MOVAR 0x20
0000032d fd4d                 CLRR 0x32
0000032e                      main.o:_00292_DS_:
0000032e ffef                 RET
0000032f                      _checkLowWater:
0000032f e0fc                 BCR 0x3, 0x6
00000330 fd5a                 CLRR 0x25
00000331 fd5c                 CLRR 0x23
00000332 fd5b                 CLRR 0x24
00000333 def7                 MOVIA 0x8
00000334 d5b5                 LCALL 0x24a; _F_AIN9_Convert=0x24a
00000335 e0fc                 BCR 0x3, 0x6
00000336 eadb                 SWAPR 0x24, 0x0
00000337 dd0f                 ANDIA 0xf0
00000338 ff5b                 MOVAR 0x24
00000339 eadc                 SWAPR 0x23, 0x0
0000033a ff5c                 MOVAR 0x23
0000033b ddf0                 ANDIA 0xf
0000033c ee5b                 IORAR 0x24, 0x1
0000033d ed5c                 XORAR 0x23, 0x1
0000033e de0f                 MOVIA 0xf0
0000033f ef5a                 ANDAR 0x25, 0x1
00000340 feda                 MOVR 0x25, 0x0
00000341 ff56                 MOVAR 0x29
00000342 deff                 MOVIA 0x0
00000343 ff55                 MOVAR 0x2a
00000344 fed6                 MOVR 0x29, 0x0
00000345 fc5c                 ADDAR 0x23, 0x1
00000346 fed5                 MOVR 0x2a, 0x0
00000347 f3fc                 BTRSC 0x3, 0x0
00000348 fad5                 INCR 0x2a, 0x0
00000349 f2fc                 BTRSC 0x3, 0x2
0000034a c4b3                 LGOTO 0x34c; main.o:_00006_DS_=0x34c
0000034b fc5b                 ADDAR 0x24, 0x1
0000034c                      main.o:_00006_DS_:
0000034c e0fc                 BCR 0x3, 0x6
0000034d eadc                 SWAPR 0x23, 0x0
0000034e ddf0                 ANDIA 0xf
0000034f ff5c                 MOVAR 0x23
00000350 eadb                 SWAPR 0x24, 0x0
00000351 ff5b                 MOVAR 0x24
00000352 dd0f                 ANDIA 0xf0
00000353 ee5c                 IORAR 0x23, 0x1
00000354 ed5b                 XORAR 0x24, 0x1
00000355 fedb                 MOVR 0x24, 0x0
00000356 fbde                 SUBAR 0x21, 0x0
00000357 f6fc                 BTRSS 0x3, 0x2
00000358 c4a4                 LGOTO 0x35b; main.o:_00278_DS_=0x35b
00000359 fedc                 MOVR 0x23, 0x0
0000035a fbdf                 SUBAR 0x20, 0x0
0000035b                      main.o:_00278_DS_:
0000035b f3fc                 BTRSC 0x3, 0x0
0000035c c497                 LGOTO 0x368; main.o:_00268_DS_=0x368
0000035d e4fc                 BSR 0x3, 0x6
0000035e fa51                 INCR 0x2e, 0x1
0000035f def5                 MOVIA 0xa
00000360 fbd1                 SUBAR 0x2e, 0x0
00000361 f7fc                 BTRSS 0x3, 0x0
00000362 c493                 LGOTO 0x36c; main.o:_00270_DS_=0x36c
00000363 e0fc                 BCR 0x3, 0x6
00000364 fd0d                 CLRR 0x72
00000365 e4fc                 BSR 0x3, 0x6
00000366 fd50                 CLRR 0x2f
00000367 c493                 LGOTO 0x36c; main.o:_00270_DS_=0x36c
00000368                      main.o:_00268_DS_:
00000368 e4fc                 BSR 0x3, 0x6
00000369 fd51                 CLRR 0x2e
0000036a defe                 MOVIA 0x1
0000036b ff50                 MOVAR 0x2f
0000036c                      main.o:_00270_DS_:
0000036c ffef                 RET
0000036d                      _initAD:
0000036d de74                 MOVIA 0x8b
0000036e ff6f                 MOVAR 0x10
0000036f defe                 MOVIA 0x1
00000370 ff6c                 MOVAR 0x13
00000371 deef                 MOVIA 0x10
00000372 ff6e                 MOVAR 0x11
00000373 defc                 MOVIA 0x3
00000374 ff6b                 MOVAR 0x14
00000375 e5ef                 BSR 0x10, 0x4
00000376 de9b                 MOVIA 0x64
00000377 ff30                 MOVAR 0x4f
00000378 deff                 MOVIA 0x0
00000379 d75f                 LCALL 0xa0; _delay=0xa0
0000037a ffef                 RET
0000037b                      _keyCon:
0000037b f8fa                 COMR 0x5, 0x0
0000037c e0fc                 BCR 0x3, 0x6
0000037d ff57                 MOVAR 0x28
0000037e debf                 MOVIA 0x40
0000037f ef57                 ANDAR 0x28, 0x1
00000380 fed7                 MOVR 0x28, 0x0
00000381 d72e                 LCALL 0xd1; _keyRead=0xd1
00000382 e4fc                 BSR 0x3, 0x6
00000383 ff53                 MOVAR 0x2c
00000384 dbfe                 XORIA 0x1
00000385 f6fc                 BTRSS 0x3, 0x2
00000386 c46f                 LGOTO 0x390; main.o:_00254_DS_=0x390
00000387 fede                 MOVR 0x21, 0x0
00000388 f2fc                 BTRSC 0x3, 0x2
00000389 c473                 LGOTO 0x38c; main.o:_00245_DS_=0x38c
0000038a defe                 MOVIA 0x1
0000038b ff52                 MOVAR 0x2d
0000038c                      main.o:_00245_DS_:
0000038c de37                 MOVIA 0xc8
0000038d e4fc                 BSR 0x3, 0x6
0000038e ff5e                 MOVAR 0x21
0000038f c459                 LGOTO 0x3a6; main.o:_00256_DS_=0x3a6
00000390                      main.o:_00254_DS_:
00000390 e4fc                 BSR 0x3, 0x6
00000391 fed3                 MOVR 0x2c, 0x0
00000392 dbfd                 XORIA 0x2
00000393 f6fc                 BTRSS 0x3, 0x2
00000394 c459                 LGOTO 0x3a6; main.o:_00256_DS_=0x3a6
00000395 fecd                 MOVR 0x32, 0x0
00000396 f6fc                 BTRSS 0x3, 0x2
00000397 c459                 LGOTO 0x3a6; main.o:_00256_DS_=0x3a6
00000398 fed6                 MOVR 0x29, 0x0
00000399 f2fc                 BTRSC 0x3, 0x2
0000039a c45d                 LGOTO 0x3a2; main.o:_00247_DS_=0x3a2
0000039b fd56                 CLRR 0x29
0000039c de06                 MOVIA 0xf9
0000039d ef79                 ANDAR 0x6, 0x1
0000039e e07a                 BCR 0x5, 0x7
0000039f fd5b                 CLRR 0x24
000003a0 fd5a                 CLRR 0x25
000003a1 c459                 LGOTO 0x3a6; main.o:_00256_DS_=0x3a6
000003a2                      main.o:_00247_DS_:
000003a2 defe                 MOVIA 0x1
000003a3 e4fc                 BSR 0x3, 0x6
000003a4 ff56                 MOVAR 0x29
000003a5 ff55                 MOVAR 0x2a
000003a6                      main.o:_00256_DS_:
000003a6 ffef                 RET
000003a7                      _workCtr:
000003a7 e0fc                 BCR 0x3, 0x6
000003a8 fa07                 INCR 0x78, 0x1
000003a9 defd                 MOVIA 0x2
000003aa fb87                 SUBAR 0x78, 0x0
000003ab f7fc                 BTRSS 0x3, 0x0
000003ac c412                 LGOTO 0x3ed; main.o:_00205_DS_=0x3ed
000003ad fd07                 CLRR 0x78
000003ae d484                 LCALL 0x37b; _keyCon=0x37b
000003af e0fc                 BCR 0x3, 0x6
000003b0 fa06                 INCR 0x79, 0x1
000003b1 de9b                 MOVIA 0x64
000003b2 fb86                 SUBAR 0x79, 0x0
000003b3 f3fc                 BTRSC 0x3, 0x0
000003b4 fd06                 CLRR 0x79
000003b5 decd                 MOVIA 0x32
000003b6 fb86                 SUBAR 0x79, 0x0
000003b7 f3fc                 BTRSC 0x3, 0x0
000003b8 c444                 LGOTO 0x3bb; main.o:_00191_DS_=0x3bb
000003b9 d563                 LCALL 0x29c; _checkBatAD=0x29c
000003ba c443                 LGOTO 0x3bc; main.o:_00192_DS_=0x3bc
000003bb                      main.o:_00191_DS_:
000003bb d4d0                 LCALL 0x32f; _checkLowWater=0x32f
000003bc                      main.o:_00192_DS_:
000003bc e4fc                 BSR 0x3, 0x6
000003bd fed4                 MOVR 0x2b, 0x0
000003be f6fc                 BTRSS 0x3, 0x2
000003bf c427                 LGOTO 0x3d8; main.o:_00198_DS_=0x3d8
000003c0 fed6                 MOVR 0x29, 0x0
000003c1 f6fc                 BTRSS 0x3, 0x2
000003c2 c427                 LGOTO 0x3d8; main.o:_00198_DS_=0x3d8
000003c3 e0fc                 BCR 0x3, 0x6
000003c4 fe8d                 MOVR 0x72, 0x0
000003c5 f6fc                 BTRSS 0x3, 0x2
000003c6 c427                 LGOTO 0x3d8; main.o:_00198_DS_=0x3d8
000003c7 e4fc                 BSR 0x3, 0x6
000003c8 fa5d                 INCR 0x22, 0x1
000003c9 f2fc                 BTRSC 0x3, 0x2
000003ca fa5c                 INCR 0x23, 0x1
000003cb de8a                 MOVIA 0x75
000003cc fbdc                 SUBAR 0x23, 0x0
000003cd f6fc                 BTRSS 0x3, 0x2
000003ce c42e                 LGOTO 0x3d1; main.o:_00238_DS_=0x3d1
000003cf dece                 MOVIA 0x31
000003d0 fbdd                 SUBAR 0x22, 0x0
000003d1                      main.o:_00238_DS_:
000003d1 f7fc                 BTRSS 0x3, 0x0
000003d2 c416                 LGOTO 0x3e9; main.o:_00199_DS_=0x3e9
000003d3 e4fc                 BSR 0x3, 0x6
000003d4 fd5d                 CLRR 0x22
000003d5 fd5c                 CLRR 0x23
000003d6 d749                 LCALL 0xb6; _gotoSleep=0xb6
000003d7 c416                 LGOTO 0x3e9; main.o:_00199_DS_=0x3e9
000003d8                      main.o:_00198_DS_:
000003d8 e4fc                 BSR 0x3, 0x6
000003d9 fa5d                 INCR 0x22, 0x1
000003da f2fc                 BTRSC 0x3, 0x2
000003db fa5c                 INCR 0x23, 0x1
000003dc de8a                 MOVIA 0x75
000003dd fbdc                 SUBAR 0x23, 0x0
000003de f6fc                 BTRSS 0x3, 0x2
000003df c41d                 LGOTO 0x3e2; main.o:_00239_DS_=0x3e2
000003e0 decf                 MOVIA 0x30
000003e1 fbdd                 SUBAR 0x22, 0x0
000003e2                      main.o:_00239_DS_:
000003e2 f7fc                 BTRSS 0x3, 0x0
000003e3 c416                 LGOTO 0x3e9; main.o:_00199_DS_=0x3e9
000003e4 decf                 MOVIA 0x30
000003e5 e4fc                 BSR 0x3, 0x6
000003e6 ff5d                 MOVAR 0x22
000003e7 de8a                 MOVIA 0x75
000003e8 ff5c                 MOVAR 0x23
000003e9                      main.o:_00199_DS_:
000003e9 e4fc                 BSR 0x3, 0x6
000003ea fed5                 MOVR 0x2a, 0x0
000003eb f6fc                 BTRSS 0x3, 0x2
000003ec d6fe                 LCALL 0x101; _ledCon=0x101
000003ed                      main.o:_00205_DS_:
000003ed d5dc                 LCALL 0x223; _pwmCtr=0x223
000003ee ffef                 RET
000003ef                      _refreshNub:
000003ef de8a                 MOVIA 0x75
000003f0 e4fc                 BSR 0x3, 0x6
000003f1 fbdc                 SUBAR 0x23, 0x0
000003f2 f6fc                 BTRSS 0x3, 0x2
000003f3 c409                 LGOTO 0x3f6; main.o:_00174_DS_=0x3f6
000003f4 decf                 MOVIA 0x30
000003f5 fbdd                 SUBAR 0x22, 0x0
000003f6                      main.o:_00174_DS_:
000003f6 f7fc                 BTRSS 0x3, 0x0
000003f7 c405                 LGOTO 0x3fa; main.o:_00136_DS_=0x3fa
000003f8 d39f                 LCALL 0x460; _setInput=0x460
000003f9 c3ac                 LGOTO 0x453; main.o:_00151_DS_=0x453
000003fa                      main.o:_00136_DS_:
000003fa e0fc                 BCR 0x3, 0x6
000003fb fe80                 MOVR 0x7f, 0x0
000003fc ed84                 XORAR 0x7b, 0x0
000003fd f6fc                 BTRSS 0x3, 0x2
000003fe c3f6                 LGOTO 0x409; main.o:_00139_DS_=0x409
000003ff e4fc                 BSR 0x3, 0x6
00000400 fedf                 MOVR 0x20, 0x0
00000401 e0fc                 BCR 0x3, 0x6
00000402 ed83                 XORAR 0x7c, 0x0
00000403 f6fc                 BTRSS 0x3, 0x2
00000404 c3f6                 LGOTO 0x409; main.o:_00139_DS_=0x409
00000405 fe81                 MOVR 0x7e, 0x0
00000406 ed85                 XORAR 0x7a, 0x0
00000407 f2fc                 BTRSC 0x3, 0x2
00000408 c3e6                 LGOTO 0x419; main.o:_00140_DS_=0x419
00000409                      main.o:_00139_DS_:
00000409 e0fc                 BCR 0x3, 0x6
0000040a fa02                 INCR 0x7d, 0x1
0000040b de37                 MOVIA 0xc8
0000040c fb82                 SUBAR 0x7d, 0x0
0000040d f7fc                 BTRSS 0x3, 0x0
0000040e c3e4                 LGOTO 0x41b; main.o:_00141_DS_=0x41b
0000040f fd02                 CLRR 0x7d
00000410 fe81                 MOVR 0x7e, 0x0
00000411 ff05                 MOVAR 0x7a
00000412 fe80                 MOVR 0x7f, 0x0
00000413 ff04                 MOVAR 0x7b
00000414 e4fc                 BSR 0x3, 0x6
00000415 fedf                 MOVR 0x20, 0x0
00000416 e0fc                 BCR 0x3, 0x6
00000417 ff03                 MOVAR 0x7c
00000418 c3e4                 LGOTO 0x41b; main.o:_00141_DS_=0x41b
00000419                      main.o:_00140_DS_:
00000419 e0fc                 BCR 0x3, 0x6
0000041a fd02                 CLRR 0x7d
0000041b                      main.o:_00141_DS_:
0000041b e0fc                 BCR 0x3, 0x6
0000041c fe85                 MOVR 0x7a, 0x0
0000041d f6fc                 BTRSS 0x3, 0x2
0000041e d29d                 LCALL 0x562; _showBaiwei=0x562
0000041f e0fc                 BCR 0x3, 0x6
00000420 fe85                 MOVR 0x7a, 0x0
00000421 f2fc                 BTRSC 0x3, 0x2
00000422 c3cd                 LGOTO 0x432; main.o:_00149_DS_=0x432
00000423 fe84                 MOVR 0x7b, 0x0
00000424 da4c                 ADDIA 0xb3
00000425 ff59                 MOVAR 0x26
00000426 deff                 MOVIA 0x0
00000427 f3fc                 BTRSC 0x3, 0x0
00000428 dafe                 ADDIA 0x1
00000429 ff58                 MOVAR 0x27
0000042a fed9                 MOVR 0x26, 0x0
0000042b ff31                 MOVAR 0x4e
0000042c fed8                 MOVR 0x27, 0x0
0000042d ff30                 MOVAR 0x4f
0000042e deff                 MOVIA 0x0
0000042f d197                 LCALL 0x668; __gptrget=0x668
00000430 d238                 LCALL 0x5c7; _showNubShiwei=0x5c7
00000431 c3bb                 LGOTO 0x444; main.o:_00150_DS_=0x444
00000432                      main.o:_00149_DS_:
00000432 e0fc                 BCR 0x3, 0x6
00000433 fe84                 MOVR 0x7b, 0x0
00000434 f2fc                 BTRSC 0x3, 0x2
00000435 c3bb                 LGOTO 0x444; main.o:_00150_DS_=0x444
00000436 fe84                 MOVR 0x7b, 0x0
00000437 da4c                 ADDIA 0xb3
00000438 ff59                 MOVAR 0x26
00000439 deff                 MOVIA 0x0
0000043a f3fc                 BTRSC 0x3, 0x0
0000043b dafe                 ADDIA 0x1
0000043c ff58                 MOVAR 0x27
0000043d fed9                 MOVR 0x26, 0x0
0000043e ff31                 MOVAR 0x4e
0000043f fed8                 MOVR 0x27, 0x0
00000440 ff30                 MOVAR 0x4f
00000441 deff                 MOVIA 0x0
00000442 d197                 LCALL 0x668; __gptrget=0x668
00000443 d238                 LCALL 0x5c7; _showNubShiwei=0x5c7
00000444                      main.o:_00150_DS_:
00000444 e0fc                 BCR 0x3, 0x6
00000445 fe83                 MOVR 0x7c, 0x0
00000446 da4c                 ADDIA 0xb3
00000447 ff59                 MOVAR 0x26
00000448 deff                 MOVIA 0x0
00000449 f3fc                 BTRSC 0x3, 0x0
0000044a dafe                 ADDIA 0x1
0000044b ff58                 MOVAR 0x27
0000044c fed9                 MOVR 0x26, 0x0
0000044d ff31                 MOVAR 0x4e
0000044e fed8                 MOVR 0x27, 0x0
0000044f ff30                 MOVAR 0x4f
00000450 deff                 MOVIA 0x0
00000451 d197                 LCALL 0x668; __gptrget=0x668
00000452 d278                 LCALL 0x587; _showNubGewei=0x587
00000453                      main.o:_00151_DS_:
00000453 ffef                 RET
00000454                      _delayms:
00000454 e0fc                 BCR 0x3, 0x6
00000455 ff21                 MOVAR 0x5e
00000456 fd20                 CLRR 0x5f
00000457                      number.o:_00339_DS_:
00000457 e0fc                 BCR 0x3, 0x6
00000458 fea1                 MOVR 0x5e, 0x0
00000459 fba0                 SUBAR 0x5f, 0x0
0000045a f3fc                 BTRSC 0x3, 0x0
0000045b c3a0                 LGOTO 0x45f; number.o:_00341_DS_=0x45f
0000045c ffff                 NOP
0000045d fa20                 INCR 0x5f, 0x1
0000045e c3a8                 LGOTO 0x457; number.o:_00339_DS_=0x457
0000045f                      number.o:_00341_DS_:
0000045f ffef                 RET
00000460                      _setInput:
00000460 ffea                 IOSTR 0x5
00000461 e0fc                 BCR 0x3, 0x6
00000462 ff22                 MOVAR 0x5d
00000463 dee0                 MOVIA 0x1f
00000464 ee22                 IORAR 0x5d, 0x1
00000465 fea2                 MOVR 0x5d, 0x0
00000466 fffa                 IOST 0x5
00000467 ffe9                 IOSTR 0x6
00000468 ff22                 MOVAR 0x5d
00000469 e522                 BSR 0x5d, 0x5
0000046a fea2                 MOVR 0x5d, 0x0
0000046b fff9                 IOST 0x6
0000046c ffef                 RET
0000046d                      _setOutput:
0000046d e0fc                 BCR 0x3, 0x6
0000046e ff23                 MOVAR 0x5c
0000046f defe                 MOVIA 0x1
00000470 fba3                 SUBAR 0x5c, 0x0
00000471 f7fc                 BTRSS 0x3, 0x0
00000472 c351                 LGOTO 0x4ae; number.o:_00318_DS_=0x4ae
00000473 def8                 MOVIA 0x7
00000474 fba3                 SUBAR 0x5c, 0x0
00000475 f3fc                 BTRSC 0x3, 0x0
00000476 c351                 LGOTO 0x4ae; number.o:_00318_DS_=0x4ae
00000477 f923                 DECR 0x5c, 0x1
00000478 defb                 MOVIA 0x4
00000479 ff75                 MOVAR 0xa
0000047a fea3                 MOVR 0x5c, 0x0
0000047b da80                 ADDIA 0x7f
0000047c f3fc                 BTRSC 0x3, 0x0
0000047d fa75                 INCR 0xa, 0x1
0000047e ff7d                 MOVAR 0x2
0000047f                      number.o:_00328_DS_:
0000047f c357                 LGOTO 0x4a8; number.o:_00316_DS_=0x4a8
00000480 c35e                 LGOTO 0x4a1; number.o:_00315_DS_=0x4a1
00000481 c365                 LGOTO 0x49a; number.o:_00314_DS_=0x49a
00000482 c36c                 LGOTO 0x493; number.o:_00313_DS_=0x493
00000483 c373                 LGOTO 0x48c; number.o:_00312_DS_=0x48c
00000484 c37a                 LGOTO 0x485; number.o:_00311_DS_=0x485
00000485                      number.o:_00311_DS_:
00000485 ffea                 IOSTR 0x5
00000486 e0fc                 BCR 0x3, 0x6
00000487 ff23                 MOVAR 0x5c
00000488 e1a3                 BCR 0x5c, 0x4
00000489 fea3                 MOVR 0x5c, 0x0
0000048a fffa                 IOST 0x5
0000048b c351                 LGOTO 0x4ae; number.o:_00318_DS_=0x4ae
0000048c                      number.o:_00312_DS_:
0000048c ffea                 IOSTR 0x5
0000048d e0fc                 BCR 0x3, 0x6
0000048e ff23                 MOVAR 0x5c
0000048f e223                 BCR 0x5c, 0x3
00000490 fea3                 MOVR 0x5c, 0x0
00000491 fffa                 IOST 0x5
00000492 c351                 LGOTO 0x4ae; number.o:_00318_DS_=0x4ae
00000493                      number.o:_00313_DS_:
00000493 ffea                 IOSTR 0x5
00000494 e0fc                 BCR 0x3, 0x6
00000495 ff23                 MOVAR 0x5c
00000496 e2a3                 BCR 0x5c, 0x2
00000497 fea3                 MOVR 0x5c, 0x0
00000498 fffa                 IOST 0x5
00000499 c351                 LGOTO 0x4ae; number.o:_00318_DS_=0x4ae
0000049a                      number.o:_00314_DS_:
0000049a ffea                 IOSTR 0x5
0000049b e0fc                 BCR 0x3, 0x6
0000049c ff23                 MOVAR 0x5c
0000049d e323                 BCR 0x5c, 0x1
0000049e fea3                 MOVR 0x5c, 0x0
0000049f fffa                 IOST 0x5
000004a0 c351                 LGOTO 0x4ae; number.o:_00318_DS_=0x4ae
000004a1                      number.o:_00315_DS_:
000004a1 ffea                 IOSTR 0x5
000004a2 e0fc                 BCR 0x3, 0x6
000004a3 ff23                 MOVAR 0x5c
000004a4 e3a3                 BCR 0x5c, 0x0
000004a5 fea3                 MOVR 0x5c, 0x0
000004a6 fffa                 IOST 0x5
000004a7 c351                 LGOTO 0x4ae; number.o:_00318_DS_=0x4ae
000004a8                      number.o:_00316_DS_:
000004a8 ffe9                 IOSTR 0x6
000004a9 e0fc                 BCR 0x3, 0x6
000004aa ff23                 MOVAR 0x5c
000004ab e123                 BCR 0x5c, 0x5
000004ac fea3                 MOVR 0x5c, 0x0
000004ad fff9                 IOST 0x6
000004ae                      number.o:_00318_DS_:
000004ae ffef                 RET
000004af                      _setlowOutput:
000004af e0fc                 BCR 0x3, 0x6
000004b0 ff24                 MOVAR 0x5b
000004b1 defe                 MOVIA 0x1
000004b2 fba4                 SUBAR 0x5b, 0x0
000004b3 f7fc                 BTRSS 0x3, 0x0
000004b4 c32d                 LGOTO 0x4d2; number.o:_00296_DS_=0x4d2
000004b5 def8                 MOVIA 0x7
000004b6 fba4                 SUBAR 0x5b, 0x0
000004b7 f3fc                 BTRSC 0x3, 0x0
000004b8 c32d                 LGOTO 0x4d2; number.o:_00296_DS_=0x4d2
000004b9 f924                 DECR 0x5b, 0x1
000004ba defb                 MOVIA 0x4
000004bb ff75                 MOVAR 0xa
000004bc fea4                 MOVR 0x5b, 0x0
000004bd da3e                 ADDIA 0xc1
000004be f3fc                 BTRSC 0x3, 0x0
000004bf fa75                 INCR 0xa, 0x1
000004c0 ff7d                 MOVAR 0x2
000004c1                      number.o:_00306_DS_:
000004c1 c32e                 LGOTO 0x4d1; number.o:_00294_DS_=0x4d1
000004c2 c330                 LGOTO 0x4cf; number.o:_00293_DS_=0x4cf
000004c3 c332                 LGOTO 0x4cd; number.o:_00292_DS_=0x4cd
000004c4 c334                 LGOTO 0x4cb; number.o:_00291_DS_=0x4cb
000004c5 c336                 LGOTO 0x4c9; number.o:_00290_DS_=0x4c9
000004c6 c338                 LGOTO 0x4c7; number.o:_00289_DS_=0x4c7
000004c7                      number.o:_00289_DS_:
000004c7 e1fa                 BCR 0x5, 0x4
000004c8 c32d                 LGOTO 0x4d2; number.o:_00296_DS_=0x4d2
000004c9                      number.o:_00290_DS_:
000004c9 e27a                 BCR 0x5, 0x3
000004ca c32d                 LGOTO 0x4d2; number.o:_00296_DS_=0x4d2
000004cb                      number.o:_00291_DS_:
000004cb e2fa                 BCR 0x5, 0x2
000004cc c32d                 LGOTO 0x4d2; number.o:_00296_DS_=0x4d2
000004cd                      number.o:_00292_DS_:
000004cd e37a                 BCR 0x5, 0x1
000004ce c32d                 LGOTO 0x4d2; number.o:_00296_DS_=0x4d2
000004cf                      number.o:_00293_DS_:
000004cf e3fa                 BCR 0x5, 0x0
000004d0 c32d                 LGOTO 0x4d2; number.o:_00296_DS_=0x4d2
000004d1                      number.o:_00294_DS_:
000004d1 e179                 BCR 0x6, 0x5
000004d2                      number.o:_00296_DS_:
000004d2 ffef                 RET
000004d3                      _setHightOutput:
000004d3 e0fc                 BCR 0x3, 0x6
000004d4 ff25                 MOVAR 0x5a
000004d5 defe                 MOVIA 0x1
000004d6 fba5                 SUBAR 0x5a, 0x0
000004d7 f7fc                 BTRSS 0x3, 0x0
000004d8 c309                 LGOTO 0x4f6; number.o:_00274_DS_=0x4f6
000004d9 def8                 MOVIA 0x7
000004da fba5                 SUBAR 0x5a, 0x0
000004db f3fc                 BTRSC 0x3, 0x0
000004dc c309                 LGOTO 0x4f6; number.o:_00274_DS_=0x4f6
000004dd f925                 DECR 0x5a, 0x1
000004de defb                 MOVIA 0x4
000004df ff75                 MOVAR 0xa
000004e0 fea5                 MOVR 0x5a, 0x0
000004e1 da1a                 ADDIA 0xe5
000004e2 f3fc                 BTRSC 0x3, 0x0
000004e3 fa75                 INCR 0xa, 0x1
000004e4 ff7d                 MOVAR 0x2
000004e5                      number.o:_00284_DS_:
000004e5 c314                 LGOTO 0x4eb; number.o:_00267_DS_=0x4eb
000004e6 c30a                 LGOTO 0x4f5; number.o:_00272_DS_=0x4f5
000004e7 c30c                 LGOTO 0x4f3; number.o:_00271_DS_=0x4f3
000004e8 c30e                 LGOTO 0x4f1; number.o:_00270_DS_=0x4f1
000004e9 c310                 LGOTO 0x4ef; number.o:_00269_DS_=0x4ef
000004ea c312                 LGOTO 0x4ed; number.o:_00268_DS_=0x4ed
000004eb                      number.o:_00267_DS_:
000004eb e579                 BSR 0x6, 0x5
000004ec c309                 LGOTO 0x4f6; number.o:_00274_DS_=0x4f6
000004ed                      number.o:_00268_DS_:
000004ed e5fa                 BSR 0x5, 0x4
000004ee c309                 LGOTO 0x4f6; number.o:_00274_DS_=0x4f6
000004ef                      number.o:_00269_DS_:
000004ef e67a                 BSR 0x5, 0x3
000004f0 c309                 LGOTO 0x4f6; number.o:_00274_DS_=0x4f6
000004f1                      number.o:_00270_DS_:
000004f1 e6fa                 BSR 0x5, 0x2
000004f2 c309                 LGOTO 0x4f6; number.o:_00274_DS_=0x4f6
000004f3                      number.o:_00271_DS_:
000004f3 e77a                 BSR 0x5, 0x1
000004f4 c309                 LGOTO 0x4f6; number.o:_00274_DS_=0x4f6
000004f5                      number.o:_00272_DS_:
000004f5 e7fa                 BSR 0x5, 0x0
000004f6                      number.o:_00274_DS_:
000004f6 ffef                 RET
000004f7                      _showNub:
000004f7 e0fc                 BCR 0x3, 0x6
000004f8 ff27                 MOVAR 0x58
000004f9 feb0                 MOVR 0x4f, 0x0
000004fa ff26                 MOVAR 0x59
000004fb d39f                 LCALL 0x460; _setInput=0x460
000004fc de1f                 MOVIA 0xe0
000004fd ef7a                 ANDAR 0x5, 0x1
000004fe e179                 BCR 0x6, 0x5
000004ff e0fc                 BCR 0x3, 0x6
00000500 fea7                 MOVR 0x58, 0x0
00000501 d392                 LCALL 0x46d; _setOutput=0x46d
00000502 e0fc                 BCR 0x3, 0x6
00000503 fea7                 MOVR 0x58, 0x0
00000504 d32c                 LCALL 0x4d3; _setHightOutput=0x4d3
00000505 e0fc                 BCR 0x3, 0x6
00000506 fea6                 MOVR 0x59, 0x0
00000507 d392                 LCALL 0x46d; _setOutput=0x46d
00000508 e0fc                 BCR 0x3, 0x6
00000509 fea6                 MOVR 0x59, 0x0
0000050a d350                 LCALL 0x4af; _setlowOutput=0x4af
0000050b def5                 MOVIA 0xa
0000050c d3ab                 LCALL 0x454; _delayms=0x454
0000050d fffd                 CLRWDT
0000050e de1f                 MOVIA 0xe0
0000050f ef7a                 ANDAR 0x5, 0x1
00000510 e179                 BCR 0x6, 0x5
00000511 ffef                 RET
00000512                      _G3:
00000512 defe                 MOVIA 0x1
00000513 ff30                 MOVAR 0x4f
00000514 defa                 MOVIA 0x5
00000515 d308                 LCALL 0x4f7; _showNub=0x4f7
00000516 ffef                 RET
00000517                      _F3:
00000517 def9                 MOVIA 0x6
00000518 ff30                 MOVAR 0x4f
00000519 defa                 MOVIA 0x5
0000051a d308                 LCALL 0x4f7; _showNub=0x4f7
0000051b ffef                 RET
0000051c                      _E3:
0000051c defb                 MOVIA 0x4
0000051d ff30                 MOVAR 0x4f
0000051e def9                 MOVIA 0x6
0000051f d308                 LCALL 0x4f7; _showNub=0x4f7
00000520 ffef                 RET
00000521                      _D3:
00000521 def9                 MOVIA 0x6
00000522 ff30                 MOVAR 0x4f
00000523 defb                 MOVIA 0x4
00000524 d308                 LCALL 0x4f7; _showNub=0x4f7
00000525 ffef                 RET
00000526                      _C3:
00000526 defa                 MOVIA 0x5
00000527 ff30                 MOVAR 0x4f
00000528 def9                 MOVIA 0x6
00000529 d308                 LCALL 0x4f7; _showNub=0x4f7
0000052a ffef                 RET
0000052b                      _B3:
0000052b defc                 MOVIA 0x3
0000052c ff30                 MOVAR 0x4f
0000052d def9                 MOVIA 0x6
0000052e d308                 LCALL 0x4f7; _showNub=0x4f7
0000052f ffef                 RET
00000530                      _A3:
00000530 defe                 MOVIA 0x1
00000531 ff30                 MOVAR 0x4f
00000532 def9                 MOVIA 0x6
00000533 d308                 LCALL 0x4f7; _showNub=0x4f7
00000534 ffef                 RET
00000535                      _G2:
00000535 defa                 MOVIA 0x5
00000536 ff30                 MOVAR 0x4f
00000537 defc                 MOVIA 0x3
00000538 d308                 LCALL 0x4f7; _showNub=0x4f7
00000539 ffef                 RET
0000053a                      _F2:
0000053a defb                 MOVIA 0x4
0000053b ff30                 MOVAR 0x4f
0000053c defc                 MOVIA 0x3
0000053d d308                 LCALL 0x4f7; _showNub=0x4f7
0000053e ffef                 RET
0000053f                      _E2:
0000053f def9                 MOVIA 0x6
00000540 ff30                 MOVAR 0x4f
00000541 defc                 MOVIA 0x3
00000542 d308                 LCALL 0x4f7; _showNub=0x4f7
00000543 ffef                 RET
00000544                      _D2:
00000544 defc                 MOVIA 0x3
00000545 ff30                 MOVAR 0x4f
00000546 defb                 MOVIA 0x4
00000547 d308                 LCALL 0x4f7; _showNub=0x4f7
00000548 ffef                 RET
00000549                      _C2:
00000549 defb                 MOVIA 0x4
0000054a ff30                 MOVAR 0x4f
0000054b defa                 MOVIA 0x5
0000054c d308                 LCALL 0x4f7; _showNub=0x4f7
0000054d ffef                 RET
0000054e                      _B2:
0000054e defc                 MOVIA 0x3
0000054f ff30                 MOVAR 0x4f
00000550 defa                 MOVIA 0x5
00000551 d308                 LCALL 0x4f7; _showNub=0x4f7
00000552 ffef                 RET
00000553                      _A2:
00000553 defa                 MOVIA 0x5
00000554 ff30                 MOVAR 0x4f
00000555 defb                 MOVIA 0x4
00000556 d308                 LCALL 0x4f7; _showNub=0x4f7
00000557 ffef                 RET
00000558                      _C1:
00000558 defa                 MOVIA 0x5
00000559 ff30                 MOVAR 0x4f
0000055a defd                 MOVIA 0x2
0000055b d308                 LCALL 0x4f7; _showNub=0x4f7
0000055c ffef                 RET
0000055d                      _B1:
0000055d defd                 MOVIA 0x2
0000055e ff30                 MOVAR 0x4f
0000055f defb                 MOVIA 0x4
00000560 d308                 LCALL 0x4f7; _showNub=0x4f7
00000561 ffef                 RET
00000562                      _showBaiwei:
00000562 d2a2                 LCALL 0x55d; _B1=0x55d
00000563 d2a7                 LCALL 0x558; _C1=0x558
00000564 ffef                 RET
00000565                      _showNubGewei2:
00000565 e0fc                 BCR 0x3, 0x6
00000566 ff28                 MOVAR 0x57
00000567 def8                 MOVIA 0x7
00000568 fba8                 SUBAR 0x57, 0x0
00000569 f3fc                 BTRSC 0x3, 0x0
0000056a c279                 LGOTO 0x586; number.o:_00184_DS_=0x586
0000056b defa                 MOVIA 0x5
0000056c ff75                 MOVAR 0xa
0000056d fea8                 MOVR 0x57, 0x0
0000056e da8d                 ADDIA 0x72
0000056f f3fc                 BTRSC 0x3, 0x0
00000570 fa75                 INCR 0xa, 0x1
00000571 ff7d                 MOVAR 0x2
00000572                      number.o:_00190_DS_:
00000572 c286                 LGOTO 0x579; number.o:_00176_DS_=0x579
00000573 c284                 LGOTO 0x57b; number.o:_00177_DS_=0x57b
00000574 c282                 LGOTO 0x57d; number.o:_00178_DS_=0x57d
00000575 c280                 LGOTO 0x57f; number.o:_00179_DS_=0x57f
00000576 c27e                 LGOTO 0x581; number.o:_00180_DS_=0x581
00000577 c27c                 LGOTO 0x583; number.o:_00181_DS_=0x583
00000578 c27a                 LGOTO 0x585; number.o:_00182_DS_=0x585
00000579                      number.o:_00176_DS_:
00000579 d2cf                 LCALL 0x530; _A3=0x530
0000057a c279                 LGOTO 0x586; number.o:_00184_DS_=0x586
0000057b                      number.o:_00177_DS_:
0000057b d2d4                 LCALL 0x52b; _B3=0x52b
0000057c c279                 LGOTO 0x586; number.o:_00184_DS_=0x586
0000057d                      number.o:_00178_DS_:
0000057d d2d9                 LCALL 0x526; _C3=0x526
0000057e c279                 LGOTO 0x586; number.o:_00184_DS_=0x586
0000057f                      number.o:_00179_DS_:
0000057f d2de                 LCALL 0x521; _D3=0x521
00000580 c279                 LGOTO 0x586; number.o:_00184_DS_=0x586
00000581                      number.o:_00180_DS_:
00000581 d2e3                 LCALL 0x51c; _E3=0x51c
00000582 c279                 LGOTO 0x586; number.o:_00184_DS_=0x586
00000583                      number.o:_00181_DS_:
00000583 d2e8                 LCALL 0x517; _F3=0x517
00000584 c279                 LGOTO 0x586; number.o:_00184_DS_=0x586
00000585                      number.o:_00182_DS_:
00000585 d2ed                 LCALL 0x512; _G3=0x512
00000586                      number.o:_00184_DS_:
00000586 ffef                 RET
00000587                      _showNubGewei:
00000587 e0fc                 BCR 0x3, 0x6
00000588 ff2b                 MOVAR 0x54
00000589 fd2a                 CLRR 0x55
0000058a                      number.o:_00155_DS_:
0000058a def8                 MOVIA 0x7
0000058b e0fc                 BCR 0x3, 0x6
0000058c fbaa                 SUBAR 0x55, 0x0
0000058d f3fc                 BTRSC 0x3, 0x0
0000058e c25b                 LGOTO 0x5a4; number.o:_00157_DS_=0x5a4
0000058f feab                 MOVR 0x54, 0x0
00000590 ff29                 MOVAR 0x56
00000591 feaa                 MOVR 0x55, 0x0
00000592 d8ff                 SUBIA 0x0
00000593 f2fc                 BTRSC 0x3, 0x2
00000594 c265                 LGOTO 0x59a; number.o:_00171_DS_=0x59a
00000595                      number.o:_00170_DS_:
00000595 e0fc                 BCR 0x3, 0x6
00000596 ec29                 RRR 0x56, 0x1
00000597 dafe                 ADDIA 0x1
00000598 f7fc                 BTRSS 0x3, 0x0
00000599 c26a                 LGOTO 0x595; number.o:_00170_DS_=0x595
0000059a                      number.o:_00171_DS_:
0000059a e0fc                 BCR 0x3, 0x6
0000059b f7a9                 BTRSS 0x56, 0x0
0000059c c25f                 LGOTO 0x5a0; number.o:_00151_DS_=0x5a0
0000059d feaa                 MOVR 0x55, 0x0
0000059e d29a                 LCALL 0x565; _showNubGewei2=0x565
0000059f c25e                 LGOTO 0x5a1; number.o:_00156_DS_=0x5a1
000005a0                      number.o:_00151_DS_:
000005a0 d39f                 LCALL 0x460; _setInput=0x460
000005a1                      number.o:_00156_DS_:
000005a1 e0fc                 BCR 0x3, 0x6
000005a2 fa2a                 INCR 0x55, 0x1
000005a3 c275                 LGOTO 0x58a; number.o:_00155_DS_=0x58a
000005a4                      number.o:_00157_DS_:
000005a4 ffef                 RET
000005a5                      _showNubShiwei2:
000005a5 e0fc                 BCR 0x3, 0x6
000005a6 ff2c                 MOVAR 0x53
000005a7 def8                 MOVIA 0x7
000005a8 fbac                 SUBAR 0x53, 0x0
000005a9 f3fc                 BTRSC 0x3, 0x0
000005aa c239                 LGOTO 0x5c6; number.o:_00139_DS_=0x5c6
000005ab defa                 MOVIA 0x5
000005ac ff75                 MOVAR 0xa
000005ad feac                 MOVR 0x53, 0x0
000005ae da4d                 ADDIA 0xb2
000005af f3fc                 BTRSC 0x3, 0x0
000005b0 fa75                 INCR 0xa, 0x1
000005b1 ff7d                 MOVAR 0x2
000005b2                      number.o:_00145_DS_:
000005b2 c246                 LGOTO 0x5b9; number.o:_00131_DS_=0x5b9
000005b3 c244                 LGOTO 0x5bb; number.o:_00132_DS_=0x5bb
000005b4 c242                 LGOTO 0x5bd; number.o:_00133_DS_=0x5bd
000005b5 c240                 LGOTO 0x5bf; number.o:_00134_DS_=0x5bf
000005b6 c23e                 LGOTO 0x5c1; number.o:_00135_DS_=0x5c1
000005b7 c23c                 LGOTO 0x5c3; number.o:_00136_DS_=0x5c3
000005b8 c23a                 LGOTO 0x5c5; number.o:_00137_DS_=0x5c5
000005b9                      number.o:_00131_DS_:
000005b9 d2ac                 LCALL 0x553; _A2=0x553
000005ba c239                 LGOTO 0x5c6; number.o:_00139_DS_=0x5c6
000005bb                      number.o:_00132_DS_:
000005bb d2b1                 LCALL 0x54e; _B2=0x54e
000005bc c239                 LGOTO 0x5c6; number.o:_00139_DS_=0x5c6
000005bd                      number.o:_00133_DS_:
000005bd d2b6                 LCALL 0x549; _C2=0x549
000005be c239                 LGOTO 0x5c6; number.o:_00139_DS_=0x5c6
000005bf                      number.o:_00134_DS_:
000005bf d2bb                 LCALL 0x544; _D2=0x544
000005c0 c239                 LGOTO 0x5c6; number.o:_00139_DS_=0x5c6
000005c1                      number.o:_00135_DS_:
000005c1 d2c0                 LCALL 0x53f; _E2=0x53f
000005c2 c239                 LGOTO 0x5c6; number.o:_00139_DS_=0x5c6
000005c3                      number.o:_00136_DS_:
000005c3 d2c5                 LCALL 0x53a; _F2=0x53a
000005c4 c239                 LGOTO 0x5c6; number.o:_00139_DS_=0x5c6
000005c5                      number.o:_00137_DS_:
000005c5 d2ca                 LCALL 0x535; _G2=0x535
000005c6                      number.o:_00139_DS_:
000005c6 ffef                 RET
000005c7                      _showNubShiwei:
000005c7 e0fc                 BCR 0x3, 0x6
000005c8 ff2f                 MOVAR 0x50
000005c9 fd2e                 CLRR 0x51
000005ca                      number.o:_00110_DS_:
000005ca def8                 MOVIA 0x7
000005cb e0fc                 BCR 0x3, 0x6
000005cc fbae                 SUBAR 0x51, 0x0
000005cd f3fc                 BTRSC 0x3, 0x0
000005ce c21b                 LGOTO 0x5e4; number.o:_00112_DS_=0x5e4
000005cf feaf                 MOVR 0x50, 0x0
000005d0 ff2d                 MOVAR 0x52
000005d1 feae                 MOVR 0x51, 0x0
000005d2 d8ff                 SUBIA 0x0
000005d3 f2fc                 BTRSC 0x3, 0x2
000005d4 c225                 LGOTO 0x5da; number.o:_00126_DS_=0x5da
000005d5                      number.o:_00125_DS_:
000005d5 e0fc                 BCR 0x3, 0x6
000005d6 ec2d                 RRR 0x52, 0x1
000005d7 dafe                 ADDIA 0x1
000005d8 f7fc                 BTRSS 0x3, 0x0
000005d9 c22a                 LGOTO 0x5d5; number.o:_00125_DS_=0x5d5
000005da                      number.o:_00126_DS_:
000005da e0fc                 BCR 0x3, 0x6
000005db f7ad                 BTRSS 0x52, 0x0
000005dc c21f                 LGOTO 0x5e0; number.o:_00106_DS_=0x5e0
000005dd feae                 MOVR 0x51, 0x0
000005de d25a                 LCALL 0x5a5; _showNubShiwei2=0x5a5
000005df c21e                 LGOTO 0x5e1; number.o:_00111_DS_=0x5e1
000005e0                      number.o:_00106_DS_:
000005e0 d39f                 LCALL 0x460; _setInput=0x460
000005e1                      number.o:_00111_DS_:
000005e1 e0fc                 BCR 0x3, 0x6
000005e2 fa2e                 INCR 0x51, 0x1
000005e3 c235                 LGOTO 0x5ca; number.o:_00110_DS_=0x5ca
000005e4                      number.o:_00112_DS_:
000005e4 ffef                 RET
000005e5                      __divuint:
000005e5 e0fc                 BCR 0x3, 0x6
000005e6 ff1e                 MOVAR 0x61
000005e7 feb0                 MOVR 0x4f, 0x0
000005e8 ff1f                 MOVAR 0x60
000005e9 feb1                 MOVR 0x4e, 0x0
000005ea ff1c                 MOVAR 0x63
000005eb feb2                 MOVR 0x4d, 0x0
000005ec ff1d                 MOVAR 0x62
000005ed fd1b                 CLRR 0x64
000005ee fd1a                 CLRR 0x65
000005ef defe                 MOVIA 0x1
000005f0 ff19                 MOVAR 0x66
000005f1 fd18                 CLRR 0x67
000005f2 fe9d                 MOVR 0x62, 0x0
000005f3 ee9c                 IORAR 0x63, 0x0
000005f4 f6fc                 BTRSS 0x3, 0x2
000005f5 c206                 LGOTO 0x5f9; _divuint.o:_00107_DS_=0x5f9
000005f6 de00                 MOVIA 0xff
000005f7 ff30                 MOVAR 0x4f
000005f8 c1d1                 LGOTO 0x62e; _divuint.o:_00115_DS_=0x62e
000005f9                      _divuint.o:_00107_DS_:
000005f9 e0fc                 BCR 0x3, 0x6
000005fa f01c                 BTRSC 0x63, 0x7
000005fb c1fc                 LGOTO 0x603; _divuint.o:_00112_DS_=0x603
000005fc e3fc                 BCR 0x3, 0x0
000005fd eb1d                 RLR 0x62, 0x1
000005fe eb1c                 RLR 0x63, 0x1
000005ff e3fc                 BCR 0x3, 0x0
00000600 eb19                 RLR 0x66, 0x1
00000601 eb18                 RLR 0x67, 0x1
00000602 c206                 LGOTO 0x5f9; _divuint.o:_00107_DS_=0x5f9
00000603                      _divuint.o:_00112_DS_:
00000603 e0fc                 BCR 0x3, 0x6
00000604 fe99                 MOVR 0x66, 0x0
00000605 ee98                 IORAR 0x67, 0x0
00000606 f2fc                 BTRSC 0x3, 0x2
00000607 c1d5                 LGOTO 0x62a; _divuint.o:_00114_DS_=0x62a
00000608 fe9c                 MOVR 0x63, 0x0
00000609 fb9e                 SUBAR 0x61, 0x0
0000060a f6fc                 BTRSS 0x3, 0x2
0000060b c1f1                 LGOTO 0x60e; _divuint.o:_00135_DS_=0x60e
0000060c fe9d                 MOVR 0x62, 0x0
0000060d fb9f                 SUBAR 0x60, 0x0
0000060e                      _divuint.o:_00135_DS_:
0000060e f7fc                 BTRSS 0x3, 0x0
0000060f c1dd                 LGOTO 0x622; _divuint.o:_00002_DS_=0x622
00000610 e0fc                 BCR 0x3, 0x6
00000611 fe99                 MOVR 0x66, 0x0
00000612 fc1b                 ADDAR 0x64, 0x1
00000613 fe98                 MOVR 0x67, 0x0
00000614 f3fc                 BTRSC 0x3, 0x0
00000615 fa98                 INCR 0x67, 0x0
00000616 f2fc                 BTRSC 0x3, 0x2
00000617 c1e6                 LGOTO 0x619; _divuint.o:_00001_DS_=0x619
00000618 fc1a                 ADDAR 0x65, 0x1
00000619                      _divuint.o:_00001_DS_:
00000619 e0fc                 BCR 0x3, 0x6
0000061a fe9d                 MOVR 0x62, 0x0
0000061b fb1f                 SUBAR 0x60, 0x1
0000061c fe9c                 MOVR 0x63, 0x0
0000061d f7fc                 BTRSS 0x3, 0x0
0000061e fa9c                 INCR 0x63, 0x0
0000061f f2fc                 BTRSC 0x3, 0x2
00000620 c1dd                 LGOTO 0x622; _divuint.o:_00002_DS_=0x622
00000621 fb1e                 SUBAR 0x61, 0x1
00000622                      _divuint.o:_00002_DS_:
00000622 e3fc                 BCR 0x3, 0x0
00000623 e0fc                 BCR 0x3, 0x6
00000624 ec1c                 RRR 0x63, 0x1
00000625 ec1d                 RRR 0x62, 0x1
00000626 e3fc                 BCR 0x3, 0x0
00000627 ec18                 RRR 0x67, 0x1
00000628 ec19                 RRR 0x66, 0x1
00000629 c1fc                 LGOTO 0x603; _divuint.o:_00112_DS_=0x603
0000062a                      _divuint.o:_00114_DS_:
0000062a e0fc                 BCR 0x3, 0x6
0000062b fe9b                 MOVR 0x64, 0x0
0000062c ff30                 MOVAR 0x4f
0000062d fe9a                 MOVR 0x65, 0x0
0000062e                      _divuint.o:_00115_DS_:
0000062e ffef                 RET
0000062f                      __moduint:
0000062f e0fc                 BCR 0x3, 0x6
00000630 ff16                 MOVAR 0x69
00000631 feb0                 MOVR 0x4f, 0x0
00000632 ff17                 MOVAR 0x68
00000633 feb1                 MOVR 0x4e, 0x0
00000634 ff14                 MOVAR 0x6b
00000635 feb2                 MOVR 0x4d, 0x0
00000636 ff15                 MOVAR 0x6a
00000637 ee94                 IORAR 0x6b, 0x0
00000638 f6fc                 BTRSS 0x3, 0x2
00000639 c1c2                 LGOTO 0x63d; _moduint.o:_00119_DS_=0x63d
0000063a de00                 MOVIA 0xff
0000063b ff30                 MOVAR 0x4f
0000063c c198                 LGOTO 0x667; _moduint.o:_00115_DS_=0x667
0000063d                      _moduint.o:_00119_DS_:
0000063d defe                 MOVIA 0x1
0000063e e0fc                 BCR 0x3, 0x6
0000063f ff13                 MOVAR 0x6c
00000640                      _moduint.o:_00107_DS_:
00000640 e0fc                 BCR 0x3, 0x6
00000641 f014                 BTRSC 0x6b, 0x7
00000642 c1b7                 LGOTO 0x648; _moduint.o:_00112_DS_=0x648
00000643 e3fc                 BCR 0x3, 0x0
00000644 eb15                 RLR 0x6a, 0x1
00000645 eb14                 RLR 0x6b, 0x1
00000646 fa13                 INCR 0x6c, 0x1
00000647 c1bf                 LGOTO 0x640; _moduint.o:_00107_DS_=0x640
00000648                      _moduint.o:_00112_DS_:
00000648 e0fc                 BCR 0x3, 0x6
00000649 fe93                 MOVR 0x6c, 0x0
0000064a f2fc                 BTRSC 0x3, 0x2
0000064b c19c                 LGOTO 0x663; _moduint.o:_00114_DS_=0x663
0000064c fe94                 MOVR 0x6b, 0x0
0000064d fb96                 SUBAR 0x69, 0x0
0000064e f6fc                 BTRSS 0x3, 0x2
0000064f c1ad                 LGOTO 0x652; _moduint.o:_00137_DS_=0x652
00000650 fe95                 MOVR 0x6a, 0x0
00000651 fb97                 SUBAR 0x68, 0x0
00000652                      _moduint.o:_00137_DS_:
00000652 f7fc                 BTRSS 0x3, 0x0
00000653 c1a2                 LGOTO 0x65d; _moduint.o:_00001_DS_=0x65d
00000654 e0fc                 BCR 0x3, 0x6
00000655 fe95                 MOVR 0x6a, 0x0
00000656 fb17                 SUBAR 0x68, 0x1
00000657 fe94                 MOVR 0x6b, 0x0
00000658 f7fc                 BTRSS 0x3, 0x0
00000659 fa94                 INCR 0x6b, 0x0
0000065a f2fc                 BTRSC 0x3, 0x2
0000065b c1a2                 LGOTO 0x65d; _moduint.o:_00001_DS_=0x65d
0000065c fb16                 SUBAR 0x69, 0x1
0000065d                      _moduint.o:_00001_DS_:
0000065d e3fc                 BCR 0x3, 0x0
0000065e e0fc                 BCR 0x3, 0x6
0000065f ec14                 RRR 0x6b, 0x1
00000660 ec15                 RRR 0x6a, 0x1
00000661 f913                 DECR 0x6c, 0x1
00000662 c1b7                 LGOTO 0x648; _moduint.o:_00112_DS_=0x648
00000663                      _moduint.o:_00114_DS_:
00000663 e0fc                 BCR 0x3, 0x6
00000664 fe97                 MOVR 0x68, 0x0
00000665 ff30                 MOVAR 0x4f
00000666 fe96                 MOVR 0x69, 0x0
00000667                      _moduint.o:_00115_DS_:
00000667 ffef                 RET
00000668                      __gptrget:
00000668 dbff                 XORIA 0x0
00000669 f2fc                 BTRSC 0x3, 0x2
0000066a c190                 LGOTO 0x66f; _gptrget1.o:__dataptrget1=0x66f
0000066b db7f                 XORIA 0x80
0000066c f2fc                 BTRSC 0x3, 0x2
0000066d c189                 LGOTO 0x676; __codeptrget1=0x676
0000066e dfff                 RETIA 0x0
0000066f                      _gptrget1.o:__dataptrget1:
0000066f feb1                 MOVR 0x4e, 0x0
00000670 ff7b                 MOVAR 0x4
00000671 e0fc                 BCR 0x3, 0x6
00000672 f031                 BTRSC 0x4e, 0x7
00000673 e4fc                 BSR 0x3, 0x6
00000674 feff                 MOVR 0x0, 0x0
00000675 ffef                 RET
00000676                      __codeptrget1:
00000676 feb0                 MOVR 0x4f, 0x0
00000677 ffb8                 SFUN 0x7
00000678 feb1                 MOVR 0x4e, 0x0
00000679 fdee                 TABLEA
0000067a ffef                 RET
0000067b                      ___cinit_load__:
