00000000 c7fe                 LGOTO 0x1; __nyc_ny8_startup=0x1
00000001                      __nyc_ny8_startup:
00000001 d1ad                 LCALL 0x652; ___cinit_load__=0x652
00000002 c79a                 LGOTO 0x65; _main=0x65
00000003                      main.o:_00821_DS_:
00000003 f56f                 BTRSS 0x10, 0x5
00000004 c7fc                 LGOTO 0x3; main.o:_00821_DS_=0x3
00000005 ffef                 RET
00000008 c7f6                 LGOTO 0x9; main.o:__sdcc_interrupt=0x9
00000009                      main.o:__sdcc_interrupt:
00000009 ff3d                 MOVAR 0x42
0000000a eafc                 SWAPR 0x3, 0x0
0000000b fd7c                 CLRR 0x3
0000000c ff3e                 MOVAR 0x41
0000000d fef5                 MOVR 0xa, 0x0
0000000e fd75                 CLRR 0xa
0000000f ff3f                 MOVAR 0x40
00000010 fefb                 MOVR 0x4, 0x0
00000011 e0fc                 BCR 0x3, 0x6
00000012 ff25                 MOVAR 0x5a
00000013 feb8                 MOVR 0x47, 0x0
00000014 ff24                 MOVAR 0x5b
00000015 feb9                 MOVR 0x46, 0x0
00000016 ff23                 MOVAR 0x5c
00000017 f7f0                 BTRSS 0xf, 0x0
00000018 c7ae                 LGOTO 0x51; main.o:_00126_DS_=0x51
00000019 dec8                 MOVIA 0x37
0000001a fc7e                 ADDAR 0x1, 0x1
0000001b fa21                 INCR 0x5e, 0x1
0000001c de9b                 MOVIA 0x64
0000001d fba1                 SUBAR 0x5e, 0x0
0000001e f7fc                 BTRSS 0x3, 0x0
0000001f c7ae                 LGOTO 0x51; main.o:_00126_DS_=0x51
00000020 e7a2                 BSR 0x5d, 0x0
00000021 fd21                 CLRR 0x5e
00000022 fa20                 INCR 0x5f, 0x1
00000023 ded7                 MOVIA 0x28
00000024 fba0                 SUBAR 0x5f, 0x0
00000025 f3fc                 BTRSC 0x3, 0x0
00000026 fd20                 CLRR 0x5f
00000027 fa16                 INCR 0x69, 0x1
00000028 deeb                 MOVIA 0x14
00000029 fb96                 SUBAR 0x69, 0x0
0000002a f7fc                 BTRSS 0x3, 0x0
0000002b c7cf                 LGOTO 0x30; main.o:_00110_DS_=0x30
0000002c fd16                 CLRR 0x69
0000002d fe84                 MOVR 0x7b, 0x0
0000002e f6fc                 BTRSS 0x3, 0x2
0000002f f904                 DECR 0x7b, 0x1
00000030                      main.o:_00110_DS_:
00000030 e0fc                 BCR 0x3, 0x6
00000031 fa15                 INCR 0x6a, 0x1
00000032 de9b                 MOVIA 0x64
00000033 fb95                 SUBAR 0x6a, 0x0
00000034 f7fc                 BTRSS 0x3, 0x0
00000035 c7ae                 LGOTO 0x51; main.o:_00126_DS_=0x51
00000036 fd15                 CLRR 0x6a
00000037 f622                 BTRSS 0x5d, 0x3
00000038 c7bf                 LGOTO 0x40; main.o:_00112_DS_=0x40
00000039 fe9b                 MOVR 0x64, 0x0
0000003a dbf9                 XORIA 0x6
0000003b f6fc                 BTRSS 0x3, 0x2
0000003c c7bf                 LGOTO 0x40; main.o:_00112_DS_=0x40
0000003d fa1a                 INCR 0x65, 0x1
0000003e f2fc                 BTRSC 0x3, 0x2
0000003f fa19                 INCR 0x66, 0x1
00000040                      main.o:_00112_DS_:
00000040 e0fc                 BCR 0x3, 0x6
00000041 fe90                 MOVR 0x6f, 0x0
00000042 f6fc                 BTRSS 0x3, 0x2
00000043 f910                 DECR 0x6f, 0x1
00000044 fe8c                 MOVR 0x73, 0x0
00000045 f6fc                 BTRSS 0x3, 0x2
00000046 f90c                 DECR 0x73, 0x1
00000047 fe9e                 MOVR 0x61, 0x0
00000048 f2fc                 BTRSC 0x3, 0x2
00000049 c7b1                 LGOTO 0x4e; main.o:_00119_DS_=0x4e
0000004a fa14                 INCR 0x6b, 0x1
0000004b f2fc                 BTRSC 0x3, 0x2
0000004c fa13                 INCR 0x6c, 0x1
0000004d c7ae                 LGOTO 0x51; main.o:_00126_DS_=0x51
0000004e                      main.o:_00119_DS_:
0000004e e0fc                 BCR 0x3, 0x6
0000004f fd14                 CLRR 0x6b
00000050 fd13                 CLRR 0x6c
00000051                      main.o:_00126_DS_:
00000051 f770                 BTRSS 0xf, 0x1
00000052 c7aa                 LGOTO 0x55; main.o:_00128_DS_=0x55
00000053 de02                 MOVIA 0xfd
00000054 ff70                 MOVAR 0xf
00000055                      main.o:_00128_DS_:
00000055 fd70                 CLRR 0xf
00000056 e0fc                 BCR 0x3, 0x6
00000057 fea3                 MOVR 0x5c, 0x0
00000058 ff39                 MOVAR 0x46
00000059 fea4                 MOVR 0x5b, 0x0
0000005a ff38                 MOVAR 0x47
0000005b fea5                 MOVR 0x5a, 0x0
0000005c ff7b                 MOVAR 0x4
0000005d febf                 MOVR 0x40, 0x0
0000005e ff75                 MOVAR 0xa
0000005f fd7c                 CLRR 0x3
00000060 eabe                 SWAPR 0x41, 0x0
00000061 ff7c                 MOVAR 0x3
00000062 ea3d                 SWAPR 0x42, 0x1
00000063 eabd                 SWAPR 0x42, 0x0
00000064                      main.o:END_OF_INTERRUPT:
00000064 ffee                 RETIE
00000065                      _main:
00000065 d2b9                 LCALL 0x546; _initSys=0x546
00000066 d501                 LCALL 0x2fe; _initAD=0x2fe
00000067                      main.o:_00175_DS_:
00000067 fffd                 CLRWDT
00000068 d30d                 LCALL 0x4f2; _ledShow=0x4f2
00000069 e0fc                 BCR 0x3, 0x6
0000006a fe9e                 MOVR 0x61, 0x0
0000006b f2fc                 BTRSC 0x3, 0x2
0000006c c77e                 LGOTO 0x81; main.o:_00139_DS_=0x81
0000006d ded2                 MOVIA 0x2d
0000006e fb8a                 SUBAR 0x75, 0x0
0000006f f7fc                 BTRSS 0x3, 0x0
00000070 c77e                 LGOTO 0x81; main.o:_00139_DS_=0x81
00000071 fe88                 MOVR 0x77, 0x0
00000072 fb8a                 SUBAR 0x75, 0x0
00000073 f3fc                 BTRSC 0x3, 0x0
00000074 c786                 LGOTO 0x79; main.o:_00136_DS_=0x79
00000075 f908                 DECR 0x77, 0x1
00000076 fe88                 MOVR 0x77, 0x0
00000077 ffb3                 SFUN 0xc
00000078 c77e                 LGOTO 0x81; main.o:_00139_DS_=0x81
00000079                      main.o:_00136_DS_:
00000079 e0fc                 BCR 0x3, 0x6
0000007a fe8a                 MOVR 0x75, 0x0
0000007b fb88                 SUBAR 0x77, 0x0
0000007c f3fc                 BTRSC 0x3, 0x0
0000007d c77e                 LGOTO 0x81; main.o:_00139_DS_=0x81
0000007e fa08                 INCR 0x77, 0x1
0000007f fe88                 MOVR 0x77, 0x0
00000080 ffb3                 SFUN 0xc
00000081                      main.o:_00139_DS_:
00000081 e0fc                 BCR 0x3, 0x6
00000082 fe9e                 MOVR 0x61, 0x0
00000083 f2fc                 BTRSC 0x3, 0x2
00000084 c771                 LGOTO 0x8e; main.o:_00142_DS_=0x8e
00000085 fe8f                 MOVR 0x70, 0x0
00000086 fb9c                 SUBAR 0x63, 0x0
00000087 f3fc                 BTRSC 0x3, 0x0
00000088 c771                 LGOTO 0x8e; main.o:_00142_DS_=0x8e
00000089 f90f                 DECR 0x70, 0x1
0000008a fe8f                 MOVR 0x70, 0x0
0000008b ffb3                 SFUN 0xc
0000008c fe8f                 MOVR 0x70, 0x0
0000008d ff08                 MOVAR 0x77
0000008e                      main.o:_00142_DS_:
0000008e e0fc                 BCR 0x3, 0x6
0000008f f7a2                 BTRSS 0x5d, 0x0
00000090 c798                 LGOTO 0x67; main.o:_00175_DS_=0x67
00000091 e3a2                 BCR 0x5d, 0x0
00000092 fe8c                 MOVR 0x73, 0x0
00000093 f6fc                 BTRSS 0x3, 0x2
00000094 c752                 LGOTO 0xad; main.o:_00149_DS_=0xad
00000095 fe9b                 MOVR 0x64, 0x0
00000096 f6fc                 BTRSS 0x3, 0x2
00000097 c752                 LGOTO 0xad; main.o:_00149_DS_=0xad
00000098 fe9e                 MOVR 0x61, 0x0
00000099 f2fc                 BTRSC 0x3, 0x2
0000009a c752                 LGOTO 0xad; main.o:_00149_DS_=0xad
0000009b fa02                 INCR 0x7d, 0x1
0000009c f2fc                 BTRSC 0x3, 0x2
0000009d fa01                 INCR 0x7e, 0x1
0000009e defc                 MOVIA 0x3
0000009f fb81                 SUBAR 0x7e, 0x0
000000a0 f6fc                 BTRSS 0x3, 0x2
000000a1 c75b                 LGOTO 0xa4; main.o:_00258_DS_=0xa4
000000a2 de17                 MOVIA 0xe8
000000a3 fb82                 SUBAR 0x7d, 0x0
000000a4                      main.o:_00258_DS_:
000000a4 f7fc                 BTRSS 0x3, 0x0
000000a5 c74f                 LGOTO 0xb0; main.o:_00150_DS_=0xb0
000000a6 e0fc                 BCR 0x3, 0x6
000000a7 fd02                 CLRR 0x7d
000000a8 fd01                 CLRR 0x7e
000000a9 fd1e                 CLRR 0x61
000000aa fd1d                 CLRR 0x62
000000ab d3ad                 LCALL 0x452; _pwmStop=0x452
000000ac c74f                 LGOTO 0xb0; main.o:_00150_DS_=0xb0
000000ad                      main.o:_00149_DS_:
000000ad e0fc                 BCR 0x3, 0x6
000000ae fd02                 CLRR 0x7d
000000af fd01                 CLRR 0x7e
000000b0                      main.o:_00150_DS_:
000000b0 defa                 MOVIA 0x5
000000b1 e0fc                 BCR 0x3, 0x6
000000b2 fb91                 SUBAR 0x6e, 0x0
000000b3 f7fc                 BTRSS 0x3, 0x0
000000b4 c734                 LGOTO 0xcb; main.o:_00156_DS_=0xcb
000000b5 fe9e                 MOVR 0x61, 0x0
000000b6 f2fc                 BTRSC 0x3, 0x2
000000b7 c734                 LGOTO 0xcb; main.o:_00156_DS_=0xcb
000000b8 fa06                 INCR 0x79, 0x1
000000b9 f2fc                 BTRSC 0x3, 0x2
000000ba fa05                 INCR 0x7a, 0x1
000000bb defe                 MOVIA 0x1
000000bc fb85                 SUBAR 0x7a, 0x0
000000bd f6fc                 BTRSS 0x3, 0x2
000000be c73e                 LGOTO 0xc1; main.o:_00260_DS_=0xc1
000000bf de0a                 MOVIA 0xf5
000000c0 fb86                 SUBAR 0x79, 0x0
000000c1                      main.o:_00260_DS_:
000000c1 f7fc                 BTRSS 0x3, 0x0
000000c2 c731                 LGOTO 0xce; main.o:_00157_DS_=0xce
000000c3 e0fc                 BCR 0x3, 0x6
000000c4 fd11                 CLRR 0x6e
000000c5 fd06                 CLRR 0x79
000000c6 fd05                 CLRR 0x7a
000000c7 dee6                 MOVIA 0x19
000000c8 ff04                 MOVAR 0x7b
000000c9 d29c                 LCALL 0x563; _powerOff=0x563
000000ca c731                 LGOTO 0xce; main.o:_00157_DS_=0xce
000000cb                      main.o:_00156_DS_:
000000cb e0fc                 BCR 0x3, 0x6
000000cc fd06                 CLRR 0x79
000000cd fd05                 CLRR 0x7a
000000ce                      main.o:_00157_DS_:
000000ce e0fc                 BCR 0x3, 0x6
000000cf f622                 BTRSS 0x5d, 0x3
000000d0 d298                 LCALL 0x567; _keyCtr=0x567
000000d1                      main.o:_00160_DS_:
000000d1 defc                 MOVIA 0x3
000000d2 e0fc                 BCR 0x3, 0x6
000000d3 fb96                 SUBAR 0x69, 0x0
000000d4 f7fc                 BTRSS 0x3, 0x0
000000d5 d5c3                 LCALL 0x23c; _checkBatAD=0x23c
000000d6 d6af                 LCALL 0x150; _checkOutA=0x150
000000d7 d4ea                 LCALL 0x315; _chrgCtr=0x315
000000d8 e0fc                 BCR 0x3, 0x6
000000d9 fe9e                 MOVR 0x61, 0x0
000000da f6fc                 BTRSS 0x3, 0x2
000000db c709                 LGOTO 0xf6; main.o:_00166_DS_=0xf6
000000dc fe9f                 MOVR 0x60, 0x0
000000dd f6fc                 BTRSS 0x3, 0x2
000000de c709                 LGOTO 0xf6; main.o:_00166_DS_=0xf6
000000df f27a                 BTRSC 0x5, 0x3
000000e0 c709                 LGOTO 0xf6; main.o:_00166_DS_=0xf6
000000e1 fe90                 MOVR 0x6f, 0x0
000000e2 f6fc                 BTRSS 0x3, 0x2
000000e3 c709                 LGOTO 0xf6; main.o:_00166_DS_=0xf6
000000e4 fe84                 MOVR 0x7b, 0x0
000000e5 f6fc                 BTRSS 0x3, 0x2
000000e6 c709                 LGOTO 0xf6; main.o:_00166_DS_=0xf6
000000e7 fe8c                 MOVR 0x73, 0x0
000000e8 f6fc                 BTRSS 0x3, 0x2
000000e9 c709                 LGOTO 0xf6; main.o:_00166_DS_=0xf6
000000ea fa18                 INCR 0x67, 0x1
000000eb f2fc                 BTRSC 0x3, 0x2
000000ec fa17                 INCR 0x68, 0x1
000000ed deff                 MOVIA 0x0
000000ee fb97                 SUBAR 0x68, 0x0
000000ef f6fc                 BTRSS 0x3, 0x2
000000f0 c70c                 LGOTO 0xf3; main.o:_00262_DS_=0xf3
000000f1 deea                 MOVIA 0x15
000000f2 fb98                 SUBAR 0x67, 0x0
000000f3                      main.o:_00262_DS_:
000000f3 f7fc                 BTRSS 0x3, 0x0
000000f4 c709                 LGOTO 0xf6; main.o:_00166_DS_=0xf6
000000f5 d3d6                 LCALL 0x429; _gotoSleep=0x429
000000f6                      main.o:_00166_DS_:
000000f6 defc                 MOVIA 0x3
000000f7 e0fc                 BCR 0x3, 0x6
000000f8 fb93                 SUBAR 0x6c, 0x0
000000f9 f6fc                 BTRSS 0x3, 0x2
000000fa c702                 LGOTO 0xfd; main.o:_00263_DS_=0xfd
000000fb de7b                 MOVIA 0x84
000000fc fb94                 SUBAR 0x6b, 0x0
000000fd                      main.o:_00263_DS_:
000000fd f7fc                 BTRSS 0x3, 0x0
000000fe c798                 LGOTO 0x67; main.o:_00175_DS_=0x67
000000ff d29c                 LCALL 0x563; _powerOff=0x563
00000100 c798                 LGOTO 0x67; main.o:_00175_DS_=0x67
00000101 ffef                 RET
00000102                      _F_AIN2_Convert:
00000102 e0fc                 BCR 0x3, 0x6
00000103 ff36                 MOVAR 0x49
00000104 fd5a                 CLRR 0x25
00000105 fd5c                 CLRR 0x23
00000106 fd5b                 CLRR 0x24
00000107 de6d                 MOVIA 0x92
00000108 ff6f                 MOVAR 0x10
00000109 de37                 MOVIA 0xc8
0000010a d4f6                 LCALL 0x309; _delay=0x309
0000010b defe                 MOVIA 0x1
0000010c e0fc                 BCR 0x3, 0x6
0000010d ff35                 MOVAR 0x4a
0000010e                      main.o:_00814_DS_:
0000010e e0fc                 BCR 0x3, 0x6
0000010f feb5                 MOVR 0x4a, 0x0
00000110 fbb6                 SUBAR 0x49, 0x0
00000111 f7fc                 BTRSS 0x3, 0x0
00000112 c6d7                 LGOTO 0x128; main.o:_00816_DS_=0x128
00000113 e4ef                 BSR 0x10, 0x6
00000114 d7fc                 LCALL 0x3; main.o:_00821_DS_=0x3
00000115 def0                 MOVIA 0xf
00000116 efee                 ANDAR 0x11, 0x0
00000117 e0fc                 BCR 0x3, 0x6
00000118 fc5a                 ADDAR 0x25, 0x1
00000119 feed                 MOVR 0x12, 0x0
0000011a ff34                 MOVAR 0x4b
0000011b deff                 MOVIA 0x0
0000011c ff33                 MOVAR 0x4c
0000011d feb4                 MOVR 0x4b, 0x0
0000011e fc5c                 ADDAR 0x23, 0x1
0000011f feb3                 MOVR 0x4c, 0x0
00000120 f3fc                 BTRSC 0x3, 0x0
00000121 fab3                 INCR 0x4c, 0x0
00000122 f2fc                 BTRSC 0x3, 0x2
00000123 c6da                 LGOTO 0x125; main.o:_00001_DS_=0x125
00000124 fc5b                 ADDAR 0x24, 0x1
00000125                      main.o:_00001_DS_:
00000125 e0fc                 BCR 0x3, 0x6
00000126 fa35                 INCR 0x4a, 0x1
00000127 c6f1                 LGOTO 0x10e; main.o:_00814_DS_=0x10e
00000128                      main.o:_00816_DS_:
00000128 ffef                 RET
00000129                      _F_AIN4_Convert:
00000129 e0fc                 BCR 0x3, 0x6
0000012a ff42                 MOVAR 0x3d
0000012b fd5d                 CLRR 0x22
0000012c fd5f                 CLRR 0x20
0000012d fd5e                 CLRR 0x21
0000012e de6b                 MOVIA 0x94
0000012f ff6f                 MOVAR 0x10
00000130 de37                 MOVIA 0xc8
00000131 d4f6                 LCALL 0x309; _delay=0x309
00000132 defe                 MOVIA 0x1
00000133 e0fc                 BCR 0x3, 0x6
00000134 ff41                 MOVAR 0x3e
00000135                      main.o:_00805_DS_:
00000135 e0fc                 BCR 0x3, 0x6
00000136 fec1                 MOVR 0x3e, 0x0
00000137 fbc2                 SUBAR 0x3d, 0x0
00000138 f7fc                 BTRSS 0x3, 0x0
00000139 c6b0                 LGOTO 0x14f; main.o:_00807_DS_=0x14f
0000013a e4ef                 BSR 0x10, 0x6
0000013b d7fc                 LCALL 0x3; main.o:_00821_DS_=0x3
0000013c def0                 MOVIA 0xf
0000013d efee                 ANDAR 0x11, 0x0
0000013e e0fc                 BCR 0x3, 0x6
0000013f fc5d                 ADDAR 0x22, 0x1
00000140 feed                 MOVR 0x12, 0x0
00000141 ff40                 MOVAR 0x3f
00000142 deff                 MOVIA 0x0
00000143 ff37                 MOVAR 0x48
00000144 fec0                 MOVR 0x3f, 0x0
00000145 fc5f                 ADDAR 0x20, 0x1
00000146 feb7                 MOVR 0x48, 0x0
00000147 f3fc                 BTRSC 0x3, 0x0
00000148 fab7                 INCR 0x48, 0x0
00000149 f2fc                 BTRSC 0x3, 0x2
0000014a c6b3                 LGOTO 0x14c; main.o:_00002_DS_=0x14c
0000014b fc5e                 ADDAR 0x21, 0x1
0000014c                      main.o:_00002_DS_:
0000014c e0fc                 BCR 0x3, 0x6
0000014d fa41                 INCR 0x3e, 0x1
0000014e c6ca                 LGOTO 0x135; main.o:_00805_DS_=0x135
0000014f                      main.o:_00807_DS_:
0000014f ffef                 RET
00000150                      _checkOutA:
00000150 e0fc                 BCR 0x3, 0x6
00000151 fd5d                 CLRR 0x22
00000152 fd5f                 CLRR 0x20
00000153 fd5e                 CLRR 0x21
00000154 def7                 MOVIA 0x8
00000155 d6d6                 LCALL 0x129; _F_AIN4_Convert=0x129
00000156 e0fc                 BCR 0x3, 0x6
00000157 eade                 SWAPR 0x21, 0x0
00000158 dd0f                 ANDIA 0xf0
00000159 ff5e                 MOVAR 0x21
0000015a eadf                 SWAPR 0x20, 0x0
0000015b ff5f                 MOVAR 0x20
0000015c ddf0                 ANDIA 0xf
0000015d ee5e                 IORAR 0x21, 0x1
0000015e ed5f                 XORAR 0x20, 0x1
0000015f de0f                 MOVIA 0xf0
00000160 ef5d                 ANDAR 0x22, 0x1
00000161 fedd                 MOVR 0x22, 0x0
00000162 ff44                 MOVAR 0x3b
00000163 ff46                 MOVAR 0x39
00000164 fd45                 CLRR 0x3a
00000165 deff                 MOVIA 0x0
00000166 ff43                 MOVAR 0x3c
00000167 fec4                 MOVR 0x3b, 0x0
00000168 fc5f                 ADDAR 0x20, 0x1
00000169 fec3                 MOVR 0x3c, 0x0
0000016a f3fc                 BTRSC 0x3, 0x0
0000016b fac3                 INCR 0x3c, 0x0
0000016c f2fc                 BTRSC 0x3, 0x2
0000016d c690                 LGOTO 0x16f; main.o:_00003_DS_=0x16f
0000016e fc5e                 ADDAR 0x21, 0x1
0000016f                      main.o:_00003_DS_:
0000016f e3fc                 BCR 0x3, 0x0
00000170 e0fc                 BCR 0x3, 0x6
00000171 ec5e                 RRR 0x21, 0x1
00000172 ec5f                 RRR 0x20, 0x1
00000173 e3fc                 BCR 0x3, 0x0
00000174 ec5e                 RRR 0x21, 0x1
00000175 ec5f                 RRR 0x20, 0x1
00000176 e3fc                 BCR 0x3, 0x0
00000177 ec5e                 RRR 0x21, 0x1
00000178 ec5f                 RRR 0x20, 0x1
00000179 fedf                 MOVR 0x20, 0x0
0000017a e4fc                 BSR 0x3, 0x6
0000017b fc56                 ADDAR 0x29, 0x1
0000017c e0fc                 BCR 0x3, 0x6
0000017d fede                 MOVR 0x21, 0x0
0000017e f3fc                 BTRSC 0x3, 0x0
0000017f fade                 INCR 0x21, 0x0
00000180 f2fc                 BTRSC 0x3, 0x2
00000181 c67b                 LGOTO 0x184; main.o:_00004_DS_=0x184
00000182 e4fc                 BSR 0x3, 0x6
00000183 fc55                 ADDAR 0x2a, 0x1
00000184                      main.o:_00004_DS_:
00000184 e4fc                 BSR 0x3, 0x6
00000185 fa54                 INCR 0x2b, 0x1
00000186 def5                 MOVIA 0xa
00000187 fbd4                 SUBAR 0x2b, 0x0
00000188 f7fc                 BTRSS 0x3, 0x0
00000189 c666                 LGOTO 0x199; main.o:_00691_DS_=0x199
0000018a fd54                 CLRR 0x2b
0000018b def5                 MOVIA 0xa
0000018c ff3a                 MOVAR 0x45
0000018d deff                 MOVIA 0x0
0000018e ff39                 MOVAR 0x46
0000018f fed6                 MOVR 0x29, 0x0
00000190 ff38                 MOVAR 0x47
00000191 fed5                 MOVR 0x2a, 0x0
00000192 d1f7                 LCALL 0x608; __divuint=0x608
00000193 e4fc                 BSR 0x3, 0x6
00000194 ff52                 MOVAR 0x2d
00000195 feb8                 MOVR 0x47, 0x0
00000196 ff53                 MOVAR 0x2c
00000197 fd56                 CLRR 0x29
00000198 fd55                 CLRR 0x2a
00000199                      main.o:_00691_DS_:
00000199 def9                 MOVIA 0x6
0000019a e0fc                 BCR 0x3, 0x6
0000019b fb9e                 SUBAR 0x61, 0x0
0000019c f3fc                 BTRSC 0x3, 0x0
0000019d c64f                 LGOTO 0x1b0; main.o:_00728_DS_=0x1b0
0000019e deff                 MOVIA 0x0
0000019f e4fc                 BSR 0x3, 0x6
000001a0 fbd2                 SUBAR 0x2d, 0x0
000001a1 f6fc                 BTRSS 0x3, 0x2
000001a2 c65a                 LGOTO 0x1a5; main.o:_00791_DS_=0x1a5
000001a3 de36                 MOVIA 0xc9
000001a4 fbd3                 SUBAR 0x2c, 0x0
000001a5                      main.o:_00791_DS_:
000001a5 f7fc                 BTRSS 0x3, 0x0
000001a6 c64f                 LGOTO 0x1b0; main.o:_00728_DS_=0x1b0
000001a7 e0fc                 BCR 0x3, 0x6
000001a8 fa11                 INCR 0x6e, 0x1
000001a9 def9                 MOVIA 0x6
000001aa fb91                 SUBAR 0x6e, 0x0
000001ab f7fc                 BTRSS 0x3, 0x0
000001ac c5cc                 LGOTO 0x233; main.o:_00729_DS_=0x233
000001ad defa                 MOVIA 0x5
000001ae ff11                 MOVAR 0x6e
000001af c5cc                 LGOTO 0x233; main.o:_00729_DS_=0x233
000001b0                      main.o:_00728_DS_:
000001b0 defe                 MOVIA 0x1
000001b1 e4fc                 BSR 0x3, 0x6
000001b2 fbd2                 SUBAR 0x2d, 0x0
000001b3 f6fc                 BTRSS 0x3, 0x2
000001b4 c648                 LGOTO 0x1b7; main.o:_00793_DS_=0x1b7
000001b5 de6e                 MOVIA 0x91
000001b6 fbd3                 SUBAR 0x2c, 0x0
000001b7                      main.o:_00793_DS_:
000001b7 f7fc                 BTRSS 0x3, 0x0
000001b8 c63d                 LGOTO 0x1c2; main.o:_00725_DS_=0x1c2
000001b9 e0fc                 BCR 0x3, 0x6
000001ba fa11                 INCR 0x6e, 0x1
000001bb def9                 MOVIA 0x6
000001bc fb91                 SUBAR 0x6e, 0x0
000001bd f7fc                 BTRSS 0x3, 0x0
000001be c5cc                 LGOTO 0x233; main.o:_00729_DS_=0x233
000001bf defa                 MOVIA 0x5
000001c0 ff11                 MOVAR 0x6e
000001c1 c5cc                 LGOTO 0x233; main.o:_00729_DS_=0x233
000001c2                      main.o:_00725_DS_:
000001c2 deff                 MOVIA 0x0
000001c3 e4fc                 BSR 0x3, 0x6
000001c4 fbd2                 SUBAR 0x2d, 0x0
000001c5 f6fc                 BTRSS 0x3, 0x2
000001c6 c636                 LGOTO 0x1c9; main.o:_00795_DS_=0x1c9
000001c7 deb1                 MOVIA 0x4e
000001c8 fbd3                 SUBAR 0x2c, 0x0
000001c9                      main.o:_00795_DS_:
000001c9 f7fc                 BTRSS 0x3, 0x0
000001ca c626                 LGOTO 0x1d9; main.o:_00722_DS_=0x1d9
000001cb e0fc                 BCR 0x3, 0x6
000001cc fe91                 MOVR 0x6e, 0x0
000001cd f6fc                 BTRSS 0x3, 0x2
000001ce f911                 DECR 0x6e, 0x1
000001cf defa                 MOVIA 0x5
000001d0 ff38                 MOVAR 0x47
000001d1 fe9e                 MOVR 0x61, 0x0
000001d2 d210                 LCALL 0x5ef; __mulchar=0x5ef
000001d3 e0fc                 BCR 0x3, 0x6
000001d4 ff46                 MOVAR 0x39
000001d5 deb9                 MOVIA 0x46
000001d6 fcc6                 ADDAR 0x39, 0x0
000001d7 ff0a                 MOVAR 0x75
000001d8 c5cc                 LGOTO 0x233; main.o:_00729_DS_=0x233
000001d9                      main.o:_00722_DS_:
000001d9 ded7                 MOVIA 0x28
000001da e0fc                 BCR 0x3, 0x6
000001db ff46                 MOVAR 0x39
000001dc defb                 MOVIA 0x4
000001dd fb9b                 SUBAR 0x64, 0x0
000001de f7fc                 BTRSS 0x3, 0x0
000001df c61d                 LGOTO 0x1e2; main.o:_00699_DS_=0x1e2
000001e0 ded2                 MOVIA 0x2d
000001e1 ff46                 MOVAR 0x39
000001e2                      main.o:_00699_DS_:
000001e2 e0fc                 BCR 0x3, 0x6
000001e3 fe9e                 MOVR 0x61, 0x0
000001e4 dbfe                 XORIA 0x1
000001e5 f6fc                 BTRSS 0x3, 0x2
000001e6 c615                 LGOTO 0x1ea; main.o:_00712_DS_=0x1ea
000001e7 de0a                 MOVIA 0xf5
000001e8 fc46                 ADDAR 0x39, 0x1
000001e9 c5f6                 LGOTO 0x209; main.o:_00713_DS_=0x209
000001ea                      main.o:_00712_DS_:
000001ea e0fc                 BCR 0x3, 0x6
000001eb fe9e                 MOVR 0x61, 0x0
000001ec dbfd                 XORIA 0x2
000001ed f6fc                 BTRSS 0x3, 0x2
000001ee c60d                 LGOTO 0x1f2; main.o:_00709_DS_=0x1f2
000001ef de07                 MOVIA 0xf8
000001f0 fc46                 ADDAR 0x39, 0x1
000001f1 c5f6                 LGOTO 0x209; main.o:_00713_DS_=0x209
000001f2                      main.o:_00709_DS_:
000001f2 e0fc                 BCR 0x3, 0x6
000001f3 fe9e                 MOVR 0x61, 0x0
000001f4 dbfb                 XORIA 0x4
000001f5 f6fc                 BTRSS 0x3, 0x2
000001f6 c605                 LGOTO 0x1fa; main.o:_00706_DS_=0x1fa
000001f7 defa                 MOVIA 0x5
000001f8 fc46                 ADDAR 0x39, 0x1
000001f9 c5f6                 LGOTO 0x209; main.o:_00713_DS_=0x209
000001fa                      main.o:_00706_DS_:
000001fa e0fc                 BCR 0x3, 0x6
000001fb fe9e                 MOVR 0x61, 0x0
000001fc dbfa                 XORIA 0x5
000001fd f6fc                 BTRSS 0x3, 0x2
000001fe c5fd                 LGOTO 0x202; main.o:_00703_DS_=0x202
000001ff def5                 MOVIA 0xa
00000200 fc46                 ADDAR 0x39, 0x1
00000201 c5f6                 LGOTO 0x209; main.o:_00713_DS_=0x209
00000202                      main.o:_00703_DS_:
00000202 e0fc                 BCR 0x3, 0x6
00000203 fe9e                 MOVR 0x61, 0x0
00000204 dbf9                 XORIA 0x6
00000205 f6fc                 BTRSS 0x3, 0x2
00000206 c5f6                 LGOTO 0x209; main.o:_00713_DS_=0x209
00000207 deed                 MOVIA 0x12
00000208 fc46                 ADDAR 0x39, 0x1
00000209                      main.o:_00713_DS_:
00000209 e0fc                 BCR 0x3, 0x6
0000020a fe91                 MOVR 0x6e, 0x0
0000020b f6fc                 BTRSS 0x3, 0x2
0000020c f911                 DECR 0x6e, 0x1
0000020d fec6                 MOVR 0x39, 0x0
0000020e ff45                 MOVAR 0x3a
0000020f fd44                 CLRR 0x3b
00000210 e4fc                 BSR 0x3, 0x6
00000211 fed2                 MOVR 0x2d, 0x0
00000212 e0fc                 BCR 0x3, 0x6
00000213 fbc4                 SUBAR 0x3b, 0x0
00000214 f6fc                 BTRSS 0x3, 0x2
00000215 c5e5                 LGOTO 0x21a; main.o:_00797_DS_=0x21a
00000216 e4fc                 BSR 0x3, 0x6
00000217 fed3                 MOVR 0x2c, 0x0
00000218 e0fc                 BCR 0x3, 0x6
00000219 fbc5                 SUBAR 0x3a, 0x0
0000021a                      main.o:_00797_DS_:
0000021a f3fc                 BTRSC 0x3, 0x0
0000021b c5d8                 LGOTO 0x227; main.o:_00719_DS_=0x227
0000021c defa                 MOVIA 0x5
0000021d ff38                 MOVAR 0x47
0000021e e0fc                 BCR 0x3, 0x6
0000021f fe9e                 MOVR 0x61, 0x0
00000220 d210                 LCALL 0x5ef; __mulchar=0x5ef
00000221 e0fc                 BCR 0x3, 0x6
00000222 ff46                 MOVAR 0x39
00000223 deb9                 MOVIA 0x46
00000224 fcc6                 ADDAR 0x39, 0x0
00000225 ff0a                 MOVAR 0x75
00000226 c5cc                 LGOTO 0x233; main.o:_00729_DS_=0x233
00000227                      main.o:_00719_DS_:
00000227 deff                 MOVIA 0x0
00000228 e4fc                 BSR 0x3, 0x6
00000229 fbd2                 SUBAR 0x2d, 0x0
0000022a f6fc                 BTRSS 0x3, 0x2
0000022b c5d1                 LGOTO 0x22e; main.o:_00798_DS_=0x22e
0000022c deb4                 MOVIA 0x4b
0000022d fbd3                 SUBAR 0x2c, 0x0
0000022e                      main.o:_00798_DS_:
0000022e f3fc                 BTRSC 0x3, 0x0
0000022f c5cc                 LGOTO 0x233; main.o:_00729_DS_=0x233
00000230 e0fc                 BCR 0x3, 0x6
00000231 fe9c                 MOVR 0x63, 0x0
00000232 ff0a                 MOVAR 0x75
00000233                      main.o:_00729_DS_:
00000233 e0fc                 BCR 0x3, 0x6
00000234 fe9c                 MOVR 0x63, 0x0
00000235 ff0a                 MOVAR 0x75
00000236 fe9e                 MOVR 0x61, 0x0
00000237 f2fc                 BTRSC 0x3, 0x2
00000238 c5c4                 LGOTO 0x23b; main.o:_00733_DS_=0x23b
00000239 fe9e                 MOVR 0x61, 0x0
0000023a ff1d                 MOVAR 0x62
0000023b                      main.o:_00733_DS_:
0000023b ffef                 RET
0000023c                      _checkBatAD:
0000023c e0fc                 BCR 0x3, 0x6
0000023d fd5a                 CLRR 0x25
0000023e fd5c                 CLRR 0x23
0000023f fd5b                 CLRR 0x24
00000240 def7                 MOVIA 0x8
00000241 d6fd                 LCALL 0x102; _F_AIN2_Convert=0x102
00000242 e0fc                 BCR 0x3, 0x6
00000243 eadb                 SWAPR 0x24, 0x0
00000244 dd0f                 ANDIA 0xf0
00000245 ff5b                 MOVAR 0x24
00000246 eadc                 SWAPR 0x23, 0x0
00000247 ff5c                 MOVAR 0x23
00000248 ddf0                 ANDIA 0xf
00000249 ee5b                 IORAR 0x24, 0x1
0000024a ed5c                 XORAR 0x23, 0x1
0000024b de0f                 MOVIA 0xf0
0000024c ef5a                 ANDAR 0x25, 0x1
0000024d feda                 MOVR 0x25, 0x0
0000024e ff48                 MOVAR 0x37
0000024f deff                 MOVIA 0x0
00000250 ff47                 MOVAR 0x38
00000251 fec8                 MOVR 0x37, 0x0
00000252 fc5c                 ADDAR 0x23, 0x1
00000253 fec7                 MOVR 0x38, 0x0
00000254 f3fc                 BTRSC 0x3, 0x0
00000255 fac7                 INCR 0x38, 0x0
00000256 f2fc                 BTRSC 0x3, 0x2
00000257 c5a6                 LGOTO 0x259; main.o:_00005_DS_=0x259
00000258 fc5b                 ADDAR 0x24, 0x1
00000259                      main.o:_00005_DS_:
00000259 e3fc                 BCR 0x3, 0x0
0000025a e0fc                 BCR 0x3, 0x6
0000025b ec5b                 RRR 0x24, 0x1
0000025c ec5c                 RRR 0x23, 0x1
0000025d e3fc                 BCR 0x3, 0x0
0000025e ec5b                 RRR 0x24, 0x1
0000025f ec5c                 RRR 0x23, 0x1
00000260 e3fc                 BCR 0x3, 0x0
00000261 ec5b                 RRR 0x24, 0x1
00000262 ec5c                 RRR 0x23, 0x1
00000263 e4fc                 BSR 0x3, 0x6
00000264 fed1                 MOVR 0x2e, 0x0
00000265 f2fc                 BTRSC 0x3, 0x2
00000266 c593                 LGOTO 0x26c; main.o:_00603_DS_=0x26c
00000267 def1                 MOVIA 0xe
00000268 e0fc                 BCR 0x3, 0x6
00000269 ff5c                 MOVAR 0x23
0000026a def9                 MOVIA 0x6
0000026b ff5b                 MOVAR 0x24
0000026c                      main.o:_00603_DS_:
0000026c def9                 MOVIA 0x6
0000026d e0fc                 BCR 0x3, 0x6
0000026e fbdb                 SUBAR 0x24, 0x0
0000026f f6fc                 BTRSS 0x3, 0x2
00000270 c58c                 LGOTO 0x273; main.o:_00677_DS_=0x273
00000271 dedc                 MOVIA 0x23
00000272 fbdc                 SUBAR 0x23, 0x0
00000273                      main.o:_00677_DS_:
00000273 f7fc                 BTRSS 0x3, 0x0
00000274 c585                 LGOTO 0x27a; main.o:_00628_DS_=0x27a
00000275 e0fc                 BCR 0x3, 0x6
00000276 fd09                 CLRR 0x76
00000277 def7                 MOVIA 0x8
00000278 ff1b                 MOVAR 0x64
00000279 c51b                 LGOTO 0x2e4; main.o:_00629_DS_=0x2e4
0000027a                      main.o:_00628_DS_:
0000027a defb                 MOVIA 0x4
0000027b e0fc                 BCR 0x3, 0x6
0000027c fbdb                 SUBAR 0x24, 0x0
0000027d f6fc                 BTRSS 0x3, 0x2
0000027e c57e                 LGOTO 0x281; main.o:_00678_DS_=0x281
0000027f de81                 MOVIA 0x7e
00000280 fbdc                 SUBAR 0x23, 0x0
00000281                      main.o:_00678_DS_:
00000281 f3fc                 BTRSC 0x3, 0x0
00000282 c56e                 LGOTO 0x291; main.o:_00625_DS_=0x291
00000283 e0fc                 BCR 0x3, 0x6
00000284 fa09                 INCR 0x76, 0x1
00000285 def5                 MOVIA 0xa
00000286 fb89                 SUBAR 0x76, 0x0
00000287 f7fc                 BTRSS 0x3, 0x0
00000288 c502                 LGOTO 0x2fd; main.o:_00636_DS_=0x2fd
00000289 def5                 MOVIA 0xa
0000028a ff09                 MOVAR 0x76
0000028b fd1b                 CLRR 0x64
0000028c de81                 MOVIA 0x7e
0000028d ff5c                 MOVAR 0x23
0000028e defb                 MOVIA 0x4
0000028f ff5b                 MOVAR 0x24
00000290 c51b                 LGOTO 0x2e4; main.o:_00629_DS_=0x2e4
00000291                      main.o:_00625_DS_:
00000291 e0fc                 BCR 0x3, 0x6
00000292 fd09                 CLRR 0x76
00000293 fd0b                 CLRR 0x74
00000294 defb                 MOVIA 0x4
00000295 fbdb                 SUBAR 0x24, 0x0
00000296 f6fc                 BTRSS 0x3, 0x2
00000297 c565                 LGOTO 0x29a; main.o:_00680_DS_=0x29a
00000298 de09                 MOVIA 0xf6
00000299 fbdc                 SUBAR 0x23, 0x0
0000029a                      main.o:_00680_DS_:
0000029a f3fc                 BTRSC 0x3, 0x0
0000029b c55f                 LGOTO 0x2a0; main.o:_00622_DS_=0x2a0
0000029c defe                 MOVIA 0x1
0000029d e0fc                 BCR 0x3, 0x6
0000029e ff1b                 MOVAR 0x64
0000029f c51b                 LGOTO 0x2e4; main.o:_00629_DS_=0x2e4
000002a0                      main.o:_00622_DS_:
000002a0 defa                 MOVIA 0x5
000002a1 e0fc                 BCR 0x3, 0x6
000002a2 fbdb                 SUBAR 0x24, 0x0
000002a3 f6fc                 BTRSS 0x3, 0x2
000002a4 c558                 LGOTO 0x2a7; main.o:_00681_DS_=0x2a7
000002a5 dec3                 MOVIA 0x3c
000002a6 fbdc                 SUBAR 0x23, 0x0
000002a7                      main.o:_00681_DS_:
000002a7 f3fc                 BTRSC 0x3, 0x0
000002a8 c552                 LGOTO 0x2ad; main.o:_00619_DS_=0x2ad
000002a9 defd                 MOVIA 0x2
000002aa e0fc                 BCR 0x3, 0x6
000002ab ff1b                 MOVAR 0x64
000002ac c51b                 LGOTO 0x2e4; main.o:_00629_DS_=0x2e4
000002ad                      main.o:_00619_DS_:
000002ad defa                 MOVIA 0x5
000002ae e0fc                 BCR 0x3, 0x6
000002af fbdb                 SUBAR 0x24, 0x0
000002b0 f6fc                 BTRSS 0x3, 0x2
000002b1 c54b                 LGOTO 0x2b4; main.o:_00682_DS_=0x2b4
000002b2 de91                 MOVIA 0x6e
000002b3 fbdc                 SUBAR 0x23, 0x0
000002b4                      main.o:_00682_DS_:
000002b4 f3fc                 BTRSC 0x3, 0x0
000002b5 c545                 LGOTO 0x2ba; main.o:_00616_DS_=0x2ba
000002b6 defc                 MOVIA 0x3
000002b7 e0fc                 BCR 0x3, 0x6
000002b8 ff1b                 MOVAR 0x64
000002b9 c51b                 LGOTO 0x2e4; main.o:_00629_DS_=0x2e4
000002ba                      main.o:_00616_DS_:
000002ba defa                 MOVIA 0x5
000002bb e0fc                 BCR 0x3, 0x6
000002bc fbdb                 SUBAR 0x24, 0x0
000002bd f6fc                 BTRSS 0x3, 0x2
000002be c53e                 LGOTO 0x2c1; main.o:_00683_DS_=0x2c1
000002bf de55                 MOVIA 0xaa
000002c0 fbdc                 SUBAR 0x23, 0x0
000002c1                      main.o:_00683_DS_:
000002c1 f3fc                 BTRSC 0x3, 0x0
000002c2 c538                 LGOTO 0x2c7; main.o:_00613_DS_=0x2c7
000002c3 defb                 MOVIA 0x4
000002c4 e0fc                 BCR 0x3, 0x6
000002c5 ff1b                 MOVAR 0x64
000002c6 c51b                 LGOTO 0x2e4; main.o:_00629_DS_=0x2e4
000002c7                      main.o:_00613_DS_:
000002c7 defa                 MOVIA 0x5
000002c8 e0fc                 BCR 0x3, 0x6
000002c9 fbdb                 SUBAR 0x24, 0x0
000002ca f6fc                 BTRSS 0x3, 0x2
000002cb c531                 LGOTO 0x2ce; main.o:_00684_DS_=0x2ce
000002cc de19                 MOVIA 0xe6
000002cd fbdc                 SUBAR 0x23, 0x0
000002ce                      main.o:_00684_DS_:
000002ce f3fc                 BTRSC 0x3, 0x0
000002cf c52b                 LGOTO 0x2d4; main.o:_00610_DS_=0x2d4
000002d0 defa                 MOVIA 0x5
000002d1 e0fc                 BCR 0x3, 0x6
000002d2 ff1b                 MOVAR 0x64
000002d3 c51b                 LGOTO 0x2e4; main.o:_00629_DS_=0x2e4
000002d4                      main.o:_00610_DS_:
000002d4 def9                 MOVIA 0x6
000002d5 e0fc                 BCR 0x3, 0x6
000002d6 fbdb                 SUBAR 0x24, 0x0
000002d7 f6fc                 BTRSS 0x3, 0x2
000002d8 c524                 LGOTO 0x2db; main.o:_00685_DS_=0x2db
000002d9 defb                 MOVIA 0x4
000002da fbdc                 SUBAR 0x23, 0x0
000002db                      main.o:_00685_DS_:
000002db f3fc                 BTRSC 0x3, 0x0
000002dc c51e                 LGOTO 0x2e1; main.o:_00607_DS_=0x2e1
000002dd def9                 MOVIA 0x6
000002de e0fc                 BCR 0x3, 0x6
000002df ff1b                 MOVAR 0x64
000002e0 c51b                 LGOTO 0x2e4; main.o:_00629_DS_=0x2e4
000002e1                      main.o:_00607_DS_:
000002e1 def8                 MOVIA 0x7
000002e2 e0fc                 BCR 0x3, 0x6
000002e3 ff1b                 MOVAR 0x64
000002e4                      main.o:_00629_DS_:
000002e4 e4fc                 BSR 0x3, 0x6
000002e5 fedf                 MOVR 0x20, 0x0
000002e6 f2fc                 BTRSC 0x3, 0x2
000002e7 c511                 LGOTO 0x2ee; main.o:_00630_DS_=0x2ee
000002e8 e0fc                 BCR 0x3, 0x6
000002e9 fe9b                 MOVR 0x64, 0x0
000002ea e4fc                 BSR 0x3, 0x6
000002eb fbdf                 SUBAR 0x20, 0x0
000002ec f3fc                 BTRSC 0x3, 0x0
000002ed c50d                 LGOTO 0x2f2; main.o:_00631_DS_=0x2f2
000002ee                      main.o:_00630_DS_:
000002ee e0fc                 BCR 0x3, 0x6
000002ef fe9b                 MOVR 0x64, 0x0
000002f0 e4fc                 BSR 0x3, 0x6
000002f1 ff5f                 MOVAR 0x20
000002f2                      main.o:_00631_DS_:
000002f2 e0fc                 BCR 0x3, 0x6
000002f3 fe90                 MOVR 0x6f, 0x0
000002f4 f2fc                 BTRSC 0x3, 0x2
000002f5 c502                 LGOTO 0x2fd; main.o:_00636_DS_=0x2fd
000002f6 e4fc                 BSR 0x3, 0x6
000002f7 fedf                 MOVR 0x20, 0x0
000002f8 f2fc                 BTRSC 0x3, 0x2
000002f9 c502                 LGOTO 0x2fd; main.o:_00636_DS_=0x2fd
000002fa fedf                 MOVR 0x20, 0x0
000002fb e0fc                 BCR 0x3, 0x6
000002fc ff1b                 MOVAR 0x64
000002fd                      main.o:_00636_DS_:
000002fd ffef                 RET
000002fe                      _initAD:
000002fe de7b                 MOVIA 0x84
000002ff ff6f                 MOVAR 0x10
00000300 fd6c                 CLRR 0x13
00000301 deef                 MOVIA 0x10
00000302 ff6e                 MOVAR 0x11
00000303 defc                 MOVIA 0x3
00000304 ff6b                 MOVAR 0x14
00000305 e5ef                 BSR 0x10, 0x4
00000306 de9b                 MOVIA 0x64
00000307 d4f6                 LCALL 0x309; _delay=0x309
00000308 ffef                 RET
00000309                      _delay:
00000309 e0fc                 BCR 0x3, 0x6
0000030a ff4a                 MOVAR 0x35
0000030b fd49                 CLRR 0x36
0000030c                      main.o:_00591_DS_:
0000030c e0fc                 BCR 0x3, 0x6
0000030d feca                 MOVR 0x35, 0x0
0000030e fbc9                 SUBAR 0x36, 0x0
0000030f f3fc                 BTRSC 0x3, 0x0
00000310 c4eb                 LGOTO 0x314; main.o:_00593_DS_=0x314
00000311 ffff                 NOP
00000312 fa49                 INCR 0x36, 0x1
00000313 c4f3                 LGOTO 0x30c; main.o:_00591_DS_=0x30c
00000314                      main.o:_00593_DS_:
00000314 ffef                 RET
00000315                      _chrgCtr:
00000315 e0fc                 BCR 0x3, 0x6
00000316 f67a                 BTRSS 0x5, 0x3
00000317 c414                 LGOTO 0x3eb; main.o:_00507_DS_=0x3eb
00000318 e622                 BSR 0x5d, 0x3
00000319 fd1e                 CLRR 0x61
0000031a fd10                 CLRR 0x6f
0000031b d3ad                 LCALL 0x452; _pwmStop=0x452
0000031c def7                 MOVIA 0x8
0000031d e0fc                 BCR 0x3, 0x6
0000031e fb9b                 SUBAR 0x64, 0x0
0000031f f3fc                 BTRSC 0x3, 0x0
00000320 c4da                 LGOTO 0x325; main.o:_00500_DS_=0x325
00000321 e4fc                 BSR 0x3, 0x6
00000322 fedc                 MOVR 0x23, 0x0
00000323 f2fc                 BTRSC 0x3, 0x2
00000324 c4ba                 LGOTO 0x345; main.o:_00501_DS_=0x345
00000325                      main.o:_00500_DS_:
00000325 def9                 MOVIA 0x6
00000326 e0fc                 BCR 0x3, 0x6
00000327 ff00                 MOVAR 0x7f
00000328 ff1d                 MOVAR 0x62
00000329 fa0e                 INCR 0x71, 0x1
0000032a f2fc                 BTRSC 0x3, 0x2
0000032b fa0d                 INCR 0x72, 0x1
0000032c def8                 MOVIA 0x7
0000032d fb8d                 SUBAR 0x72, 0x0
0000032e f6fc                 BTRSS 0x3, 0x2
0000032f c4cd                 LGOTO 0x332; main.o:_00572_DS_=0x332
00000330 de2f                 MOVIA 0xd0
00000331 fb8e                 SUBAR 0x71, 0x0
00000332                      main.o:_00572_DS_:
00000332 f7fc                 BTRSS 0x3, 0x0
00000333 c3fd                 LGOTO 0x402; main.o:_00509_DS_=0x402
00000334 de2f                 MOVIA 0xd0
00000335 e0fc                 BCR 0x3, 0x6
00000336 ff0e                 MOVAR 0x71
00000337 def8                 MOVIA 0x7
00000338 ff0d                 MOVAR 0x72
00000339 defe                 MOVIA 0x1
0000033a e4fc                 BSR 0x3, 0x6
0000033b ff5c                 MOVAR 0x23
0000033c d39d                 LCALL 0x462; _pwm1Stop=0x462
0000033d e279                 BCR 0x6, 0x3
0000033e ffe9                 IOSTR 0x6
0000033f e0fc                 BCR 0x3, 0x6
00000340 ff4e                 MOVAR 0x31
00000341 e64e                 BSR 0x31, 0x3
00000342 fece                 MOVR 0x31, 0x0
00000343 fff9                 IOST 0x6
00000344 c3fd                 LGOTO 0x402; main.o:_00509_DS_=0x402
00000345                      main.o:_00501_DS_:
00000345 ffe9                 IOSTR 0x6
00000346 e0fc                 BCR 0x3, 0x6
00000347 ff4e                 MOVAR 0x31
00000348 e24e                 BCR 0x31, 0x3
00000349 fece                 MOVR 0x31, 0x0
0000034a fff9                 IOST 0x6
0000034b fd0e                 CLRR 0x71
0000034c fd0d                 CLRR 0x72
0000034d fea0                 MOVR 0x5f, 0x0
0000034e f6fc                 BTRSS 0x3, 0x2
0000034f c476                 LGOTO 0x389; main.o:_00478_DS_=0x389
00000350 def7                 MOVIA 0x8
00000351 fb9b                 SUBAR 0x64, 0x0
00000352 f3fc                 BTRSC 0x3, 0x0
00000353 c476                 LGOTO 0x389; main.o:_00478_DS_=0x389
00000354 def9                 MOVIA 0x6
00000355 fb83                 SUBAR 0x7c, 0x0
00000356 f3fc                 BTRSC 0x3, 0x0
00000357 c476                 LGOTO 0x389; main.o:_00478_DS_=0x389
00000358 fe9b                 MOVR 0x64, 0x0
00000359 ff4e                 MOVAR 0x31
0000035a fd4d                 CLRR 0x32
0000035b de00                 MOVIA 0xff
0000035c fc4e                 ADDAR 0x31, 0x1
0000035d f3fc                 BTRSC 0x3, 0x0
0000035e c49f                 LGOTO 0x360; main.o:_00006_DS_=0x360
0000035f f94d                 DECR 0x32, 0x1
00000360                      main.o:_00006_DS_:
00000360 e0fc                 BCR 0x3, 0x6
00000361 fe83                 MOVR 0x7c, 0x0
00000362 ff4c                 MOVAR 0x33
00000363 deff                 MOVIA 0x0
00000364 da7f                 ADDIA 0x80
00000365 ff4b                 MOVAR 0x34
00000366 fecd                 MOVR 0x32, 0x0
00000367 da7f                 ADDIA 0x80
00000368 fbcb                 SUBAR 0x34, 0x0
00000369 f6fc                 BTRSS 0x3, 0x2
0000036a c492                 LGOTO 0x36d; main.o:_00575_DS_=0x36d
0000036b fece                 MOVR 0x31, 0x0
0000036c fbcc                 SUBAR 0x33, 0x0
0000036d                      main.o:_00575_DS_:
0000036d f3fc                 BTRSC 0x3, 0x0
0000036e c480                 LGOTO 0x37f; main.o:_00473_DS_=0x37f
0000036f e0fc                 BCR 0x3, 0x6
00000370 fe83                 MOVR 0x7c, 0x0
00000371 f6fc                 BTRSS 0x3, 0x2
00000372 c48a                 LGOTO 0x375; main.o:_00469_DS_=0x375
00000373 f99b                 DECR 0x64, 0x0
00000374 ff03                 MOVAR 0x7c
00000375                      main.o:_00469_DS_:
00000375 e4fc                 BSR 0x3, 0x6
00000376 fa5b                 INCR 0x24, 0x1
00000377 de9a                 MOVIA 0x65
00000378 fbdb                 SUBAR 0x24, 0x0
00000379 f7fc                 BTRSS 0x3, 0x0
0000037a c47e                 LGOTO 0x381; main.o:_00474_DS_=0x381
0000037b e0fc                 BCR 0x3, 0x6
0000037c f99b                 DECR 0x64, 0x0
0000037d ff03                 MOVAR 0x7c
0000037e c47e                 LGOTO 0x381; main.o:_00474_DS_=0x381
0000037f                      main.o:_00473_DS_:
0000037f e4fc                 BSR 0x3, 0x6
00000380 fd5b                 CLRR 0x24
00000381                      main.o:_00474_DS_:
00000381 e0fc                 BCR 0x3, 0x6
00000382 fa1d                 INCR 0x62, 0x1
00000383 def8                 MOVIA 0x7
00000384 fb9d                 SUBAR 0x62, 0x0
00000385 f7fc                 BTRSS 0x3, 0x0
00000386 c476                 LGOTO 0x389; main.o:_00478_DS_=0x389
00000387 fe83                 MOVR 0x7c, 0x0
00000388 ff1d                 MOVAR 0x62
00000389                      main.o:_00478_DS_:
00000389 def9                 MOVIA 0x6
0000038a e0fc                 BCR 0x3, 0x6
0000038b fb83                 SUBAR 0x7c, 0x0
0000038c f7fc                 BTRSS 0x3, 0x0
0000038d c46f                 LGOTO 0x390; main.o:_00482_DS_=0x390
0000038e def9                 MOVIA 0x6
0000038f ff1d                 MOVAR 0x62
00000390                      main.o:_00482_DS_:
00000390 e4fc                 BSR 0x3, 0x6
00000391 fedd                 MOVR 0x22, 0x0
00000392 ffbc                 SFUN 0x3
00000393 d39a                 LCALL 0x465; _pwm1Init=0x465
00000394 def9                 MOVIA 0x6
00000395 e0fc                 BCR 0x3, 0x6
00000396 fb96                 SUBAR 0x69, 0x0
00000397 f7fc                 BTRSS 0x3, 0x0
00000398 c3fd                 LGOTO 0x402; main.o:_00509_DS_=0x402
00000399 deff                 MOVIA 0x0
0000039a fbde                 SUBAR 0x21, 0x0
0000039b f6fc                 BTRSS 0x3, 0x2
0000039c c460                 LGOTO 0x39f; main.o:_00580_DS_=0x39f
0000039d dedb                 MOVIA 0x24
0000039e fbdf                 SUBAR 0x20, 0x0
0000039f                      main.o:_00580_DS_:
0000039f f3fc                 BTRSC 0x3, 0x0
000003a0 c44e                 LGOTO 0x3b1; main.o:_00484_DS_=0x3b1
000003a1 e4fc                 BSR 0x3, 0x6
000003a2 fed8                 MOVR 0x27, 0x0
000003a3 e0fc                 BCR 0x3, 0x6
000003a4 ff4e                 MOVAR 0x31
000003a5 fd4d                 CLRR 0x32
000003a6 deff                 MOVIA 0x0
000003a7 fbde                 SUBAR 0x21, 0x0
000003a8 f6fc                 BTRSS 0x3, 0x2
000003a9 c453                 LGOTO 0x3ac; main.o:_00581_DS_=0x3ac
000003aa fece                 MOVR 0x31, 0x0
000003ab fbdf                 SUBAR 0x20, 0x0
000003ac                      main.o:_00581_DS_:
000003ac f7fc                 BTRSS 0x3, 0x0
000003ad c44e                 LGOTO 0x3b1; main.o:_00484_DS_=0x3b1
000003ae e4fc                 BSR 0x3, 0x6
000003af fd59                 CLRR 0x26
000003b0 fd5a                 CLRR 0x25
000003b1                      main.o:_00484_DS_:
000003b1 deff                 MOVIA 0x0
000003b2 e0fc                 BCR 0x3, 0x6
000003b3 fbde                 SUBAR 0x21, 0x0
000003b4 f6fc                 BTRSS 0x3, 0x2
000003b5 c447                 LGOTO 0x3b8; main.o:_00582_DS_=0x3b8
000003b6 dedb                 MOVIA 0x24
000003b7 fbdf                 SUBAR 0x20, 0x0
000003b8                      main.o:_00582_DS_:
000003b8 f7fc                 BTRSS 0x3, 0x0
000003b9 c436                 LGOTO 0x3c9; main.o:_00493_DS_=0x3c9
000003ba e4fc                 BSR 0x3, 0x6
000003bb fa59                 INCR 0x26, 0x1
000003bc fed9                 MOVR 0x26, 0x0
000003bd fbd7                 SUBAR 0x28, 0x0
000003be f3fc                 BTRSC 0x3, 0x0
000003bf c439                 LGOTO 0x3c6; main.o:_00487_DS_=0x3c6
000003c0 f95d                 DECR 0x22, 0x1
000003c1 fd59                 CLRR 0x26
000003c2 dedd                 MOVIA 0x22
000003c3 ff58                 MOVAR 0x27
000003c4 de05                 MOVIA 0xfa
000003c5 ff57                 MOVAR 0x28
000003c6                      main.o:_00487_DS_:
000003c6 e4fc                 BSR 0x3, 0x6
000003c7 fd5a                 CLRR 0x25
000003c8 c41f                 LGOTO 0x3e0; main.o:_00494_DS_=0x3e0
000003c9                      main.o:_00493_DS_:
000003c9 e4fc                 BSR 0x3, 0x6
000003ca fed8                 MOVR 0x27, 0x0
000003cb e0fc                 BCR 0x3, 0x6
000003cc ff4e                 MOVAR 0x31
000003cd fd4d                 CLRR 0x32
000003ce deff                 MOVIA 0x0
000003cf fbde                 SUBAR 0x21, 0x0
000003d0 f6fc                 BTRSS 0x3, 0x2
000003d1 c42b                 LGOTO 0x3d4; main.o:_00584_DS_=0x3d4
000003d2 fece                 MOVR 0x31, 0x0
000003d3 fbdf                 SUBAR 0x20, 0x0
000003d4                      main.o:_00584_DS_:
000003d4 f3fc                 BTRSC 0x3, 0x0
000003d5 c41f                 LGOTO 0x3e0; main.o:_00494_DS_=0x3e0
000003d6 e4fc                 BSR 0x3, 0x6
000003d7 fa5a                 INCR 0x25, 0x1
000003d8 feda                 MOVR 0x25, 0x0
000003d9 fbd7                 SUBAR 0x28, 0x0
000003da f3fc                 BTRSC 0x3, 0x0
000003db c421                 LGOTO 0x3de; main.o:_00489_DS_=0x3de
000003dc fa5d                 INCR 0x22, 0x1
000003dd fd5a                 CLRR 0x25
000003de                      main.o:_00489_DS_:
000003de e4fc                 BSR 0x3, 0x6
000003df fd59                 CLRR 0x26
000003e0                      main.o:_00494_DS_:
000003e0 e4fc                 BSR 0x3, 0x6
000003e1 fedd                 MOVR 0x22, 0x0
000003e2 fbde                 SUBAR 0x21, 0x0
000003e3 f3fc                 BTRSC 0x3, 0x0
000003e4 c418                 LGOTO 0x3e7; main.o:_00496_DS_=0x3e7
000003e5 fa5e                 INCR 0x21, 0x1
000003e6 c3fd                 LGOTO 0x402; main.o:_00509_DS_=0x402
000003e7                      main.o:_00496_DS_:
000003e7 e4fc                 BSR 0x3, 0x6
000003e8 fedd                 MOVR 0x22, 0x0
000003e9 ff5e                 MOVAR 0x21
000003ea c3fd                 LGOTO 0x402; main.o:_00509_DS_=0x402
000003eb                      main.o:_00507_DS_:
000003eb deeb                 MOVIA 0x14
000003ec e4fc                 BSR 0x3, 0x6
000003ed ff57                 MOVAR 0x28
000003ee dede                 MOVIA 0x21
000003ef ff58                 MOVAR 0x27
000003f0 fd5c                 CLRR 0x23
000003f1 fd5e                 CLRR 0x21
000003f2 fd5d                 CLRR 0x22
000003f3 e0fc                 BCR 0x3, 0x6
000003f4 fd00                 CLRR 0x7f
000003f5 fd03                 CLRR 0x7c
000003f6 fd1a                 CLRR 0x65
000003f7 fd19                 CLRR 0x66
000003f8 d39d                 LCALL 0x462; _pwm1Stop=0x462
000003f9 e0fc                 BCR 0x3, 0x6
000003fa fe9e                 MOVR 0x61, 0x0
000003fb f6fc                 BTRSS 0x3, 0x2
000003fc c401                 LGOTO 0x3fe; main.o:_00007_DS_=0x3fe
000003fd fd1d                 CLRR 0x62
000003fe                      main.o:_00007_DS_:
000003fe e0fc                 BCR 0x3, 0x6
000003ff e222                 BCR 0x5d, 0x3
00000400 fd1a                 CLRR 0x65
00000401 fd19                 CLRR 0x66
00000402                      main.o:_00509_DS_:
00000402 ffef                 RET
00000403                      _keyRead:
00000403 e0fc                 BCR 0x3, 0x6
00000404 ff4f                 MOVAR 0x30
00000405 fecf                 MOVR 0x30, 0x0
00000406 f2fc                 BTRSC 0x3, 0x2
00000407 c3eb                 LGOTO 0x414; main.o:_00459_DS_=0x414
00000408 fa1f                 INCR 0x60, 0x1
00000409 de9b                 MOVIA 0x64
0000040a fb9f                 SUBAR 0x60, 0x0
0000040b f7fc                 BTRSS 0x3, 0x0
0000040c c3d8                 LGOTO 0x427; main.o:_00460_DS_=0x427
0000040d de9b                 MOVIA 0x64
0000040e ff1f                 MOVAR 0x60
0000040f f322                 BTRSC 0x5d, 0x1
00000410 c3d8                 LGOTO 0x427; main.o:_00460_DS_=0x427
00000411 e722                 BSR 0x5d, 0x1
00000412 defd                 MOVIA 0x2
00000413 c3d7                 LGOTO 0x428; main.o:_00461_DS_=0x428
00000414                      main.o:_00459_DS_:
00000414 de9b                 MOVIA 0x64
00000415 e0fc                 BCR 0x3, 0x6
00000416 fb9f                 SUBAR 0x60, 0x0
00000417 f7fc                 BTRSS 0x3, 0x0
00000418 c3e2                 LGOTO 0x41d; main.o:_00456_DS_=0x41d
00000419 fd1f                 CLRR 0x60
0000041a e322                 BCR 0x5d, 0x1
0000041b deff                 MOVIA 0x0
0000041c c3d7                 LGOTO 0x428; main.o:_00461_DS_=0x428
0000041d                      main.o:_00456_DS_:
0000041d defb                 MOVIA 0x4
0000041e e0fc                 BCR 0x3, 0x6
0000041f fb9f                 SUBAR 0x60, 0x0
00000420 f7fc                 BTRSS 0x3, 0x0
00000421 c3da                 LGOTO 0x425; main.o:_00457_DS_=0x425
00000422 fd1f                 CLRR 0x60
00000423 defe                 MOVIA 0x1
00000424 c3d7                 LGOTO 0x428; main.o:_00461_DS_=0x428
00000425                      main.o:_00457_DS_:
00000425 e0fc                 BCR 0x3, 0x6
00000426 fd1f                 CLRR 0x60
00000427                      main.o:_00460_DS_:
00000427 deff                 MOVIA 0x0
00000428                      main.o:_00461_DS_:
00000428 ffef                 RET
00000429                      _gotoSleep:
00000429 d31d                 LCALL 0x4e2; _LedInput=0x4e2
0000042a e0fc                 BCR 0x3, 0x6
0000042b fd18                 CLRR 0x67
0000042c fd17                 CLRR 0x68
0000042d d3ad                 LCALL 0x452; _pwmStop=0x452
0000042e d39d                 LCALL 0x462; _pwm1Stop=0x462
0000042f de37                 MOVIA 0xc8
00000430 fffa                 IOST 0x5
00000431 deb9                 MOVIA 0x46
00000432 e0fc                 BCR 0x3, 0x6
00000433 ff7a                 MOVAR 0x5
00000434 dec0                 MOVIA 0x3f
00000435 fff6                 IOST 0x9
00000436 fd79                 CLRR 0x6
00000437 fd1e                 CLRR 0x61
00000438 de77                 MOVIA 0x88
00000439 ff6a                 MOVAR 0x15
0000043a fd76                 CLRR 0x9
0000043b e2a2                 BCR 0x5d, 0x2
0000043c defd                 MOVIA 0x2
0000043d ff71                 MOVAR 0xe
0000043e dee7                 MOVIA 0x18
0000043f ff77                 MOVAR 0x8
00000440 fd70                 CLRR 0xf
00000441 fffd                 CLRWDT
00000442 fffb                 ENI
00000443 fffe                 SLEEP
00000444 fd6a                 CLRR 0x15
00000445 de41                 MOVIA 0xbe
00000446 fffa                 IOST 0x5
00000447 fdff                 CLRA
00000448 fff9                 IOST 0x6
00000449 fd7a                 CLRR 0x5
0000044a de80                 MOVIA 0x7f
0000044b fff6                 IOST 0x9
0000044c defe                 MOVIA 0x1
0000044d ff71                 MOVAR 0xe
0000044e fd70                 CLRR 0xf
0000044f de47                 MOVIA 0xb8
00000450 ff77                 MOVAR 0x8
00000451 ffef                 RET
00000452                      _pwmStop:
00000452 fdff                 CLRA
00000453 ffb5                 SFUN 0xa
00000454 ffef                 RET
00000455                      _pwmInit:
00000455 ff95                 SFUNR 0xa
00000456 e0fc                 BCR 0x3, 0x6
00000457 ff50                 MOVAR 0x2f
00000458 f050                 BTRSC 0x2f, 0x7
00000459 c39e                 LGOTO 0x461; main.o:_00436_DS_=0x461
0000045a fd66                 CLRR 0x19
0000045b de9b                 MOVIA 0x64
0000045c ffb6                 SFUN 0x9
0000045d defe                 MOVIA 0x1
0000045e ffb4                 SFUN 0xb
0000045f de7c                 MOVIA 0x83
00000460 ffb5                 SFUN 0xa
00000461                      main.o:_00436_DS_:
00000461 ffef                 RET
00000462                      _pwm1Stop:
00000462 fdff                 CLRA
00000463 ffbe                 SFUN 0x1
00000464 ffef                 RET
00000465                      _pwm1Init:
00000465 ff9e                 SFUNR 0x1
00000466 e0fc                 BCR 0x3, 0x6
00000467 ff51                 MOVAR 0x2e
00000468 f051                 BTRSC 0x2e, 0x7
00000469 c38c                 LGOTO 0x473; main.o:_00425_DS_=0x473
0000046a fd66                 CLRR 0x19
0000046b decf                 MOVIA 0x30
0000046c ffbf                 SFUN 0x0
0000046d fdff                 CLRA
0000046e ffbd                 SFUN 0x2
0000046f def7                 MOVIA 0x8
00000470 ffbd                 SFUN 0x2
00000471 de7c                 MOVIA 0x83
00000472 ffbe                 SFUN 0x1
00000473                      main.o:_00425_DS_:
00000473 ffef                 RET
00000474                      _LED6ON:
00000474 ffea                 IOSTR 0x5
00000475 e0fc                 BCR 0x3, 0x6
00000476 ff52                 MOVAR 0x2d
00000477 e3d2                 BCR 0x2d, 0x0
00000478 fed2                 MOVR 0x2d, 0x0
00000479 fffa                 IOST 0x5
0000047a ffe9                 IOSTR 0x6
0000047b ff52                 MOVAR 0x2d
0000047c e352                 BCR 0x2d, 0x1
0000047d fed2                 MOVR 0x2d, 0x0
0000047e fff9                 IOST 0x6
0000047f e779                 BSR 0x6, 0x1
00000480 e3fa                 BCR 0x5, 0x0
00000481 de9b                 MOVIA 0x64
00000482 d4f6                 LCALL 0x309; _delay=0x309
00000483 d31d                 LCALL 0x4e2; _LedInput=0x4e2
00000484 ffef                 RET
00000485                      _LED5ON:
00000485 ffea                 IOSTR 0x5
00000486 e0fc                 BCR 0x3, 0x6
00000487 ff53                 MOVAR 0x2c
00000488 e3d3                 BCR 0x2c, 0x0
00000489 fed3                 MOVR 0x2c, 0x0
0000048a fffa                 IOST 0x5
0000048b ffe9                 IOSTR 0x6
0000048c ff53                 MOVAR 0x2c
0000048d e353                 BCR 0x2c, 0x1
0000048e fed3                 MOVR 0x2c, 0x0
0000048f fff9                 IOST 0x6
00000490 e7fa                 BSR 0x5, 0x0
00000491 e379                 BCR 0x6, 0x1
00000492 de9b                 MOVIA 0x64
00000493 d4f6                 LCALL 0x309; _delay=0x309
00000494 d31d                 LCALL 0x4e2; _LedInput=0x4e2
00000495 ffef                 RET
00000496                      _LED4ON:
00000496 ffe9                 IOSTR 0x6
00000497 e0fc                 BCR 0x3, 0x6
00000498 ff54                 MOVAR 0x2b
00000499 de21                 MOVIA 0xde
0000049a ef54                 ANDAR 0x2b, 0x1
0000049b fed4                 MOVR 0x2b, 0x0
0000049c fff9                 IOST 0x6
0000049d ffea                 IOSTR 0x5
0000049e ff54                 MOVAR 0x2b
0000049f e3d4                 BCR 0x2b, 0x0
000004a0 fed4                 MOVR 0x2b, 0x0
000004a1 fffa                 IOST 0x5
000004a2 dede                 MOVIA 0x21
000004a3 ee79                 IORAR 0x6, 0x1
000004a4 e3fa                 BCR 0x5, 0x0
000004a5 de9b                 MOVIA 0x64
000004a6 d4f6                 LCALL 0x309; _delay=0x309
000004a7 d31d                 LCALL 0x4e2; _LedInput=0x4e2
000004a8 ffef                 RET
000004a9                      _LED3ON:
000004a9 ffe9                 IOSTR 0x6
000004aa e0fc                 BCR 0x3, 0x6
000004ab ff55                 MOVAR 0x2a
000004ac de21                 MOVIA 0xde
000004ad ef55                 ANDAR 0x2a, 0x1
000004ae fed5                 MOVR 0x2a, 0x0
000004af fff9                 IOST 0x6
000004b0 ffe9                 IOSTR 0x6
000004b1 ff55                 MOVAR 0x2a
000004b2 e355                 BCR 0x2a, 0x1
000004b3 fed5                 MOVR 0x2a, 0x0
000004b4 fff9                 IOST 0x6
000004b5 e779                 BSR 0x6, 0x1
000004b6 de21                 MOVIA 0xde
000004b7 ef79                 ANDAR 0x6, 0x1
000004b8 de9b                 MOVIA 0x64
000004b9 d4f6                 LCALL 0x309; _delay=0x309
000004ba d31d                 LCALL 0x4e2; _LedInput=0x4e2
000004bb ffef                 RET
000004bc                      _LED2ON:
000004bc ffea                 IOSTR 0x5
000004bd e0fc                 BCR 0x3, 0x6
000004be ff56                 MOVAR 0x29
000004bf e3d6                 BCR 0x29, 0x0
000004c0 fed6                 MOVR 0x29, 0x0
000004c1 fffa                 IOST 0x5
000004c2 ffe9                 IOSTR 0x6
000004c3 ff56                 MOVAR 0x29
000004c4 de21                 MOVIA 0xde
000004c5 ef56                 ANDAR 0x29, 0x1
000004c6 fed6                 MOVR 0x29, 0x0
000004c7 fff9                 IOST 0x6
000004c8 e7fa                 BSR 0x5, 0x0
000004c9 de21                 MOVIA 0xde
000004ca ef79                 ANDAR 0x6, 0x1
000004cb de9b                 MOVIA 0x64
000004cc d4f6                 LCALL 0x309; _delay=0x309
000004cd d31d                 LCALL 0x4e2; _LedInput=0x4e2
000004ce ffef                 RET
000004cf                      _LED1ON:
000004cf ffe9                 IOSTR 0x6
000004d0 e0fc                 BCR 0x3, 0x6
000004d1 ff57                 MOVAR 0x28
000004d2 de21                 MOVIA 0xde
000004d3 ef57                 ANDAR 0x28, 0x1
000004d4 fed7                 MOVR 0x28, 0x0
000004d5 fff9                 IOST 0x6
000004d6 ffe9                 IOSTR 0x6
000004d7 ff57                 MOVAR 0x28
000004d8 e357                 BCR 0x28, 0x1
000004d9 fed7                 MOVR 0x28, 0x0
000004da fff9                 IOST 0x6
000004db dede                 MOVIA 0x21
000004dc ee79                 IORAR 0x6, 0x1
000004dd e379                 BCR 0x6, 0x1
000004de de9b                 MOVIA 0x64
000004df d4f6                 LCALL 0x309; _delay=0x309
000004e0 d31d                 LCALL 0x4e2; _LedInput=0x4e2
000004e1 ffef                 RET
000004e2                      _LedInput:
000004e2 ffea                 IOSTR 0x5
000004e3 e0fc                 BCR 0x3, 0x6
000004e4 ff58                 MOVAR 0x27
000004e5 e7d8                 BSR 0x27, 0x0
000004e6 fed8                 MOVR 0x27, 0x0
000004e7 fffa                 IOST 0x5
000004e8 ffe9                 IOSTR 0x6
000004e9 ff58                 MOVAR 0x27
000004ea dedc                 MOVIA 0x23
000004eb ee58                 IORAR 0x27, 0x1
000004ec fed8                 MOVR 0x27, 0x0
000004ed fff9                 IOST 0x6
000004ee e3fa                 BCR 0x5, 0x0
000004ef de23                 MOVIA 0xdc
000004f0 ef79                 ANDAR 0x6, 0x1
000004f1 ffef                 RET
000004f2                      _ledShow:
000004f2 e0fc                 BCR 0x3, 0x6
000004f3 fe84                 MOVR 0x7b, 0x0
000004f4 f2fc                 BTRSC 0x3, 0x2
000004f5 c2ff                 LGOTO 0x500; main.o:_00322_DS_=0x500
000004f6 fe9e                 MOVR 0x61, 0x0
000004f7 f6fc                 BTRSS 0x3, 0x2
000004f8 c2ff                 LGOTO 0x500; main.o:_00322_DS_=0x500
000004f9 f384                 BTRSC 0x7b, 0x0
000004fa c302                 LGOTO 0x4fd; main.o:_00319_DS_=0x4fd
000004fb fd1d                 CLRR 0x62
000004fc c2ff                 LGOTO 0x500; main.o:_00322_DS_=0x500
000004fd                      main.o:_00319_DS_:
000004fd e0fc                 BCR 0x3, 0x6
000004fe fe87                 MOVR 0x78, 0x0
000004ff ff1d                 MOVAR 0x62
00000500                      main.o:_00322_DS_:
00000500 e0fc                 BCR 0x3, 0x6
00000501 fe90                 MOVR 0x6f, 0x0
00000502 f2fc                 BTRSC 0x3, 0x2
00000503 c2eb                 LGOTO 0x514; main.o:_00330_DS_=0x514
00000504 fe9b                 MOVR 0x64, 0x0
00000505 f2fc                 BTRSC 0x3, 0x2
00000506 c2eb                 LGOTO 0x514; main.o:_00330_DS_=0x514
00000507 fe90                 MOVR 0x6f, 0x0
00000508 f2fc                 BTRSC 0x3, 0x2
00000509 c2eb                 LGOTO 0x514; main.o:_00330_DS_=0x514
0000050a def8                 MOVIA 0x7
0000050b fb9b                 SUBAR 0x64, 0x0
0000050c f7fc                 BTRSS 0x3, 0x0
0000050d c2ee                 LGOTO 0x511; main.o:_00325_DS_=0x511
0000050e def9                 MOVIA 0x6
0000050f ff1d                 MOVAR 0x62
00000510 c2eb                 LGOTO 0x514; main.o:_00330_DS_=0x514
00000511                      main.o:_00325_DS_:
00000511 e0fc                 BCR 0x3, 0x6
00000512 fe9b                 MOVR 0x64, 0x0
00000513 ff1d                 MOVAR 0x62
00000514                      main.o:_00330_DS_:
00000514 e0fc                 BCR 0x3, 0x6
00000515 fe8c                 MOVR 0x73, 0x0
00000516 f2fc                 BTRSC 0x3, 0x2
00000517 c2d8                 LGOTO 0x527; main.o:_00336_DS_=0x527
00000518 fe9e                 MOVR 0x61, 0x0
00000519 f2fc                 BTRSC 0x3, 0x2
0000051a c2d8                 LGOTO 0x527; main.o:_00336_DS_=0x527
0000051b fe9b                 MOVR 0x64, 0x0
0000051c f6fc                 BTRSS 0x3, 0x2
0000051d c2d8                 LGOTO 0x527; main.o:_00336_DS_=0x527
0000051e decd                 MOVIA 0x32
0000051f fb95                 SUBAR 0x6a, 0x0
00000520 f3fc                 BTRSC 0x3, 0x0
00000521 c2da                 LGOTO 0x525; main.o:_00333_DS_=0x525
00000522 fe9e                 MOVR 0x61, 0x0
00000523 ff1d                 MOVAR 0x62
00000524 c2d8                 LGOTO 0x527; main.o:_00336_DS_=0x527
00000525                      main.o:_00333_DS_:
00000525 e0fc                 BCR 0x3, 0x6
00000526 fd1d                 CLRR 0x62
00000527                      main.o:_00336_DS_:
00000527 d31d                 LCALL 0x4e2; _LedInput=0x4e2
00000528 def6                 MOVIA 0x9
00000529 e0fc                 BCR 0x3, 0x6
0000052a fb9d                 SUBAR 0x62, 0x0
0000052b f3fc                 BTRSC 0x3, 0x0
0000052c c2ba                 LGOTO 0x545; main.o:_00349_DS_=0x545
0000052d defa                 MOVIA 0x5
0000052e ff75                 MOVAR 0xa
0000052f fe9d                 MOVR 0x62, 0x0
00000530 dacb                 ADDIA 0x34
00000531 f3fc                 BTRSC 0x3, 0x0
00000532 fa75                 INCR 0xa, 0x1
00000533 ff7d                 MOVAR 0x2
00000534                      main.o:_00390_DS_:
00000534 c2c2                 LGOTO 0x53d; main.o:_00339_DS_=0x53d
00000535 c2bb                 LGOTO 0x544; main.o:_00347_DS_=0x544
00000536 c2bc                 LGOTO 0x543; main.o:_00346_DS_=0x543
00000537 c2bd                 LGOTO 0x542; main.o:_00345_DS_=0x542
00000538 c2be                 LGOTO 0x541; main.o:_00344_DS_=0x541
00000539 c2bf                 LGOTO 0x540; main.o:_00343_DS_=0x540
0000053a c2c0                 LGOTO 0x53f; main.o:_00342_DS_=0x53f
0000053b c2c0                 LGOTO 0x53f; main.o:_00342_DS_=0x53f
0000053c c2c0                 LGOTO 0x53f; main.o:_00342_DS_=0x53f
0000053d                      main.o:_00339_DS_:
0000053d d31d                 LCALL 0x4e2; _LedInput=0x4e2
0000053e c2ba                 LGOTO 0x545; main.o:_00349_DS_=0x545
0000053f                      main.o:_00342_DS_:
0000053f d38b                 LCALL 0x474; _LED6ON=0x474
00000540                      main.o:_00343_DS_:
00000540 d37a                 LCALL 0x485; _LED5ON=0x485
00000541                      main.o:_00344_DS_:
00000541 d369                 LCALL 0x496; _LED4ON=0x496
00000542                      main.o:_00345_DS_:
00000542 d356                 LCALL 0x4a9; _LED3ON=0x4a9
00000543                      main.o:_00346_DS_:
00000543 d343                 LCALL 0x4bc; _LED2ON=0x4bc
00000544                      main.o:_00347_DS_:
00000544 d330                 LCALL 0x4cf; _LED1ON=0x4cf
00000545                      main.o:_00349_DS_:
00000545 ffef                 RET
00000546                      _initSys:
00000546 ffec                 DISI
00000547 de41                 MOVIA 0xbe
00000548 fffa                 IOST 0x5
00000549 def7                 MOVIA 0x8
0000054a fff9                 IOST 0x6
0000054b fd79                 CLRR 0x6
0000054c e0fc                 BCR 0x3, 0x6
0000054d fd7a                 CLRR 0x5
0000054e d31d                 LCALL 0x4e2; _LedInput=0x4e2
0000054f de80                 MOVIA 0x7f
00000550 fff6                 IOST 0x9
00000551 de00                 MOVIA 0xff
00000552 ff73                 MOVAR 0xc
00000553 ff74                 MOVAR 0xb
00000554 defe                 MOVIA 0x1
00000555 ff71                 MOVAR 0xe
00000556 fdff                 CLRA
00000557 fff0                 IOST 0xf
00000558 dec8                 MOVIA 0x37
00000559 ff7e                 MOVAR 0x1
0000055a defe                 MOVIA 0x1
0000055b fffc                 T0MD
0000055c fff0                 IOST 0xf
0000055d de67                 MOVIA 0x98
0000055e ff77                 MOVAR 0x8
0000055f defe                 MOVIA 0x1
00000560 fff0                 IOST 0xf
00000561 fffb                 ENI
00000562 ffef                 RET
00000563                      _powerOff:
00000563 e0fc                 BCR 0x3, 0x6
00000564 fd1e                 CLRR 0x61
00000565 d3ad                 LCALL 0x452; _pwmStop=0x452
00000566 ffef                 RET
00000567                      _keyCtr:
00000567 e0fc                 BCR 0x3, 0x6
00000568 f8fa                 COMR 0x5, 0x0
00000569 ff59                 MOVAR 0x26
0000056a de7f                 MOVIA 0x80
0000056b ef59                 ANDAR 0x26, 0x1
0000056c fed9                 MOVR 0x26, 0x0
0000056d d3fc                 LCALL 0x403; _keyRead=0x403
0000056e e0fc                 BCR 0x3, 0x6
0000056f ff59                 MOVAR 0x26
00000570 dbfe                 XORIA 0x1
00000571 f6fc                 BTRSS 0x3, 0x2
00000572 c237                 LGOTO 0x5c8; main.o:_00303_DS_=0x5c8
00000573 fd20                 CLRR 0x5f
00000574 fd10                 CLRR 0x6f
00000575 fe9e                 MOVR 0x61, 0x0
00000576 f6fc                 BTRSS 0x3, 0x2
00000577 c281                 LGOTO 0x57e; main.o:_00269_DS_=0x57e
00000578 fd15                 CLRR 0x6a
00000579 defc                 MOVIA 0x3
0000057a ff10                 MOVAR 0x6f
0000057b e4fc                 BSR 0x3, 0x6
0000057c fd5f                 CLRR 0x20
0000057d c211                 LGOTO 0x5ee; main.o:_00305_DS_=0x5ee
0000057e                      main.o:_00269_DS_:
0000057e e0fc                 BCR 0x3, 0x6
0000057f fd12                 CLRR 0x6d
00000580 fa1e                 INCR 0x61, 0x1
00000581 def8                 MOVIA 0x7
00000582 fb9e                 SUBAR 0x61, 0x0
00000583 f7fc                 BTRSS 0x3, 0x0
00000584 c278                 LGOTO 0x587; main.o:_00271_DS_=0x587
00000585 defe                 MOVIA 0x1
00000586 ff1e                 MOVAR 0x61
00000587                      main.o:_00271_DS_:
00000587 e0fc                 BCR 0x3, 0x6
00000588 fe9b                 MOVR 0x64, 0x0
00000589 f6fc                 BTRSS 0x3, 0x2
0000058a c272                 LGOTO 0x58d; main.o:_00273_DS_=0x58d
0000058b def5                 MOVIA 0xa
0000058c ff0c                 MOVAR 0x73
0000058d                      main.o:_00273_DS_:
0000058d e0fc                 BCR 0x3, 0x6
0000058e fe9e                 MOVR 0x61, 0x0
0000058f dbfe                 XORIA 0x1
00000590 f6fc                 BTRSS 0x3, 0x2
00000591 c269                 LGOTO 0x596; main.o:_00289_DS_=0x596
00000592 ded2                 MOVIA 0x2d
00000593 ff1c                 MOVAR 0x63
00000594 fd10                 CLRR 0x6f
00000595 c242                 LGOTO 0x5bd; main.o:_00290_DS_=0x5bd
00000596                      main.o:_00289_DS_:
00000596 e0fc                 BCR 0x3, 0x6
00000597 fe9e                 MOVR 0x61, 0x0
00000598 dbfd                 XORIA 0x2
00000599 f6fc                 BTRSS 0x3, 0x2
0000059a c261                 LGOTO 0x59e; main.o:_00286_DS_=0x59e
0000059b dece                 MOVIA 0x31
0000059c ff1c                 MOVAR 0x63
0000059d c242                 LGOTO 0x5bd; main.o:_00290_DS_=0x5bd
0000059e                      main.o:_00286_DS_:
0000059e e0fc                 BCR 0x3, 0x6
0000059f fe9e                 MOVR 0x61, 0x0
000005a0 dbfc                 XORIA 0x3
000005a1 f6fc                 BTRSS 0x3, 0x2
000005a2 c259                 LGOTO 0x5a6; main.o:_00283_DS_=0x5a6
000005a3 deca                 MOVIA 0x35
000005a4 ff1c                 MOVAR 0x63
000005a5 c242                 LGOTO 0x5bd; main.o:_00290_DS_=0x5bd
000005a6                      main.o:_00283_DS_:
000005a6 e0fc                 BCR 0x3, 0x6
000005a7 fe9e                 MOVR 0x61, 0x0
000005a8 dbfb                 XORIA 0x4
000005a9 f6fc                 BTRSS 0x3, 0x2
000005aa c251                 LGOTO 0x5ae; main.o:_00280_DS_=0x5ae
000005ab dec6                 MOVIA 0x39
000005ac ff1c                 MOVAR 0x63
000005ad c242                 LGOTO 0x5bd; main.o:_00290_DS_=0x5bd
000005ae                      main.o:_00280_DS_:
000005ae e0fc                 BCR 0x3, 0x6
000005af fe9e                 MOVR 0x61, 0x0
000005b0 dbfa                 XORIA 0x5
000005b1 f6fc                 BTRSS 0x3, 0x2
000005b2 c249                 LGOTO 0x5b6; main.o:_00277_DS_=0x5b6
000005b3 dec2                 MOVIA 0x3d
000005b4 ff1c                 MOVAR 0x63
000005b5 c242                 LGOTO 0x5bd; main.o:_00290_DS_=0x5bd
000005b6                      main.o:_00277_DS_:
000005b6 e0fc                 BCR 0x3, 0x6
000005b7 fe9e                 MOVR 0x61, 0x0
000005b8 dbf9                 XORIA 0x6
000005b9 f6fc                 BTRSS 0x3, 0x2
000005ba c242                 LGOTO 0x5bd; main.o:_00290_DS_=0x5bd
000005bb debe                 MOVIA 0x41
000005bc ff1c                 MOVAR 0x63
000005bd                      main.o:_00290_DS_:
000005bd e0fc                 BCR 0x3, 0x6
000005be fe9e                 MOVR 0x61, 0x0
000005bf f2fc                 BTRSC 0x3, 0x2
000005c0 c23b                 LGOTO 0x5c4; main.o:_00292_DS_=0x5c4
000005c1 fe9c                 MOVR 0x63, 0x0
000005c2 ffb3                 SFUN 0xc
000005c3 d3aa                 LCALL 0x455; _pwmInit=0x455
000005c4                      main.o:_00292_DS_:
000005c4 e0fc                 BCR 0x3, 0x6
000005c5 fe9e                 MOVR 0x61, 0x0
000005c6 ff1d                 MOVAR 0x62
000005c7 c211                 LGOTO 0x5ee; main.o:_00305_DS_=0x5ee
000005c8                      main.o:_00303_DS_:
000005c8 e0fc                 BCR 0x3, 0x6
000005c9 fed9                 MOVR 0x26, 0x0
000005ca dbfd                 XORIA 0x2
000005cb f6fc                 BTRSS 0x3, 0x2
000005cc c211                 LGOTO 0x5ee; main.o:_00305_DS_=0x5ee
000005cd fe9e                 MOVR 0x61, 0x0
000005ce f2fc                 BTRSC 0x3, 0x2
000005cf c22d                 LGOTO 0x5d2; main.o:_00298_DS_=0x5d2
000005d0 d29c                 LCALL 0x563; _powerOff=0x563
000005d1 c214                 LGOTO 0x5eb; main.o:_00299_DS_=0x5eb
000005d2                      main.o:_00298_DS_:
000005d2 e0fc                 BCR 0x3, 0x6
000005d3 fe9b                 MOVR 0x64, 0x0
000005d4 dbf5                 XORIA 0xa
000005d5 f6fc                 BTRSS 0x3, 0x2
000005d6 c225                 LGOTO 0x5da; main.o:_00294_DS_=0x5da
000005d7 fd18                 CLRR 0x67
000005d8 fd17                 CLRR 0x68
000005d9 c211                 LGOTO 0x5ee; main.o:_00305_DS_=0x5ee
000005da                      main.o:_00294_DS_:
000005da e0fc                 BCR 0x3, 0x6
000005db fd10                 CLRR 0x6f
000005dc defe                 MOVIA 0x1
000005dd ff1d                 MOVAR 0x62
000005de ff1e                 MOVAR 0x61
000005df deb9                 MOVIA 0x46
000005e0 ffb3                 SFUN 0xc
000005e1 ff0f                 MOVAR 0x70
000005e2 ded2                 MOVIA 0x2d
000005e3 ff1c                 MOVAR 0x63
000005e4 d3aa                 LCALL 0x455; _pwmInit=0x455
000005e5 e0fc                 BCR 0x3, 0x6
000005e6 fe9b                 MOVR 0x64, 0x0
000005e7 f6fc                 BTRSS 0x3, 0x2
000005e8 c214                 LGOTO 0x5eb; main.o:_00299_DS_=0x5eb
000005e9 def5                 MOVIA 0xa
000005ea ff0c                 MOVAR 0x73
000005eb                      main.o:_00299_DS_:
000005eb e0fc                 BCR 0x3, 0x6
000005ec fe9e                 MOVR 0x61, 0x0
000005ed ff1d                 MOVAR 0x62
000005ee                      main.o:_00305_DS_:
000005ee ffef                 RET
000005ef                      __mulchar:
000005ef e0fc                 BCR 0x3, 0x6
000005f0 ff32                 MOVAR 0x4d
000005f1 feb8                 MOVR 0x47, 0x0
000005f2 ff31                 MOVAR 0x4e
000005f3 fd30                 CLRR 0x4f
000005f4 def7                 MOVIA 0x8
000005f5 ff2f                 MOVAR 0x50
000005f6                      _mulchar.o:_00119_DS_:
000005f6 e0fc                 BCR 0x3, 0x6
000005f7 f7b2                 BTRSS 0x4d, 0x0
000005f8 c204                 LGOTO 0x5fb; _mulchar.o:_00114_DS_=0x5fb
000005f9 feb1                 MOVR 0x4e, 0x0
000005fa fc30                 ADDAR 0x4f, 0x1
000005fb                      _mulchar.o:_00114_DS_:
000005fb e3fc                 BCR 0x3, 0x0
000005fc e0fc                 BCR 0x3, 0x6
000005fd ec32                 RRR 0x4d, 0x1
000005fe e3fc                 BCR 0x3, 0x0
000005ff eb31                 RLR 0x4e, 0x1
00000600 f9af                 DECR 0x50, 0x0
00000601 ff2e                 MOVAR 0x51
00000602 ff2f                 MOVAR 0x50
00000603 feae                 MOVR 0x51, 0x0
00000604 f6fc                 BTRSS 0x3, 0x2
00000605 c209                 LGOTO 0x5f6; _mulchar.o:_00119_DS_=0x5f6
00000606 feb0                 MOVR 0x4f, 0x0
00000607 ffef                 RET
00000608                      __divuint:
00000608 e0fc                 BCR 0x3, 0x6
00000609 ff2c                 MOVAR 0x53
0000060a feb8                 MOVR 0x47, 0x0
0000060b ff2d                 MOVAR 0x52
0000060c feb9                 MOVR 0x46, 0x0
0000060d ff2a                 MOVAR 0x55
0000060e feba                 MOVR 0x45, 0x0
0000060f ff2b                 MOVAR 0x54
00000610 fd29                 CLRR 0x56
00000611 fd28                 CLRR 0x57
00000612 defe                 MOVIA 0x1
00000613 ff27                 MOVAR 0x58
00000614 fd26                 CLRR 0x59
00000615 feab                 MOVR 0x54, 0x0
00000616 eeaa                 IORAR 0x55, 0x0
00000617 f6fc                 BTRSS 0x3, 0x2
00000618 c1e3                 LGOTO 0x61c; _divuint.o:_00107_DS_=0x61c
00000619 de00                 MOVIA 0xff
0000061a ff38                 MOVAR 0x47
0000061b c1ae                 LGOTO 0x651; _divuint.o:_00115_DS_=0x651
0000061c                      _divuint.o:_00107_DS_:
0000061c e0fc                 BCR 0x3, 0x6
0000061d f02a                 BTRSC 0x55, 0x7
0000061e c1d9                 LGOTO 0x626; _divuint.o:_00112_DS_=0x626
0000061f e3fc                 BCR 0x3, 0x0
00000620 eb2b                 RLR 0x54, 0x1
00000621 eb2a                 RLR 0x55, 0x1
00000622 e3fc                 BCR 0x3, 0x0
00000623 eb27                 RLR 0x58, 0x1
00000624 eb26                 RLR 0x59, 0x1
00000625 c1e3                 LGOTO 0x61c; _divuint.o:_00107_DS_=0x61c
00000626                      _divuint.o:_00112_DS_:
00000626 e0fc                 BCR 0x3, 0x6
00000627 fea7                 MOVR 0x58, 0x0
00000628 eea6                 IORAR 0x59, 0x0
00000629 f2fc                 BTRSC 0x3, 0x2
0000062a c1b2                 LGOTO 0x64d; _divuint.o:_00114_DS_=0x64d
0000062b feaa                 MOVR 0x55, 0x0
0000062c fbac                 SUBAR 0x53, 0x0
0000062d f6fc                 BTRSS 0x3, 0x2
0000062e c1ce                 LGOTO 0x631; _divuint.o:_00135_DS_=0x631
0000062f feab                 MOVR 0x54, 0x0
00000630 fbad                 SUBAR 0x52, 0x0
00000631                      _divuint.o:_00135_DS_:
00000631 f7fc                 BTRSS 0x3, 0x0
00000632 c1ba                 LGOTO 0x645; _divuint.o:_00002_DS_=0x645
00000633 e0fc                 BCR 0x3, 0x6
00000634 fea7                 MOVR 0x58, 0x0
00000635 fc29                 ADDAR 0x56, 0x1
00000636 fea6                 MOVR 0x59, 0x0
00000637 f3fc                 BTRSC 0x3, 0x0
00000638 faa6                 INCR 0x59, 0x0
00000639 f2fc                 BTRSC 0x3, 0x2
0000063a c1c3                 LGOTO 0x63c; _divuint.o:_00001_DS_=0x63c
0000063b fc28                 ADDAR 0x57, 0x1
0000063c                      _divuint.o:_00001_DS_:
0000063c e0fc                 BCR 0x3, 0x6
0000063d feab                 MOVR 0x54, 0x0
0000063e fb2d                 SUBAR 0x52, 0x1
0000063f feaa                 MOVR 0x55, 0x0
00000640 f7fc                 BTRSS 0x3, 0x0
00000641 faaa                 INCR 0x55, 0x0
00000642 f2fc                 BTRSC 0x3, 0x2
00000643 c1ba                 LGOTO 0x645; _divuint.o:_00002_DS_=0x645
00000644 fb2c                 SUBAR 0x53, 0x1
00000645                      _divuint.o:_00002_DS_:
00000645 e3fc                 BCR 0x3, 0x0
00000646 e0fc                 BCR 0x3, 0x6
00000647 ec2a                 RRR 0x55, 0x1
00000648 ec2b                 RRR 0x54, 0x1
00000649 e3fc                 BCR 0x3, 0x0
0000064a ec26                 RRR 0x59, 0x1
0000064b ec27                 RRR 0x58, 0x1
0000064c c1d9                 LGOTO 0x626; _divuint.o:_00112_DS_=0x626
0000064d                      _divuint.o:_00114_DS_:
0000064d e0fc                 BCR 0x3, 0x6
0000064e fea9                 MOVR 0x56, 0x0
0000064f ff38                 MOVAR 0x47
00000650 fea8                 MOVR 0x57, 0x0
00000651                      _divuint.o:_00115_DS_:
00000651 ffef                 RET
00000652                      ___cinit_load__:
