00000000 c7f6                 LGOTO 0x9; crt0.o:initial_ram_bss=0x9
00000001                      main.o:_00470_DS_:
00000001 f56f                 BTRSS 0x10, 0x5
00000002 c7fe                 LGOTO 0x1; main.o:_00470_DS_=0x1
00000003 ffef                 RET
00000004                      _showBaiwei:
00000004 d1ab                 LCALL 0x654; _B1=0x654
00000005 d1b0                 LCALL 0x64f; _C1=0x64f
00000006 ffef                 RET
00000008 c7e2                 LGOTO 0x1d; main.o:__sdcc_interrupt=0x1d
00000009                      crt0.o:initial_ram_bss:
00000015                      crt0.o:initial_ram_cinit:
00000017                      crt0.o:startup_exit:
0000001d                      main.o:__sdcc_interrupt:
0000001d ff3d                 MOVAR 0x42
0000001e eafc                 SWAPR 0x3, 0x0
0000001f fd7c                 CLRR 0x3
00000020 ff3e                 MOVAR 0x41
00000021 fef5                 MOVR 0xa, 0x0
00000022 fd75                 CLRR 0xa
00000023 ff3f                 MOVAR 0x40
00000024 fefb                 MOVR 0x4, 0x0
00000025 e0fc                 BCR 0x3, 0x6
00000026 ff17                 MOVAR 0x68
00000027 feb0                 MOVR 0x4f, 0x0
00000028 ff16                 MOVAR 0x69
00000029 feb1                 MOVR 0x4e, 0x0
0000002a ff15                 MOVAR 0x6a
0000002b f7f0                 BTRSS 0xf, 0x0
0000002c c7c8                 LGOTO 0x37; main.o:_00108_DS_=0x37
0000002d debe                 MOVIA 0x41
0000002e ff7e                 MOVAR 0x1
0000002f fa14                 INCR 0x6b, 0x1
00000030 fe94                 MOVR 0x6b, 0x0
00000031 dbe1                 XORIA 0x1e
00000032 f6fc                 BTRSS 0x3, 0x2
00000033 c7c8                 LGOTO 0x37; main.o:_00108_DS_=0x37
00000034 fd14                 CLRR 0x6b
00000035 defe                 MOVIA 0x1
00000036 ff13                 MOVAR 0x6c
00000037                      main.o:_00108_DS_:
00000037 f770                 BTRSS 0xf, 0x1
00000038 c7c4                 LGOTO 0x3b; main.o:_00110_DS_=0x3b
00000039 de02                 MOVIA 0xfd
0000003a ff70                 MOVAR 0xf
0000003b                      main.o:_00110_DS_:
0000003b fd70                 CLRR 0xf
0000003c e0fc                 BCR 0x3, 0x6
0000003d fe95                 MOVR 0x6a, 0x0
0000003e ff31                 MOVAR 0x4e
0000003f fe96                 MOVR 0x69, 0x0
00000040 ff30                 MOVAR 0x4f
00000041 fe97                 MOVR 0x68, 0x0
00000042 ff7b                 MOVAR 0x4
00000043 febf                 MOVR 0x40, 0x0
00000044 ff75                 MOVAR 0xa
00000045 fd7c                 CLRR 0x3
00000046 eabe                 SWAPR 0x41, 0x0
00000047 ff7c                 MOVAR 0x3
00000048 ea3d                 SWAPR 0x42, 0x1
00000049 eabd                 SWAPR 0x42, 0x0
0000004a                      main.o:END_OF_INTERRUPT:
0000004a ffee                 RETIE
0000004b                      _main:
0000004b d441                 LCALL 0x3be; _init=0x3be
0000004c d451                 LCALL 0x3ae; _initAD=0x3ae
0000004d                      main.o:_00143_DS_:
0000004d fffd                 CLRWDT
0000004e e0fc                 BCR 0x3, 0x6
0000004f                      ___cinit_size__:
0000004f fe93                 MOVR 0x6c, 0x0
00000050 f2fc                 BTRSC 0x3, 0x2
00000051 c7b2                 LGOTO 0x4d; main.o:_00143_DS_=0x4d
00000052 fd13                 CLRR 0x6c
00000053 d368                 LCALL 0x497; _checkBatSta=0x497
00000054 d3f0                 LCALL 0x40f; _keyCon=0x40f
00000055 d30d                 LCALL 0x4f2; _checkAD=0x4f2
00000056 e0fc                 BCR 0x3, 0x6
00000057 fe92                 MOVR 0x6d, 0x0
00000058 dbfe                 XORIA 0x1
00000059 f6fc                 BTRSS 0x3, 0x2
0000005a d73f                 LCALL 0xc0; _checkLVD=0xc0
0000005b e4fc                 BSR 0x3, 0x6
0000005c fedc                 MOVR 0x23, 0x0
0000005d dbfe                 XORIA 0x1
0000005e f2fc                 BTRSC 0x3, 0x2
0000005f c79a                 LGOTO 0x65; main.o:_00140_DS_=0x65
00000060 e0fc                 BCR 0x3, 0x6
00000061 fe92                 MOVR 0x6d, 0x0
00000062 dbfe                 XORIA 0x1
00000063 f6fc                 BTRSS 0x3, 0x2
00000064 c775                 LGOTO 0x8a; main.o:_00137_DS_=0x8a
00000065                      main.o:_00140_DS_:
00000065 e0fc                 BCR 0x3, 0x6
00000066 fe85                 MOVR 0x7a, 0x0
00000067 ee84                 IORAR 0x7b, 0x0
00000068 f2fc                 BTRSC 0x3, 0x2
00000069 c775                 LGOTO 0x8a; main.o:_00137_DS_=0x8a
0000006a fe81                 MOVR 0x7e, 0x0
0000006b f6fc                 BTRSS 0x3, 0x2
0000006c c775                 LGOTO 0x8a; main.o:_00137_DS_=0x8a
0000006d fa0b                 INCR 0x74, 0x1
0000006e f2fc                 BTRSC 0x3, 0x2
0000006f fa0a                 INCR 0x75, 0x1
00000070 defe                 MOVIA 0x1
00000071 fb8a                 SUBAR 0x75, 0x0
00000072 f6fc                 BTRSS 0x3, 0x2
00000073 c789                 LGOTO 0x76; main.o:_00188_DS_=0x76
00000074 ded3                 MOVIA 0x2c
00000075 fb8b                 SUBAR 0x74, 0x0
00000076                      main.o:_00188_DS_:
00000076 f7fc                 BTRSS 0x3, 0x0
00000077 c782                 LGOTO 0x7d; main.o:_00120_DS_=0x7d
00000078 e0fc                 BCR 0x3, 0x6
00000079 fd0b                 CLRR 0x74
0000007a fd0a                 CLRR 0x75
0000007b f889                 COMR 0x76, 0x0
0000007c ff09                 MOVAR 0x76
0000007d                      main.o:_00120_DS_:
0000007d e0fc                 BCR 0x3, 0x6
0000007e fe89                 MOVR 0x76, 0x0
0000007f f2fc                 BTRSC 0x3, 0x2
00000080 c77c                 LGOTO 0x83; main.o:_00122_DS_=0x83
00000081 d2fc                 LCALL 0x503; _refreshNub=0x503
00000082 c77b                 LGOTO 0x84; main.o:_00123_DS_=0x84
00000083                      main.o:_00122_DS_:
00000083 d293                 LCALL 0x56c; _setInput=0x56c
00000084                      main.o:_00123_DS_:
00000084 de00                 MOVIA 0xff
00000085 e0fc                 BCR 0x3, 0x6
00000086 fc05                 ADDAR 0x7a, 0x1
00000087 f7fc                 BTRSS 0x3, 0x0
00000088 f904                 DECR 0x7b, 0x1
00000089 c7b2                 LGOTO 0x4d; main.o:_00143_DS_=0x4d
0000008a                      main.o:_00137_DS_:
0000008a e0fc                 BCR 0x3, 0x6
0000008b fe92                 MOVR 0x6d, 0x0
0000008c dbfd                 XORIA 0x2
0000008d f2fc                 BTRSC 0x3, 0x2
0000008e c768                 LGOTO 0x97; main.o:_00131_DS_=0x97
0000008f fe92                 MOVR 0x6d, 0x0
00000090 dbfc                 XORIA 0x3
00000091 f2fc                 BTRSC 0x3, 0x2
00000092 c768                 LGOTO 0x97; main.o:_00131_DS_=0x97
00000093 fe81                 MOVR 0x7e, 0x0
00000094 dbfe                 XORIA 0x1
00000095 f6fc                 BTRSS 0x3, 0x2
00000096 c766                 LGOTO 0x99; main.o:_00132_DS_=0x99
00000097                      main.o:_00131_DS_:
00000097 d2fc                 LCALL 0x503; _refreshNub=0x503
00000098 c7b2                 LGOTO 0x4d; main.o:_00143_DS_=0x4d
00000099                      main.o:_00132_DS_:
00000099 e0fc                 BCR 0x3, 0x6
0000009a fe92                 MOVR 0x6d, 0x0
0000009b f6fc                 BTRSS 0x3, 0x2
0000009c c751                 LGOTO 0xae; main.o:_00129_DS_=0xae
0000009d fd01                 CLRR 0x7e
0000009e fd0f                 CLRR 0x70
0000009f d293                 LCALL 0x56c; _setInput=0x56c
000000a0 e0fc                 BCR 0x3, 0x6
000000a1 fa03                 INCR 0x7c, 0x1
000000a2 f2fc                 BTRSC 0x3, 0x2
000000a3 fa02                 INCR 0x7d, 0x1
000000a4 deff                 MOVIA 0x0
000000a5 fb82                 SUBAR 0x7d, 0x0
000000a6 f6fc                 BTRSS 0x3, 0x2
000000a7 c755                 LGOTO 0xaa; main.o:_00191_DS_=0xaa
000000a8 decd                 MOVIA 0x32
000000a9 fb83                 SUBAR 0x7c, 0x0
000000aa                      main.o:_00191_DS_:
000000aa f7fc                 BTRSS 0x3, 0x0
000000ab c7b2                 LGOTO 0x4d; main.o:_00143_DS_=0x4d
000000ac d537                 LCALL 0x2c8; _gotoSleep=0x2c8
000000ad c7b2                 LGOTO 0x4d; main.o:_00143_DS_=0x4d
000000ae                      main.o:_00129_DS_:
000000ae d293                 LCALL 0x56c; _setInput=0x56c
000000af e0fc                 BCR 0x3, 0x6
000000b0 fa03                 INCR 0x7c, 0x1
000000b1 f2fc                 BTRSC 0x3, 0x2
000000b2 fa02                 INCR 0x7d, 0x1
000000b3 deff                 MOVIA 0x0
000000b4 fb82                 SUBAR 0x7d, 0x0
000000b5 f6fc                 BTRSS 0x3, 0x2
000000b6 c746                 LGOTO 0xb9; main.o:_00192_DS_=0xb9
000000b7 decd                 MOVIA 0x32
000000b8 fb83                 SUBAR 0x7c, 0x0
000000b9                      main.o:_00192_DS_:
000000b9 f7fc                 BTRSS 0x3, 0x0
000000ba c7b2                 LGOTO 0x4d; main.o:_00143_DS_=0x4d
000000bb e0fc                 BCR 0x3, 0x6
000000bc fd0f                 CLRR 0x70
000000bd d537                 LCALL 0x2c8; _gotoSleep=0x2c8
000000be c7b2                 LGOTO 0x4d; main.o:_00143_DS_=0x4d
000000bf ffef                 RET
000000c0                      _checkLVD:
000000c0 deee                 MOVIA 0x11
000000c1 fff0                 IOST 0xf
000000c2 deaf                 MOVIA 0x50
000000c3 ff30                 MOVAR 0x4f
000000c4 deff                 MOVIA 0x0
000000c5 d54d                 LCALL 0x2b2; _delay=0x2b2
000000c6 ffe0                 IOSTR 0xf
000000c7 ddbf                 ANDIA 0x40
000000c8 f6fc                 BTRSS 0x3, 0x2
000000c9 defe                 MOVIA 0x1
000000ca e0fc                 BCR 0x3, 0x6
000000cb ff40                 MOVAR 0x3f
000000cc fec0                 MOVR 0x3f, 0x0
000000cd f2fc                 BTRSC 0x3, 0x2
000000ce c72c                 LGOTO 0xd3; main.o:_00624_DS_=0xd3
000000cf ffff                 NOP
000000d0 e4fc                 BSR 0x3, 0x6
000000d1 fd5c                 CLRR 0x23
000000d2 c712                 LGOTO 0xed; main.o:_00626_DS_=0xed
000000d3                      main.o:_00624_DS_:
000000d3 defe                 MOVIA 0x1
000000d4 e4fc                 BSR 0x3, 0x6
000000d5 ff5c                 MOVAR 0x23
000000d6 de77                 MOVIA 0x88
000000d7 e0fc                 BCR 0x3, 0x6
000000d8 ff05                 MOVAR 0x7a
000000d9 deec                 MOVIA 0x13
000000da ff04                 MOVAR 0x7b
000000db fa03                 INCR 0x7c, 0x1
000000dc f2fc                 BTRSC 0x3, 0x2
000000dd fa02                 INCR 0x7d, 0x1
000000de deff                 MOVIA 0x0
000000df fb82                 SUBAR 0x7d, 0x0
000000e0 f6fc                 BTRSS 0x3, 0x2
000000e1 c71b                 LGOTO 0xe4; main.o:_00634_DS_=0xe4
000000e2 decd                 MOVIA 0x32
000000e3 fb83                 SUBAR 0x7c, 0x0
000000e4                      main.o:_00634_DS_:
000000e4 f7fc                 BTRSS 0x3, 0x0
000000e5 c712                 LGOTO 0xed; main.o:_00626_DS_=0xed
000000e6 e3f9                 BCR 0x6, 0x0
000000e7 e1f9                 BCR 0x6, 0x4
000000e8 e2f9                 BCR 0x6, 0x2
000000e9 d293                 LCALL 0x56c; _setInput=0x56c
000000ea e0fc                 BCR 0x3, 0x6
000000eb fd0f                 CLRR 0x70
000000ec d537                 LCALL 0x2c8; _gotoSleep=0x2c8
000000ed                      main.o:_00626_DS_:
000000ed ffef                 RET
000000ee                      _translateTempAD:
000000ee deff                 MOVIA 0x0
000000ef e0fc                 BCR 0x3, 0x6
000000f0 fbde                 SUBAR 0x21, 0x0
000000f1 f6fc                 BTRSS 0x3, 0x2
000000f2 c70a                 LGOTO 0xf5; main.o:_00606_DS_=0xf5
000000f3 de05                 MOVIA 0xfa
000000f4 fbdf                 SUBAR 0x20, 0x0
000000f5                      main.o:_00606_DS_:
000000f5 f3fc                 BTRSC 0x3, 0x0
000000f6 c702                 LGOTO 0xfd; main.o:_00569_DS_=0xfd
000000f7 defe                 MOVIA 0x1
000000f8 e0fc                 BCR 0x3, 0x6
000000f9 ff0e                 MOVAR 0x71
000000fa fd0d                 CLRR 0x72
000000fb fd0c                 CLRR 0x73
000000fc c5a1                 LGOTO 0x25e; main.o:_00571_DS_=0x25e
000000fd                      main.o:_00569_DS_:
000000fd defe                 MOVIA 0x1
000000fe e0fc                 BCR 0x3, 0x6
000000ff fbde                 SUBAR 0x21, 0x0
00000100 f6fc                 BTRSS 0x3, 0x2
00000101 c6fb                 LGOTO 0x104; main.o:_00607_DS_=0x104
00000102 deb5                 MOVIA 0x4a
00000103 fbdf                 SUBAR 0x20, 0x0
00000104                      main.o:_00607_DS_:
00000104 f3fc                 BTRSC 0x3, 0x0
00000105 c6df                 LGOTO 0x120; main.o:_00566_DS_=0x120
00000106 e0fc                 BCR 0x3, 0x6
00000107 fd0e                 CLRR 0x71
00000108 def6                 MOVIA 0x9
00000109 ff0d                 MOVAR 0x72
0000010a fedf                 MOVR 0x20, 0x0
0000010b d8b5                 SUBIA 0x4a
0000010c ff44                 MOVAR 0x3b
0000010d fede                 MOVR 0x21, 0x0
0000010e f7fc                 BTRSS 0x3, 0x0
0000010f fade                 INCR 0x21, 0x0
00000110 d8fe                 SUBIA 0x1
00000111 ff43                 MOVAR 0x3c
00000112 e3fc                 BCR 0x3, 0x0
00000113 ecc3                 RRR 0x3c, 0x0
00000114 ff41                 MOVAR 0x3e
00000115 ecc4                 RRR 0x3b, 0x0
00000116 ff42                 MOVAR 0x3d
00000117 e3fc                 BCR 0x3, 0x0
00000118 ec41                 RRR 0x3e, 0x1
00000119 ec42                 RRR 0x3d, 0x1
0000011a e3fc                 BCR 0x3, 0x0
0000011b ec41                 RRR 0x3e, 0x1
0000011c ec42                 RRR 0x3d, 0x1
0000011d fec2                 MOVR 0x3d, 0x0
0000011e ff0c                 MOVAR 0x73
0000011f c5a1                 LGOTO 0x25e; main.o:_00571_DS_=0x25e
00000120                      main.o:_00566_DS_:
00000120 defe                 MOVIA 0x1
00000121 e0fc                 BCR 0x3, 0x6
00000122 fbde                 SUBAR 0x21, 0x0
00000123 f6fc                 BTRSS 0x3, 0x2
00000124 c6d8                 LGOTO 0x127; main.o:_00608_DS_=0x127
00000125 de3d                 MOVIA 0xc2
00000126 fbdf                 SUBAR 0x20, 0x0
00000127                      main.o:_00608_DS_:
00000127 f3fc                 BTRSC 0x3, 0x0
00000128 c6bc                 LGOTO 0x143; main.o:_00563_DS_=0x143
00000129 e0fc                 BCR 0x3, 0x6
0000012a fd0e                 CLRR 0x71
0000012b def7                 MOVIA 0x8
0000012c ff0d                 MOVAR 0x72
0000012d fedf                 MOVR 0x20, 0x0
0000012e d83d                 SUBIA 0xc2
0000012f ff44                 MOVAR 0x3b
00000130 fede                 MOVR 0x21, 0x0
00000131 f7fc                 BTRSS 0x3, 0x0
00000132 fade                 INCR 0x21, 0x0
00000133 d8fe                 SUBIA 0x1
00000134 ff43                 MOVAR 0x3c
00000135 def3                 MOVIA 0xc
00000136 ff32                 MOVAR 0x4d
00000137 deff                 MOVIA 0x0
00000138 ff31                 MOVAR 0x4e
00000139 fec4                 MOVR 0x3b, 0x0
0000013a ff30                 MOVAR 0x4f
0000013b fec3                 MOVR 0x3c, 0x0
0000013c d126                 LCALL 0x6d9; __divuint=0x6d9
0000013d e0fc                 BCR 0x3, 0x6
0000013e ff43                 MOVAR 0x3c
0000013f feb0                 MOVR 0x4f, 0x0
00000140 ff44                 MOVAR 0x3b
00000141 ff0c                 MOVAR 0x73
00000142 c5a1                 LGOTO 0x25e; main.o:_00571_DS_=0x25e
00000143                      main.o:_00563_DS_:
00000143 defd                 MOVIA 0x2
00000144 e0fc                 BCR 0x3, 0x6
00000145 fbde                 SUBAR 0x21, 0x0
00000146 f6fc                 BTRSS 0x3, 0x2
00000147 c6b5                 LGOTO 0x14a; main.o:_00609_DS_=0x14a
00000148 dea7                 MOVIA 0x58
00000149 fbdf                 SUBAR 0x20, 0x0
0000014a                      main.o:_00609_DS_:
0000014a f3fc                 BTRSC 0x3, 0x0
0000014b c699                 LGOTO 0x166; main.o:_00560_DS_=0x166
0000014c e0fc                 BCR 0x3, 0x6
0000014d fd0e                 CLRR 0x71
0000014e def8                 MOVIA 0x7
0000014f ff0d                 MOVAR 0x72
00000150 fedf                 MOVR 0x20, 0x0
00000151 d8a7                 SUBIA 0x58
00000152 ff44                 MOVAR 0x3b
00000153 fede                 MOVR 0x21, 0x0
00000154 f7fc                 BTRSS 0x3, 0x0
00000155 fade                 INCR 0x21, 0x0
00000156 d8fd                 SUBIA 0x2
00000157 ff43                 MOVAR 0x3c
00000158 def0                 MOVIA 0xf
00000159 ff32                 MOVAR 0x4d
0000015a deff                 MOVIA 0x0
0000015b ff31                 MOVAR 0x4e
0000015c fec4                 MOVR 0x3b, 0x0
0000015d ff30                 MOVAR 0x4f
0000015e fec3                 MOVR 0x3c, 0x0
0000015f d126                 LCALL 0x6d9; __divuint=0x6d9
00000160 e0fc                 BCR 0x3, 0x6
00000161 ff43                 MOVAR 0x3c
00000162 feb0                 MOVR 0x4f, 0x0
00000163 ff44                 MOVAR 0x3b
00000164 ff0c                 MOVAR 0x73
00000165 c5a1                 LGOTO 0x25e; main.o:_00571_DS_=0x25e
00000166                      main.o:_00560_DS_:
00000166 defc                 MOVIA 0x3
00000167 e0fc                 BCR 0x3, 0x6
00000168 fbde                 SUBAR 0x21, 0x0
00000169 f6fc                 BTRSS 0x3, 0x2
0000016a c692                 LGOTO 0x16d; main.o:_00610_DS_=0x16d
0000016b dedf                 MOVIA 0x20
0000016c fbdf                 SUBAR 0x20, 0x0
0000016d                      main.o:_00610_DS_:
0000016d f3fc                 BTRSC 0x3, 0x0
0000016e c676                 LGOTO 0x189; main.o:_00557_DS_=0x189
0000016f e0fc                 BCR 0x3, 0x6
00000170 fd0e                 CLRR 0x71
00000171 def9                 MOVIA 0x6
00000172 ff0d                 MOVAR 0x72
00000173 fedf                 MOVR 0x20, 0x0
00000174 d8df                 SUBIA 0x20
00000175 ff44                 MOVAR 0x3b
00000176 fede                 MOVR 0x21, 0x0
00000177 f7fc                 BTRSS 0x3, 0x0
00000178 fade                 INCR 0x21, 0x0
00000179 d8fc                 SUBIA 0x3
0000017a ff43                 MOVAR 0x3c
0000017b deeb                 MOVIA 0x14
0000017c ff32                 MOVAR 0x4d
0000017d deff                 MOVIA 0x0
0000017e ff31                 MOVAR 0x4e
0000017f fec4                 MOVR 0x3b, 0x0
00000180 ff30                 MOVAR 0x4f
00000181 fec3                 MOVR 0x3c, 0x0
00000182 d126                 LCALL 0x6d9; __divuint=0x6d9
00000183 e0fc                 BCR 0x3, 0x6
00000184 ff43                 MOVAR 0x3c
00000185 feb0                 MOVR 0x4f, 0x0
00000186 ff44                 MOVAR 0x3b
00000187 ff0c                 MOVAR 0x73
00000188 c5a1                 LGOTO 0x25e; main.o:_00571_DS_=0x25e
00000189                      main.o:_00557_DS_:
00000189 defb                 MOVIA 0x4
0000018a e0fc                 BCR 0x3, 0x6
0000018b fbde                 SUBAR 0x21, 0x0
0000018c f6fc                 BTRSS 0x3, 0x2
0000018d c66f                 LGOTO 0x190; main.o:_00611_DS_=0x190
0000018e ded1                 MOVIA 0x2e
0000018f fbdf                 SUBAR 0x20, 0x0
00000190                      main.o:_00611_DS_:
00000190 f3fc                 BTRSC 0x3, 0x0
00000191 c653                 LGOTO 0x1ac; main.o:_00554_DS_=0x1ac
00000192 e0fc                 BCR 0x3, 0x6
00000193 fd0e                 CLRR 0x71
00000194 defa                 MOVIA 0x5
00000195 ff0d                 MOVAR 0x72
00000196 fedf                 MOVR 0x20, 0x0
00000197 d8d1                 SUBIA 0x2e
00000198 ff44                 MOVAR 0x3b
00000199 fede                 MOVR 0x21, 0x0
0000019a f7fc                 BTRSS 0x3, 0x0
0000019b fade                 INCR 0x21, 0x0
0000019c d8fb                 SUBIA 0x4
0000019d ff43                 MOVAR 0x3c
0000019e dee4                 MOVIA 0x1b
0000019f ff32                 MOVAR 0x4d
000001a0 deff                 MOVIA 0x0
000001a1 ff31                 MOVAR 0x4e
000001a2 fec4                 MOVR 0x3b, 0x0
000001a3 ff30                 MOVAR 0x4f
000001a4 fec3                 MOVR 0x3c, 0x0
000001a5 d126                 LCALL 0x6d9; __divuint=0x6d9
000001a6 e0fc                 BCR 0x3, 0x6
000001a7 ff43                 MOVAR 0x3c
000001a8 feb0                 MOVR 0x4f, 0x0
000001a9 ff44                 MOVAR 0x3b
000001aa ff0c                 MOVAR 0x73
000001ab c5a1                 LGOTO 0x25e; main.o:_00571_DS_=0x25e
000001ac                      main.o:_00554_DS_:
000001ac defa                 MOVIA 0x5
000001ad e0fc                 BCR 0x3, 0x6
000001ae fbde                 SUBAR 0x21, 0x0
000001af f6fc                 BTRSS 0x3, 0x2
000001b0 c64c                 LGOTO 0x1b3; main.o:_00612_DS_=0x1b3
000001b1 de73                 MOVIA 0x8c
000001b2 fbdf                 SUBAR 0x20, 0x0
000001b3                      main.o:_00612_DS_:
000001b3 f3fc                 BTRSC 0x3, 0x0
000001b4 c630                 LGOTO 0x1cf; main.o:_00551_DS_=0x1cf
000001b5 e0fc                 BCR 0x3, 0x6
000001b6 fd0e                 CLRR 0x71
000001b7 defb                 MOVIA 0x4
000001b8 ff0d                 MOVAR 0x72
000001b9 fedf                 MOVR 0x20, 0x0
000001ba d873                 SUBIA 0x8c
000001bb ff44                 MOVAR 0x3b
000001bc fede                 MOVR 0x21, 0x0
000001bd f7fc                 BTRSS 0x3, 0x0
000001be fade                 INCR 0x21, 0x0
000001bf d8fa                 SUBIA 0x5
000001c0 ff43                 MOVAR 0x3c
000001c1 dedc                 MOVIA 0x23
000001c2 ff32                 MOVAR 0x4d
000001c3 deff                 MOVIA 0x0
000001c4 ff31                 MOVAR 0x4e
000001c5 fec4                 MOVR 0x3b, 0x0
000001c6 ff30                 MOVAR 0x4f
000001c7 fec3                 MOVR 0x3c, 0x0
000001c8 d126                 LCALL 0x6d9; __divuint=0x6d9
000001c9 e0fc                 BCR 0x3, 0x6
000001ca ff43                 MOVAR 0x3c
000001cb feb0                 MOVR 0x4f, 0x0
000001cc ff44                 MOVAR 0x3b
000001cd ff0c                 MOVAR 0x73
000001ce c5a1                 LGOTO 0x25e; main.o:_00571_DS_=0x25e
000001cf                      main.o:_00551_DS_:
000001cf def8                 MOVIA 0x7
000001d0 e0fc                 BCR 0x3, 0x6
000001d1 fbde                 SUBAR 0x21, 0x0
000001d2 f6fc                 BTRSS 0x3, 0x2
000001d3 c629                 LGOTO 0x1d6; main.o:_00613_DS_=0x1d6
000001d4 decf                 MOVIA 0x30
000001d5 fbdf                 SUBAR 0x20, 0x0
000001d6                      main.o:_00613_DS_:
000001d6 f3fc                 BTRSC 0x3, 0x0
000001d7 c60d                 LGOTO 0x1f2; main.o:_00548_DS_=0x1f2
000001d8 e0fc                 BCR 0x3, 0x6
000001d9 fd0e                 CLRR 0x71
000001da defc                 MOVIA 0x3
000001db ff0d                 MOVAR 0x72
000001dc fedf                 MOVR 0x20, 0x0
000001dd d8cf                 SUBIA 0x30
000001de ff44                 MOVAR 0x3b
000001df fede                 MOVR 0x21, 0x0
000001e0 f7fc                 BTRSS 0x3, 0x0
000001e1 fade                 INCR 0x21, 0x0
000001e2 d8f8                 SUBIA 0x7
000001e3 ff43                 MOVAR 0x3c
000001e4 ded5                 MOVIA 0x2a
000001e5 ff32                 MOVAR 0x4d
000001e6 deff                 MOVIA 0x0
000001e7 ff31                 MOVAR 0x4e
000001e8 fec4                 MOVR 0x3b, 0x0
000001e9 ff30                 MOVAR 0x4f
000001ea fec3                 MOVR 0x3c, 0x0
000001eb d126                 LCALL 0x6d9; __divuint=0x6d9
000001ec e0fc                 BCR 0x3, 0x6
000001ed ff43                 MOVAR 0x3c
000001ee feb0                 MOVR 0x4f, 0x0
000001ef ff44                 MOVAR 0x3b
000001f0 ff0c                 MOVAR 0x73
000001f1 c5a1                 LGOTO 0x25e; main.o:_00571_DS_=0x25e
000001f2                      main.o:_00548_DS_:
000001f2 def7                 MOVIA 0x8
000001f3 e0fc                 BCR 0x3, 0x6
000001f4 fbde                 SUBAR 0x21, 0x0
000001f5 f6fc                 BTRSS 0x3, 0x2
000001f6 c606                 LGOTO 0x1f9; main.o:_00614_DS_=0x1f9
000001f7 de03                 MOVIA 0xfc
000001f8 fbdf                 SUBAR 0x20, 0x0
000001f9                      main.o:_00614_DS_:
000001f9 f3fc                 BTRSC 0x3, 0x0
000001fa c5ea                 LGOTO 0x215; main.o:_00545_DS_=0x215
000001fb e0fc                 BCR 0x3, 0x6
000001fc fd0e                 CLRR 0x71
000001fd defd                 MOVIA 0x2
000001fe ff0d                 MOVAR 0x72
000001ff fedf                 MOVR 0x20, 0x0
00000200 d803                 SUBIA 0xfc
00000201 ff44                 MOVAR 0x3b
00000202 fede                 MOVR 0x21, 0x0
00000203 f7fc                 BTRSS 0x3, 0x0
00000204 fade                 INCR 0x21, 0x0
00000205 d8f7                 SUBIA 0x8
00000206 ff43                 MOVAR 0x3c
00000207 ded1                 MOVIA 0x2e
00000208 ff32                 MOVAR 0x4d
00000209 deff                 MOVIA 0x0
0000020a ff31                 MOVAR 0x4e
0000020b fec4                 MOVR 0x3b, 0x0
0000020c ff30                 MOVAR 0x4f
0000020d fec3                 MOVR 0x3c, 0x0
0000020e d126                 LCALL 0x6d9; __divuint=0x6d9
0000020f e0fc                 BCR 0x3, 0x6
00000210 ff43                 MOVAR 0x3c
00000211 feb0                 MOVR 0x4f, 0x0
00000212 ff44                 MOVAR 0x3b
00000213 ff0c                 MOVAR 0x73
00000214 c5a1                 LGOTO 0x25e; main.o:_00571_DS_=0x25e
00000215                      main.o:_00545_DS_:
00000215 def5                 MOVIA 0xa
00000216 e0fc                 BCR 0x3, 0x6
00000217 fbde                 SUBAR 0x21, 0x0
00000218 f6fc                 BTRSS 0x3, 0x2
00000219 c5e3                 LGOTO 0x21c; main.o:_00615_DS_=0x21c
0000021a de2d                 MOVIA 0xd2
0000021b fbdf                 SUBAR 0x20, 0x0
0000021c                      main.o:_00615_DS_:
0000021c f3fc                 BTRSC 0x3, 0x0
0000021d c5c7                 LGOTO 0x238; main.o:_00542_DS_=0x238
0000021e e0fc                 BCR 0x3, 0x6
0000021f fd0e                 CLRR 0x71
00000220 defe                 MOVIA 0x1
00000221 ff0d                 MOVAR 0x72
00000222 fedf                 MOVR 0x20, 0x0
00000223 d82d                 SUBIA 0xd2
00000224 ff44                 MOVAR 0x3b
00000225 fede                 MOVR 0x21, 0x0
00000226 f7fc                 BTRSS 0x3, 0x0
00000227 fade                 INCR 0x21, 0x0
00000228 d8f5                 SUBIA 0xa
00000229 ff43                 MOVAR 0x3c
0000022a ded0                 MOVIA 0x2f
0000022b ff32                 MOVAR 0x4d
0000022c deff                 MOVIA 0x0
0000022d ff31                 MOVAR 0x4e
0000022e fec4                 MOVR 0x3b, 0x0
0000022f ff30                 MOVAR 0x4f
00000230 fec3                 MOVR 0x3c, 0x0
00000231 d126                 LCALL 0x6d9; __divuint=0x6d9
00000232 e0fc                 BCR 0x3, 0x6
00000233 ff43                 MOVAR 0x3c
00000234 feb0                 MOVR 0x4f, 0x0
00000235 ff44                 MOVAR 0x3b
00000236 ff0c                 MOVAR 0x73
00000237 c5a1                 LGOTO 0x25e; main.o:_00571_DS_=0x25e
00000238                      main.o:_00542_DS_:
00000238 def3                 MOVIA 0xc
00000239 e0fc                 BCR 0x3, 0x6
0000023a fbde                 SUBAR 0x21, 0x0
0000023b f6fc                 BTRSS 0x3, 0x2
0000023c c5c0                 LGOTO 0x23f; main.o:_00616_DS_=0x23f
0000023d de89                 MOVIA 0x76
0000023e fbdf                 SUBAR 0x20, 0x0
0000023f                      main.o:_00616_DS_:
0000023f f3fc                 BTRSC 0x3, 0x0
00000240 c5a5                 LGOTO 0x25a; main.o:_00539_DS_=0x25a
00000241 e0fc                 BCR 0x3, 0x6
00000242 fd0e                 CLRR 0x71
00000243 fd0d                 CLRR 0x72
00000244 fedf                 MOVR 0x20, 0x0
00000245 d889                 SUBIA 0x76
00000246 ff44                 MOVAR 0x3b
00000247 fede                 MOVR 0x21, 0x0
00000248 f7fc                 BTRSS 0x3, 0x0
00000249 fade                 INCR 0x21, 0x0
0000024a d8f3                 SUBIA 0xc
0000024b ff43                 MOVAR 0x3c
0000024c ded5                 MOVIA 0x2a
0000024d ff32                 MOVAR 0x4d
0000024e deff                 MOVIA 0x0
0000024f ff31                 MOVAR 0x4e
00000250 fec4                 MOVR 0x3b, 0x0
00000251 ff30                 MOVAR 0x4f
00000252 fec3                 MOVR 0x3c, 0x0
00000253 d126                 LCALL 0x6d9; __divuint=0x6d9
00000254 e0fc                 BCR 0x3, 0x6
00000255 ff43                 MOVAR 0x3c
00000256 feb0                 MOVR 0x4f, 0x0
00000257 ff44                 MOVAR 0x3b
00000258 ff0c                 MOVAR 0x73
00000259 c5a1                 LGOTO 0x25e; main.o:_00571_DS_=0x25e
0000025a                      main.o:_00539_DS_:
0000025a e0fc                 BCR 0x3, 0x6
0000025b fd0e                 CLRR 0x71
0000025c fd0d                 CLRR 0x72
0000025d fd0c                 CLRR 0x73
0000025e                      main.o:_00571_DS_:
0000025e ffef                 RET
0000025f                      _translateVDDAD:
0000025f e0fc                 BCR 0x3, 0x6
00000260 fe92                 MOVR 0x6d, 0x0
00000261 dbfe                 XORIA 0x1
00000262 f6fc                 BTRSS 0x3, 0x2
00000263 c59a                 LGOTO 0x265; main.o:_00001_DS_=0x265
00000264 fd01                 CLRR 0x7e
00000265                      main.o:_00001_DS_:
00000265 defb                 MOVIA 0x4
00000266 e0fc                 BCR 0x3, 0x6
00000267 fbdb                 SUBAR 0x24, 0x0
00000268 f6fc                 BTRSS 0x3, 0x2
00000269 c593                 LGOTO 0x26c; main.o:_00529_DS_=0x26c
0000026a dee5                 MOVIA 0x1a
0000026b fbdc                 SUBAR 0x23, 0x0
0000026c                      main.o:_00529_DS_:
0000026c f3fc                 BTRSC 0x3, 0x0
0000026d c58b                 LGOTO 0x274; main.o:_00507_DS_=0x274
0000026e e0fc                 BCR 0x3, 0x6
0000026f fd0e                 CLRR 0x71
00000270 fd0d                 CLRR 0x72
00000271 fd0c                 CLRR 0x73
00000272 fd0f                 CLRR 0x70
00000273 c54e                 LGOTO 0x2b1; main.o:_00509_DS_=0x2b1
00000274                      main.o:_00507_DS_:
00000274 defb                 MOVIA 0x4
00000275 e0fc                 BCR 0x3, 0x6
00000276 fbdb                 SUBAR 0x24, 0x0
00000277 f6fc                 BTRSS 0x3, 0x2
00000278 c584                 LGOTO 0x27b; main.o:_00530_DS_=0x27b
00000279 de81                 MOVIA 0x7e
0000027a fbdc                 SUBAR 0x23, 0x0
0000027b                      main.o:_00530_DS_:
0000027b f3fc                 BTRSC 0x3, 0x0
0000027c c57b                 LGOTO 0x284; main.o:_00504_DS_=0x284
0000027d e0fc                 BCR 0x3, 0x6
0000027e fd0e                 CLRR 0x71
0000027f defd                 MOVIA 0x2
00000280 ff0d                 MOVAR 0x72
00000281 defa                 MOVIA 0x5
00000282 ff0c                 MOVAR 0x73
00000283 c54e                 LGOTO 0x2b1; main.o:_00509_DS_=0x2b1
00000284                      main.o:_00504_DS_:
00000284 defb                 MOVIA 0x4
00000285 e0fc                 BCR 0x3, 0x6
00000286 fbdb                 SUBAR 0x24, 0x0
00000287 f6fc                 BTRSS 0x3, 0x2
00000288 c574                 LGOTO 0x28b; main.o:_00531_DS_=0x28b
00000289 de1d                 MOVIA 0xe2
0000028a fbdc                 SUBAR 0x23, 0x0
0000028b                      main.o:_00531_DS_:
0000028b f3fc                 BTRSC 0x3, 0x0
0000028c c56c                 LGOTO 0x293; main.o:_00501_DS_=0x293
0000028d e0fc                 BCR 0x3, 0x6
0000028e fd0e                 CLRR 0x71
0000028f defa                 MOVIA 0x5
00000290 ff0d                 MOVAR 0x72
00000291 fd0c                 CLRR 0x73
00000292 c54e                 LGOTO 0x2b1; main.o:_00509_DS_=0x2b1
00000293                      main.o:_00501_DS_:
00000293 defa                 MOVIA 0x5
00000294 e0fc                 BCR 0x3, 0x6
00000295 fbdb                 SUBAR 0x24, 0x0
00000296 f6fc                 BTRSS 0x3, 0x2
00000297 c565                 LGOTO 0x29a; main.o:_00532_DS_=0x29a
00000298 deb9                 MOVIA 0x46
00000299 fbdc                 SUBAR 0x23, 0x0
0000029a                      main.o:_00532_DS_:
0000029a f3fc                 BTRSC 0x3, 0x0
0000029b c55c                 LGOTO 0x2a3; main.o:_00498_DS_=0x2a3
0000029c e0fc                 BCR 0x3, 0x6
0000029d fd0e                 CLRR 0x71
0000029e def8                 MOVIA 0x7
0000029f ff0d                 MOVAR 0x72
000002a0 defa                 MOVIA 0x5
000002a1 ff0c                 MOVAR 0x73
000002a2 c54e                 LGOTO 0x2b1; main.o:_00509_DS_=0x2b1
000002a3                      main.o:_00498_DS_:
000002a3 defa                 MOVIA 0x5
000002a4 e0fc                 BCR 0x3, 0x6
000002a5 fbdb                 SUBAR 0x24, 0x0
000002a6 f6fc                 BTRSS 0x3, 0x2
000002a7 c555                 LGOTO 0x2aa; main.o:_00533_DS_=0x2aa
000002a8 de87                 MOVIA 0x78
000002a9 fbdc                 SUBAR 0x23, 0x0
000002aa                      main.o:_00533_DS_:
000002aa f7fc                 BTRSS 0x3, 0x0
000002ab c54e                 LGOTO 0x2b1; main.o:_00509_DS_=0x2b1
000002ac defe                 MOVIA 0x1
000002ad e0fc                 BCR 0x3, 0x6
000002ae ff0e                 MOVAR 0x71
000002af fd0d                 CLRR 0x72
000002b0 fd0c                 CLRR 0x73
000002b1                      main.o:_00509_DS_:
000002b1 ffef                 RET
000002b2                      _delay:
000002b2 e0fc                 BCR 0x3, 0x6
000002b3 ff47                 MOVAR 0x38
000002b4 feb0                 MOVR 0x4f, 0x0
000002b5 ff48                 MOVAR 0x37
000002b6 fd46                 CLRR 0x39
000002b7 fd45                 CLRR 0x3a
000002b8                      main.o:_00477_DS_:
000002b8 e0fc                 BCR 0x3, 0x6
000002b9 fec7                 MOVR 0x38, 0x0
000002ba fbc5                 SUBAR 0x3a, 0x0
000002bb f6fc                 BTRSS 0x3, 0x2
000002bc c540                 LGOTO 0x2bf; main.o:_00488_DS_=0x2bf
000002bd fec8                 MOVR 0x37, 0x0
000002be fbc6                 SUBAR 0x39, 0x0
000002bf                      main.o:_00488_DS_:
000002bf f3fc                 BTRSC 0x3, 0x0
000002c0 c538                 LGOTO 0x2c7; main.o:_00479_DS_=0x2c7
000002c1 e0fc                 BCR 0x3, 0x6
000002c2 fa46                 INCR 0x39, 0x1
000002c3 f6fc                 BTRSS 0x3, 0x2
000002c4 c539                 LGOTO 0x2c6; main.o:_00002_DS_=0x2c6
000002c5 fa45                 INCR 0x3a, 0x1
000002c6                      main.o:_00002_DS_:
000002c6 c547                 LGOTO 0x2b8; main.o:_00477_DS_=0x2b8
000002c7                      main.o:_00479_DS_:
000002c7 ffef                 RET
000002c8                      _gotoSleep:
000002c8 de1f                 MOVIA 0xe0
000002c9 ff6a                 MOVAR 0x15
000002ca def5                 MOVIA 0xa
000002cb ff76                 MOVAR 0x9
000002cc e4fc                 BSR 0x3, 0x6
000002cd fedc                 MOVR 0x23, 0x0
000002ce dbfe                 XORIA 0x1
000002cf f6fc                 BTRSS 0x3, 0x2
000002d0 c52b                 LGOTO 0x2d4; main.o:_00465_DS_=0x2d4
000002d1 dedf                 MOVIA 0x20
000002d2 ff79                 MOVAR 0x6
000002d3 fd7a                 CLRR 0x5
000002d4                      main.o:_00465_DS_:
000002d4 e0fc                 BCR 0x3, 0x6
000002d5 fd03                 CLRR 0x7c
000002d6 fd02                 CLRR 0x7d
000002d7 defc                 MOVIA 0x3
000002d8 ff71                 MOVAR 0xe
000002d9 def7                 MOVIA 0x8
000002da ff77                 MOVAR 0x8
000002db e1f7                 BCR 0x8, 0x4
000002dc fd70                 CLRR 0xf
000002dd fffd                 CLRWDT
000002de fffe                 SLEEP
000002df defe                 MOVIA 0x1
000002e0 ff71                 MOVAR 0xe
000002e1 fd70                 CLRR 0xf
000002e2 de77                 MOVIA 0x88
000002e3 ff77                 MOVAR 0x8
000002e4 e1f7                 BCR 0x8, 0x4
000002e5 d451                 LCALL 0x3ae; _initAD=0x3ae
000002e6 ffef                 RET
000002e7                      _F_Quarter_VDD_Convert:
000002e7 e0fc                 BCR 0x3, 0x6
000002e8 ff4c                 MOVAR 0x33
000002e9 de64                 MOVIA 0x9b
000002ea ff6f                 MOVAR 0x10
000002eb de37                 MOVIA 0xc8
000002ec ff30                 MOVAR 0x4f
000002ed deff                 MOVIA 0x0
000002ee d54d                 LCALL 0x2b2; _delay=0x2b2
000002ef defe                 MOVIA 0x1
000002f0 e0fc                 BCR 0x3, 0x6
000002f1 ff4b                 MOVAR 0x34
000002f2                      main.o:_00457_DS_:
000002f2 e0fc                 BCR 0x3, 0x6
000002f3 fecb                 MOVR 0x34, 0x0
000002f4 fbcc                 SUBAR 0x33, 0x0
000002f5 f7fc                 BTRSS 0x3, 0x0
000002f6 c4f3                 LGOTO 0x30c; main.o:_00459_DS_=0x30c
000002f7 e4ef                 BSR 0x10, 0x6
000002f8 d7fe                 LCALL 0x1; main.o:_00470_DS_=0x1
000002f9 def0                 MOVIA 0xf
000002fa efee                 ANDAR 0x11, 0x0
000002fb e0fc                 BCR 0x3, 0x6
000002fc fc5a                 ADDAR 0x25, 0x1
000002fd feed                 MOVR 0x12, 0x0
000002fe ff4a                 MOVAR 0x35
000002ff deff                 MOVIA 0x0
00000300 ff49                 MOVAR 0x36
00000301 feca                 MOVR 0x35, 0x0
00000302 fc5c                 ADDAR 0x23, 0x1
00000303 fec9                 MOVR 0x36, 0x0
00000304 f3fc                 BTRSC 0x3, 0x0
00000305 fac9                 INCR 0x36, 0x0
00000306 f2fc                 BTRSC 0x3, 0x2
00000307 c4f6                 LGOTO 0x309; main.o:_00003_DS_=0x309
00000308 fc5b                 ADDAR 0x24, 0x1
00000309                      main.o:_00003_DS_:
00000309 e0fc                 BCR 0x3, 0x6
0000030a fa4b                 INCR 0x34, 0x1
0000030b c50d                 LGOTO 0x2f2; main.o:_00457_DS_=0x2f2
0000030c                      main.o:_00459_DS_:
0000030c ffef                 RET
0000030d                      _F_AIN6_Convert:
0000030d e0fc                 BCR 0x3, 0x6
0000030e ff50                 MOVAR 0x2f
0000030f fd5d                 CLRR 0x22
00000310 fd5f                 CLRR 0x20
00000311 fd5e                 CLRR 0x21
00000312 de69                 MOVIA 0x96
00000313 ff6f                 MOVAR 0x10
00000314 de37                 MOVIA 0xc8
00000315 ff30                 MOVAR 0x4f
00000316 deff                 MOVIA 0x0
00000317 d54d                 LCALL 0x2b2; _delay=0x2b2
00000318 defe                 MOVIA 0x1
00000319 e0fc                 BCR 0x3, 0x6
0000031a ff4f                 MOVAR 0x30
0000031b                      main.o:_00448_DS_:
0000031b e0fc                 BCR 0x3, 0x6
0000031c fecf                 MOVR 0x30, 0x0
0000031d fbd0                 SUBAR 0x2f, 0x0
0000031e f7fc                 BTRSS 0x3, 0x0
0000031f c4ca                 LGOTO 0x335; main.o:_00450_DS_=0x335
00000320 e4ef                 BSR 0x10, 0x6
00000321 d7fe                 LCALL 0x1; main.o:_00470_DS_=0x1
00000322 def0                 MOVIA 0xf
00000323 efee                 ANDAR 0x11, 0x0
00000324 e0fc                 BCR 0x3, 0x6
00000325 fc5d                 ADDAR 0x22, 0x1
00000326 feed                 MOVR 0x12, 0x0
00000327 ff4e                 MOVAR 0x31
00000328 deff                 MOVIA 0x0
00000329 ff4d                 MOVAR 0x32
0000032a fece                 MOVR 0x31, 0x0
0000032b fc5f                 ADDAR 0x20, 0x1
0000032c fecd                 MOVR 0x32, 0x0
0000032d f3fc                 BTRSC 0x3, 0x0
0000032e facd                 INCR 0x32, 0x0
0000032f f2fc                 BTRSC 0x3, 0x2
00000330 c4cd                 LGOTO 0x332; main.o:_00004_DS_=0x332
00000331 fc5e                 ADDAR 0x21, 0x1
00000332                      main.o:_00004_DS_:
00000332 e0fc                 BCR 0x3, 0x6
00000333 fa4f                 INCR 0x30, 0x1
00000334 c4e4                 LGOTO 0x31b; main.o:_00448_DS_=0x31b
00000335                      main.o:_00450_DS_:
00000335 ffef                 RET
00000336                      _checkMF52AD:
00000336 e0fc                 BCR 0x3, 0x6
00000337 fd5d                 CLRR 0x22
00000338 fd5f                 CLRR 0x20
00000339 fd5e                 CLRR 0x21
0000033a def7                 MOVIA 0x8
0000033b d4f2                 LCALL 0x30d; _F_AIN6_Convert=0x30d
0000033c e0fc                 BCR 0x3, 0x6
0000033d eade                 SWAPR 0x21, 0x0
0000033e dd0f                 ANDIA 0xf0
0000033f ff5e                 MOVAR 0x21
00000340 eadf                 SWAPR 0x20, 0x0
00000341 ff5f                 MOVAR 0x20
00000342 ddf0                 ANDIA 0xf
00000343 ee5e                 IORAR 0x21, 0x1
00000344 ed5f                 XORAR 0x20, 0x1
00000345 de0f                 MOVIA 0xf0
00000346 ef5d                 ANDAR 0x22, 0x1
00000347 fedd                 MOVR 0x22, 0x0
00000348 ff52                 MOVAR 0x2d
00000349 deff                 MOVIA 0x0
0000034a ff51                 MOVAR 0x2e
0000034b fed2                 MOVR 0x2d, 0x0
0000034c fc5f                 ADDAR 0x20, 0x1
0000034d fed1                 MOVR 0x2e, 0x0
0000034e f3fc                 BTRSC 0x3, 0x0
0000034f fad1                 INCR 0x2e, 0x0
00000350 f2fc                 BTRSC 0x3, 0x2
00000351 c4ac                 LGOTO 0x353; main.o:_00005_DS_=0x353
00000352 fc5e                 ADDAR 0x21, 0x1
00000353                      main.o:_00005_DS_:
00000353 e3fc                 BCR 0x3, 0x0
00000354 e0fc                 BCR 0x3, 0x6
00000355 ec5e                 RRR 0x21, 0x1
00000356 ec5f                 RRR 0x20, 0x1
00000357 e3fc                 BCR 0x3, 0x0
00000358 ec5e                 RRR 0x21, 0x1
00000359 ec5f                 RRR 0x20, 0x1
0000035a e3fc                 BCR 0x3, 0x0
0000035b ec5e                 RRR 0x21, 0x1
0000035c ec5f                 RRR 0x20, 0x1
0000035d d711                 LCALL 0xee; _translateTempAD=0xee
0000035e defc                 MOVIA 0x3
0000035f e0fc                 BCR 0x3, 0x6
00000360 fbde                 SUBAR 0x21, 0x0
00000361 f6fc                 BTRSS 0x3, 0x2
00000362 c49a                 LGOTO 0x365; main.o:_00439_DS_=0x365
00000363 de71                 MOVIA 0x8e
00000364 fbdf                 SUBAR 0x20, 0x0
00000365                      main.o:_00439_DS_:
00000365 f3fc                 BTRSC 0x3, 0x0
00000366 c496                 LGOTO 0x369; main.o:_00422_DS_=0x369
00000367 e4fc                 BSR 0x3, 0x6
00000368 fd5a                 CLRR 0x25
00000369                      main.o:_00422_DS_:
00000369 defb                 MOVIA 0x4
0000036a e0fc                 BCR 0x3, 0x6
0000036b fbde                 SUBAR 0x21, 0x0
0000036c f6fc                 BTRSS 0x3, 0x2
0000036d c48f                 LGOTO 0x370; main.o:_00440_DS_=0x370
0000036e de26                 MOVIA 0xd9
0000036f fbdf                 SUBAR 0x20, 0x0
00000370                      main.o:_00440_DS_:
00000370 f7fc                 BTRSS 0x3, 0x0
00000371 c48a                 LGOTO 0x375; main.o:_00424_DS_=0x375
00000372 defe                 MOVIA 0x1
00000373 e4fc                 BSR 0x3, 0x6
00000374 ff5a                 MOVAR 0x25
00000375                      main.o:_00424_DS_:
00000375 defa                 MOVIA 0x5
00000376 e0fc                 BCR 0x3, 0x6
00000377 fbde                 SUBAR 0x21, 0x0
00000378 f6fc                 BTRSS 0x3, 0x2
00000379 c483                 LGOTO 0x37c; main.o:_00441_DS_=0x37c
0000037a de73                 MOVIA 0x8c
0000037b fbdf                 SUBAR 0x20, 0x0
0000037c                      main.o:_00441_DS_:
0000037c f3fc                 BTRSC 0x3, 0x0
0000037d c47d                 LGOTO 0x382; main.o:_00426_DS_=0x382
0000037e defe                 MOVIA 0x1
0000037f e4fc                 BSR 0x3, 0x6
00000380 ff5b                 MOVAR 0x24
00000381 c47b                 LGOTO 0x384; main.o:_00428_DS_=0x384
00000382                      main.o:_00426_DS_:
00000382 e4fc                 BSR 0x3, 0x6
00000383 fd5b                 CLRR 0x24
00000384                      main.o:_00428_DS_:
00000384 ffef                 RET
00000385                      _checkQuarterVDD:
00000385 e0fc                 BCR 0x3, 0x6
00000386 fd5a                 CLRR 0x25
00000387 fd5c                 CLRR 0x23
00000388 fd5b                 CLRR 0x24
00000389 def7                 MOVIA 0x8
0000038a d518                 LCALL 0x2e7; _F_Quarter_VDD_Convert=0x2e7
0000038b e0fc                 BCR 0x3, 0x6
0000038c eadb                 SWAPR 0x24, 0x0
0000038d dd0f                 ANDIA 0xf0
0000038e ff5b                 MOVAR 0x24
0000038f eadc                 SWAPR 0x23, 0x0
00000390 ff5c                 MOVAR 0x23
00000391 ddf0                 ANDIA 0xf
00000392 ee5b                 IORAR 0x24, 0x1
00000393 ed5c                 XORAR 0x23, 0x1
00000394 de0f                 MOVIA 0xf0
00000395 ef5a                 ANDAR 0x25, 0x1
00000396 feda                 MOVR 0x25, 0x0
00000397 ff54                 MOVAR 0x2b
00000398 deff                 MOVIA 0x0
00000399 ff53                 MOVAR 0x2c
0000039a fed4                 MOVR 0x2b, 0x0
0000039b fc5c                 ADDAR 0x23, 0x1
0000039c fed3                 MOVR 0x2c, 0x0
0000039d f3fc                 BTRSC 0x3, 0x0
0000039e fad3                 INCR 0x2c, 0x0
0000039f f2fc                 BTRSC 0x3, 0x2
000003a0 c45d                 LGOTO 0x3a2; main.o:_00006_DS_=0x3a2
000003a1 fc5b                 ADDAR 0x24, 0x1
000003a2                      main.o:_00006_DS_:
000003a2 e3fc                 BCR 0x3, 0x0
000003a3 e0fc                 BCR 0x3, 0x6
000003a4 ec5b                 RRR 0x24, 0x1
000003a5 ec5c                 RRR 0x23, 0x1
000003a6 e3fc                 BCR 0x3, 0x0
000003a7 ec5b                 RRR 0x24, 0x1
000003a8 ec5c                 RRR 0x23, 0x1
000003a9 e3fc                 BCR 0x3, 0x0
000003aa ec5b                 RRR 0x24, 0x1
000003ab ec5c                 RRR 0x23, 0x1
000003ac d5a0                 LCALL 0x25f; _translateVDDAD=0x25f
000003ad ffef                 RET
000003ae                      _initAD:
000003ae de79                 MOVIA 0x86
000003af ff6f                 MOVAR 0x10
000003b0 defe                 MOVIA 0x1
000003b1 ff6c                 MOVAR 0x13
000003b2 deef                 MOVIA 0x10
000003b3 ff6e                 MOVAR 0x11
000003b4 defc                 MOVIA 0x3
000003b5 ff6b                 MOVAR 0x14
000003b6 debf                 MOVIA 0x40
000003b7 ff69                 MOVAR 0x16
000003b8 e5ef                 BSR 0x10, 0x4
000003b9 de9b                 MOVIA 0x64
000003ba ff30                 MOVAR 0x4f
000003bb deff                 MOVIA 0x0
000003bc d54d                 LCALL 0x2b2; _delay=0x2b2
000003bd ffef                 RET
000003be                      _init:
000003be fd7a                 CLRR 0x5
000003bf fd79                 CLRR 0x6
000003c0 de1f                 MOVIA 0xe0
000003c1 fffa                 IOST 0x5
000003c2 def5                 MOVIA 0xa
000003c3 fff9                 IOST 0x6
000003c4 fd7a                 CLRR 0x5
000003c5 defb                 MOVIA 0x4
000003c6 ff79                 MOVAR 0x6
000003c7 dec0                 MOVIA 0x3f
000003c8 fff6                 IOST 0x9
000003c9 dec8                 MOVIA 0x37
000003ca ff73                 MOVAR 0xc
000003cb de00                 MOVIA 0xff
000003cc ff74                 MOVAR 0xb
000003cd de77                 MOVIA 0x88
000003ce ff77                 MOVAR 0x8
000003cf e1f7                 BCR 0x8, 0x4
000003d0 defe                 MOVIA 0x1
000003d1 ff71                 MOVAR 0xe
000003d2 fd70                 CLRR 0xf
000003d3 fdff                 CLRA
000003d4 fff0                 IOST 0xf
000003d5 dec8                 MOVIA 0x37
000003d6 ff7e                 MOVAR 0x1
000003d7 fdff                 CLRA
000003d8 fffc                 T0MD
000003d9 defe                 MOVIA 0x1
000003da fff0                 IOST 0xf
000003db fffb                 ENI
000003dc ffef                 RET
000003dd                      _setKeyPress:
000003dd de00                 MOVIA 0xff
000003de e0fc                 BCR 0x3, 0x6
000003df fc08                 ADDAR 0x77, 0x1
000003e0 f7fc                 BTRSS 0x3, 0x0
000003e1 f907                 DECR 0x78, 0x1
000003e2 deff                 MOVIA 0x0
000003e3 fb87                 SUBAR 0x78, 0x0
000003e4 f6fc                 BTRSS 0x3, 0x2
000003e5 c417                 LGOTO 0x3e8; main.o:_00401_DS_=0x3e8
000003e6 de9b                 MOVIA 0x64
000003e7 fb88                 SUBAR 0x77, 0x0
000003e8                      main.o:_00401_DS_:
000003e8 f3fc                 BTRSC 0x3, 0x0
000003e9 c413                 LGOTO 0x3ec; main.o:_00385_DS_=0x3ec
000003ea e579                 BSR 0x6, 0x5
000003eb c3f1                 LGOTO 0x40e; main.o:_00387_DS_=0x40e
000003ec                      main.o:_00385_DS_:
000003ec deff                 MOVIA 0x0
000003ed e0fc                 BCR 0x3, 0x6
000003ee fb87                 SUBAR 0x78, 0x0
000003ef f6fc                 BTRSS 0x3, 0x2
000003f0 c40c                 LGOTO 0x3f3; main.o:_00402_DS_=0x3f3
000003f1 de37                 MOVIA 0xc8
000003f2 fb88                 SUBAR 0x77, 0x0
000003f3                      main.o:_00402_DS_:
000003f3 f3fc                 BTRSC 0x3, 0x0
000003f4 c408                 LGOTO 0x3f7; main.o:_00382_DS_=0x3f7
000003f5 e179                 BCR 0x6, 0x5
000003f6 c3f1                 LGOTO 0x40e; main.o:_00387_DS_=0x40e
000003f7                      main.o:_00382_DS_:
000003f7 defe                 MOVIA 0x1
000003f8 e0fc                 BCR 0x3, 0x6
000003f9 fb87                 SUBAR 0x78, 0x0
000003fa f6fc                 BTRSS 0x3, 0x2
000003fb c401                 LGOTO 0x3fe; main.o:_00403_DS_=0x3fe
000003fc ded3                 MOVIA 0x2c
000003fd fb88                 SUBAR 0x77, 0x0
000003fe                      main.o:_00403_DS_:
000003fe f3fc                 BTRSC 0x3, 0x0
000003ff c3fd                 LGOTO 0x402; main.o:_00379_DS_=0x402
00000400 e579                 BSR 0x6, 0x5
00000401 c3f1                 LGOTO 0x40e; main.o:_00387_DS_=0x40e
00000402                      main.o:_00379_DS_:
00000402 defe                 MOVIA 0x1
00000403 e0fc                 BCR 0x3, 0x6
00000404 fb87                 SUBAR 0x78, 0x0
00000405 f6fc                 BTRSS 0x3, 0x2
00000406 c3f6                 LGOTO 0x409; main.o:_00404_DS_=0x409
00000407 de6f                 MOVIA 0x90
00000408 fb88                 SUBAR 0x77, 0x0
00000409                      main.o:_00404_DS_:
00000409 f3fc                 BTRSC 0x3, 0x0
0000040a c3f2                 LGOTO 0x40d; main.o:_00376_DS_=0x40d
0000040b e179                 BCR 0x6, 0x5
0000040c c3f1                 LGOTO 0x40e; main.o:_00387_DS_=0x40e
0000040d                      main.o:_00376_DS_:
0000040d e579                 BSR 0x6, 0x5
0000040e                      main.o:_00387_DS_:
0000040e ffef                 RET
0000040f                      _keyCon:
0000040f fef9                 MOVR 0x6, 0x0
00000410 ddf7                 ANDIA 0x8
00000411 f6fc                 BTRSS 0x3, 0x2
00000412 defe                 MOVIA 0x1
00000413 e0fc                 BCR 0x3, 0x6
00000414 ff55                 MOVAR 0x2a
00000415 fed5                 MOVR 0x2a, 0x0
00000416 f6fc                 BTRSS 0x3, 0x2
00000417 c3db                 LGOTO 0x424; main.o:_00311_DS_=0x424
00000418 defc                 MOVIA 0x3
00000419 ff12                 MOVAR 0x6d
0000041a e3f9                 BCR 0x6, 0x0
0000041b e1f9                 BCR 0x6, 0x4
0000041c e4fc                 BSR 0x3, 0x6
0000041d feda                 MOVR 0x25, 0x0
0000041e f2fc                 BTRSC 0x3, 0x2
0000041f c3dd                 LGOTO 0x422; main.o:_00296_DS_=0x422
00000420 e6f9                 BSR 0x6, 0x2
00000421 c398                 LGOTO 0x467; main.o:_00312_DS_=0x467
00000422                      main.o:_00296_DS_:
00000422 e2f9                 BCR 0x6, 0x2
00000423 c398                 LGOTO 0x467; main.o:_00312_DS_=0x467
00000424                      main.o:_00311_DS_:
00000424 fefa                 MOVR 0x5, 0x0
00000425 dd7f                 ANDIA 0x80
00000426 f6fc                 BTRSS 0x3, 0x2
00000427 defe                 MOVIA 0x1
00000428 e0fc                 BCR 0x3, 0x6
00000429 ff55                 MOVAR 0x2a
0000042a fed5                 MOVR 0x2a, 0x0
0000042b f6fc                 BTRSS 0x3, 0x2
0000042c c3c3                 LGOTO 0x43c; main.o:_00308_DS_=0x43c
0000042d fe92                 MOVR 0x6d, 0x0
0000042e dbfd                 XORIA 0x2
0000042f f2fc                 BTRSC 0x3, 0x2
00000430 c3ca                 LGOTO 0x435; main.o:_00299_DS_=0x435
00000431 fd0e                 CLRR 0x71
00000432 defa                 MOVIA 0x5
00000433 ff0d                 MOVAR 0x72
00000434 fd0c                 CLRR 0x73
00000435                      main.o:_00299_DS_:
00000435 defd                 MOVIA 0x2
00000436 e0fc                 BCR 0x3, 0x6
00000437 ff12                 MOVAR 0x6d
00000438 e3f9                 BCR 0x6, 0x0
00000439 e2f9                 BCR 0x6, 0x2
0000043a e5f9                 BSR 0x6, 0x4
0000043b c398                 LGOTO 0x467; main.o:_00312_DS_=0x467
0000043c                      main.o:_00308_DS_:
0000043c fefa                 MOVR 0x5, 0x0
0000043d ddbf                 ANDIA 0x40
0000043e f6fc                 BTRSS 0x3, 0x2
0000043f defe                 MOVIA 0x1
00000440 e0fc                 BCR 0x3, 0x6
00000441 ff55                 MOVAR 0x2a
00000442 fed5                 MOVR 0x2a, 0x0
00000443 f6fc                 BTRSS 0x3, 0x2
00000444 c3a0                 LGOTO 0x45f; main.o:_00305_DS_=0x45f
00000445 fe92                 MOVR 0x6d, 0x0
00000446 dbfe                 XORIA 0x1
00000447 f2fc                 BTRSC 0x3, 0x2
00000448 c3ae                 LGOTO 0x451; main.o:_00301_DS_=0x451
00000449 de77                 MOVIA 0x88
0000044a ff05                 MOVAR 0x7a
0000044b deec                 MOVIA 0x13
0000044c ff04                 MOVAR 0x7b
0000044d fd0e                 CLRR 0x71
0000044e defa                 MOVIA 0x5
0000044f ff0d                 MOVAR 0x72
00000450 fd0c                 CLRR 0x73
00000451                      main.o:_00301_DS_:
00000451 defe                 MOVIA 0x1
00000452 e0fc                 BCR 0x3, 0x6
00000453 ff12                 MOVAR 0x6d
00000454 e1f9                 BCR 0x6, 0x4
00000455 e2f9                 BCR 0x6, 0x2
00000456 e7f9                 BSR 0x6, 0x0
00000457 fe8f                 MOVR 0x70, 0x0
00000458 f2fc                 BTRSC 0x3, 0x2
00000459 c398                 LGOTO 0x467; main.o:_00312_DS_=0x467
0000045a de77                 MOVIA 0x88
0000045b ff05                 MOVAR 0x7a
0000045c deec                 MOVIA 0x13
0000045d ff04                 MOVAR 0x7b
0000045e c398                 LGOTO 0x467; main.o:_00312_DS_=0x467
0000045f                      main.o:_00305_DS_:
0000045f e0fc                 BCR 0x3, 0x6
00000460 fd12                 CLRR 0x6d
00000461 fd01                 CLRR 0x7e
00000462 fd0f                 CLRR 0x70
00000463 e3f9                 BCR 0x6, 0x0
00000464 e1f9                 BCR 0x6, 0x4
00000465 e2f9                 BCR 0x6, 0x2
00000466 d293                 LCALL 0x56c; _setInput=0x56c
00000467                      main.o:_00312_DS_:
00000467 e4fc                 BSR 0x3, 0x6
00000468 fedc                 MOVR 0x23, 0x0
00000469 dbfe                 XORIA 0x1
0000046a f6fc                 BTRSS 0x3, 0x2
0000046b c385                 LGOTO 0x47a; main.o:_00314_DS_=0x47a
0000046c e0fc                 BCR 0x3, 0x6
0000046d fe86                 MOVR 0x79, 0x0
0000046e dbfe                 XORIA 0x1
0000046f f6fc                 BTRSS 0x3, 0x2
00000470 c385                 LGOTO 0x47a; main.o:_00314_DS_=0x47a
00000471 fe88                 MOVR 0x77, 0x0
00000472 ee87                 IORAR 0x78, 0x0
00000473 f6fc                 BTRSS 0x3, 0x2
00000474 c385                 LGOTO 0x47a; main.o:_00314_DS_=0x47a
00000475 de0b                 MOVIA 0xf4
00000476 ff08                 MOVAR 0x77
00000477 defe                 MOVIA 0x1
00000478 ff07                 MOVAR 0x78
00000479 fd06                 CLRR 0x79
0000047a                      main.o:_00314_DS_:
0000047a e0fc                 BCR 0x3, 0x6
0000047b fe92                 MOVR 0x6d, 0x0
0000047c e4fc                 BSR 0x3, 0x6
0000047d edd9                 XORAR 0x26, 0x0
0000047e f2fc                 BTRSC 0x3, 0x2
0000047f c36e                 LGOTO 0x491; main.o:_00321_DS_=0x491
00000480 e0fc                 BCR 0x3, 0x6
00000481 fe92                 MOVR 0x6d, 0x0
00000482 e4fc                 BSR 0x3, 0x6
00000483 ff59                 MOVAR 0x26
00000484 e0fc                 BCR 0x3, 0x6
00000485 fe8f                 MOVR 0x70, 0x0
00000486 f6fc                 BTRSS 0x3, 0x2
00000487 c36e                 LGOTO 0x491; main.o:_00321_DS_=0x491
00000488 defd                 MOVIA 0x2
00000489 fb92                 SUBAR 0x6d, 0x0
0000048a f7fc                 BTRSS 0x3, 0x0
0000048b c36e                 LGOTO 0x491; main.o:_00321_DS_=0x491
0000048c ded3                 MOVIA 0x2c
0000048d ff08                 MOVAR 0x77
0000048e defe                 MOVIA 0x1
0000048f ff07                 MOVAR 0x78
00000490 ff06                 MOVAR 0x79
00000491                      main.o:_00321_DS_:
00000491 e0fc                 BCR 0x3, 0x6
00000492 fe88                 MOVR 0x77, 0x0
00000493 ee87                 IORAR 0x78, 0x0
00000494 f6fc                 BTRSS 0x3, 0x2
00000495 d422                 LCALL 0x3dd; _setKeyPress=0x3dd
00000496 ffef                 RET
00000497                      _checkBatSta:
00000497 fefa                 MOVR 0x5, 0x0
00000498 dddf                 ANDIA 0x20
00000499 f6fc                 BTRSS 0x3, 0x2
0000049a defe                 MOVIA 0x1
0000049b e0fc                 BCR 0x3, 0x6
0000049c ff56                 MOVAR 0x29
0000049d fed6                 MOVR 0x29, 0x0
0000049e f2fc                 BTRSC 0x3, 0x2
0000049f c35e                 LGOTO 0x4a1; main.o:_00007_DS_=0x4a1
000004a0 fa11                 INCR 0x6e, 0x1
000004a1                      main.o:_00007_DS_:
000004a1 e0fc                 BCR 0x3, 0x6
000004a2 fa10                 INCR 0x6f, 0x1
000004a3 ded5                 MOVIA 0x2a
000004a4 fb90                 SUBAR 0x6f, 0x0
000004a5 f7fc                 BTRSS 0x3, 0x0
000004a6 c30e                 LGOTO 0x4f1; main.o:_00254_DS_=0x4f1
000004a7 fe91                 MOVR 0x6e, 0x0
000004a8 f6fc                 BTRSS 0x3, 0x2
000004a9 c342                 LGOTO 0x4bd; main.o:_00250_DS_=0x4bd
000004aa fd0f                 CLRR 0x70
000004ab fa03                 INCR 0x7c, 0x1
000004ac f2fc                 BTRSC 0x3, 0x2
000004ad fa02                 INCR 0x7d, 0x1
000004ae deff                 MOVIA 0x0
000004af fb82                 SUBAR 0x7d, 0x0
000004b0 f6fc                 BTRSS 0x3, 0x2
000004b1 c34b                 LGOTO 0x4b4; main.o:_00290_DS_=0x4b4
000004b2 decd                 MOVIA 0x32
000004b3 fb83                 SUBAR 0x7c, 0x0
000004b4                      main.o:_00290_DS_:
000004b4 f7fc                 BTRSS 0x3, 0x0
000004b5 c311                 LGOTO 0x4ee; main.o:_00251_DS_=0x4ee
000004b6 e4fc                 BSR 0x3, 0x6
000004b7 fedb                 MOVR 0x24, 0x0
000004b8 f6fc                 BTRSS 0x3, 0x2
000004b9 c311                 LGOTO 0x4ee; main.o:_00251_DS_=0x4ee
000004ba d293                 LCALL 0x56c; _setInput=0x56c
000004bb d537                 LCALL 0x2c8; _gotoSleep=0x2c8
000004bc c311                 LGOTO 0x4ee; main.o:_00251_DS_=0x4ee
000004bd                      main.o:_00250_DS_:
000004bd defb                 MOVIA 0x4
000004be e0fc                 BCR 0x3, 0x6
000004bf fb91                 SUBAR 0x6e, 0x0
000004c0 f7fc                 BTRSS 0x3, 0x0
000004c1 c334                 LGOTO 0x4cb; main.o:_00246_DS_=0x4cb
000004c2 dee8                 MOVIA 0x17
000004c3 fb91                 SUBAR 0x6e, 0x0
000004c4 f3fc                 BTRSC 0x3, 0x0
000004c5 c334                 LGOTO 0x4cb; main.o:_00246_DS_=0x4cb
000004c6 defe                 MOVIA 0x1
000004c7 ff0f                 MOVAR 0x70
000004c8 fd03                 CLRR 0x7c
000004c9 fd02                 CLRR 0x7d
000004ca c311                 LGOTO 0x4ee; main.o:_00251_DS_=0x4ee
000004cb                      main.o:_00246_DS_:
000004cb dedd                 MOVIA 0x22
000004cc e0fc                 BCR 0x3, 0x6
000004cd fb91                 SUBAR 0x6e, 0x0
000004ce f7fc                 BTRSS 0x3, 0x0
000004cf c326                 LGOTO 0x4d9; main.o:_00242_DS_=0x4d9
000004d0 ded6                 MOVIA 0x29
000004d1 fb91                 SUBAR 0x6e, 0x0
000004d2 f3fc                 BTRSC 0x3, 0x0
000004d3 c326                 LGOTO 0x4d9; main.o:_00242_DS_=0x4d9
000004d4 defd                 MOVIA 0x2
000004d5 ff0f                 MOVAR 0x70
000004d6 fd03                 CLRR 0x7c
000004d7 fd02                 CLRR 0x7d
000004d8 c311                 LGOTO 0x4ee; main.o:_00251_DS_=0x4ee
000004d9                      main.o:_00242_DS_:
000004d9 dee7                 MOVIA 0x18
000004da e0fc                 BCR 0x3, 0x6
000004db fb91                 SUBAR 0x6e, 0x0
000004dc f7fc                 BTRSS 0x3, 0x0
000004dd c316                 LGOTO 0x4e9; main.o:_00238_DS_=0x4e9
000004de dedf                 MOVIA 0x20
000004df fb91                 SUBAR 0x6e, 0x0
000004e0 f3fc                 BTRSC 0x3, 0x0
000004e1 c316                 LGOTO 0x4e9; main.o:_00238_DS_=0x4e9
000004e2 defc                 MOVIA 0x3
000004e3 ff0f                 MOVAR 0x70
000004e4 fd03                 CLRR 0x7c
000004e5 fd02                 CLRR 0x7d
000004e6 defe                 MOVIA 0x1
000004e7 ff01                 MOVAR 0x7e
000004e8 c311                 LGOTO 0x4ee; main.o:_00251_DS_=0x4ee
000004e9                      main.o:_00238_DS_:
000004e9 defb                 MOVIA 0x4
000004ea e0fc                 BCR 0x3, 0x6
000004eb ff0f                 MOVAR 0x70
000004ec fd03                 CLRR 0x7c
000004ed fd02                 CLRR 0x7d
000004ee                      main.o:_00251_DS_:
000004ee e0fc                 BCR 0x3, 0x6
000004ef fd10                 CLRR 0x6f
000004f0 fd11                 CLRR 0x6e
000004f1                      main.o:_00254_DS_:
000004f1 ffef                 RET
000004f2                      _checkAD:
000004f2 e0fc                 BCR 0x3, 0x6
000004f3 fe92                 MOVR 0x6d, 0x0
000004f4 dbfc                 XORIA 0x3
000004f5 f6fc                 BTRSS 0x3, 0x2
000004f6 c306                 LGOTO 0x4f9; main.o:_00217_DS_=0x4f9
000004f7 d4c9                 LCALL 0x336; _checkMF52AD=0x336
000004f8 c2fd                 LGOTO 0x502; main.o:_00219_DS_=0x502
000004f9                      main.o:_00217_DS_:
000004f9 e0fc                 BCR 0x3, 0x6
000004fa fe92                 MOVR 0x6d, 0x0
000004fb dbfe                 XORIA 0x1
000004fc f2fc                 BTRSC 0x3, 0x2
000004fd c2fe                 LGOTO 0x501; main.o:_00213_DS_=0x501
000004fe fe92                 MOVR 0x6d, 0x0
000004ff dbfd                 XORIA 0x2
00000500 f2fc                 BTRSC 0x3, 0x2
00000501                      main.o:_00213_DS_:
00000501 d47a                 LCALL 0x385; _checkQuarterVDD=0x385
00000502                      main.o:_00219_DS_:
00000502 ffef                 RET
00000503                      _refreshNub:
00000503 e4fc                 BSR 0x3, 0x6
00000504 fedc                 MOVR 0x23, 0x0
00000505 dbfe                 XORIA 0x1
00000506 f6fc                 BTRSS 0x3, 0x2
00000507 c2f2                 LGOTO 0x50d; main.o:_00200_DS_=0x50d
00000508 fd5e                 CLRR 0x21
00000509 fd5f                 CLRR 0x20
0000050a e0fc                 BCR 0x3, 0x6
0000050b fd00                 CLRR 0x7f
0000050c c2e1                 LGOTO 0x51e; main.o:_00201_DS_=0x51e
0000050d                      main.o:_00200_DS_:
0000050d e4fc                 BSR 0x3, 0x6
0000050e fa5d                 INCR 0x22, 0x1
0000050f defa                 MOVIA 0x5
00000510 fbdd                 SUBAR 0x22, 0x0
00000511 f7fc                 BTRSS 0x3, 0x0
00000512 c2e1                 LGOTO 0x51e; main.o:_00201_DS_=0x51e
00000513 fd5d                 CLRR 0x22
00000514 e0fc                 BCR 0x3, 0x6
00000515 fe8e                 MOVR 0x71, 0x0
00000516 ff00                 MOVAR 0x7f
00000517 fe8d                 MOVR 0x72, 0x0
00000518 e4fc                 BSR 0x3, 0x6
00000519 ff5f                 MOVAR 0x20
0000051a e0fc                 BCR 0x3, 0x6
0000051b fe8c                 MOVR 0x73, 0x0
0000051c e4fc                 BSR 0x3, 0x6
0000051d ff5e                 MOVAR 0x21
0000051e                      main.o:_00201_DS_:
0000051e e0fc                 BCR 0x3, 0x6
0000051f fe80                 MOVR 0x7f, 0x0
00000520 f6fc                 BTRSS 0x3, 0x2
00000521 d7fb                 LCALL 0x4; _showBaiwei=0x4
00000522 e0fc                 BCR 0x3, 0x6
00000523 fe80                 MOVR 0x7f, 0x0
00000524 f2fc                 BTRSC 0x3, 0x2
00000525 c2c6                 LGOTO 0x539; main.o:_00207_DS_=0x539
00000526 e4fc                 BSR 0x3, 0x6
00000527 fedf                 MOVR 0x20, 0x0
00000528 da58                 ADDIA 0xa7
00000529 e0fc                 BCR 0x3, 0x6
0000052a ff59                 MOVAR 0x26
0000052b deff                 MOVIA 0x0
0000052c f3fc                 BTRSC 0x3, 0x0
0000052d dafe                 ADDIA 0x1
0000052e ff58                 MOVAR 0x27
0000052f fed9                 MOVR 0x26, 0x0
00000530 ff31                 MOVAR 0x4e
00000531 fed8                 MOVR 0x27, 0x0
00000532 ff30                 MOVAR 0x4f
00000533 deff                 MOVIA 0x0
00000534 d0dc                 LCALL 0x723; __gptrget=0x723
00000535 e0fc                 BCR 0x3, 0x6
00000536 ff57                 MOVAR 0x28
00000537 d144                 LCALL 0x6bb; _showNubShiwei=0x6bb
00000538 c2b1                 LGOTO 0x54e; main.o:_00208_DS_=0x54e
00000539                      main.o:_00207_DS_:
00000539 e4fc                 BSR 0x3, 0x6
0000053a fedf                 MOVR 0x20, 0x0
0000053b f2fc                 BTRSC 0x3, 0x2
0000053c c2b1                 LGOTO 0x54e; main.o:_00208_DS_=0x54e
0000053d fedf                 MOVR 0x20, 0x0
0000053e da58                 ADDIA 0xa7
0000053f e0fc                 BCR 0x3, 0x6
00000540 ff59                 MOVAR 0x26
00000541 deff                 MOVIA 0x0
00000542 f3fc                 BTRSC 0x3, 0x0
00000543 dafe                 ADDIA 0x1
00000544 ff58                 MOVAR 0x27
00000545 fed9                 MOVR 0x26, 0x0
00000546 ff31                 MOVAR 0x4e
00000547 fed8                 MOVR 0x27, 0x0
00000548 ff30                 MOVAR 0x4f
00000549 deff                 MOVIA 0x0
0000054a d0dc                 LCALL 0x723; __gptrget=0x723
0000054b e0fc                 BCR 0x3, 0x6
0000054c ff57                 MOVAR 0x28
0000054d d144                 LCALL 0x6bb; _showNubShiwei=0x6bb
0000054e                      main.o:_00208_DS_:
0000054e e4fc                 BSR 0x3, 0x6
0000054f fede                 MOVR 0x21, 0x0
00000550 da58                 ADDIA 0xa7
00000551 e0fc                 BCR 0x3, 0x6
00000552 ff59                 MOVAR 0x26
00000553 deff                 MOVIA 0x0
00000554 f3fc                 BTRSC 0x3, 0x0
00000555 dafe                 ADDIA 0x1
00000556 ff58                 MOVAR 0x27
00000557 fed9                 MOVR 0x26, 0x0
00000558 ff31                 MOVAR 0x4e
00000559 fed8                 MOVR 0x27, 0x0
0000055a ff30                 MOVAR 0x4f
0000055b deff                 MOVIA 0x0
0000055c d0dc                 LCALL 0x723; __gptrget=0x723
0000055d e0fc                 BCR 0x3, 0x6
0000055e ff57                 MOVAR 0x28
0000055f d184                 LCALL 0x67b; _showNubGewei=0x67b
00000560 ffef                 RET
00000561                      _delayms:
00000561 e0fc                 BCR 0x3, 0x6
00000562 ff21                 MOVAR 0x5e
00000563 fd20                 CLRR 0x5f
00000564                      number.o:_00336_DS_:
00000564 e0fc                 BCR 0x3, 0x6
00000565 fea1                 MOVR 0x5e, 0x0
00000566 fba0                 SUBAR 0x5f, 0x0
00000567 f3fc                 BTRSC 0x3, 0x0
00000568 c294                 LGOTO 0x56b; number.o:_00338_DS_=0x56b
00000569 fa20                 INCR 0x5f, 0x1
0000056a c29b                 LGOTO 0x564; number.o:_00336_DS_=0x564
0000056b                      number.o:_00338_DS_:
0000056b ffef                 RET
0000056c                      _setInput:
0000056c ffea                 IOSTR 0x5
0000056d e0fc                 BCR 0x3, 0x6
0000056e ff22                 MOVAR 0x5d
0000056f dee0                 MOVIA 0x1f
00000570 ee22                 IORAR 0x5d, 0x1
00000571 fea2                 MOVR 0x5d, 0x0
00000572 fffa                 IOST 0x5
00000573 ffef                 RET
00000574                      _setOutput:
00000574 e0fc                 BCR 0x3, 0x6
00000575 ff23                 MOVAR 0x5c
00000576 defe                 MOVIA 0x1
00000577 fba3                 SUBAR 0x5c, 0x0
00000578 f7fc                 BTRSS 0x3, 0x0
00000579 c252                 LGOTO 0x5ad; number.o:_00315_DS_=0x5ad
0000057a def9                 MOVIA 0x6
0000057b fba3                 SUBAR 0x5c, 0x0
0000057c f3fc                 BTRSC 0x3, 0x0
0000057d c252                 LGOTO 0x5ad; number.o:_00315_DS_=0x5ad
0000057e f923                 DECR 0x5c, 0x1
0000057f defa                 MOVIA 0x5
00000580 ff75                 MOVAR 0xa
00000581 fea3                 MOVR 0x5c, 0x0
00000582 da79                 ADDIA 0x86
00000583 f3fc                 BTRSC 0x3, 0x0
00000584 fa75                 INCR 0xa, 0x1
00000585 ff7d                 MOVAR 0x2
00000586                      number.o:_00325_DS_:
00000586 c258                 LGOTO 0x5a7; number.o:_00313_DS_=0x5a7
00000587 c25f                 LGOTO 0x5a0; number.o:_00312_DS_=0x5a0
00000588 c266                 LGOTO 0x599; number.o:_00311_DS_=0x599
00000589 c26d                 LGOTO 0x592; number.o:_00310_DS_=0x592
0000058a c274                 LGOTO 0x58b; number.o:_00309_DS_=0x58b
0000058b                      number.o:_00309_DS_:
0000058b ffea                 IOSTR 0x5
0000058c e0fc                 BCR 0x3, 0x6
0000058d ff23                 MOVAR 0x5c
0000058e e1a3                 BCR 0x5c, 0x4
0000058f fea3                 MOVR 0x5c, 0x0
00000590 fffa                 IOST 0x5
00000591 c252                 LGOTO 0x5ad; number.o:_00315_DS_=0x5ad
00000592                      number.o:_00310_DS_:
00000592 ffea                 IOSTR 0x5
00000593 e0fc                 BCR 0x3, 0x6
00000594 ff23                 MOVAR 0x5c
00000595 e223                 BCR 0x5c, 0x3
00000596 fea3                 MOVR 0x5c, 0x0
00000597 fffa                 IOST 0x5
00000598 c252                 LGOTO 0x5ad; number.o:_00315_DS_=0x5ad
00000599                      number.o:_00311_DS_:
00000599 ffea                 IOSTR 0x5
0000059a e0fc                 BCR 0x3, 0x6
0000059b ff23                 MOVAR 0x5c
0000059c e2a3                 BCR 0x5c, 0x2
0000059d fea3                 MOVR 0x5c, 0x0
0000059e fffa                 IOST 0x5
0000059f c252                 LGOTO 0x5ad; number.o:_00315_DS_=0x5ad
000005a0                      number.o:_00312_DS_:
000005a0 ffea                 IOSTR 0x5
000005a1 e0fc                 BCR 0x3, 0x6
000005a2 ff23                 MOVAR 0x5c
000005a3 e323                 BCR 0x5c, 0x1
000005a4 fea3                 MOVR 0x5c, 0x0
000005a5 fffa                 IOST 0x5
000005a6 c252                 LGOTO 0x5ad; number.o:_00315_DS_=0x5ad
000005a7                      number.o:_00313_DS_:
000005a7 ffea                 IOSTR 0x5
000005a8 e0fc                 BCR 0x3, 0x6
000005a9 ff23                 MOVAR 0x5c
000005aa e3a3                 BCR 0x5c, 0x0
000005ab fea3                 MOVR 0x5c, 0x0
000005ac fffa                 IOST 0x5
000005ad                      number.o:_00315_DS_:
000005ad ffef                 RET
000005ae                      _setlowOutput:
000005ae e0fc                 BCR 0x3, 0x6
000005af ff24                 MOVAR 0x5b
000005b0 defe                 MOVIA 0x1
000005b1 fba4                 SUBAR 0x5b, 0x0
000005b2 f7fc                 BTRSS 0x3, 0x0
000005b3 c231                 LGOTO 0x5ce; number.o:_00294_DS_=0x5ce
000005b4 def9                 MOVIA 0x6
000005b5 fba4                 SUBAR 0x5b, 0x0
000005b6 f3fc                 BTRSC 0x3, 0x0
000005b7 c231                 LGOTO 0x5ce; number.o:_00294_DS_=0x5ce
000005b8 f924                 DECR 0x5b, 0x1
000005b9 defa                 MOVIA 0x5
000005ba ff75                 MOVAR 0xa
000005bb fea4                 MOVR 0x5b, 0x0
000005bc da3f                 ADDIA 0xc0
000005bd f3fc                 BTRSC 0x3, 0x0
000005be fa75                 INCR 0xa, 0x1
000005bf ff7d                 MOVAR 0x2
000005c0                      number.o:_00304_DS_:
000005c0 c232                 LGOTO 0x5cd; number.o:_00292_DS_=0x5cd
000005c1 c234                 LGOTO 0x5cb; number.o:_00291_DS_=0x5cb
000005c2 c236                 LGOTO 0x5c9; number.o:_00290_DS_=0x5c9
000005c3 c238                 LGOTO 0x5c7; number.o:_00289_DS_=0x5c7
000005c4 c23a                 LGOTO 0x5c5; number.o:_00288_DS_=0x5c5
000005c5                      number.o:_00288_DS_:
000005c5 e1fa                 BCR 0x5, 0x4
000005c6 c231                 LGOTO 0x5ce; number.o:_00294_DS_=0x5ce
000005c7                      number.o:_00289_DS_:
000005c7 e27a                 BCR 0x5, 0x3
000005c8 c231                 LGOTO 0x5ce; number.o:_00294_DS_=0x5ce
000005c9                      number.o:_00290_DS_:
000005c9 e2fa                 BCR 0x5, 0x2
000005ca c231                 LGOTO 0x5ce; number.o:_00294_DS_=0x5ce
000005cb                      number.o:_00291_DS_:
000005cb e37a                 BCR 0x5, 0x1
000005cc c231                 LGOTO 0x5ce; number.o:_00294_DS_=0x5ce
000005cd                      number.o:_00292_DS_:
000005cd e3fa                 BCR 0x5, 0x0
000005ce                      number.o:_00294_DS_:
000005ce ffef                 RET
000005cf                      _setHightOutput:
000005cf e0fc                 BCR 0x3, 0x6
000005d0 ff25                 MOVAR 0x5a
000005d1 defe                 MOVIA 0x1
000005d2 fba5                 SUBAR 0x5a, 0x0
000005d3 f7fc                 BTRSS 0x3, 0x0
000005d4 c210                 LGOTO 0x5ef; number.o:_00273_DS_=0x5ef
000005d5 def9                 MOVIA 0x6
000005d6 fba5                 SUBAR 0x5a, 0x0
000005d7 f3fc                 BTRSC 0x3, 0x0
000005d8 c210                 LGOTO 0x5ef; number.o:_00273_DS_=0x5ef
000005d9 f925                 DECR 0x5a, 0x1
000005da defa                 MOVIA 0x5
000005db ff75                 MOVAR 0xa
000005dc fea5                 MOVR 0x5a, 0x0
000005dd da1e                 ADDIA 0xe1
000005de f3fc                 BTRSC 0x3, 0x0
000005df fa75                 INCR 0xa, 0x1
000005e0 ff7d                 MOVAR 0x2
000005e1                      number.o:_00283_DS_:
000005e1 c211                 LGOTO 0x5ee; number.o:_00271_DS_=0x5ee
000005e2 c213                 LGOTO 0x5ec; number.o:_00270_DS_=0x5ec
000005e3 c215                 LGOTO 0x5ea; number.o:_00269_DS_=0x5ea
000005e4 c217                 LGOTO 0x5e8; number.o:_00268_DS_=0x5e8
000005e5 c219                 LGOTO 0x5e6; number.o:_00267_DS_=0x5e6
000005e6                      number.o:_00267_DS_:
000005e6 e5fa                 BSR 0x5, 0x4
000005e7 c210                 LGOTO 0x5ef; number.o:_00273_DS_=0x5ef
000005e8                      number.o:_00268_DS_:
000005e8 e67a                 BSR 0x5, 0x3
000005e9 c210                 LGOTO 0x5ef; number.o:_00273_DS_=0x5ef
000005ea                      number.o:_00269_DS_:
000005ea e6fa                 BSR 0x5, 0x2
000005eb c210                 LGOTO 0x5ef; number.o:_00273_DS_=0x5ef
000005ec                      number.o:_00270_DS_:
000005ec e77a                 BSR 0x5, 0x1
000005ed c210                 LGOTO 0x5ef; number.o:_00273_DS_=0x5ef
000005ee                      number.o:_00271_DS_:
000005ee e7fa                 BSR 0x5, 0x0
000005ef                      number.o:_00273_DS_:
000005ef ffef                 RET
000005f0                      _showNub:
000005f0 e0fc                 BCR 0x3, 0x6
000005f1 ff27                 MOVAR 0x58
000005f2 feb0                 MOVR 0x4f, 0x0
000005f3 ff26                 MOVAR 0x59
000005f4 d293                 LCALL 0x56c; _setInput=0x56c
000005f5 de1f                 MOVIA 0xe0
000005f6 ef7a                 ANDAR 0x5, 0x1
000005f7 e0fc                 BCR 0x3, 0x6
000005f8 fea7                 MOVR 0x58, 0x0
000005f9 d28b                 LCALL 0x574; _setOutput=0x574
000005fa e0fc                 BCR 0x3, 0x6
000005fb fea7                 MOVR 0x58, 0x0
000005fc d230                 LCALL 0x5cf; _setHightOutput=0x5cf
000005fd e0fc                 BCR 0x3, 0x6
000005fe fea6                 MOVR 0x59, 0x0
000005ff d28b                 LCALL 0x574; _setOutput=0x574
00000600 e0fc                 BCR 0x3, 0x6
00000601 fea6                 MOVR 0x59, 0x0
00000602 d251                 LCALL 0x5ae; _setlowOutput=0x5ae
00000603 def5                 MOVIA 0xa
00000604 d29e                 LCALL 0x561; _delayms=0x561
00000605 fffd                 CLRWDT
00000606 de1f                 MOVIA 0xe0
00000607 ef7a                 ANDAR 0x5, 0x1
00000608 ffef                 RET
00000609                      _G3:
00000609 defe                 MOVIA 0x1
0000060a ff30                 MOVAR 0x4f
0000060b defa                 MOVIA 0x5
0000060c d20f                 LCALL 0x5f0; _showNub=0x5f0
0000060d ffef                 RET
0000060e                      _F3:
0000060e defe                 MOVIA 0x1
0000060f ff30                 MOVAR 0x4f
00000610 defb                 MOVIA 0x4
00000611 d20f                 LCALL 0x5f0; _showNub=0x5f0
00000612 ffef                 RET
00000613                      _E3:
00000613 defb                 MOVIA 0x4
00000614 ff30                 MOVAR 0x4f
00000615 defe                 MOVIA 0x1
00000616 d20f                 LCALL 0x5f0; _showNub=0x5f0
00000617 ffef                 RET
00000618                      _D3:
00000618 defe                 MOVIA 0x1
00000619 ff30                 MOVAR 0x4f
0000061a defc                 MOVIA 0x3
0000061b d20f                 LCALL 0x5f0; _showNub=0x5f0
0000061c ffef                 RET
0000061d                      _C3:
0000061d defc                 MOVIA 0x3
0000061e ff30                 MOVAR 0x4f
0000061f defe                 MOVIA 0x1
00000620 d20f                 LCALL 0x5f0; _showNub=0x5f0
00000621 ffef                 RET
00000622                      _B3:
00000622 defe                 MOVIA 0x1
00000623 ff30                 MOVAR 0x4f
00000624 defd                 MOVIA 0x2
00000625 d20f                 LCALL 0x5f0; _showNub=0x5f0
00000626 ffef                 RET
00000627                      _A3:
00000627 defd                 MOVIA 0x2
00000628 ff30                 MOVAR 0x4f
00000629 defe                 MOVIA 0x1
0000062a d20f                 LCALL 0x5f0; _showNub=0x5f0
0000062b ffef                 RET
0000062c                      _G2:
0000062c defb                 MOVIA 0x4
0000062d ff30                 MOVAR 0x4f
0000062e defa                 MOVIA 0x5
0000062f d20f                 LCALL 0x5f0; _showNub=0x5f0
00000630 ffef                 RET
00000631                      _F2:
00000631 defc                 MOVIA 0x3
00000632 ff30                 MOVAR 0x4f
00000633 defa                 MOVIA 0x5
00000634 d20f                 LCALL 0x5f0; _showNub=0x5f0
00000635 ffef                 RET
00000636                      _E2:
00000636 defd                 MOVIA 0x2
00000637 ff30                 MOVAR 0x4f
00000638 defa                 MOVIA 0x5
00000639 d20f                 LCALL 0x5f0; _showNub=0x5f0
0000063a ffef                 RET
0000063b                      _D2:
0000063b defd                 MOVIA 0x2
0000063c ff30                 MOVAR 0x4f
0000063d defb                 MOVIA 0x4
0000063e d20f                 LCALL 0x5f0; _showNub=0x5f0
0000063f ffef                 RET
00000640                      _C2:
00000640 defc                 MOVIA 0x3
00000641 ff30                 MOVAR 0x4f
00000642 defb                 MOVIA 0x4
00000643 d20f                 LCALL 0x5f0; _showNub=0x5f0
00000644 ffef                 RET
00000645                      _B2:
00000645 defd                 MOVIA 0x2
00000646 ff30                 MOVAR 0x4f
00000647 defc                 MOVIA 0x3
00000648 d20f                 LCALL 0x5f0; _showNub=0x5f0
00000649 ffef                 RET
0000064a                      _A2:
0000064a defc                 MOVIA 0x3
0000064b ff30                 MOVAR 0x4f
0000064c defd                 MOVIA 0x2
0000064d d20f                 LCALL 0x5f0; _showNub=0x5f0
0000064e ffef                 RET
0000064f                      _C1:
0000064f defb                 MOVIA 0x4
00000650 ff30                 MOVAR 0x4f
00000651 defd                 MOVIA 0x2
00000652 d20f                 LCALL 0x5f0; _showNub=0x5f0
00000653 ffef                 RET
00000654                      _B1:
00000654 defb                 MOVIA 0x4
00000655 ff30                 MOVAR 0x4f
00000656 defc                 MOVIA 0x3
00000657 d20f                 LCALL 0x5f0; _showNub=0x5f0
00000658 ffef                 RET
00000659                      _showNubGewei2:
00000659 e0fc                 BCR 0x3, 0x6
0000065a ff28                 MOVAR 0x57
0000065b def8                 MOVIA 0x7
0000065c fba8                 SUBAR 0x57, 0x0
0000065d f3fc                 BTRSC 0x3, 0x0
0000065e c185                 LGOTO 0x67a; number.o:_00184_DS_=0x67a
0000065f def9                 MOVIA 0x6
00000660 ff75                 MOVAR 0xa
00000661 fea8                 MOVR 0x57, 0x0
00000662 da99                 ADDIA 0x66
00000663 f3fc                 BTRSC 0x3, 0x0
00000664 fa75                 INCR 0xa, 0x1
00000665 ff7d                 MOVAR 0x2
00000666                      number.o:_00190_DS_:
00000666 c192                 LGOTO 0x66d; number.o:_00176_DS_=0x66d
00000667 c190                 LGOTO 0x66f; number.o:_00177_DS_=0x66f
00000668 c18e                 LGOTO 0x671; number.o:_00178_DS_=0x671
00000669 c18c                 LGOTO 0x673; number.o:_00179_DS_=0x673
0000066a c18a                 LGOTO 0x675; number.o:_00180_DS_=0x675
0000066b c188                 LGOTO 0x677; number.o:_00181_DS_=0x677
0000066c c186                 LGOTO 0x679; number.o:_00182_DS_=0x679
0000066d                      number.o:_00176_DS_:
0000066d d1d8                 LCALL 0x627; _A3=0x627
0000066e c185                 LGOTO 0x67a; number.o:_00184_DS_=0x67a
0000066f                      number.o:_00177_DS_:
0000066f d1dd                 LCALL 0x622; _B3=0x622
00000670 c185                 LGOTO 0x67a; number.o:_00184_DS_=0x67a
00000671                      number.o:_00178_DS_:
00000671 d1e2                 LCALL 0x61d; _C3=0x61d
00000672 c185                 LGOTO 0x67a; number.o:_00184_DS_=0x67a
00000673                      number.o:_00179_DS_:
00000673 d1e7                 LCALL 0x618; _D3=0x618
00000674 c185                 LGOTO 0x67a; number.o:_00184_DS_=0x67a
00000675                      number.o:_00180_DS_:
00000675 d1ec                 LCALL 0x613; _E3=0x613
00000676 c185                 LGOTO 0x67a; number.o:_00184_DS_=0x67a
00000677                      number.o:_00181_DS_:
00000677 d1f1                 LCALL 0x60e; _F3=0x60e
00000678 c185                 LGOTO 0x67a; number.o:_00184_DS_=0x67a
00000679                      number.o:_00182_DS_:
00000679 d1f6                 LCALL 0x609; _G3=0x609
0000067a                      number.o:_00184_DS_:
0000067a ffef                 RET
0000067b                      _showNubGewei:
0000067b e0fc                 BCR 0x3, 0x6
0000067c ff2b                 MOVAR 0x54
0000067d fd2a                 CLRR 0x55
0000067e                      number.o:_00155_DS_:
0000067e def8                 MOVIA 0x7
0000067f e0fc                 BCR 0x3, 0x6
00000680 fbaa                 SUBAR 0x55, 0x0
00000681 f3fc                 BTRSC 0x3, 0x0
00000682 c167                 LGOTO 0x698; number.o:_00157_DS_=0x698
00000683 feab                 MOVR 0x54, 0x0
00000684 ff29                 MOVAR 0x56
00000685 feaa                 MOVR 0x55, 0x0
00000686 d8ff                 SUBIA 0x0
00000687 f2fc                 BTRSC 0x3, 0x2
00000688 c171                 LGOTO 0x68e; number.o:_00171_DS_=0x68e
00000689                      number.o:_00170_DS_:
00000689 e0fc                 BCR 0x3, 0x6
0000068a ec29                 RRR 0x56, 0x1
0000068b dafe                 ADDIA 0x1
0000068c f7fc                 BTRSS 0x3, 0x0
0000068d c176                 LGOTO 0x689; number.o:_00170_DS_=0x689
0000068e                      number.o:_00171_DS_:
0000068e e0fc                 BCR 0x3, 0x6
0000068f f7a9                 BTRSS 0x56, 0x0
00000690 c16b                 LGOTO 0x694; number.o:_00151_DS_=0x694
00000691 feaa                 MOVR 0x55, 0x0
00000692 d1a6                 LCALL 0x659; _showNubGewei2=0x659
00000693 c16a                 LGOTO 0x695; number.o:_00156_DS_=0x695
00000694                      number.o:_00151_DS_:
00000694 d293                 LCALL 0x56c; _setInput=0x56c
00000695                      number.o:_00156_DS_:
00000695 e0fc                 BCR 0x3, 0x6
00000696 fa2a                 INCR 0x55, 0x1
00000697 c181                 LGOTO 0x67e; number.o:_00155_DS_=0x67e
00000698                      number.o:_00157_DS_:
00000698 ffef                 RET
00000699                      _showNubShiwei2:
00000699 e0fc                 BCR 0x3, 0x6
0000069a ff2c                 MOVAR 0x53
0000069b def8                 MOVIA 0x7
0000069c fbac                 SUBAR 0x53, 0x0
0000069d f3fc                 BTRSC 0x3, 0x0
0000069e c145                 LGOTO 0x6ba; number.o:_00139_DS_=0x6ba
0000069f def9                 MOVIA 0x6
000006a0 ff75                 MOVAR 0xa
000006a1 feac                 MOVR 0x53, 0x0
000006a2 da59                 ADDIA 0xa6
000006a3 f3fc                 BTRSC 0x3, 0x0
000006a4 fa75                 INCR 0xa, 0x1
000006a5 ff7d                 MOVAR 0x2
000006a6                      number.o:_00145_DS_:
000006a6 c152                 LGOTO 0x6ad; number.o:_00131_DS_=0x6ad
000006a7 c150                 LGOTO 0x6af; number.o:_00132_DS_=0x6af
000006a8 c14e                 LGOTO 0x6b1; number.o:_00133_DS_=0x6b1
000006a9 c14c                 LGOTO 0x6b3; number.o:_00134_DS_=0x6b3
000006aa c14a                 LGOTO 0x6b5; number.o:_00135_DS_=0x6b5
000006ab c148                 LGOTO 0x6b7; number.o:_00136_DS_=0x6b7
000006ac c146                 LGOTO 0x6b9; number.o:_00137_DS_=0x6b9
000006ad                      number.o:_00131_DS_:
000006ad d1b5                 LCALL 0x64a; _A2=0x64a
000006ae c145                 LGOTO 0x6ba; number.o:_00139_DS_=0x6ba
000006af                      number.o:_00132_DS_:
000006af d1ba                 LCALL 0x645; _B2=0x645
000006b0 c145                 LGOTO 0x6ba; number.o:_00139_DS_=0x6ba
000006b1                      number.o:_00133_DS_:
000006b1 d1bf                 LCALL 0x640; _C2=0x640
000006b2 c145                 LGOTO 0x6ba; number.o:_00139_DS_=0x6ba
000006b3                      number.o:_00134_DS_:
000006b3 d1c4                 LCALL 0x63b; _D2=0x63b
000006b4 c145                 LGOTO 0x6ba; number.o:_00139_DS_=0x6ba
000006b5                      number.o:_00135_DS_:
000006b5 d1c9                 LCALL 0x636; _E2=0x636
000006b6 c145                 LGOTO 0x6ba; number.o:_00139_DS_=0x6ba
000006b7                      number.o:_00136_DS_:
000006b7 d1ce                 LCALL 0x631; _F2=0x631
000006b8 c145                 LGOTO 0x6ba; number.o:_00139_DS_=0x6ba
000006b9                      number.o:_00137_DS_:
000006b9 d1d3                 LCALL 0x62c; _G2=0x62c
000006ba                      number.o:_00139_DS_:
000006ba ffef                 RET
000006bb                      _showNubShiwei:
000006bb e0fc                 BCR 0x3, 0x6
000006bc ff2f                 MOVAR 0x50
000006bd fd2e                 CLRR 0x51
000006be                      number.o:_00110_DS_:
000006be def8                 MOVIA 0x7
000006bf e0fc                 BCR 0x3, 0x6
000006c0 fbae                 SUBAR 0x51, 0x0
000006c1 f3fc                 BTRSC 0x3, 0x0
000006c2 c127                 LGOTO 0x6d8; number.o:_00112_DS_=0x6d8
000006c3 feaf                 MOVR 0x50, 0x0
000006c4 ff2d                 MOVAR 0x52
000006c5 feae                 MOVR 0x51, 0x0
000006c6 d8ff                 SUBIA 0x0
000006c7 f2fc                 BTRSC 0x3, 0x2
000006c8 c131                 LGOTO 0x6ce; number.o:_00126_DS_=0x6ce
000006c9                      number.o:_00125_DS_:
000006c9 e0fc                 BCR 0x3, 0x6
000006ca ec2d                 RRR 0x52, 0x1
000006cb dafe                 ADDIA 0x1
000006cc f7fc                 BTRSS 0x3, 0x0
000006cd c136                 LGOTO 0x6c9; number.o:_00125_DS_=0x6c9
000006ce                      number.o:_00126_DS_:
000006ce e0fc                 BCR 0x3, 0x6
000006cf f7ad                 BTRSS 0x52, 0x0
000006d0 c12b                 LGOTO 0x6d4; number.o:_00106_DS_=0x6d4
000006d1 feae                 MOVR 0x51, 0x0
000006d2 d166                 LCALL 0x699; _showNubShiwei2=0x699
000006d3 c12a                 LGOTO 0x6d5; number.o:_00111_DS_=0x6d5
000006d4                      number.o:_00106_DS_:
000006d4 d293                 LCALL 0x56c; _setInput=0x56c
000006d5                      number.o:_00111_DS_:
000006d5 e0fc                 BCR 0x3, 0x6
000006d6 fa2e                 INCR 0x51, 0x1
000006d7 c141                 LGOTO 0x6be; number.o:_00110_DS_=0x6be
000006d8                      number.o:_00112_DS_:
000006d8 ffef                 RET
000006d9                      __divuint:
000006ed                      _divuint.o:_00107_DS_:
000006f7                      _divuint.o:_00112_DS_:
00000702                      _divuint.o:_00135_DS_:
0000070d                      _divuint.o:_00001_DS_:
00000716                      _divuint.o:_00002_DS_:
0000071e                      _divuint.o:_00114_DS_:
00000722                      _divuint.o:_00115_DS_:
00000723                      __gptrget:
0000072a                      _gptrget1.o:__dataptrget1:
00000731                      __codeptrget1:
00000736                      ___cinit_load__:
