00000000 c7f6                 LGOTO 0x9; crt0.o:initial_ram_bss=0x9
00000008 c7e2                 LGOTO 0x1d; main.o:__sdcc_interrupt=0x1d
00000009                      crt0.o:initial_ram_bss:
00000015                      crt0.o:initial_ram_cinit:
00000017                      crt0.o:startup_exit:
0000001d                      main.o:__sdcc_interrupt:
0000001d ff3d                 MOVAR 0x42
0000001e eafc                 SWAPR 0x3, 0x0
0000001f                      ___cinit_size__:
0000001f fd7c                 CLRR 0x3
00000020 ff3e                 MOVAR 0x41
00000021 fef5                 MOVR 0xa, 0x0
00000022 fd75                 CLRR 0xa
00000023 ff3f                 MOVAR 0x40
00000024 fefb                 MOVR 0x4, 0x0
00000025 e0fc                 BCR 0x3, 0x6
00000026 ff2f                 MOVAR 0x50
00000027 feb0                 MOVR 0x4f, 0x0
00000028 ff2e                 MOVAR 0x51
00000029 feb1                 MOVR 0x4e, 0x0
0000002a ff2d                 MOVAR 0x52
0000002b f7f0                 BTRSS 0xf, 0x0
0000002c c7c3                 LGOTO 0x3c; main.o:_00110_DS_=0x3c
0000002d dec8                 MOVIA 0x37
0000002e fc7e                 ADDAR 0x1, 0x1
0000002f fa29                 INCR 0x56, 0x1
00000030 fea9                 MOVR 0x56, 0x0
00000031 db37                 XORIA 0xc8
00000032 f6fc                 BTRSS 0x3, 0x2
00000033 c7c3                 LGOTO 0x3c; main.o:_00110_DS_=0x3c
00000034 fd29                 CLRR 0x56
00000035 defe                 MOVIA 0x1
00000036 ff28                 MOVAR 0x57
00000037 fa26                 INCR 0x59, 0x1
00000038 def5                 MOVIA 0xa
00000039 fba6                 SUBAR 0x59, 0x0
0000003a f3fc                 BTRSC 0x3, 0x0
0000003b fd26                 CLRR 0x59
0000003c                      main.o:_00110_DS_:
0000003c f770                 BTRSS 0xf, 0x1
0000003d c7bf                 LGOTO 0x40; main.o:_00112_DS_=0x40
0000003e de02                 MOVIA 0xfd
0000003f ff70                 MOVAR 0xf
00000040                      main.o:_00112_DS_:
00000040 fd70                 CLRR 0xf
00000041 e0fc                 BCR 0x3, 0x6
00000042 fead                 MOVR 0x52, 0x0
00000043 ff31                 MOVAR 0x4e
00000044 feae                 MOVR 0x51, 0x0
00000045 ff30                 MOVAR 0x4f
00000046 feaf                 MOVR 0x50, 0x0
00000047 ff7b                 MOVAR 0x4
00000048 febf                 MOVR 0x40, 0x0
00000049 ff75                 MOVAR 0xa
0000004a fd7c                 CLRR 0x3
0000004b eabe                 SWAPR 0x41, 0x0
0000004c ff7c                 MOVAR 0x3
0000004d ea3d                 SWAPR 0x42, 0x1
0000004e eabd                 SWAPR 0x42, 0x0
0000004f                      main.o:END_OF_INTERRUPT:
0000004f ffee                 RETIE
00000050                      _main:
00000050 d29b                 LCALL 0x564; _initTimer0=0x564
00000051 deff                 MOVIA 0x0
00000052 ff31                 MOVAR 0x4e
00000053 ff30                 MOVAR 0x4f
00000054 d2e1                 LCALL 0x51e; _setColor=0x51e
00000055                      main.o:_00141_DS_:
00000055 fffd                 CLRWDT
00000056 d210                 LCALL 0x5ef; _readKey=0x5ef
00000057 e0fc                 BCR 0x3, 0x6
00000058 fea8                 MOVR 0x57, 0x0
00000059 f2fc                 BTRSC 0x3, 0x2
0000005a c7aa                 LGOTO 0x55; main.o:_00141_DS_=0x55
0000005b fd28                 CLRR 0x57
0000005c d239                 LCALL 0x5c6; _keyCtr=0x5c6
0000005d e0fc                 BCR 0x3, 0x6
0000005e ff5f                 MOVAR 0x20
0000005f fedf                 MOVR 0x20, 0x0
00000060 f2fc                 BTRSC 0x3, 0x2
00000061 c790                 LGOTO 0x6f; main.o:_00123_DS_=0x6f
00000062 defe                 MOVIA 0x1
00000063 ff22                 MOVAR 0x5d
00000064 fea4                 MOVR 0x5b, 0x0
00000065 dbfd                 XORIA 0x2
00000066 f6fc                 BTRSS 0x3, 0x2
00000067 c794                 LGOTO 0x6b; main.o:_00120_DS_=0x6b
00000068 def1                 MOVIA 0xe
00000069 ff27                 MOVAR 0x58
0000006a c7aa                 LGOTO 0x55; main.o:_00141_DS_=0x55
0000006b                      main.o:_00120_DS_:
0000006b defe                 MOVIA 0x1
0000006c e0fc                 BCR 0x3, 0x6
0000006d ff27                 MOVAR 0x58
0000006e c7aa                 LGOTO 0x55; main.o:_00141_DS_=0x55
0000006f                      main.o:_00123_DS_:
0000006f e0fc                 BCR 0x3, 0x6
00000070 fea6                 MOVR 0x59, 0x0
00000071 f6fc                 BTRSS 0x3, 0x2
00000072 c7aa                 LGOTO 0x55; main.o:_00141_DS_=0x55
00000073 decc                 MOVIA 0x33
00000074 fba0                 SUBAR 0x5f, 0x0
00000075 f7fc                 BTRSS 0x3, 0x0
00000076 c76e                 LGOTO 0x91; main.o:_00134_DS_=0x91
00000077 fea4                 MOVR 0x5b, 0x0
00000078 dbfd                 XORIA 0x2
00000079 f6fc                 BTRSS 0x3, 0x2
0000007a c76e                 LGOTO 0x91; main.o:_00134_DS_=0x91
0000007b fa23                 INCR 0x5c, 0x1
0000007c de37                 MOVIA 0xc8
0000007d fba3                 SUBAR 0x5c, 0x0
0000007e f7fc                 BTRSS 0x3, 0x0
0000007f c77d                 LGOTO 0x82; main.o:_00125_DS_=0x82
00000080 de37                 MOVIA 0xc8
00000081 ff23                 MOVAR 0x5c
00000082                      main.o:_00125_DS_:
00000082 de9b                 MOVIA 0x64
00000083 e0fc                 BCR 0x3, 0x6
00000084 fba3                 SUBAR 0x5c, 0x0
00000085 f3fc                 BTRSC 0x3, 0x0
00000086 c773                 LGOTO 0x8c; main.o:_00127_DS_=0x8c
00000087 de33                 MOVIA 0xcc
00000088 ff31                 MOVAR 0x4e
00000089 ff30                 MOVAR 0x4f
0000008a d2e1                 LCALL 0x51e; _setColor=0x51e
0000008b c7aa                 LGOTO 0x55; main.o:_00141_DS_=0x55
0000008c                      main.o:_00127_DS_:
0000008c deb3                 MOVIA 0x4c
0000008d ff31                 MOVAR 0x4e
0000008e ff30                 MOVAR 0x4f
0000008f d2e1                 LCALL 0x51e; _setColor=0x51e
00000090 c7aa                 LGOTO 0x55; main.o:_00141_DS_=0x55
00000091                      main.o:_00134_DS_:
00000091 decc                 MOVIA 0x33
00000092 e0fc                 BCR 0x3, 0x6
00000093 fba0                 SUBAR 0x5f, 0x0
00000094 f3fc                 BTRSC 0x3, 0x0
00000095 c761                 LGOTO 0x9e; main.o:_00130_DS_=0x9e
00000096 fea4                 MOVR 0x5b, 0x0
00000097 f6fc                 BTRSS 0x3, 0x2
00000098 c761                 LGOTO 0x9e; main.o:_00130_DS_=0x9e
00000099 deff                 MOVIA 0x0
0000009a ff31                 MOVAR 0x4e
0000009b ff30                 MOVAR 0x4f
0000009c d2e1                 LCALL 0x51e; _setColor=0x51e
0000009d c7aa                 LGOTO 0x55; main.o:_00141_DS_=0x55
0000009e                      main.o:_00130_DS_:
0000009e e0fc                 BCR 0x3, 0x6
0000009f fd23                 CLRR 0x5c
000000a0 d283                 LCALL 0x57c; _xdCtr=0x57c
000000a1 c7aa                 LGOTO 0x55; main.o:_00141_DS_=0x55
000000a2 ffef                 RET
000000a3                      _sendRGB:
000000a3 e0fc                 BCR 0x3, 0x6
000000a4 ff2c                 MOVAR 0x53
000000a5 feb0                 MOVR 0x4f, 0x0
000000a6 ff2b                 MOVAR 0x54
000000a7 feb1                 MOVR 0x4e, 0x0
000000a8 ff2a                 MOVAR 0x55
000000a9 ffec                 DISI
000000aa f42c                 BTRSS 0x53, 0x7
000000ab c74f                 LGOTO 0xb0; main.o:_00622_DS_=0xb0
000000ac e2fa                 BCR 0x5, 0x2
000000ad ffff                 NOP
000000ae e6fa                 BSR 0x5, 0x2
000000af c74a                 LGOTO 0xb5; main.o:_00627_DS_=0xb5
000000b0                      main.o:_00622_DS_:
000000b0 e2fa                 BCR 0x5, 0x2
000000b1 ffff                 NOP
000000b2 e6fa                 BSR 0x5, 0x2
000000b3 ffff                 NOP
000000b4 e2fa                 BCR 0x5, 0x2
000000b5                      main.o:_00627_DS_:
000000b5 e0fc                 BCR 0x3, 0x6
000000b6 f4ac                 BTRSS 0x53, 0x6
000000b7 c743                 LGOTO 0xbc; main.o:_00631_DS_=0xbc
000000b8 e2fa                 BCR 0x5, 0x2
000000b9 ffff                 NOP
000000ba e6fa                 BSR 0x5, 0x2
000000bb c73e                 LGOTO 0xc1; main.o:_00636_DS_=0xc1
000000bc                      main.o:_00631_DS_:
000000bc e2fa                 BCR 0x5, 0x2
000000bd ffff                 NOP
000000be e6fa                 BSR 0x5, 0x2
000000bf ffff                 NOP
000000c0 e2fa                 BCR 0x5, 0x2
000000c1                      main.o:_00636_DS_:
000000c1 e0fc                 BCR 0x3, 0x6
000000c2 f52c                 BTRSS 0x53, 0x5
000000c3 c737                 LGOTO 0xc8; main.o:_00640_DS_=0xc8
000000c4 e2fa                 BCR 0x5, 0x2
000000c5 ffff                 NOP
000000c6 e6fa                 BSR 0x5, 0x2
000000c7 c732                 LGOTO 0xcd; main.o:_00645_DS_=0xcd
000000c8                      main.o:_00640_DS_:
000000c8 e2fa                 BCR 0x5, 0x2
000000c9 ffff                 NOP
000000ca e6fa                 BSR 0x5, 0x2
000000cb ffff                 NOP
000000cc e2fa                 BCR 0x5, 0x2
000000cd                      main.o:_00645_DS_:
000000cd e0fc                 BCR 0x3, 0x6
000000ce f5ac                 BTRSS 0x53, 0x4
000000cf c72b                 LGOTO 0xd4; main.o:_00649_DS_=0xd4
000000d0 e2fa                 BCR 0x5, 0x2
000000d1 ffff                 NOP
000000d2 e6fa                 BSR 0x5, 0x2
000000d3 c726                 LGOTO 0xd9; main.o:_00654_DS_=0xd9
000000d4                      main.o:_00649_DS_:
000000d4 e2fa                 BCR 0x5, 0x2
000000d5 ffff                 NOP
000000d6 e6fa                 BSR 0x5, 0x2
000000d7 ffff                 NOP
000000d8 e2fa                 BCR 0x5, 0x2
000000d9                      main.o:_00654_DS_:
000000d9 e0fc                 BCR 0x3, 0x6
000000da f62c                 BTRSS 0x53, 0x3
000000db c71f                 LGOTO 0xe0; main.o:_00658_DS_=0xe0
000000dc e2fa                 BCR 0x5, 0x2
000000dd ffff                 NOP
000000de e6fa                 BSR 0x5, 0x2
000000df c71a                 LGOTO 0xe5; main.o:_00663_DS_=0xe5
000000e0                      main.o:_00658_DS_:
000000e0 e2fa                 BCR 0x5, 0x2
000000e1 ffff                 NOP
000000e2 e6fa                 BSR 0x5, 0x2
000000e3 ffff                 NOP
000000e4 e2fa                 BCR 0x5, 0x2
000000e5                      main.o:_00663_DS_:
000000e5 e0fc                 BCR 0x3, 0x6
000000e6 f6ac                 BTRSS 0x53, 0x2
000000e7 c713                 LGOTO 0xec; main.o:_00667_DS_=0xec
000000e8 e2fa                 BCR 0x5, 0x2
000000e9 ffff                 NOP
000000ea e6fa                 BSR 0x5, 0x2
000000eb c70e                 LGOTO 0xf1; main.o:_00672_DS_=0xf1
000000ec                      main.o:_00667_DS_:
000000ec e2fa                 BCR 0x5, 0x2
000000ed ffff                 NOP
000000ee e6fa                 BSR 0x5, 0x2
000000ef ffff                 NOP
000000f0 e2fa                 BCR 0x5, 0x2
000000f1                      main.o:_00672_DS_:
000000f1 e0fc                 BCR 0x3, 0x6
000000f2 f72c                 BTRSS 0x53, 0x1
000000f3 c707                 LGOTO 0xf8; main.o:_00676_DS_=0xf8
000000f4 e2fa                 BCR 0x5, 0x2
000000f5 ffff                 NOP
000000f6 e6fa                 BSR 0x5, 0x2
000000f7 c702                 LGOTO 0xfd; main.o:_00681_DS_=0xfd
000000f8                      main.o:_00676_DS_:
000000f8 e2fa                 BCR 0x5, 0x2
000000f9 ffff                 NOP
000000fa e6fa                 BSR 0x5, 0x2
000000fb ffff                 NOP
000000fc e2fa                 BCR 0x5, 0x2
000000fd                      main.o:_00681_DS_:
000000fd e0fc                 BCR 0x3, 0x6
000000fe f7ac                 BTRSS 0x53, 0x0
000000ff c6fb                 LGOTO 0x104; main.o:_00685_DS_=0x104
00000100 e2fa                 BCR 0x5, 0x2
00000101 ffff                 NOP
00000102 e6fa                 BSR 0x5, 0x2
00000103 c6f6                 LGOTO 0x109; main.o:_00690_DS_=0x109
00000104                      main.o:_00685_DS_:
00000104 e2fa                 BCR 0x5, 0x2
00000105 ffff                 NOP
00000106 e6fa                 BSR 0x5, 0x2
00000107 ffff                 NOP
00000108 e2fa                 BCR 0x5, 0x2
00000109                      main.o:_00690_DS_:
00000109 e0fc                 BCR 0x3, 0x6
0000010a f42b                 BTRSS 0x54, 0x7
0000010b c6ef                 LGOTO 0x110; main.o:_00694_DS_=0x110
0000010c e2fa                 BCR 0x5, 0x2
0000010d ffff                 NOP
0000010e e6fa                 BSR 0x5, 0x2
0000010f c6ea                 LGOTO 0x115; main.o:_00699_DS_=0x115
00000110                      main.o:_00694_DS_:
00000110 e2fa                 BCR 0x5, 0x2
00000111 ffff                 NOP
00000112 e6fa                 BSR 0x5, 0x2
00000113 ffff                 NOP
00000114 e2fa                 BCR 0x5, 0x2
00000115                      main.o:_00699_DS_:
00000115 e0fc                 BCR 0x3, 0x6
00000116 f4ab                 BTRSS 0x54, 0x6
00000117 c6e3                 LGOTO 0x11c; main.o:_00703_DS_=0x11c
00000118 e2fa                 BCR 0x5, 0x2
00000119 ffff                 NOP
0000011a e6fa                 BSR 0x5, 0x2
0000011b c6de                 LGOTO 0x121; main.o:_00708_DS_=0x121
0000011c                      main.o:_00703_DS_:
0000011c e2fa                 BCR 0x5, 0x2
0000011d ffff                 NOP
0000011e e6fa                 BSR 0x5, 0x2
0000011f ffff                 NOP
00000120 e2fa                 BCR 0x5, 0x2
00000121                      main.o:_00708_DS_:
00000121 e0fc                 BCR 0x3, 0x6
00000122 f52b                 BTRSS 0x54, 0x5
00000123 c6d7                 LGOTO 0x128; main.o:_00712_DS_=0x128
00000124 e2fa                 BCR 0x5, 0x2
00000125 ffff                 NOP
00000126 e6fa                 BSR 0x5, 0x2
00000127 c6d2                 LGOTO 0x12d; main.o:_00717_DS_=0x12d
00000128                      main.o:_00712_DS_:
00000128 e2fa                 BCR 0x5, 0x2
00000129 ffff                 NOP
0000012a e6fa                 BSR 0x5, 0x2
0000012b ffff                 NOP
0000012c e2fa                 BCR 0x5, 0x2
0000012d                      main.o:_00717_DS_:
0000012d e0fc                 BCR 0x3, 0x6
0000012e f5ab                 BTRSS 0x54, 0x4
0000012f c6cb                 LGOTO 0x134; main.o:_00721_DS_=0x134
00000130 e2fa                 BCR 0x5, 0x2
00000131 ffff                 NOP
00000132 e6fa                 BSR 0x5, 0x2
00000133 c6c6                 LGOTO 0x139; main.o:_00726_DS_=0x139
00000134                      main.o:_00721_DS_:
00000134 e2fa                 BCR 0x5, 0x2
00000135 ffff                 NOP
00000136 e6fa                 BSR 0x5, 0x2
00000137 ffff                 NOP
00000138 e2fa                 BCR 0x5, 0x2
00000139                      main.o:_00726_DS_:
00000139 e0fc                 BCR 0x3, 0x6
0000013a f62b                 BTRSS 0x54, 0x3
0000013b c6bf                 LGOTO 0x140; main.o:_00730_DS_=0x140
0000013c e2fa                 BCR 0x5, 0x2
0000013d ffff                 NOP
0000013e e6fa                 BSR 0x5, 0x2
0000013f c6ba                 LGOTO 0x145; main.o:_00735_DS_=0x145
00000140                      main.o:_00730_DS_:
00000140 e2fa                 BCR 0x5, 0x2
00000141 ffff                 NOP
00000142 e6fa                 BSR 0x5, 0x2
00000143 ffff                 NOP
00000144 e2fa                 BCR 0x5, 0x2
00000145                      main.o:_00735_DS_:
00000145 e0fc                 BCR 0x3, 0x6
00000146 f6ab                 BTRSS 0x54, 0x2
00000147 c6b3                 LGOTO 0x14c; main.o:_00739_DS_=0x14c
00000148 e2fa                 BCR 0x5, 0x2
00000149 ffff                 NOP
0000014a e6fa                 BSR 0x5, 0x2
0000014b c6ae                 LGOTO 0x151; main.o:_00744_DS_=0x151
0000014c                      main.o:_00739_DS_:
0000014c e2fa                 BCR 0x5, 0x2
0000014d ffff                 NOP
0000014e e6fa                 BSR 0x5, 0x2
0000014f ffff                 NOP
00000150 e2fa                 BCR 0x5, 0x2
00000151                      main.o:_00744_DS_:
00000151 e0fc                 BCR 0x3, 0x6
00000152 f72b                 BTRSS 0x54, 0x1
00000153 c6a7                 LGOTO 0x158; main.o:_00748_DS_=0x158
00000154 e2fa                 BCR 0x5, 0x2
00000155 ffff                 NOP
00000156 e6fa                 BSR 0x5, 0x2
00000157 c6a2                 LGOTO 0x15d; main.o:_00753_DS_=0x15d
00000158                      main.o:_00748_DS_:
00000158 e2fa                 BCR 0x5, 0x2
00000159 ffff                 NOP
0000015a e6fa                 BSR 0x5, 0x2
0000015b ffff                 NOP
0000015c e2fa                 BCR 0x5, 0x2
0000015d                      main.o:_00753_DS_:
0000015d e0fc                 BCR 0x3, 0x6
0000015e f7ab                 BTRSS 0x54, 0x0
0000015f c69b                 LGOTO 0x164; main.o:_00757_DS_=0x164
00000160 e2fa                 BCR 0x5, 0x2
00000161 ffff                 NOP
00000162 e6fa                 BSR 0x5, 0x2
00000163 c696                 LGOTO 0x169; main.o:_00762_DS_=0x169
00000164                      main.o:_00757_DS_:
00000164 e2fa                 BCR 0x5, 0x2
00000165 ffff                 NOP
00000166 e6fa                 BSR 0x5, 0x2
00000167 ffff                 NOP
00000168 e2fa                 BCR 0x5, 0x2
00000169                      main.o:_00762_DS_:
00000169 e0fc                 BCR 0x3, 0x6
0000016a f42a                 BTRSS 0x55, 0x7
0000016b c68f                 LGOTO 0x170; main.o:_00766_DS_=0x170
0000016c e2fa                 BCR 0x5, 0x2
0000016d ffff                 NOP
0000016e e6fa                 BSR 0x5, 0x2
0000016f c68a                 LGOTO 0x175; main.o:_00771_DS_=0x175
00000170                      main.o:_00766_DS_:
00000170 e2fa                 BCR 0x5, 0x2
00000171 ffff                 NOP
00000172 e6fa                 BSR 0x5, 0x2
00000173 ffff                 NOP
00000174 e2fa                 BCR 0x5, 0x2
00000175                      main.o:_00771_DS_:
00000175 e0fc                 BCR 0x3, 0x6
00000176 f4aa                 BTRSS 0x55, 0x6
00000177 c683                 LGOTO 0x17c; main.o:_00775_DS_=0x17c
00000178 e2fa                 BCR 0x5, 0x2
00000179 ffff                 NOP
0000017a e6fa                 BSR 0x5, 0x2
0000017b c67e                 LGOTO 0x181; main.o:_00780_DS_=0x181
0000017c                      main.o:_00775_DS_:
0000017c e2fa                 BCR 0x5, 0x2
0000017d ffff                 NOP
0000017e e6fa                 BSR 0x5, 0x2
0000017f ffff                 NOP
00000180 e2fa                 BCR 0x5, 0x2
00000181                      main.o:_00780_DS_:
00000181 e0fc                 BCR 0x3, 0x6
00000182 f52a                 BTRSS 0x55, 0x5
00000183 c677                 LGOTO 0x188; main.o:_00784_DS_=0x188
00000184 e2fa                 BCR 0x5, 0x2
00000185 ffff                 NOP
00000186 e6fa                 BSR 0x5, 0x2
00000187 c672                 LGOTO 0x18d; main.o:_00789_DS_=0x18d
00000188                      main.o:_00784_DS_:
00000188 e2fa                 BCR 0x5, 0x2
00000189 ffff                 NOP
0000018a e6fa                 BSR 0x5, 0x2
0000018b ffff                 NOP
0000018c e2fa                 BCR 0x5, 0x2
0000018d                      main.o:_00789_DS_:
0000018d e0fc                 BCR 0x3, 0x6
0000018e f5aa                 BTRSS 0x55, 0x4
0000018f c66b                 LGOTO 0x194; main.o:_00793_DS_=0x194
00000190 e2fa                 BCR 0x5, 0x2
00000191 ffff                 NOP
00000192 e6fa                 BSR 0x5, 0x2
00000193 c666                 LGOTO 0x199; main.o:_00798_DS_=0x199
00000194                      main.o:_00793_DS_:
00000194 e2fa                 BCR 0x5, 0x2
00000195 ffff                 NOP
00000196 e6fa                 BSR 0x5, 0x2
00000197 ffff                 NOP
00000198 e2fa                 BCR 0x5, 0x2
00000199                      main.o:_00798_DS_:
00000199 e0fc                 BCR 0x3, 0x6
0000019a f62a                 BTRSS 0x55, 0x3
0000019b c65f                 LGOTO 0x1a0; main.o:_00802_DS_=0x1a0
0000019c e2fa                 BCR 0x5, 0x2
0000019d ffff                 NOP
0000019e e6fa                 BSR 0x5, 0x2
0000019f c65a                 LGOTO 0x1a5; main.o:_00807_DS_=0x1a5
000001a0                      main.o:_00802_DS_:
000001a0 e2fa                 BCR 0x5, 0x2
000001a1 ffff                 NOP
000001a2 e6fa                 BSR 0x5, 0x2
000001a3 ffff                 NOP
000001a4 e2fa                 BCR 0x5, 0x2
000001a5                      main.o:_00807_DS_:
000001a5 e0fc                 BCR 0x3, 0x6
000001a6 f6aa                 BTRSS 0x55, 0x2
000001a7 c653                 LGOTO 0x1ac; main.o:_00811_DS_=0x1ac
000001a8 e2fa                 BCR 0x5, 0x2
000001a9 ffff                 NOP
000001aa e6fa                 BSR 0x5, 0x2
000001ab c64e                 LGOTO 0x1b1; main.o:_00816_DS_=0x1b1
000001ac                      main.o:_00811_DS_:
000001ac e2fa                 BCR 0x5, 0x2
000001ad ffff                 NOP
000001ae e6fa                 BSR 0x5, 0x2
000001af ffff                 NOP
000001b0 e2fa                 BCR 0x5, 0x2
000001b1                      main.o:_00816_DS_:
000001b1 e0fc                 BCR 0x3, 0x6
000001b2 f72a                 BTRSS 0x55, 0x1
000001b3 c647                 LGOTO 0x1b8; main.o:_00820_DS_=0x1b8
000001b4 e2fa                 BCR 0x5, 0x2
000001b5 ffff                 NOP
000001b6 e6fa                 BSR 0x5, 0x2
000001b7 c642                 LGOTO 0x1bd; main.o:_00825_DS_=0x1bd
000001b8                      main.o:_00820_DS_:
000001b8 e2fa                 BCR 0x5, 0x2
000001b9 ffff                 NOP
000001ba e6fa                 BSR 0x5, 0x2
000001bb ffff                 NOP
000001bc e2fa                 BCR 0x5, 0x2
000001bd                      main.o:_00825_DS_:
000001bd e0fc                 BCR 0x3, 0x6
000001be f7aa                 BTRSS 0x55, 0x0
000001bf c63b                 LGOTO 0x1c4; main.o:_00829_DS_=0x1c4
000001c0 e2fa                 BCR 0x5, 0x2
000001c1 ffff                 NOP
000001c2 e6fa                 BSR 0x5, 0x2
000001c3 c636                 LGOTO 0x1c9; main.o:_00834_DS_=0x1c9
000001c4                      main.o:_00829_DS_:
000001c4 e2fa                 BCR 0x5, 0x2
000001c5 ffff                 NOP
000001c6 e6fa                 BSR 0x5, 0x2
000001c7 ffff                 NOP
000001c8 e2fa                 BCR 0x5, 0x2
000001c9                      main.o:_00834_DS_:
000001c9 e2fa                 BCR 0x5, 0x2
000001ca fffb                 ENI
000001cb ffef                 RET
000001cc                      _sendRGB2:
000001cc e0fc                 BCR 0x3, 0x6
000001cd ff2a                 MOVAR 0x55
000001ce feb0                 MOVR 0x4f, 0x0
000001cf ff2b                 MOVAR 0x54
000001d0 feb1                 MOVR 0x4e, 0x0
000001d1 ff2c                 MOVAR 0x53
000001d2 ffec                 DISI
000001d3 f42c                 BTRSS 0x53, 0x7
000001d4 c626                 LGOTO 0x1d9; main.o:_00402_DS_=0x1d9
000001d5 e0fa                 BCR 0x5, 0x6
000001d6 ffff                 NOP
000001d7 e4fa                 BSR 0x5, 0x6
000001d8 c621                 LGOTO 0x1de; main.o:_00407_DS_=0x1de
000001d9                      main.o:_00402_DS_:
000001d9 e0fa                 BCR 0x5, 0x6
000001da ffff                 NOP
000001db e4fa                 BSR 0x5, 0x6
000001dc ffff                 NOP
000001dd e0fa                 BCR 0x5, 0x6
000001de                      main.o:_00407_DS_:
000001de e0fc                 BCR 0x3, 0x6
000001df f4ac                 BTRSS 0x53, 0x6
000001e0 c61a                 LGOTO 0x1e5; main.o:_00411_DS_=0x1e5
000001e1 e0fa                 BCR 0x5, 0x6
000001e2 ffff                 NOP
000001e3 e4fa                 BSR 0x5, 0x6
000001e4 c615                 LGOTO 0x1ea; main.o:_00416_DS_=0x1ea
000001e5                      main.o:_00411_DS_:
000001e5 e0fa                 BCR 0x5, 0x6
000001e6 ffff                 NOP
000001e7 e4fa                 BSR 0x5, 0x6
000001e8 ffff                 NOP
000001e9 e0fa                 BCR 0x5, 0x6
000001ea                      main.o:_00416_DS_:
000001ea e0fc                 BCR 0x3, 0x6
000001eb f52c                 BTRSS 0x53, 0x5
000001ec c60e                 LGOTO 0x1f1; main.o:_00420_DS_=0x1f1
000001ed e0fa                 BCR 0x5, 0x6
000001ee ffff                 NOP
000001ef e4fa                 BSR 0x5, 0x6
000001f0 c609                 LGOTO 0x1f6; main.o:_00425_DS_=0x1f6
000001f1                      main.o:_00420_DS_:
000001f1 e0fa                 BCR 0x5, 0x6
000001f2 ffff                 NOP
000001f3 e4fa                 BSR 0x5, 0x6
000001f4 ffff                 NOP
000001f5 e0fa                 BCR 0x5, 0x6
000001f6                      main.o:_00425_DS_:
000001f6 e0fc                 BCR 0x3, 0x6
000001f7 f5ac                 BTRSS 0x53, 0x4
000001f8 c602                 LGOTO 0x1fd; main.o:_00429_DS_=0x1fd
000001f9 e0fa                 BCR 0x5, 0x6
000001fa ffff                 NOP
000001fb e4fa                 BSR 0x5, 0x6
000001fc c5fd                 LGOTO 0x202; main.o:_00434_DS_=0x202
000001fd                      main.o:_00429_DS_:
000001fd e0fa                 BCR 0x5, 0x6
000001fe ffff                 NOP
000001ff e4fa                 BSR 0x5, 0x6
00000200 ffff                 NOP
00000201 e0fa                 BCR 0x5, 0x6
00000202                      main.o:_00434_DS_:
00000202 e0fc                 BCR 0x3, 0x6
00000203 f62c                 BTRSS 0x53, 0x3
00000204 c5f6                 LGOTO 0x209; main.o:_00438_DS_=0x209
00000205 e0fa                 BCR 0x5, 0x6
00000206 ffff                 NOP
00000207 e4fa                 BSR 0x5, 0x6
00000208 c5f1                 LGOTO 0x20e; main.o:_00443_DS_=0x20e
00000209                      main.o:_00438_DS_:
00000209 e0fa                 BCR 0x5, 0x6
0000020a ffff                 NOP
0000020b e4fa                 BSR 0x5, 0x6
0000020c ffff                 NOP
0000020d e0fa                 BCR 0x5, 0x6
0000020e                      main.o:_00443_DS_:
0000020e e0fc                 BCR 0x3, 0x6
0000020f f6ac                 BTRSS 0x53, 0x2
00000210 c5ea                 LGOTO 0x215; main.o:_00447_DS_=0x215
00000211 e0fa                 BCR 0x5, 0x6
00000212 ffff                 NOP
00000213 e4fa                 BSR 0x5, 0x6
00000214 c5e5                 LGOTO 0x21a; main.o:_00452_DS_=0x21a
00000215                      main.o:_00447_DS_:
00000215 e0fa                 BCR 0x5, 0x6
00000216 ffff                 NOP
00000217 e4fa                 BSR 0x5, 0x6
00000218 ffff                 NOP
00000219 e0fa                 BCR 0x5, 0x6
0000021a                      main.o:_00452_DS_:
0000021a e0fc                 BCR 0x3, 0x6
0000021b f72c                 BTRSS 0x53, 0x1
0000021c c5de                 LGOTO 0x221; main.o:_00456_DS_=0x221
0000021d e0fa                 BCR 0x5, 0x6
0000021e ffff                 NOP
0000021f e4fa                 BSR 0x5, 0x6
00000220 c5d9                 LGOTO 0x226; main.o:_00461_DS_=0x226
00000221                      main.o:_00456_DS_:
00000221 e0fa                 BCR 0x5, 0x6
00000222 ffff                 NOP
00000223 e4fa                 BSR 0x5, 0x6
00000224 ffff                 NOP
00000225 e0fa                 BCR 0x5, 0x6
00000226                      main.o:_00461_DS_:
00000226 e0fc                 BCR 0x3, 0x6
00000227 f7ac                 BTRSS 0x53, 0x0
00000228 c5d2                 LGOTO 0x22d; main.o:_00465_DS_=0x22d
00000229 e0fa                 BCR 0x5, 0x6
0000022a ffff                 NOP
0000022b e4fa                 BSR 0x5, 0x6
0000022c c5cd                 LGOTO 0x232; main.o:_00470_DS_=0x232
0000022d                      main.o:_00465_DS_:
0000022d e0fa                 BCR 0x5, 0x6
0000022e ffff                 NOP
0000022f e4fa                 BSR 0x5, 0x6
00000230 ffff                 NOP
00000231 e0fa                 BCR 0x5, 0x6
00000232                      main.o:_00470_DS_:
00000232 e0fc                 BCR 0x3, 0x6
00000233 f42b                 BTRSS 0x54, 0x7
00000234 c5c6                 LGOTO 0x239; main.o:_00474_DS_=0x239
00000235 e0fa                 BCR 0x5, 0x6
00000236 ffff                 NOP
00000237 e4fa                 BSR 0x5, 0x6
00000238 c5c1                 LGOTO 0x23e; main.o:_00479_DS_=0x23e
00000239                      main.o:_00474_DS_:
00000239 e0fa                 BCR 0x5, 0x6
0000023a ffff                 NOP
0000023b e4fa                 BSR 0x5, 0x6
0000023c ffff                 NOP
0000023d e0fa                 BCR 0x5, 0x6
0000023e                      main.o:_00479_DS_:
0000023e e0fc                 BCR 0x3, 0x6
0000023f f4ab                 BTRSS 0x54, 0x6
00000240 c5ba                 LGOTO 0x245; main.o:_00483_DS_=0x245
00000241 e0fa                 BCR 0x5, 0x6
00000242 ffff                 NOP
00000243 e4fa                 BSR 0x5, 0x6
00000244 c5b5                 LGOTO 0x24a; main.o:_00488_DS_=0x24a
00000245                      main.o:_00483_DS_:
00000245 e0fa                 BCR 0x5, 0x6
00000246 ffff                 NOP
00000247 e4fa                 BSR 0x5, 0x6
00000248 ffff                 NOP
00000249 e0fa                 BCR 0x5, 0x6
0000024a                      main.o:_00488_DS_:
0000024a e0fc                 BCR 0x3, 0x6
0000024b f52b                 BTRSS 0x54, 0x5
0000024c c5ae                 LGOTO 0x251; main.o:_00492_DS_=0x251
0000024d e0fa                 BCR 0x5, 0x6
0000024e ffff                 NOP
0000024f e4fa                 BSR 0x5, 0x6
00000250 c5a9                 LGOTO 0x256; main.o:_00497_DS_=0x256
00000251                      main.o:_00492_DS_:
00000251 e0fa                 BCR 0x5, 0x6
00000252 ffff                 NOP
00000253 e4fa                 BSR 0x5, 0x6
00000254 ffff                 NOP
00000255 e0fa                 BCR 0x5, 0x6
00000256                      main.o:_00497_DS_:
00000256 e0fc                 BCR 0x3, 0x6
00000257 f5ab                 BTRSS 0x54, 0x4
00000258 c5a2                 LGOTO 0x25d; main.o:_00501_DS_=0x25d
00000259 e0fa                 BCR 0x5, 0x6
0000025a ffff                 NOP
0000025b e4fa                 BSR 0x5, 0x6
0000025c c59d                 LGOTO 0x262; main.o:_00506_DS_=0x262
0000025d                      main.o:_00501_DS_:
0000025d e0fa                 BCR 0x5, 0x6
0000025e ffff                 NOP
0000025f e4fa                 BSR 0x5, 0x6
00000260 ffff                 NOP
00000261 e0fa                 BCR 0x5, 0x6
00000262                      main.o:_00506_DS_:
00000262 e0fc                 BCR 0x3, 0x6
00000263 f62b                 BTRSS 0x54, 0x3
00000264 c596                 LGOTO 0x269; main.o:_00510_DS_=0x269
00000265 e0fa                 BCR 0x5, 0x6
00000266 ffff                 NOP
00000267 e4fa                 BSR 0x5, 0x6
00000268 c591                 LGOTO 0x26e; main.o:_00515_DS_=0x26e
00000269                      main.o:_00510_DS_:
00000269 e0fa                 BCR 0x5, 0x6
0000026a ffff                 NOP
0000026b e4fa                 BSR 0x5, 0x6
0000026c ffff                 NOP
0000026d e0fa                 BCR 0x5, 0x6
0000026e                      main.o:_00515_DS_:
0000026e e0fc                 BCR 0x3, 0x6
0000026f f6ab                 BTRSS 0x54, 0x2
00000270 c58a                 LGOTO 0x275; main.o:_00519_DS_=0x275
00000271 e0fa                 BCR 0x5, 0x6
00000272 ffff                 NOP
00000273 e4fa                 BSR 0x5, 0x6
00000274 c585                 LGOTO 0x27a; main.o:_00524_DS_=0x27a
00000275                      main.o:_00519_DS_:
00000275 e0fa                 BCR 0x5, 0x6
00000276 ffff                 NOP
00000277 e4fa                 BSR 0x5, 0x6
00000278 ffff                 NOP
00000279 e0fa                 BCR 0x5, 0x6
0000027a                      main.o:_00524_DS_:
0000027a e0fc                 BCR 0x3, 0x6
0000027b f72b                 BTRSS 0x54, 0x1
0000027c c57e                 LGOTO 0x281; main.o:_00528_DS_=0x281
0000027d e0fa                 BCR 0x5, 0x6
0000027e ffff                 NOP
0000027f e4fa                 BSR 0x5, 0x6
00000280 c579                 LGOTO 0x286; main.o:_00533_DS_=0x286
00000281                      main.o:_00528_DS_:
00000281 e0fa                 BCR 0x5, 0x6
00000282 ffff                 NOP
00000283 e4fa                 BSR 0x5, 0x6
00000284 ffff                 NOP
00000285 e0fa                 BCR 0x5, 0x6
00000286                      main.o:_00533_DS_:
00000286 e0fc                 BCR 0x3, 0x6
00000287 f7ab                 BTRSS 0x54, 0x0
00000288 c572                 LGOTO 0x28d; main.o:_00537_DS_=0x28d
00000289 e0fa                 BCR 0x5, 0x6
0000028a ffff                 NOP
0000028b e4fa                 BSR 0x5, 0x6
0000028c c56d                 LGOTO 0x292; main.o:_00542_DS_=0x292
0000028d                      main.o:_00537_DS_:
0000028d e0fa                 BCR 0x5, 0x6
0000028e ffff                 NOP
0000028f e4fa                 BSR 0x5, 0x6
00000290 ffff                 NOP
00000291 e0fa                 BCR 0x5, 0x6
00000292                      main.o:_00542_DS_:
00000292 e0fc                 BCR 0x3, 0x6
00000293 f42a                 BTRSS 0x55, 0x7
00000294 c566                 LGOTO 0x299; main.o:_00546_DS_=0x299
00000295 e0fa                 BCR 0x5, 0x6
00000296 ffff                 NOP
00000297 e4fa                 BSR 0x5, 0x6
00000298 c561                 LGOTO 0x29e; main.o:_00551_DS_=0x29e
00000299                      main.o:_00546_DS_:
00000299 e0fa                 BCR 0x5, 0x6
0000029a ffff                 NOP
0000029b e4fa                 BSR 0x5, 0x6
0000029c ffff                 NOP
0000029d e0fa                 BCR 0x5, 0x6
0000029e                      main.o:_00551_DS_:
0000029e e0fc                 BCR 0x3, 0x6
0000029f f4aa                 BTRSS 0x55, 0x6
000002a0 c55a                 LGOTO 0x2a5; main.o:_00555_DS_=0x2a5
000002a1 e0fa                 BCR 0x5, 0x6
000002a2 ffff                 NOP
000002a3 e4fa                 BSR 0x5, 0x6
000002a4 c555                 LGOTO 0x2aa; main.o:_00560_DS_=0x2aa
000002a5                      main.o:_00555_DS_:
000002a5 e0fa                 BCR 0x5, 0x6
000002a6 ffff                 NOP
000002a7 e4fa                 BSR 0x5, 0x6
000002a8 ffff                 NOP
000002a9 e0fa                 BCR 0x5, 0x6
000002aa                      main.o:_00560_DS_:
000002aa e0fc                 BCR 0x3, 0x6
000002ab f52a                 BTRSS 0x55, 0x5
000002ac c54e                 LGOTO 0x2b1; main.o:_00564_DS_=0x2b1
000002ad e0fa                 BCR 0x5, 0x6
000002ae ffff                 NOP
000002af e4fa                 BSR 0x5, 0x6
000002b0 c549                 LGOTO 0x2b6; main.o:_00569_DS_=0x2b6
000002b1                      main.o:_00564_DS_:
000002b1 e0fa                 BCR 0x5, 0x6
000002b2 ffff                 NOP
000002b3 e4fa                 BSR 0x5, 0x6
000002b4 ffff                 NOP
000002b5 e0fa                 BCR 0x5, 0x6
000002b6                      main.o:_00569_DS_:
000002b6 e0fc                 BCR 0x3, 0x6
000002b7 f5aa                 BTRSS 0x55, 0x4
000002b8 c542                 LGOTO 0x2bd; main.o:_00573_DS_=0x2bd
000002b9 e0fa                 BCR 0x5, 0x6
000002ba ffff                 NOP
000002bb e4fa                 BSR 0x5, 0x6
000002bc c53d                 LGOTO 0x2c2; main.o:_00578_DS_=0x2c2
000002bd                      main.o:_00573_DS_:
000002bd e0fa                 BCR 0x5, 0x6
000002be ffff                 NOP
000002bf e4fa                 BSR 0x5, 0x6
000002c0 ffff                 NOP
000002c1 e0fa                 BCR 0x5, 0x6
000002c2                      main.o:_00578_DS_:
000002c2 e0fc                 BCR 0x3, 0x6
000002c3 f62a                 BTRSS 0x55, 0x3
000002c4 c536                 LGOTO 0x2c9; main.o:_00582_DS_=0x2c9
000002c5 e0fa                 BCR 0x5, 0x6
000002c6 ffff                 NOP
000002c7 e4fa                 BSR 0x5, 0x6
000002c8 c531                 LGOTO 0x2ce; main.o:_00587_DS_=0x2ce
000002c9                      main.o:_00582_DS_:
000002c9 e0fa                 BCR 0x5, 0x6
000002ca ffff                 NOP
000002cb e4fa                 BSR 0x5, 0x6
000002cc ffff                 NOP
000002cd e0fa                 BCR 0x5, 0x6
000002ce                      main.o:_00587_DS_:
000002ce e0fc                 BCR 0x3, 0x6
000002cf f6aa                 BTRSS 0x55, 0x2
000002d0 c52a                 LGOTO 0x2d5; main.o:_00591_DS_=0x2d5
000002d1 e0fa                 BCR 0x5, 0x6
000002d2 ffff                 NOP
000002d3 e4fa                 BSR 0x5, 0x6
000002d4 c525                 LGOTO 0x2da; main.o:_00596_DS_=0x2da
000002d5                      main.o:_00591_DS_:
000002d5 e0fa                 BCR 0x5, 0x6
000002d6 ffff                 NOP
000002d7 e4fa                 BSR 0x5, 0x6
000002d8 ffff                 NOP
000002d9 e0fa                 BCR 0x5, 0x6
000002da                      main.o:_00596_DS_:
000002da e0fc                 BCR 0x3, 0x6
000002db f72a                 BTRSS 0x55, 0x1
000002dc c51e                 LGOTO 0x2e1; main.o:_00600_DS_=0x2e1
000002dd e0fa                 BCR 0x5, 0x6
000002de ffff                 NOP
000002df e4fa                 BSR 0x5, 0x6
000002e0 c519                 LGOTO 0x2e6; main.o:_00605_DS_=0x2e6
000002e1                      main.o:_00600_DS_:
000002e1 e0fa                 BCR 0x5, 0x6
000002e2 ffff                 NOP
000002e3 e4fa                 BSR 0x5, 0x6
000002e4 ffff                 NOP
000002e5 e0fa                 BCR 0x5, 0x6
000002e6                      main.o:_00605_DS_:
000002e6 e0fc                 BCR 0x3, 0x6
000002e7 f7aa                 BTRSS 0x55, 0x0
000002e8 c512                 LGOTO 0x2ed; main.o:_00609_DS_=0x2ed
000002e9 e0fa                 BCR 0x5, 0x6
000002ea ffff                 NOP
000002eb e4fa                 BSR 0x5, 0x6
000002ec c50d                 LGOTO 0x2f2; main.o:_00614_DS_=0x2f2
000002ed                      main.o:_00609_DS_:
000002ed e0fa                 BCR 0x5, 0x6
000002ee ffff                 NOP
000002ef e4fa                 BSR 0x5, 0x6
000002f0 ffff                 NOP
000002f1 e0fa                 BCR 0x5, 0x6
000002f2                      main.o:_00614_DS_:
000002f2 e0fa                 BCR 0x5, 0x6
000002f3 fffb                 ENI
000002f4 ffef                 RET
000002f5                      _sendRGB3:
000002f5 e0fc                 BCR 0x3, 0x6
000002f6 ff43                 MOVAR 0x3c
000002f7 feb0                 MOVR 0x4f, 0x0
000002f8 ff44                 MOVAR 0x3b
000002f9 feb1                 MOVR 0x4e, 0x0
000002fa ff42                 MOVAR 0x3d
000002fb feb2                 MOVR 0x4d, 0x0
000002fc ff41                 MOVAR 0x3e
000002fd feb3                 MOVR 0x4c, 0x0
000002fe ff40                 MOVAR 0x3f
000002ff fec4                 MOVR 0x3b, 0x0
00000300 eec3                 IORAR 0x3c, 0x0
00000301 f2fc                 BTRSC 0x3, 0x2
00000302 c4f4                 LGOTO 0x30b; main.o:_00372_DS_=0x30b
00000303 fec4                 MOVR 0x3b, 0x0
00000304 dbf2                 XORIA 0xd
00000305 f6fc                 BTRSS 0x3, 0x2
00000306 c4ec                 LGOTO 0x313; main.o:_00373_DS_=0x313
00000307 fec3                 MOVR 0x3c, 0x0
00000308 dbff                 XORIA 0x0
00000309 f6fc                 BTRSS 0x3, 0x2
0000030a c4ec                 LGOTO 0x313; main.o:_00373_DS_=0x313
0000030b                      main.o:_00372_DS_:
0000030b e0fc                 BCR 0x3, 0x6
0000030c fec0                 MOVR 0x3f, 0x0
0000030d ff31                 MOVAR 0x4e
0000030e fec1                 MOVR 0x3e, 0x0
0000030f ff30                 MOVAR 0x4f
00000310 fec2                 MOVR 0x3d, 0x0
00000311 d633                 LCALL 0x1cc; _sendRGB2=0x1cc
00000312 c4e5                 LGOTO 0x31a; main.o:_00376_DS_=0x31a
00000313                      main.o:_00373_DS_:
00000313 e0fc                 BCR 0x3, 0x6
00000314 fec0                 MOVR 0x3f, 0x0
00000315 ff31                 MOVAR 0x4e
00000316 fec1                 MOVR 0x3e, 0x0
00000317 ff30                 MOVAR 0x4f
00000318 fec2                 MOVR 0x3d, 0x0
00000319 d75c                 LCALL 0xa3; _sendRGB=0xa3
0000031a                      main.o:_00376_DS_:
0000031a ffef                 RET
0000031b                      _closeCtr2:
0000031b e0fc                 BCR 0x3, 0x6
0000031c ff49                 MOVAR 0x36
0000031d d8f8                 SUBIA 0x7
0000031e ff48                 MOVAR 0x37
0000031f def8                 MOVIA 0x7
00000320 fc49                 ADDAR 0x36, 0x1
00000321 def1                 MOVIA 0xe
00000322 ff47                 MOVAR 0x38
00000323                      main.o:_00366_DS_:
00000323 e0fc                 BCR 0x3, 0x6
00000324 fec8                 MOVR 0x37, 0x0
00000325 edc7                 XORAR 0x38, 0x0
00000326 f6fc                 BTRSS 0x3, 0x2
00000327 c4b5                 LGOTO 0x34a; main.o:_00364_DS_=0x34a
00000328 fea5                 MOVR 0x5a, 0x0
00000329 f6fc                 BTRSS 0x3, 0x2
0000032a c4c7                 LGOTO 0x338; main.o:_00349_DS_=0x338
0000032b fec7                 MOVR 0x38, 0x0
0000032c fd45                 CLRR 0x3a
0000032d de4d                 MOVIA 0xb2
0000032e ff33                 MOVAR 0x4c
0000032f ff32                 MOVAR 0x4d
00000330 deb3                 MOVIA 0x4c
00000331 ff31                 MOVAR 0x4e
00000332 fec7                 MOVR 0x38, 0x0
00000333 ff46                 MOVAR 0x39
00000334 ff30                 MOVAR 0x4f
00000335 deff                 MOVIA 0x0
00000336 d50a                 LCALL 0x2f5; _sendRGB3=0x2f5
00000337 c46d                 LGOTO 0x392; main.o:_00367_DS_=0x392
00000338                      main.o:_00349_DS_:
00000338 e0fc                 BCR 0x3, 0x6
00000339 fea5                 MOVR 0x5a, 0x0
0000033a dbfe                 XORIA 0x1
0000033b f6fc                 BTRSS 0x3, 0x2
0000033c c46d                 LGOTO 0x392; main.o:_00367_DS_=0x392
0000033d fec7                 MOVR 0x38, 0x0
0000033e fd45                 CLRR 0x3a
0000033f de4d                 MOVIA 0xb2
00000340 ff33                 MOVAR 0x4c
00000341 deb3                 MOVIA 0x4c
00000342 ff32                 MOVAR 0x4d
00000343 ff31                 MOVAR 0x4e
00000344 fec7                 MOVR 0x38, 0x0
00000345 ff46                 MOVAR 0x39
00000346 ff30                 MOVAR 0x4f
00000347 deff                 MOVIA 0x0
00000348 d50a                 LCALL 0x2f5; _sendRGB3=0x2f5
00000349 c46d                 LGOTO 0x392; main.o:_00367_DS_=0x392
0000034a                      main.o:_00364_DS_:
0000034a e0fc                 BCR 0x3, 0x6
0000034b fec9                 MOVR 0x36, 0x0
0000034c edc7                 XORAR 0x38, 0x0
0000034d f6fc                 BTRSS 0x3, 0x2
0000034e c48e                 LGOTO 0x371; main.o:_00361_DS_=0x371
0000034f fea5                 MOVR 0x5a, 0x0
00000350 f6fc                 BTRSS 0x3, 0x2
00000351 c4a0                 LGOTO 0x35f; main.o:_00354_DS_=0x35f
00000352 fec7                 MOVR 0x38, 0x0
00000353 fd45                 CLRR 0x3a
00000354 deb3                 MOVIA 0x4c
00000355 ff33                 MOVAR 0x4c
00000356 de4d                 MOVIA 0xb2
00000357 ff32                 MOVAR 0x4d
00000358 ff31                 MOVAR 0x4e
00000359 fec7                 MOVR 0x38, 0x0
0000035a ff46                 MOVAR 0x39
0000035b ff30                 MOVAR 0x4f
0000035c deff                 MOVIA 0x0
0000035d d50a                 LCALL 0x2f5; _sendRGB3=0x2f5
0000035e c46d                 LGOTO 0x392; main.o:_00367_DS_=0x392
0000035f                      main.o:_00354_DS_:
0000035f e0fc                 BCR 0x3, 0x6
00000360 fea5                 MOVR 0x5a, 0x0
00000361 dbfe                 XORIA 0x1
00000362 f6fc                 BTRSS 0x3, 0x2
00000363 c46d                 LGOTO 0x392; main.o:_00367_DS_=0x392
00000364 fec7                 MOVR 0x38, 0x0
00000365 fd45                 CLRR 0x3a
00000366 deb3                 MOVIA 0x4c
00000367 ff33                 MOVAR 0x4c
00000368 ff32                 MOVAR 0x4d
00000369 de4d                 MOVIA 0xb2
0000036a ff31                 MOVAR 0x4e
0000036b fec7                 MOVR 0x38, 0x0
0000036c ff46                 MOVAR 0x39
0000036d ff30                 MOVAR 0x4f
0000036e deff                 MOVIA 0x0
0000036f d50a                 LCALL 0x2f5; _sendRGB3=0x2f5
00000370 c46d                 LGOTO 0x392; main.o:_00367_DS_=0x392
00000371                      main.o:_00361_DS_:
00000371 e0fc                 BCR 0x3, 0x6
00000372 fec9                 MOVR 0x36, 0x0
00000373 fbc7                 SUBAR 0x38, 0x0
00000374 f3fc                 BTRSC 0x3, 0x0
00000375 c479                 LGOTO 0x386; main.o:_00357_DS_=0x386
00000376 fec7                 MOVR 0x38, 0x0
00000377 fbc8                 SUBAR 0x37, 0x0
00000378 f3fc                 BTRSC 0x3, 0x0
00000379 c479                 LGOTO 0x386; main.o:_00357_DS_=0x386
0000037a fec7                 MOVR 0x38, 0x0
0000037b fd45                 CLRR 0x3a
0000037c de4d                 MOVIA 0xb2
0000037d ff33                 MOVAR 0x4c
0000037e ff32                 MOVAR 0x4d
0000037f ff31                 MOVAR 0x4e
00000380 fec7                 MOVR 0x38, 0x0
00000381 ff46                 MOVAR 0x39
00000382 ff30                 MOVAR 0x4f
00000383 deff                 MOVIA 0x0
00000384 d50a                 LCALL 0x2f5; _sendRGB3=0x2f5
00000385 c46d                 LGOTO 0x392; main.o:_00367_DS_=0x392
00000386                      main.o:_00357_DS_:
00000386 e0fc                 BCR 0x3, 0x6
00000387 fec7                 MOVR 0x38, 0x0
00000388 fd45                 CLRR 0x3a
00000389 deb3                 MOVIA 0x4c
0000038a ff33                 MOVAR 0x4c
0000038b ff32                 MOVAR 0x4d
0000038c ff31                 MOVAR 0x4e
0000038d fec7                 MOVR 0x38, 0x0
0000038e ff46                 MOVAR 0x39
0000038f ff30                 MOVAR 0x4f
00000390 deff                 MOVIA 0x0
00000391 d50a                 LCALL 0x2f5; _sendRGB3=0x2f5
00000392                      main.o:_00367_DS_:
00000392 e0fc                 BCR 0x3, 0x6
00000393 e847                 DECRSZ 0x38, 0x1
00000394 c4dc                 LGOTO 0x323; main.o:_00366_DS_=0x323
00000395 ffef                 RET
00000396                      _closeCtr:
00000396 e0fc                 BCR 0x3, 0x6
00000397 ff4f                 MOVAR 0x30
00000398 d8f8                 SUBIA 0x7
00000399 ff4e                 MOVAR 0x31
0000039a def8                 MOVIA 0x7
0000039b fc4f                 ADDAR 0x30, 0x1
0000039c fd4d                 CLRR 0x32
0000039d fecf                 MOVR 0x30, 0x0
0000039e edce                 XORAR 0x31, 0x0
0000039f f6fc                 BTRSS 0x3, 0x2
000003a0 c45d                 LGOTO 0x3a2; main.o:_00002_DS_=0x3a2
000003a1 fa4d                 INCR 0x32, 0x1
000003a2                      main.o:_00002_DS_:
000003a2 def1                 MOVIA 0xe
000003a3 e0fc                 BCR 0x3, 0x6
000003a4 ff4c                 MOVAR 0x33
000003a5                      main.o:_00305_DS_:
000003a5 e0fc                 BCR 0x3, 0x6
000003a6 fecd                 MOVR 0x32, 0x0
000003a7 f2fc                 BTRSC 0x3, 0x2
000003a8 c44a                 LGOTO 0x3b5; main.o:_00303_DS_=0x3b5
000003a9 fecc                 MOVR 0x33, 0x0
000003aa fd4a                 CLRR 0x35
000003ab deff                 MOVIA 0x0
000003ac ff33                 MOVAR 0x4c
000003ad ff32                 MOVAR 0x4d
000003ae ff31                 MOVAR 0x4e
000003af fecc                 MOVR 0x33, 0x0
000003b0 ff4b                 MOVAR 0x34
000003b1 ff30                 MOVAR 0x4f
000003b2 deff                 MOVIA 0x0
000003b3 d50a                 LCALL 0x2f5; _sendRGB3=0x2f5
000003b4 c3db                 LGOTO 0x424; main.o:_00306_DS_=0x424
000003b5                      main.o:_00303_DS_:
000003b5 e0fc                 BCR 0x3, 0x6
000003b6 fece                 MOVR 0x31, 0x0
000003b7 edcc                 XORAR 0x33, 0x0
000003b8 f6fc                 BTRSS 0x3, 0x2
000003b9 c423                 LGOTO 0x3dc; main.o:_00300_DS_=0x3dc
000003ba fea5                 MOVR 0x5a, 0x0
000003bb f6fc                 BTRSS 0x3, 0x2
000003bc c435                 LGOTO 0x3ca; main.o:_00285_DS_=0x3ca
000003bd fecc                 MOVR 0x33, 0x0
000003be fd4a                 CLRR 0x35
000003bf deb3                 MOVIA 0x4c
000003c0 ff33                 MOVAR 0x4c
000003c1 ff32                 MOVAR 0x4d
000003c2 deff                 MOVIA 0x0
000003c3 ff31                 MOVAR 0x4e
000003c4 fecc                 MOVR 0x33, 0x0
000003c5 ff4b                 MOVAR 0x34
000003c6 ff30                 MOVAR 0x4f
000003c7 deff                 MOVIA 0x0
000003c8 d50a                 LCALL 0x2f5; _sendRGB3=0x2f5
000003c9 c3db                 LGOTO 0x424; main.o:_00306_DS_=0x424
000003ca                      main.o:_00285_DS_:
000003ca e0fc                 BCR 0x3, 0x6
000003cb fea5                 MOVR 0x5a, 0x0
000003cc dbfe                 XORIA 0x1
000003cd f6fc                 BTRSS 0x3, 0x2
000003ce c3db                 LGOTO 0x424; main.o:_00306_DS_=0x424
000003cf fecc                 MOVR 0x33, 0x0
000003d0 fd4a                 CLRR 0x35
000003d1 deb3                 MOVIA 0x4c
000003d2 ff33                 MOVAR 0x4c
000003d3 deff                 MOVIA 0x0
000003d4 ff32                 MOVAR 0x4d
000003d5 ff31                 MOVAR 0x4e
000003d6 fecc                 MOVR 0x33, 0x0
000003d7 ff4b                 MOVAR 0x34
000003d8 ff30                 MOVAR 0x4f
000003d9 deff                 MOVIA 0x0
000003da d50a                 LCALL 0x2f5; _sendRGB3=0x2f5
000003db c3db                 LGOTO 0x424; main.o:_00306_DS_=0x424
000003dc                      main.o:_00300_DS_:
000003dc e0fc                 BCR 0x3, 0x6
000003dd fecf                 MOVR 0x30, 0x0
000003de edcc                 XORAR 0x33, 0x0
000003df f6fc                 BTRSS 0x3, 0x2
000003e0 c3fc                 LGOTO 0x403; main.o:_00297_DS_=0x403
000003e1 fea5                 MOVR 0x5a, 0x0
000003e2 f6fc                 BTRSS 0x3, 0x2
000003e3 c40e                 LGOTO 0x3f1; main.o:_00290_DS_=0x3f1
000003e4 fecc                 MOVR 0x33, 0x0
000003e5 fd4a                 CLRR 0x35
000003e6 deff                 MOVIA 0x0
000003e7 ff33                 MOVAR 0x4c
000003e8 deb3                 MOVIA 0x4c
000003e9 ff32                 MOVAR 0x4d
000003ea ff31                 MOVAR 0x4e
000003eb fecc                 MOVR 0x33, 0x0
000003ec ff4b                 MOVAR 0x34
000003ed ff30                 MOVAR 0x4f
000003ee deff                 MOVIA 0x0
000003ef d50a                 LCALL 0x2f5; _sendRGB3=0x2f5
000003f0 c3db                 LGOTO 0x424; main.o:_00306_DS_=0x424
000003f1                      main.o:_00290_DS_:
000003f1 e0fc                 BCR 0x3, 0x6
000003f2 fea5                 MOVR 0x5a, 0x0
000003f3 dbfe                 XORIA 0x1
000003f4 f6fc                 BTRSS 0x3, 0x2
000003f5 c3db                 LGOTO 0x424; main.o:_00306_DS_=0x424
000003f6 fecc                 MOVR 0x33, 0x0
000003f7 fd4a                 CLRR 0x35
000003f8 deff                 MOVIA 0x0
000003f9 ff33                 MOVAR 0x4c
000003fa ff32                 MOVAR 0x4d
000003fb deb3                 MOVIA 0x4c
000003fc ff31                 MOVAR 0x4e
000003fd fecc                 MOVR 0x33, 0x0
000003fe ff4b                 MOVAR 0x34
000003ff ff30                 MOVAR 0x4f
00000400 deff                 MOVIA 0x0
00000401 d50a                 LCALL 0x2f5; _sendRGB3=0x2f5
00000402 c3db                 LGOTO 0x424; main.o:_00306_DS_=0x424
00000403                      main.o:_00297_DS_:
00000403 e0fc                 BCR 0x3, 0x6
00000404 fecf                 MOVR 0x30, 0x0
00000405 fbcc                 SUBAR 0x33, 0x0
00000406 f3fc                 BTRSC 0x3, 0x0
00000407 c3e7                 LGOTO 0x418; main.o:_00293_DS_=0x418
00000408 fecc                 MOVR 0x33, 0x0
00000409 fbce                 SUBAR 0x31, 0x0
0000040a f3fc                 BTRSC 0x3, 0x0
0000040b c3e7                 LGOTO 0x418; main.o:_00293_DS_=0x418
0000040c fecc                 MOVR 0x33, 0x0
0000040d fd4a                 CLRR 0x35
0000040e deb3                 MOVIA 0x4c
0000040f ff33                 MOVAR 0x4c
00000410 ff32                 MOVAR 0x4d
00000411 ff31                 MOVAR 0x4e
00000412 fecc                 MOVR 0x33, 0x0
00000413 ff4b                 MOVAR 0x34
00000414 ff30                 MOVAR 0x4f
00000415 deff                 MOVIA 0x0
00000416 d50a                 LCALL 0x2f5; _sendRGB3=0x2f5
00000417 c3db                 LGOTO 0x424; main.o:_00306_DS_=0x424
00000418                      main.o:_00293_DS_:
00000418 e0fc                 BCR 0x3, 0x6
00000419 fecc                 MOVR 0x33, 0x0
0000041a fd4a                 CLRR 0x35
0000041b deff                 MOVIA 0x0
0000041c ff33                 MOVAR 0x4c
0000041d ff32                 MOVAR 0x4d
0000041e ff31                 MOVAR 0x4e
0000041f fecc                 MOVR 0x33, 0x0
00000420 ff4b                 MOVAR 0x34
00000421 ff30                 MOVAR 0x4f
00000422 deff                 MOVIA 0x0
00000423 d50a                 LCALL 0x2f5; _sendRGB3=0x2f5
00000424                      main.o:_00306_DS_:
00000424 e0fc                 BCR 0x3, 0x6
00000425 e84c                 DECRSZ 0x33, 0x1
00000426 c45a                 LGOTO 0x3a5; main.o:_00305_DS_=0x3a5
00000427 ffef                 RET
00000428                      _openCtr2:
00000428 e0fc                 BCR 0x3, 0x6
00000429 ff54                 MOVAR 0x2b
0000042a d8f8                 SUBIA 0x7
0000042b ff53                 MOVAR 0x2c
0000042c def8                 MOVIA 0x7
0000042d fc54                 ADDAR 0x2b, 0x1
0000042e def1                 MOVIA 0xe
0000042f ff52                 MOVAR 0x2d
00000430                      main.o:_00276_DS_:
00000430 e0fc                 BCR 0x3, 0x6
00000431 fed3                 MOVR 0x2c, 0x0
00000432 edd2                 XORAR 0x2d, 0x0
00000433 f6fc                 BTRSS 0x3, 0x2
00000434 c3a8                 LGOTO 0x457; main.o:_00274_DS_=0x457
00000435 fea5                 MOVR 0x5a, 0x0
00000436 f6fc                 BTRSS 0x3, 0x2
00000437 c3ba                 LGOTO 0x445; main.o:_00259_DS_=0x445
00000438 fed2                 MOVR 0x2d, 0x0
00000439 fd50                 CLRR 0x2f
0000043a de4d                 MOVIA 0xb2
0000043b ff33                 MOVAR 0x4c
0000043c deb3                 MOVIA 0x4c
0000043d ff32                 MOVAR 0x4d
0000043e ff31                 MOVAR 0x4e
0000043f fed2                 MOVR 0x2d, 0x0
00000440 ff51                 MOVAR 0x2e
00000441 ff30                 MOVAR 0x4f
00000442 deff                 MOVIA 0x0
00000443 d50a                 LCALL 0x2f5; _sendRGB3=0x2f5
00000444 c360                 LGOTO 0x49f; main.o:_00277_DS_=0x49f
00000445                      main.o:_00259_DS_:
00000445 e0fc                 BCR 0x3, 0x6
00000446 fea5                 MOVR 0x5a, 0x0
00000447 dbfe                 XORIA 0x1
00000448 f6fc                 BTRSS 0x3, 0x2
00000449 c360                 LGOTO 0x49f; main.o:_00277_DS_=0x49f
0000044a fed2                 MOVR 0x2d, 0x0
0000044b fd50                 CLRR 0x2f
0000044c de4d                 MOVIA 0xb2
0000044d ff33                 MOVAR 0x4c
0000044e ff32                 MOVAR 0x4d
0000044f deb3                 MOVIA 0x4c
00000450 ff31                 MOVAR 0x4e
00000451 fed2                 MOVR 0x2d, 0x0
00000452 ff51                 MOVAR 0x2e
00000453 ff30                 MOVAR 0x4f
00000454 deff                 MOVIA 0x0
00000455 d50a                 LCALL 0x2f5; _sendRGB3=0x2f5
00000456 c360                 LGOTO 0x49f; main.o:_00277_DS_=0x49f
00000457                      main.o:_00274_DS_:
00000457 e0fc                 BCR 0x3, 0x6
00000458 fed4                 MOVR 0x2b, 0x0
00000459 edd2                 XORAR 0x2d, 0x0
0000045a f6fc                 BTRSS 0x3, 0x2
0000045b c381                 LGOTO 0x47e; main.o:_00271_DS_=0x47e
0000045c fea5                 MOVR 0x5a, 0x0
0000045d f6fc                 BTRSS 0x3, 0x2
0000045e c393                 LGOTO 0x46c; main.o:_00264_DS_=0x46c
0000045f fed2                 MOVR 0x2d, 0x0
00000460 fd50                 CLRR 0x2f
00000461 deb3                 MOVIA 0x4c
00000462 ff33                 MOVAR 0x4c
00000463 ff32                 MOVAR 0x4d
00000464 de4d                 MOVIA 0xb2
00000465 ff31                 MOVAR 0x4e
00000466 fed2                 MOVR 0x2d, 0x0
00000467 ff51                 MOVAR 0x2e
00000468 ff30                 MOVAR 0x4f
00000469 deff                 MOVIA 0x0
0000046a d50a                 LCALL 0x2f5; _sendRGB3=0x2f5
0000046b c360                 LGOTO 0x49f; main.o:_00277_DS_=0x49f
0000046c                      main.o:_00264_DS_:
0000046c e0fc                 BCR 0x3, 0x6
0000046d fea5                 MOVR 0x5a, 0x0
0000046e dbfe                 XORIA 0x1
0000046f f6fc                 BTRSS 0x3, 0x2
00000470 c360                 LGOTO 0x49f; main.o:_00277_DS_=0x49f
00000471 fed2                 MOVR 0x2d, 0x0
00000472 fd50                 CLRR 0x2f
00000473 deb3                 MOVIA 0x4c
00000474 ff33                 MOVAR 0x4c
00000475 de4d                 MOVIA 0xb2
00000476 ff32                 MOVAR 0x4d
00000477 ff31                 MOVAR 0x4e
00000478 fed2                 MOVR 0x2d, 0x0
00000479 ff51                 MOVAR 0x2e
0000047a ff30                 MOVAR 0x4f
0000047b deff                 MOVIA 0x0
0000047c d50a                 LCALL 0x2f5; _sendRGB3=0x2f5
0000047d c360                 LGOTO 0x49f; main.o:_00277_DS_=0x49f
0000047e                      main.o:_00271_DS_:
0000047e e0fc                 BCR 0x3, 0x6
0000047f fed4                 MOVR 0x2b, 0x0
00000480 fbd2                 SUBAR 0x2d, 0x0
00000481 f3fc                 BTRSC 0x3, 0x0
00000482 c36c                 LGOTO 0x493; main.o:_00267_DS_=0x493
00000483 fed2                 MOVR 0x2d, 0x0
00000484 fbd3                 SUBAR 0x2c, 0x0
00000485 f3fc                 BTRSC 0x3, 0x0
00000486 c36c                 LGOTO 0x493; main.o:_00267_DS_=0x493
00000487 fed2                 MOVR 0x2d, 0x0
00000488 fd50                 CLRR 0x2f
00000489 de4d                 MOVIA 0xb2
0000048a ff33                 MOVAR 0x4c
0000048b ff32                 MOVAR 0x4d
0000048c ff31                 MOVAR 0x4e
0000048d fed2                 MOVR 0x2d, 0x0
0000048e ff51                 MOVAR 0x2e
0000048f ff30                 MOVAR 0x4f
00000490 deff                 MOVIA 0x0
00000491 d50a                 LCALL 0x2f5; _sendRGB3=0x2f5
00000492 c360                 LGOTO 0x49f; main.o:_00277_DS_=0x49f
00000493                      main.o:_00267_DS_:
00000493 e0fc                 BCR 0x3, 0x6
00000494 fed2                 MOVR 0x2d, 0x0
00000495 fd50                 CLRR 0x2f
00000496 deb3                 MOVIA 0x4c
00000497 ff33                 MOVAR 0x4c
00000498 ff32                 MOVAR 0x4d
00000499 ff31                 MOVAR 0x4e
0000049a fed2                 MOVR 0x2d, 0x0
0000049b ff51                 MOVAR 0x2e
0000049c ff30                 MOVAR 0x4f
0000049d deff                 MOVIA 0x0
0000049e d50a                 LCALL 0x2f5; _sendRGB3=0x2f5
0000049f                      main.o:_00277_DS_:
0000049f e0fc                 BCR 0x3, 0x6
000004a0 e852                 DECRSZ 0x2d, 0x1
000004a1 c3cf                 LGOTO 0x430; main.o:_00276_DS_=0x430
000004a2 ffef                 RET
000004a3                      _openCtr:
000004a3 e0fc                 BCR 0x3, 0x6
000004a4 ff59                 MOVAR 0x26
000004a5 d8f8                 SUBIA 0x7
000004a6 ff58                 MOVAR 0x27
000004a7 def8                 MOVIA 0x7
000004a8 fc59                 ADDAR 0x26, 0x1
000004a9 def1                 MOVIA 0xe
000004aa ff57                 MOVAR 0x28
000004ab                      main.o:_00250_DS_:
000004ab e0fc                 BCR 0x3, 0x6
000004ac fed8                 MOVR 0x27, 0x0
000004ad edd7                 XORAR 0x28, 0x0
000004ae f6fc                 BTRSS 0x3, 0x2
000004af c32d                 LGOTO 0x4d2; main.o:_00248_DS_=0x4d2
000004b0 fea5                 MOVR 0x5a, 0x0
000004b1 f6fc                 BTRSS 0x3, 0x2
000004b2 c33f                 LGOTO 0x4c0; main.o:_00233_DS_=0x4c0
000004b3 fed7                 MOVR 0x28, 0x0
000004b4 fd55                 CLRR 0x2a
000004b5 deb3                 MOVIA 0x4c
000004b6 ff33                 MOVAR 0x4c
000004b7 deff                 MOVIA 0x0
000004b8 ff32                 MOVAR 0x4d
000004b9 ff31                 MOVAR 0x4e
000004ba fed7                 MOVR 0x28, 0x0
000004bb ff56                 MOVAR 0x29
000004bc ff30                 MOVAR 0x4f
000004bd deff                 MOVIA 0x0
000004be d50a                 LCALL 0x2f5; _sendRGB3=0x2f5
000004bf c2e5                 LGOTO 0x51a; main.o:_00251_DS_=0x51a
000004c0                      main.o:_00233_DS_:
000004c0 e0fc                 BCR 0x3, 0x6
000004c1 fea5                 MOVR 0x5a, 0x0
000004c2 dbfe                 XORIA 0x1
000004c3 f6fc                 BTRSS 0x3, 0x2
000004c4 c2e5                 LGOTO 0x51a; main.o:_00251_DS_=0x51a
000004c5 fed7                 MOVR 0x28, 0x0
000004c6 fd55                 CLRR 0x2a
000004c7 deb3                 MOVIA 0x4c
000004c8 ff33                 MOVAR 0x4c
000004c9 ff32                 MOVAR 0x4d
000004ca deff                 MOVIA 0x0
000004cb ff31                 MOVAR 0x4e
000004cc fed7                 MOVR 0x28, 0x0
000004cd ff56                 MOVAR 0x29
000004ce ff30                 MOVAR 0x4f
000004cf deff                 MOVIA 0x0
000004d0 d50a                 LCALL 0x2f5; _sendRGB3=0x2f5
000004d1 c2e5                 LGOTO 0x51a; main.o:_00251_DS_=0x51a
000004d2                      main.o:_00248_DS_:
000004d2 e0fc                 BCR 0x3, 0x6
000004d3 fed9                 MOVR 0x26, 0x0
000004d4 edd7                 XORAR 0x28, 0x0
000004d5 f6fc                 BTRSS 0x3, 0x2
000004d6 c306                 LGOTO 0x4f9; main.o:_00245_DS_=0x4f9
000004d7 fea5                 MOVR 0x5a, 0x0
000004d8 f6fc                 BTRSS 0x3, 0x2
000004d9 c318                 LGOTO 0x4e7; main.o:_00238_DS_=0x4e7
000004da fed7                 MOVR 0x28, 0x0
000004db fd55                 CLRR 0x2a
000004dc deff                 MOVIA 0x0
000004dd ff33                 MOVAR 0x4c
000004de ff32                 MOVAR 0x4d
000004df deb3                 MOVIA 0x4c
000004e0 ff31                 MOVAR 0x4e
000004e1 fed7                 MOVR 0x28, 0x0
000004e2 ff56                 MOVAR 0x29
000004e3 ff30                 MOVAR 0x4f
000004e4 deff                 MOVIA 0x0
000004e5 d50a                 LCALL 0x2f5; _sendRGB3=0x2f5
000004e6 c2e5                 LGOTO 0x51a; main.o:_00251_DS_=0x51a
000004e7                      main.o:_00238_DS_:
000004e7 e0fc                 BCR 0x3, 0x6
000004e8 fea5                 MOVR 0x5a, 0x0
000004e9 dbfe                 XORIA 0x1
000004ea f6fc                 BTRSS 0x3, 0x2
000004eb c2e5                 LGOTO 0x51a; main.o:_00251_DS_=0x51a
000004ec fed7                 MOVR 0x28, 0x0
000004ed fd55                 CLRR 0x2a
000004ee deff                 MOVIA 0x0
000004ef ff33                 MOVAR 0x4c
000004f0 deb3                 MOVIA 0x4c
000004f1 ff32                 MOVAR 0x4d
000004f2 ff31                 MOVAR 0x4e
000004f3 fed7                 MOVR 0x28, 0x0
000004f4 ff56                 MOVAR 0x29
000004f5 ff30                 MOVAR 0x4f
000004f6 deff                 MOVIA 0x0
000004f7 d50a                 LCALL 0x2f5; _sendRGB3=0x2f5
000004f8 c2e5                 LGOTO 0x51a; main.o:_00251_DS_=0x51a
000004f9                      main.o:_00245_DS_:
000004f9 e0fc                 BCR 0x3, 0x6
000004fa fed9                 MOVR 0x26, 0x0
000004fb fbd7                 SUBAR 0x28, 0x0
000004fc f3fc                 BTRSC 0x3, 0x0
000004fd c2f1                 LGOTO 0x50e; main.o:_00241_DS_=0x50e
000004fe fed7                 MOVR 0x28, 0x0
000004ff fbd8                 SUBAR 0x27, 0x0
00000500 f3fc                 BTRSC 0x3, 0x0
00000501 c2f1                 LGOTO 0x50e; main.o:_00241_DS_=0x50e
00000502 fed7                 MOVR 0x28, 0x0
00000503 fd55                 CLRR 0x2a
00000504 deb3                 MOVIA 0x4c
00000505 ff33                 MOVAR 0x4c
00000506 ff32                 MOVAR 0x4d
00000507 ff31                 MOVAR 0x4e
00000508 fed7                 MOVR 0x28, 0x0
00000509 ff56                 MOVAR 0x29
0000050a ff30                 MOVAR 0x4f
0000050b deff                 MOVIA 0x0
0000050c d50a                 LCALL 0x2f5; _sendRGB3=0x2f5
0000050d c2e5                 LGOTO 0x51a; main.o:_00251_DS_=0x51a
0000050e                      main.o:_00241_DS_:
0000050e e0fc                 BCR 0x3, 0x6
0000050f fed7                 MOVR 0x28, 0x0
00000510 fd55                 CLRR 0x2a
00000511 deff                 MOVIA 0x0
00000512 ff33                 MOVAR 0x4c
00000513 ff32                 MOVAR 0x4d
00000514 ff31                 MOVAR 0x4e
00000515 fed7                 MOVR 0x28, 0x0
00000516 ff56                 MOVAR 0x29
00000517 ff30                 MOVAR 0x4f
00000518 deff                 MOVIA 0x0
00000519 d50a                 LCALL 0x2f5; _sendRGB3=0x2f5
0000051a                      main.o:_00251_DS_:
0000051a e0fc                 BCR 0x3, 0x6
0000051b e857                 DECRSZ 0x28, 0x1
0000051c c354                 LGOTO 0x4ab; main.o:_00250_DS_=0x4ab
0000051d ffef                 RET
0000051e                      _setColor:
0000051e e0fc                 BCR 0x3, 0x6
0000051f ff5d                 MOVAR 0x22
00000520 feb0                 MOVR 0x4f, 0x0
00000521 ff5c                 MOVAR 0x23
00000522 feb1                 MOVR 0x4e, 0x0
00000523 ff5b                 MOVAR 0x24
00000524 decc                 MOVIA 0x33
00000525 fb9f                 SUBAR 0x60, 0x0
00000526 f7fc                 BTRSS 0x3, 0x0
00000527 c2b6                 LGOTO 0x549; main.o:_00220_DS_=0x549
00000528 fedd                 MOVR 0x22, 0x0
00000529 f6fc                 BTRSS 0x3, 0x2
0000052a c2ce                 LGOTO 0x531; main.o:_00219_DS_=0x531
0000052b fedc                 MOVR 0x23, 0x0
0000052c f6fc                 BTRSS 0x3, 0x2
0000052d c2ce                 LGOTO 0x531; main.o:_00219_DS_=0x531
0000052e fedb                 MOVR 0x24, 0x0
0000052f f2fc                 BTRSC 0x3, 0x2
00000530 c2b6                 LGOTO 0x549; main.o:_00220_DS_=0x549
00000531                      main.o:_00219_DS_:
00000531 e0fc                 BCR 0x3, 0x6
00000532 fedb                 MOVR 0x24, 0x0
00000533 ff31                 MOVAR 0x4e
00000534 fedc                 MOVR 0x23, 0x0
00000535 ff30                 MOVAR 0x4f
00000536 fedd                 MOVR 0x22, 0x0
00000537 d633                 LCALL 0x1cc; _sendRGB2=0x1cc
00000538 def3                 MOVIA 0xc
00000539 e0fc                 BCR 0x3, 0x6
0000053a ff5a                 MOVAR 0x25
0000053b                      main.o:_00213_DS_:
0000053b deff                 MOVIA 0x0
0000053c ff31                 MOVAR 0x4e
0000053d ff30                 MOVAR 0x4f
0000053e d75c                 LCALL 0xa3; _sendRGB=0xa3
0000053f e0fc                 BCR 0x3, 0x6
00000540 e85a                 DECRSZ 0x25, 0x1
00000541 c2c4                 LGOTO 0x53b; main.o:_00213_DS_=0x53b
00000542 fedb                 MOVR 0x24, 0x0
00000543 ff31                 MOVAR 0x4e
00000544 fedc                 MOVR 0x23, 0x0
00000545 ff30                 MOVAR 0x4f
00000546 fedd                 MOVR 0x22, 0x0
00000547 d633                 LCALL 0x1cc; _sendRGB2=0x1cc
00000548 c29c                 LGOTO 0x563; main.o:_00225_DS_=0x563
00000549                      main.o:_00220_DS_:
00000549 e0fc                 BCR 0x3, 0x6
0000054a fedb                 MOVR 0x24, 0x0
0000054b ff31                 MOVAR 0x4e
0000054c fedc                 MOVR 0x23, 0x0
0000054d ff30                 MOVAR 0x4f
0000054e fedd                 MOVR 0x22, 0x0
0000054f d633                 LCALL 0x1cc; _sendRGB2=0x1cc
00000550 def3                 MOVIA 0xc
00000551 e0fc                 BCR 0x3, 0x6
00000552 ff5a                 MOVAR 0x25
00000553                      main.o:_00216_DS_:
00000553 e0fc                 BCR 0x3, 0x6
00000554 fedb                 MOVR 0x24, 0x0
00000555 ff31                 MOVAR 0x4e
00000556 fedc                 MOVR 0x23, 0x0
00000557 ff30                 MOVAR 0x4f
00000558 fedd                 MOVR 0x22, 0x0
00000559 d75c                 LCALL 0xa3; _sendRGB=0xa3
0000055a e0fc                 BCR 0x3, 0x6
0000055b e85a                 DECRSZ 0x25, 0x1
0000055c c2ac                 LGOTO 0x553; main.o:_00216_DS_=0x553
0000055d fedb                 MOVR 0x24, 0x0
0000055e ff31                 MOVAR 0x4e
0000055f fedc                 MOVR 0x23, 0x0
00000560 ff30                 MOVAR 0x4f
00000561 fedd                 MOVR 0x22, 0x0
00000562 d633                 LCALL 0x1cc; _sendRGB2=0x1cc
00000563                      main.o:_00225_DS_:
00000563 ffef                 RET
00000564                      _initTimer0:
00000564 e0fc                 BCR 0x3, 0x6
00000565 fd7a                 CLRR 0x5
00000566 de4f                 MOVIA 0xb0
00000567 fffa                 IOST 0x5
00000568 de20                 MOVIA 0xdf
00000569 fff6                 IOST 0x9
0000056a de08                 MOVIA 0xf7
0000056b ff74                 MOVAR 0xb
0000056c fd7a                 CLRR 0x5
0000056d de77                 MOVIA 0x88
0000056e ff77                 MOVAR 0x8
0000056f defe                 MOVIA 0x1
00000570 ff71                 MOVAR 0xe
00000571 fd70                 CLRR 0xf
00000572 fdff                 CLRA
00000573 fff0                 IOST 0xf
00000574 dec8                 MOVIA 0x37
00000575 ff7e                 MOVAR 0x1
00000576 fdff                 CLRA
00000577 fffc                 T0MD
00000578 defe                 MOVIA 0x1
00000579 fff0                 IOST 0xf
0000057a fffb                 ENI
0000057b ffef                 RET
0000057c                      _xdCtr:
0000057c decc                 MOVIA 0x33
0000057d e0fc                 BCR 0x3, 0x6
0000057e fba0                 SUBAR 0x5f, 0x0
0000057f f7fc                 BTRSS 0x3, 0x0
00000580 c25f                 LGOTO 0x5a0; main.o:_00202_DS_=0x5a0
00000581 fa25                 INCR 0x5a, 0x1
00000582 defd                 MOVIA 0x2
00000583 fba5                 SUBAR 0x5a, 0x0
00000584 f7fc                 BTRSS 0x3, 0x0
00000585 c26d                 LGOTO 0x592; main.o:_00187_DS_=0x592
00000586 fd25                 CLRR 0x5a
00000587 def1                 MOVIA 0xe
00000588 fba7                 SUBAR 0x58, 0x0
00000589 f3fc                 BTRSC 0x3, 0x0
0000058a c270                 LGOTO 0x58f; main.o:_00184_DS_=0x58f
0000058b fa27                 INCR 0x58, 0x1
0000058c defe                 MOVIA 0x1
0000058d ff24                 MOVAR 0x5b
0000058e c26d                 LGOTO 0x592; main.o:_00187_DS_=0x592
0000058f                      main.o:_00184_DS_:
0000058f defd                 MOVIA 0x2
00000590 e0fc                 BCR 0x3, 0x6
00000591 ff24                 MOVAR 0x5b
00000592                      main.o:_00187_DS_:
00000592 def8                 MOVIA 0x7
00000593 e0fc                 BCR 0x3, 0x6
00000594 fba7                 SUBAR 0x58, 0x0
00000595 f3fc                 BTRSC 0x3, 0x0
00000596 c265                 LGOTO 0x59a; main.o:_00189_DS_=0x59a
00000597 fea7                 MOVR 0x58, 0x0
00000598 d35c                 LCALL 0x4a3; _openCtr=0x4a3
00000599 c23a                 LGOTO 0x5c5; main.o:_00204_DS_=0x5c5
0000059a                      main.o:_00189_DS_:
0000059a de06                 MOVIA 0xf9
0000059b e0fc                 BCR 0x3, 0x6
0000059c fca7                 ADDAR 0x58, 0x0
0000059d ff5e                 MOVAR 0x21
0000059e d3d7                 LCALL 0x428; _openCtr2=0x428
0000059f c23a                 LGOTO 0x5c5; main.o:_00204_DS_=0x5c5
000005a0                      main.o:_00202_DS_:
000005a0 e0fc                 BCR 0x3, 0x6
000005a1 fea2                 MOVR 0x5d, 0x0
000005a2 dbfe                 XORIA 0x1
000005a3 f6fc                 BTRSS 0x3, 0x2
000005a4 c257                 LGOTO 0x5a8; main.o:_00192_DS_=0x5a8
000005a5 def1                 MOVIA 0xe
000005a6 ff27                 MOVAR 0x58
000005a7 fd22                 CLRR 0x5d
000005a8                      main.o:_00192_DS_:
000005a8 e0fc                 BCR 0x3, 0x6
000005a9 fa25                 INCR 0x5a, 0x1
000005aa defd                 MOVIA 0x2
000005ab fba5                 SUBAR 0x5a, 0x0
000005ac f7fc                 BTRSS 0x3, 0x0
000005ad c247                 LGOTO 0x5b8; main.o:_00197_DS_=0x5b8
000005ae fd25                 CLRR 0x5a
000005af fea7                 MOVR 0x58, 0x0
000005b0 f2fc                 BTRSC 0x3, 0x2
000005b1 c249                 LGOTO 0x5b6; main.o:_00194_DS_=0x5b6
000005b2 f927                 DECR 0x58, 0x1
000005b3 defc                 MOVIA 0x3
000005b4 ff24                 MOVAR 0x5b
000005b5 c247                 LGOTO 0x5b8; main.o:_00197_DS_=0x5b8
000005b6                      main.o:_00194_DS_:
000005b6 e0fc                 BCR 0x3, 0x6
000005b7 fd24                 CLRR 0x5b
000005b8                      main.o:_00197_DS_:
000005b8 def7                 MOVIA 0x8
000005b9 e0fc                 BCR 0x3, 0x6
000005ba fba7                 SUBAR 0x58, 0x0
000005bb f7fc                 BTRSS 0x3, 0x0
000005bc c23d                 LGOTO 0x5c2; main.o:_00199_DS_=0x5c2
000005bd de06                 MOVIA 0xf9
000005be fca7                 ADDAR 0x58, 0x0
000005bf ff5e                 MOVAR 0x21
000005c0 d4e4                 LCALL 0x31b; _closeCtr2=0x31b
000005c1 c23a                 LGOTO 0x5c5; main.o:_00204_DS_=0x5c5
000005c2                      main.o:_00199_DS_:
000005c2 e0fc                 BCR 0x3, 0x6
000005c3 fea7                 MOVR 0x58, 0x0
000005c4 d469                 LCALL 0x396; _closeCtr=0x396
000005c5                      main.o:_00204_DS_:
000005c5 ffef                 RET
000005c6                      _keyCtr:
000005c6 decc                 MOVIA 0x33
000005c7 e0fc                 BCR 0x3, 0x6
000005c8 fba0                 SUBAR 0x5f, 0x0
000005c9 f7fc                 BTRSS 0x3, 0x0
000005ca c212                 LGOTO 0x5ed; main.o:_00177_DS_=0x5ed
000005cb decc                 MOVIA 0x33
000005cc fba1                 SUBAR 0x5e, 0x0
000005cd f7fc                 BTRSS 0x3, 0x0
000005ce c22a                 LGOTO 0x5d5; main.o:_00174_DS_=0x5d5
000005cf de80                 MOVIA 0x7f
000005d0 ff31                 MOVAR 0x4e
000005d1 ff30                 MOVAR 0x4f
000005d2 d2e1                 LCALL 0x51e; _setColor=0x51e
000005d3 defe                 MOVIA 0x1
000005d4 c211                 LGOTO 0x5ee; main.o:_00178_DS_=0x5ee
000005d5                      main.o:_00174_DS_:
000005d5 decc                 MOVIA 0x33
000005d6 e0fc                 BCR 0x3, 0x6
000005d7 fb9f                 SUBAR 0x60, 0x0
000005d8 f7fc                 BTRSS 0x3, 0x0
000005d9 c212                 LGOTO 0x5ed; main.o:_00177_DS_=0x5ed
000005da fea6                 MOVR 0x59, 0x0
000005db f6fc                 BTRSS 0x3, 0x2
000005dc c21d                 LGOTO 0x5e2; main.o:_00169_DS_=0x5e2
000005dd de80                 MOVIA 0x7f
000005de ff31                 MOVAR 0x4e
000005df ff30                 MOVAR 0x4f
000005e0 d2e1                 LCALL 0x51e; _setColor=0x51e
000005e1 c214                 LGOTO 0x5eb; main.o:_00170_DS_=0x5eb
000005e2                      main.o:_00169_DS_:
000005e2 e0fc                 BCR 0x3, 0x6
000005e3 fea6                 MOVR 0x59, 0x0
000005e4 dbfa                 XORIA 0x5
000005e5 f6fc                 BTRSS 0x3, 0x2
000005e6 c214                 LGOTO 0x5eb; main.o:_00170_DS_=0x5eb
000005e7 deff                 MOVIA 0x0
000005e8 ff31                 MOVAR 0x4e
000005e9 ff30                 MOVAR 0x4f
000005ea d2e1                 LCALL 0x51e; _setColor=0x51e
000005eb                      main.o:_00170_DS_:
000005eb defe                 MOVIA 0x1
000005ec c211                 LGOTO 0x5ee; main.o:_00178_DS_=0x5ee
000005ed                      main.o:_00177_DS_:
000005ed deff                 MOVIA 0x0
000005ee                      main.o:_00178_DS_:
000005ee ffef                 RET
000005ef                      _readKey:
000005ef e0fc                 BCR 0x3, 0x6
000005f0 f5fa                 BTRSS 0x5, 0x4
000005f1 c205                 LGOTO 0x5fa; main.o:_00149_DS_=0x5fa
000005f2 fa20                 INCR 0x5f, 0x1
000005f3 decc                 MOVIA 0x33
000005f4 fba0                 SUBAR 0x5f, 0x0
000005f5 f7fc                 BTRSS 0x3, 0x0
000005f6 c203                 LGOTO 0x5fc; main.o:_00150_DS_=0x5fc
000005f7 decc                 MOVIA 0x33
000005f8 ff20                 MOVAR 0x5f
000005f9 c203                 LGOTO 0x5fc; main.o:_00150_DS_=0x5fc
000005fa                      main.o:_00149_DS_:
000005fa e0fc                 BCR 0x3, 0x6
000005fb fd20                 CLRR 0x5f
000005fc                      main.o:_00150_DS_:
000005fc e0fc                 BCR 0x3, 0x6
000005fd f57a                 BTRSS 0x5, 0x5
000005fe c1f8                 LGOTO 0x607; main.o:_00154_DS_=0x607
000005ff fa21                 INCR 0x5e, 0x1
00000600 decc                 MOVIA 0x33
00000601 fba1                 SUBAR 0x5e, 0x0
00000602 f7fc                 BTRSS 0x3, 0x0
00000603 c1f6                 LGOTO 0x609; main.o:_00155_DS_=0x609
00000604 decc                 MOVIA 0x33
00000605 ff21                 MOVAR 0x5e
00000606 c1f6                 LGOTO 0x609; main.o:_00155_DS_=0x609
00000607                      main.o:_00154_DS_:
00000607 e0fc                 BCR 0x3, 0x6
00000608 fd21                 CLRR 0x5e
00000609                      main.o:_00155_DS_:
00000609 e0fc                 BCR 0x3, 0x6
0000060a f47a                 BTRSS 0x5, 0x7
0000060b c1eb                 LGOTO 0x614; main.o:_00159_DS_=0x614
0000060c fa1f                 INCR 0x60, 0x1
0000060d decc                 MOVIA 0x33
0000060e fb9f                 SUBAR 0x60, 0x0
0000060f f7fc                 BTRSS 0x3, 0x0
00000610 c1e9                 LGOTO 0x616; main.o:_00161_DS_=0x616
00000611 decc                 MOVIA 0x33
00000612 ff1f                 MOVAR 0x60
00000613 c1e9                 LGOTO 0x616; main.o:_00161_DS_=0x616
00000614                      main.o:_00159_DS_:
00000614 e0fc                 BCR 0x3, 0x6
00000615 fd1f                 CLRR 0x60
00000616                      main.o:_00161_DS_:
00000616 ffef                 RET
00000617                      ___cinit_load__:
