00000000 c7fe                 LGOTO 0x1; crt0.o:initial_ram_cinit=0x1
00000001                      crt0.o:initial_ram_cinit:
00000001 d427                 LCALL 0x3d8; ___cinit_load__=0x3d8
00000002 c7ac                 LGOTO 0x53; _main=0x53
00000003                      main.o:_00606_DS_:
00000003 f56f                 BTRSS 0x10, 0x5
00000004 c7fc                 LGOTO 0x3; main.o:_00606_DS_=0x3
00000005 ffef                 RET
00000006                      _LEDLOFF:
00000006 e27a                 BCR 0x5, 0x3
00000007 ffef                 RET
00000008 c7f6                 LGOTO 0x9; main.o:__sdcc_interrupt=0x9
00000009                      main.o:__sdcc_interrupt:
00000009 ff3d                 MOVAR 0x42
0000000a eafc                 SWAPR 0x3, 0x0
0000000b fd7c                 CLRR 0x3
0000000c ff3e                 MOVAR 0x41
0000000d fef5                 MOVR 0xa, 0x0
0000000e fd75                 CLRR 0xa
0000000f ff3f                 MOVAR 0x40
00000010 fefb                 MOVR 0x4, 0x0
00000011 ff4b                 MOVAR 0x34
00000012 feba                 MOVR 0x45, 0x0
00000013 ff4a                 MOVAR 0x35
00000014 febb                 MOVR 0x44, 0x0
00000015 ff49                 MOVAR 0x36
00000016 f7f0                 BTRSS 0xf, 0x0
00000017 c7bf                 LGOTO 0x40; main.o:_00119_DS_=0x40
00000018 dec8                 MOVIA 0x37
00000019 fc7e                 ADDAR 0x1, 0x1
0000001a fa45                 INCR 0x3a, 0x1
0000001b de9b                 MOVIA 0x64
0000001c fbc5                 SUBAR 0x3a, 0x0
0000001d f7fc                 BTRSS 0x3, 0x0
0000001e c7bf                 LGOTO 0x40; main.o:_00119_DS_=0x40
0000001f e7c8                 BSR 0x37, 0x0
00000020 fd45                 CLRR 0x3a
00000021 fec2                 MOVR 0x3d, 0x0
00000022 f2fc                 BTRSC 0x3, 0x2
00000023 c7d8                 LGOTO 0x27; main.o:_00106_DS_=0x27
00000024 fa39                 INCR 0x46, 0x1
00000025 f2fc                 BTRSC 0x3, 0x2
00000026 fa38                 INCR 0x47, 0x1
00000027                      main.o:_00106_DS_:
00000027 fa44                 INCR 0x3b, 0x1
00000028 ded7                 MOVIA 0x28
00000029 fbc4                 SUBAR 0x3b, 0x0
0000002a f3fc                 BTRSC 0x3, 0x0
0000002b fd44                 CLRR 0x3b
0000002c fa2e                 INCR 0x51, 0x1
0000002d deeb                 MOVIA 0x14
0000002e fbae                 SUBAR 0x51, 0x0
0000002f f3fc                 BTRSC 0x3, 0x0
00000030 fd2e                 CLRR 0x51
00000031 fa2d                 INCR 0x52, 0x1
00000032 de9b                 MOVIA 0x64
00000033 fbad                 SUBAR 0x52, 0x0
00000034 f7fc                 BTRSS 0x3, 0x0
00000035 c7bf                 LGOTO 0x40; main.o:_00119_DS_=0x40
00000036 fd2d                 CLRR 0x52
00000037 fec2                 MOVR 0x3d, 0x0
00000038 f2fc                 BTRSC 0x3, 0x2
00000039                      ___cinit_size__:
00000039 c7c1                 LGOTO 0x3e; main.o:_00112_DS_=0x3e
0000003a fa2c                 INCR 0x53, 0x1
0000003b f2fc                 BTRSC 0x3, 0x2
0000003c fa2b                 INCR 0x54, 0x1
0000003d c7bf                 LGOTO 0x40; main.o:_00119_DS_=0x40
0000003e                      main.o:_00112_DS_:
0000003e fd2c                 CLRR 0x53
0000003f fd2b                 CLRR 0x54
00000040                      main.o:_00119_DS_:
00000040 f770                 BTRSS 0xf, 0x1
00000041 c7bb                 LGOTO 0x44; main.o:_00121_DS_=0x44
00000042 de02                 MOVIA 0xfd
00000043 ff70                 MOVAR 0xf
00000044                      main.o:_00121_DS_:
00000044 fd70                 CLRR 0xf
00000045 fec9                 MOVR 0x36, 0x0
00000046 ff3b                 MOVAR 0x44
00000047 feca                 MOVR 0x35, 0x0
00000048 ff3a                 MOVAR 0x45
00000049 fecb                 MOVR 0x34, 0x0
0000004a ff7b                 MOVAR 0x4
0000004b febf                 MOVR 0x40, 0x0
0000004c ff75                 MOVAR 0xa
0000004d fd7c                 CLRR 0x3
0000004e eabe                 SWAPR 0x41, 0x0
0000004f ff7c                 MOVAR 0x3
00000050 ea3d                 SWAPR 0x42, 0x1
00000051 eabd                 SWAPR 0x42, 0x0
00000052                      main.o:END_OF_INTERRUPT:
00000052 ffee                 RETIE
00000053                      _main:
00000053 d458                 LCALL 0x3a7; _initSys=0x3a7
00000054 d62f                 LCALL 0x1d0; _initAD=0x1d0
00000055                      main.o:_00159_DS_:
00000055 d470                 LCALL 0x38f; _ledShow=0x38f
00000056 fffd                 CLRWDT
00000057 d43d                 LCALL 0x3c2; _fgCtr=0x3c2
00000058 f7c8                 BTRSS 0x37, 0x0
00000059 c7aa                 LGOTO 0x55; main.o:_00159_DS_=0x55
0000005a e3c8                 BCR 0x37, 0x0
0000005b f57a                 BTRSS 0x5, 0x5
0000005c d5b1                 LCALL 0x24e; _keyCtr=0x24e
0000005d feae                 MOVR 0x51, 0x0
0000005e f6fc                 BTRSS 0x3, 0x2
0000005f c79d                 LGOTO 0x62; main.o:_00131_DS_=0x62
00000060 d703                 LCALL 0xfc; _checkBatAD=0xfc
00000061 d54d                 LCALL 0x2b2; _ledCtr=0x2b2
00000062                      main.o:_00131_DS_:
00000062 fec4                 MOVR 0x3b, 0x0
00000063 f6fc                 BTRSS 0x3, 0x2
00000064 c78b                 LGOTO 0x74; main.o:_00139_DS_=0x74
00000065 d61a                 LCALL 0x1e5; _chrgCtr=0x1e5
00000066 fea8                 MOVR 0x57, 0x0
00000067 dbfe                 XORIA 0x1
00000068 f2fc                 BTRSC 0x3, 0x2
00000069 c78d                 LGOTO 0x72; main.o:_00134_DS_=0x72
0000006a fea8                 MOVR 0x57, 0x0
0000006b dbfc                 XORIA 0x3
0000006c f2fc                 BTRSC 0x3, 0x2
0000006d c78d                 LGOTO 0x72; main.o:_00134_DS_=0x72
0000006e fea8                 MOVR 0x57, 0x0
0000006f dbfb                 XORIA 0x4
00000070 f6fc                 BTRSS 0x3, 0x2
00000071 c78b                 LGOTO 0x74; main.o:_00139_DS_=0x74
00000072                      main.o:_00134_DS_:
00000072 f648                 BTRSS 0x37, 0x3
00000073 d527                 LCALL 0x2d8; _LedCtr2=0x2d8
00000074                      main.o:_00139_DS_:
00000074 fec2                 MOVR 0x3d, 0x0
00000075 f6fc                 BTRSS 0x3, 0x2
00000076 d4e1                 LCALL 0x31e; _workCtr=0x31e
00000077 fec2                 MOVR 0x3d, 0x0
00000078 f6fc                 BTRSS 0x3, 0x2
00000079 c771                 LGOTO 0x8e; main.o:_00145_DS_=0x8e
0000007a fec3                 MOVR 0x3c, 0x0
0000007b f6fc                 BTRSS 0x3, 0x2
0000007c c771                 LGOTO 0x8e; main.o:_00145_DS_=0x8e
0000007d fea8                 MOVR 0x57, 0x0
0000007e f6fc                 BTRSS 0x3, 0x2
0000007f c771                 LGOTO 0x8e; main.o:_00145_DS_=0x8e
00000080 f17a                 BTRSC 0x5, 0x5
00000081 c771                 LGOTO 0x8e; main.o:_00145_DS_=0x8e
00000082 fa30                 INCR 0x4f, 0x1
00000083 f2fc                 BTRSC 0x3, 0x2
00000084 fa2f                 INCR 0x50, 0x1
00000085 def8                 MOVIA 0x7
00000086 fbaf                 SUBAR 0x50, 0x0
00000087 f6fc                 BTRSS 0x3, 0x2
00000088 c774                 LGOTO 0x8b; main.o:_00219_DS_=0x8b
00000089 de2e                 MOVIA 0xd1
0000008a fbb0                 SUBAR 0x4f, 0x0
0000008b                      main.o:_00219_DS_:
0000008b f7fc                 BTRSS 0x3, 0x0
0000008c c771                 LGOTO 0x8e; main.o:_00145_DS_=0x8e
0000008d d5d5                 LCALL 0x22a; _gotoSleep=0x22a
0000008e                      main.o:_00145_DS_:
0000008e defc                 MOVIA 0x3
0000008f fbab                 SUBAR 0x54, 0x0
00000090 f6fc                 BTRSS 0x3, 0x2
00000091 c76b                 LGOTO 0x94; main.o:_00220_DS_=0x94
00000092 de7b                 MOVIA 0x84
00000093 fbac                 SUBAR 0x53, 0x0
00000094                      main.o:_00220_DS_:
00000094 f7fc                 BTRSS 0x3, 0x0
00000095 c768                 LGOTO 0x97; main.o:_00150_DS_=0x97
00000096 d5ba                 LCALL 0x245; _powerOff=0x245
00000097                      main.o:_00150_DS_:
00000097 deff                 MOVIA 0x0
00000098 fbb6                 SUBAR 0x49, 0x0
00000099 f6fc                 BTRSS 0x3, 0x2
0000009a c762                 LGOTO 0x9d; main.o:_00221_DS_=0x9d
0000009b de9a                 MOVIA 0x65
0000009c fbb7                 SUBAR 0x48, 0x0
0000009d                      main.o:_00221_DS_:
0000009d f3fc                 BTRSC 0x3, 0x0
0000009e c758                 LGOTO 0xa7; main.o:_00155_DS_=0xa7
0000009f deff                 MOVIA 0x0
000000a0 fbb8                 SUBAR 0x47, 0x0
000000a1 f6fc                 BTRSS 0x3, 0x2
000000a2 c75a                 LGOTO 0xa5; main.o:_00222_DS_=0xa5
000000a3 de9a                 MOVIA 0x65
000000a4 fbb9                 SUBAR 0x46, 0x0
000000a5                      main.o:_00222_DS_:
000000a5 f7fc                 BTRSS 0x3, 0x0
000000a6 c7aa                 LGOTO 0x55; main.o:_00159_DS_=0x55
000000a7                      main.o:_00155_DS_:
000000a7 deff                 MOVIA 0x0
000000a8 fbb8                 SUBAR 0x47, 0x0
000000a9 f6fc                 BTRSS 0x3, 0x2
000000aa c752                 LGOTO 0xad; main.o:_00223_DS_=0xad
000000ab de68                 MOVIA 0x97
000000ac fbb9                 SUBAR 0x46, 0x0
000000ad                      main.o:_00223_DS_:
000000ad f7fc                 BTRSS 0x3, 0x0
000000ae c748                 LGOTO 0xb7; main.o:_00152_DS_=0xb7
000000af d4b6                 LCALL 0x349; _pwmStop=0x349
000000b0 e379                 BCR 0x6, 0x1
000000b1 fd37                 CLRR 0x48
000000b2 fd36                 CLRR 0x49
000000b3 fd39                 CLRR 0x46
000000b4 fd38                 CLRR 0x47
000000b5 de9b                 MOVIA 0x64
000000b6 d624                 LCALL 0x1db; _delay=0x1db
000000b7                      main.o:_00152_DS_:
000000b7 fa30                 INCR 0x4f, 0x1
000000b8 f2fc                 BTRSC 0x3, 0x2
000000b9 fa2f                 INCR 0x50, 0x1
000000ba def8                 MOVIA 0x7
000000bb fbaf                 SUBAR 0x50, 0x0
000000bc f6fc                 BTRSS 0x3, 0x2
000000bd c73f                 LGOTO 0xc0; main.o:_00224_DS_=0xc0
000000be de2e                 MOVIA 0xd1
000000bf fbb0                 SUBAR 0x4f, 0x0
000000c0                      main.o:_00224_DS_:
000000c0 f7fc                 BTRSS 0x3, 0x0
000000c1 c7aa                 LGOTO 0x55; main.o:_00159_DS_=0x55
000000c2 d4b6                 LCALL 0x349; _pwmStop=0x349
000000c3 e379                 BCR 0x6, 0x1
000000c4 de9f                 MOVIA 0x60
000000c5 ff6a                 MOVAR 0x15
000000c6 fd37                 CLRR 0x48
000000c7 fd36                 CLRR 0x49
000000c8 fd39                 CLRR 0x46
000000c9 fd38                 CLRR 0x47
000000ca def4                 MOVIA 0xb
000000cb ff71                 MOVAR 0xe
000000cc def7                 MOVIA 0x8
000000cd ff77                 MOVAR 0x8
000000ce fd70                 CLRR 0xf
000000cf fffd                 CLRWDT
000000d0 fffb                 ENI
000000d1 fffe                 SLEEP
000000d2 fd6a                 CLRR 0x15
000000d3 defe                 MOVIA 0x1
000000d4 ff71                 MOVAR 0xe
000000d5 fd70                 CLRR 0xf
000000d6 de57                 MOVIA 0xa8
000000d7 ff77                 MOVAR 0x8
000000d8 c7aa                 LGOTO 0x55; main.o:_00159_DS_=0x55
000000d9 ffef                 RET
000000da                      _F_AIN5_Convert:
000000da ff4f                 MOVAR 0x30
000000db fd5d                 CLRR 0x22
000000dc fd5f                 CLRR 0x20
000000dd fd5e                 CLRR 0x21
000000de de6b                 MOVIA 0x94
000000df ff6f                 MOVAR 0x10
000000e0 de37                 MOVIA 0xc8
000000e1 d624                 LCALL 0x1db; _delay=0x1db
000000e2 defe                 MOVIA 0x1
000000e3 ff4e                 MOVAR 0x31
000000e4                      main.o:_00599_DS_:
000000e4 fece                 MOVR 0x31, 0x0
000000e5 fbcf                 SUBAR 0x30, 0x0
000000e6 f7fc                 BTRSS 0x3, 0x0
000000e7 c704                 LGOTO 0xfb; main.o:_00601_DS_=0xfb
000000e8 e4ef                 BSR 0x10, 0x6
000000e9 d7fc                 LCALL 0x3; main.o:_00606_DS_=0x3
000000ea def0                 MOVIA 0xf
000000eb efee                 ANDAR 0x11, 0x0
000000ec fc5d                 ADDAR 0x22, 0x1
000000ed feed                 MOVR 0x12, 0x0
000000ee ff4d                 MOVAR 0x32
000000ef deff                 MOVIA 0x0
000000f0 ff4c                 MOVAR 0x33
000000f1 fecd                 MOVR 0x32, 0x0
000000f2 fc5f                 ADDAR 0x20, 0x1
000000f3 fecc                 MOVR 0x33, 0x0
000000f4 f3fc                 BTRSC 0x3, 0x0
000000f5 facc                 INCR 0x33, 0x0
000000f6 f2fc                 BTRSC 0x3, 0x2
000000f7 c706                 LGOTO 0xf9; main.o:_00001_DS_=0xf9
000000f8 fc5e                 ADDAR 0x21, 0x1
000000f9                      main.o:_00001_DS_:
000000f9 fa4e                 INCR 0x31, 0x1
000000fa c71b                 LGOTO 0xe4; main.o:_00599_DS_=0xe4
000000fb                      main.o:_00601_DS_:
000000fb ffef                 RET
000000fc                      _checkBatAD:
000000fc fd5d                 CLRR 0x22
000000fd fd5f                 CLRR 0x20
000000fe fd5e                 CLRR 0x21
000000ff def7                 MOVIA 0x8
00000100 d725                 LCALL 0xda; _F_AIN5_Convert=0xda
00000101 eade                 SWAPR 0x21, 0x0
00000102 dd0f                 ANDIA 0xf0
00000103 ff5e                 MOVAR 0x21
00000104 eadf                 SWAPR 0x20, 0x0
00000105 ff5f                 MOVAR 0x20
00000106 ddf0                 ANDIA 0xf
00000107 ee5e                 IORAR 0x21, 0x1
00000108 ed5f                 XORAR 0x20, 0x1
00000109 de0f                 MOVIA 0xf0
0000010a ef5d                 ANDAR 0x22, 0x1
0000010b fedd                 MOVR 0x22, 0x0
0000010c ff51                 MOVAR 0x2e
0000010d deff                 MOVIA 0x0
0000010e ff50                 MOVAR 0x2f
0000010f fed1                 MOVR 0x2e, 0x0
00000110 fc5f                 ADDAR 0x20, 0x1
00000111 fed0                 MOVR 0x2f, 0x0
00000112 f3fc                 BTRSC 0x3, 0x0
00000113 fad0                 INCR 0x2f, 0x0
00000114 f2fc                 BTRSC 0x3, 0x2
00000115 c6e8                 LGOTO 0x117; main.o:_00002_DS_=0x117
00000116 fc5e                 ADDAR 0x21, 0x1
00000117                      main.o:_00002_DS_:
00000117 e3fc                 BCR 0x3, 0x0
00000118 ec5e                 RRR 0x21, 0x1
00000119 ec5f                 RRR 0x20, 0x1
0000011a e3fc                 BCR 0x3, 0x0
0000011b ec5e                 RRR 0x21, 0x1
0000011c ec5f                 RRR 0x20, 0x1
0000011d e3fc                 BCR 0x3, 0x0
0000011e ec5e                 RRR 0x21, 0x1
0000011f ec5f                 RRR 0x20, 0x1
00000120 def9                 MOVIA 0x6
00000121 fbde                 SUBAR 0x21, 0x0
00000122 f6fc                 BTRSS 0x3, 0x2
00000123 c6d9                 LGOTO 0x126; main.o:_00580_DS_=0x126
00000124 deeb                 MOVIA 0x14
00000125 fbdf                 SUBAR 0x20, 0x0
00000126                      main.o:_00580_DS_:
00000126 f7fc                 BTRSS 0x3, 0x0
00000127 c6d2                 LGOTO 0x12d; main.o:_00486_DS_=0x12d
00000128 deec                 MOVIA 0x13
00000129 ff5f                 MOVAR 0x20
0000012a def9                 MOVIA 0x6
0000012b ff5e                 MOVAR 0x21
0000012c c6c6                 LGOTO 0x139; main.o:_00487_DS_=0x139
0000012d                      main.o:_00486_DS_:
0000012d defb                 MOVIA 0x4
0000012e fbde                 SUBAR 0x21, 0x0
0000012f f6fc                 BTRSS 0x3, 0x2
00000130 c6cc                 LGOTO 0x133; main.o:_00581_DS_=0x133
00000131 dea2                 MOVIA 0x5d
00000132 fbdf                 SUBAR 0x20, 0x0
00000133                      main.o:_00581_DS_:
00000133 f3fc                 BTRSC 0x3, 0x0
00000134 c6c6                 LGOTO 0x139; main.o:_00487_DS_=0x139
00000135 dea2                 MOVIA 0x5d
00000136 ff5f                 MOVAR 0x20
00000137 defb                 MOVIA 0x4
00000138 ff5e                 MOVAR 0x21
00000139                      main.o:_00487_DS_:
00000139 de5c                 MOVIA 0xa3
0000013a fc5f                 ADDAR 0x20, 0x1
0000013b de04                 MOVIA 0xfb
0000013c f3fc                 BTRSC 0x3, 0x0
0000013d de03                 MOVIA 0xfc
0000013e fc5e                 ADDAR 0x21, 0x1
0000013f defe                 MOVIA 0x1
00000140 fbde                 SUBAR 0x21, 0x0
00000141 f6fc                 BTRSS 0x3, 0x2
00000142 c6ba                 LGOTO 0x145; main.o:_00582_DS_=0x145
00000143 de51                 MOVIA 0xae
00000144 fbdf                 SUBAR 0x20, 0x0
00000145                      main.o:_00582_DS_:
00000145 f7fc                 BTRSS 0x3, 0x0
00000146 c6b5                 LGOTO 0x14a; main.o:_00522_DS_=0x14a
00000147 def9                 MOVIA 0x6
00000148 ff34                 MOVAR 0x4b
00000149 c630                 LGOTO 0x1cf; main.o:_00003_DS_=0x1cf
0000014a                      main.o:_00522_DS_:
0000014a defe                 MOVIA 0x1
0000014b fbde                 SUBAR 0x21, 0x0
0000014c f6fc                 BTRSS 0x3, 0x2
0000014d c6af                 LGOTO 0x150; main.o:_00583_DS_=0x150
0000014e de74                 MOVIA 0x8b
0000014f fbdf                 SUBAR 0x20, 0x0
00000150                      main.o:_00583_DS_:
00000150 f7fc                 BTRSS 0x3, 0x0
00000151 c682                 LGOTO 0x17d; main.o:_00519_DS_=0x17d
00000152 feb4                 MOVR 0x4b, 0x0
00000153 dbf9                 XORIA 0x6
00000154 f6fc                 BTRSS 0x3, 0x2
00000155 c69e                 LGOTO 0x161; main.o:_00491_DS_=0x161
00000156 defe                 MOVIA 0x1
00000157 fbde                 SUBAR 0x21, 0x0
00000158 f6fc                 BTRSS 0x3, 0x2
00000159 c6a3                 LGOTO 0x15c; main.o:_00584_DS_=0x15c
0000015a de6a                 MOVIA 0x95
0000015b fbdf                 SUBAR 0x20, 0x0
0000015c                      main.o:_00584_DS_:
0000015c f3fc                 BTRSC 0x3, 0x0
0000015d c69c                 LGOTO 0x163; main.o:_00492_DS_=0x163
0000015e defa                 MOVIA 0x5
0000015f ff34                 MOVAR 0x4b
00000160 c69c                 LGOTO 0x163; main.o:_00492_DS_=0x163
00000161                      main.o:_00491_DS_:
00000161 defa                 MOVIA 0x5
00000162 ff34                 MOVAR 0x4b
00000163                      main.o:_00492_DS_:
00000163 defe                 MOVIA 0x1
00000164 fbde                 SUBAR 0x21, 0x0
00000165 f6fc                 BTRSS 0x3, 0x2
00000166 c696                 LGOTO 0x169; main.o:_00585_DS_=0x169
00000167 de64                 MOVIA 0x9b
00000168 fbdf                 SUBAR 0x20, 0x0
00000169                      main.o:_00585_DS_:
00000169 f7fc                 BTRSS 0x3, 0x0
0000016a c630                 LGOTO 0x1cf; main.o:_00003_DS_=0x1cf
0000016b fa33                 INCR 0x4c, 0x1
0000016c f2fc                 BTRSC 0x3, 0x2
0000016d fa32                 INCR 0x4d, 0x1
0000016e def8                 MOVIA 0x7
0000016f fbb2                 SUBAR 0x4d, 0x0
00000170 f6fc                 BTRSS 0x3, 0x2
00000171 c68b                 LGOTO 0x174; main.o:_00586_DS_=0x174
00000172 def6                 MOVIA 0x9
00000173 fbb3                 SUBAR 0x4c, 0x0
00000174                      main.o:_00586_DS_:
00000174 f7fc                 BTRSS 0x3, 0x0
00000175 c630                 LGOTO 0x1cf; main.o:_00003_DS_=0x1cf
00000176 def7                 MOVIA 0x8
00000177 ff33                 MOVAR 0x4c
00000178 def8                 MOVIA 0x7
00000179 ff32                 MOVAR 0x4d
0000017a def9                 MOVIA 0x6
0000017b ff34                 MOVAR 0x4b
0000017c c630                 LGOTO 0x1cf; main.o:_00003_DS_=0x1cf
0000017d                      main.o:_00519_DS_:
0000017d deff                 MOVIA 0x0
0000017e fbde                 SUBAR 0x21, 0x0
0000017f f6fc                 BTRSS 0x3, 0x2
00000180 c67c                 LGOTO 0x183; main.o:_00587_DS_=0x183
00000181 de1f                 MOVIA 0xe0
00000182 fbdf                 SUBAR 0x20, 0x0
00000183                      main.o:_00587_DS_:
00000183 f7fc                 BTRSS 0x3, 0x0
00000184 c675                 LGOTO 0x18a; main.o:_00516_DS_=0x18a
00000185 defb                 MOVIA 0x4
00000186 ff34                 MOVAR 0x4b
00000187 fd33                 CLRR 0x4c
00000188 fd32                 CLRR 0x4d
00000189 c630                 LGOTO 0x1cf; main.o:_00003_DS_=0x1cf
0000018a                      main.o:_00516_DS_:
0000018a deff                 MOVIA 0x0
0000018b fbde                 SUBAR 0x21, 0x0
0000018c f6fc                 BTRSS 0x3, 0x2
0000018d c66f                 LGOTO 0x190; main.o:_00588_DS_=0x190
0000018e de69                 MOVIA 0x96
0000018f fbdf                 SUBAR 0x20, 0x0
00000190                      main.o:_00588_DS_:
00000190 f7fc                 BTRSS 0x3, 0x0
00000191 c668                 LGOTO 0x197; main.o:_00513_DS_=0x197
00000192 defc                 MOVIA 0x3
00000193 ff34                 MOVAR 0x4b
00000194 fd33                 CLRR 0x4c
00000195 fd32                 CLRR 0x4d
00000196 c630                 LGOTO 0x1cf; main.o:_00003_DS_=0x1cf
00000197                      main.o:_00513_DS_:
00000197 deff                 MOVIA 0x0
00000198 fbde                 SUBAR 0x21, 0x0
00000199 f6fc                 BTRSS 0x3, 0x2
0000019a c662                 LGOTO 0x19d; main.o:_00589_DS_=0x19d
0000019b dea1                 MOVIA 0x5e
0000019c fbdf                 SUBAR 0x20, 0x0
0000019d                      main.o:_00589_DS_:
0000019d f7fc                 BTRSS 0x3, 0x0
0000019e c654                 LGOTO 0x1ab; main.o:_00510_DS_=0x1ab
0000019f defd                 MOVIA 0x2
000001a0 ff34                 MOVAR 0x4b
000001a1 fd33                 CLRR 0x4c
000001a2 fd32                 CLRR 0x4d
000001a3 fea8                 MOVR 0x57, 0x0
000001a4 dbfb                 XORIA 0x4
000001a5 f6fc                 BTRSS 0x3, 0x2
000001a6 c630                 LGOTO 0x1cf; main.o:_00003_DS_=0x1cf
000001a7 fd28                 CLRR 0x57
000001a8 d42d                 LCALL 0x3d2; _LEDHOFF=0x3d2
000001a9 d7f9                 LCALL 0x6; _LEDLOFF=0x6
000001aa c630                 LGOTO 0x1cf; main.o:_00003_DS_=0x1cf
000001ab                      main.o:_00510_DS_:
000001ab feb4                 MOVR 0x4b, 0x0
000001ac f2fc                 BTRSC 0x3, 0x2
000001ad c648                 LGOTO 0x1b7; main.o:_00505_DS_=0x1b7
000001ae feb4                 MOVR 0x4b, 0x0
000001af dbfe                 XORIA 0x1
000001b0 f2fc                 BTRSC 0x3, 0x2
000001b1 c648                 LGOTO 0x1b7; main.o:_00505_DS_=0x1b7
000001b2 fa2a                 INCR 0x55, 0x1
000001b3 def4                 MOVIA 0xb
000001b4 fbaa                 SUBAR 0x55, 0x0
000001b5 f7fc                 BTRSS 0x3, 0x0
000001b6 c630                 LGOTO 0x1cf; main.o:_00003_DS_=0x1cf
000001b7                      main.o:_00505_DS_:
000001b7 fd2a                 CLRR 0x55
000001b8 defe                 MOVIA 0x1
000001b9 ff34                 MOVAR 0x4b
000001ba fd33                 CLRR 0x4c
000001bb fd32                 CLRR 0x4d
000001bc fec2                 MOVR 0x3d, 0x0
000001bd f2fc                 BTRSC 0x3, 0x2
000001be c630                 LGOTO 0x1cf; main.o:_00003_DS_=0x1cf
000001bf deff                 MOVIA 0x0
000001c0 fbb6                 SUBAR 0x49, 0x0
000001c1 f6fc                 BTRSS 0x3, 0x2
000001c2 c63a                 LGOTO 0x1c5; main.o:_00592_DS_=0x1c5
000001c3 de9b                 MOVIA 0x64
000001c4 fbb7                 SUBAR 0x48, 0x0
000001c5                      main.o:_00592_DS_:
000001c5 f3fc                 BTRSC 0x3, 0x0
000001c6 c630                 LGOTO 0x1cf; main.o:_00003_DS_=0x1cf
000001c7 fea8                 MOVR 0x57, 0x0
000001c8 f6fc                 BTRSS 0x3, 0x2
000001c9 c630                 LGOTO 0x1cf; main.o:_00003_DS_=0x1cf
000001ca defb                 MOVIA 0x4
000001cb ff28                 MOVAR 0x57
000001cc f2c8                 BTRSC 0x37, 0x2
000001cd c630                 LGOTO 0x1cf; main.o:_00003_DS_=0x1cf
000001ce fd31                 CLRR 0x4e
000001cf                      main.o:_00003_DS_:
000001cf ffef                 RET
000001d0                      _initAD:
000001d0 de7b                 MOVIA 0x84
000001d1 ff6f                 MOVAR 0x10
000001d2 fd6c                 CLRR 0x13
000001d3 deef                 MOVIA 0x10
000001d4 ff6e                 MOVAR 0x11
000001d5 defc                 MOVIA 0x3
000001d6 ff6b                 MOVAR 0x14
000001d7 e5ef                 BSR 0x10, 0x4
000001d8 de9b                 MOVIA 0x64
000001d9 d624                 LCALL 0x1db; _delay=0x1db
000001da ffef                 RET
000001db                      _delay:
000001db ff53                 MOVAR 0x2c
000001dc fd52                 CLRR 0x2d
000001dd                      main.o:_00472_DS_:
000001dd fed3                 MOVR 0x2c, 0x0
000001de fbd2                 SUBAR 0x2d, 0x0
000001df f3fc                 BTRSC 0x3, 0x0
000001e0 c61b                 LGOTO 0x1e4; main.o:_00474_DS_=0x1e4
000001e1 ffff                 NOP
000001e2 fa52                 INCR 0x2d, 0x1
000001e3 c622                 LGOTO 0x1dd; main.o:_00472_DS_=0x1dd
000001e4                      main.o:_00474_DS_:
000001e4 ffef                 RET
000001e5                      _chrgCtr:
000001e5 f57a                 BTRSS 0x5, 0x5
000001e6 c600                 LGOTO 0x1ff; main.o:_00463_DS_=0x1ff
000001e7 e648                 BSR 0x37, 0x3
000001e8 fd28                 CLRR 0x57
000001e9 fd42                 CLRR 0x3d
000001ea fd41                 CLRR 0x3e
000001eb d4b6                 LCALL 0x349; _pwmStop=0x349
000001ec d47f                 LCALL 0x380; _LedInput=0x380
000001ed e379                 BCR 0x6, 0x1
000001ee def9                 MOVIA 0x6
000001ef fbb4                 SUBAR 0x4b, 0x0
000001f0 f7fc                 BTRSS 0x3, 0x0
000001f1 c60a                 LGOTO 0x1f5; main.o:_00458_DS_=0x1f5
000001f2 d7f9                 LCALL 0x6; _LEDLOFF=0x6
000001f3 d429                 LCALL 0x3d6; _LEDHON=0x3d6
000001f4 c5f8                 LGOTO 0x207; main.o:_00465_DS_=0x207
000001f5                      main.o:_00458_DS_:
000001f5 feb4                 MOVR 0x4b, 0x0
000001f6 dbf9                 XORIA 0x6
000001f7 f6fc                 BTRSS 0x3, 0x2
000001f8 c604                 LGOTO 0x1fb; main.o:_00456_DS_=0x1fb
000001f9 defa                 MOVIA 0x5
000001fa ff34                 MOVAR 0x4b
000001fb                      main.o:_00456_DS_:
000001fb d42d                 LCALL 0x3d2; _LEDHOFF=0x3d2
000001fc def7                 MOVIA 0x8
000001fd ed7a                 XORAR 0x5, 0x1
000001fe c5f8                 LGOTO 0x207; main.o:_00465_DS_=0x207
000001ff                      main.o:_00463_DS_:
000001ff e248                 BCR 0x37, 0x3
00000200 fd33                 CLRR 0x4c
00000201 fd32                 CLRR 0x4d
00000202 fea8                 MOVR 0x57, 0x0
00000203 f6fc                 BTRSS 0x3, 0x2
00000204 c5f8                 LGOTO 0x207; main.o:_00465_DS_=0x207
00000205 d42d                 LCALL 0x3d2; _LEDHOFF=0x3d2
00000206 d7f9                 LCALL 0x6; _LEDLOFF=0x6
00000207                      main.o:_00465_DS_:
00000207 ffef                 RET
00000208                      _keyRead:
00000208 ff54                 MOVAR 0x2b
00000209 fed4                 MOVR 0x2b, 0x0
0000020a f2fc                 BTRSC 0x3, 0x2
0000020b c5e7                 LGOTO 0x218; main.o:_00448_DS_=0x218
0000020c fa43                 INCR 0x3c, 0x1
0000020d de9b                 MOVIA 0x64
0000020e fbc3                 SUBAR 0x3c, 0x0
0000020f f7fc                 BTRSS 0x3, 0x0
00000210 c5d7                 LGOTO 0x228; main.o:_00449_DS_=0x228
00000211 de9b                 MOVIA 0x64
00000212 ff43                 MOVAR 0x3c
00000213 f348                 BTRSC 0x37, 0x1
00000214 c5d7                 LGOTO 0x228; main.o:_00449_DS_=0x228
00000215 e748                 BSR 0x37, 0x1
00000216 defd                 MOVIA 0x2
00000217 c5d6                 LGOTO 0x229; main.o:_00450_DS_=0x229
00000218                      main.o:_00448_DS_:
00000218 de9b                 MOVIA 0x64
00000219 fbc3                 SUBAR 0x3c, 0x0
0000021a f7fc                 BTRSS 0x3, 0x0
0000021b c5df                 LGOTO 0x220; main.o:_00445_DS_=0x220
0000021c fd43                 CLRR 0x3c
0000021d e348                 BCR 0x37, 0x1
0000021e deff                 MOVIA 0x0
0000021f c5d6                 LGOTO 0x229; main.o:_00450_DS_=0x229
00000220                      main.o:_00445_DS_:
00000220 def7                 MOVIA 0x8
00000221 fbc3                 SUBAR 0x3c, 0x0
00000222 f7fc                 BTRSS 0x3, 0x0
00000223 c5d8                 LGOTO 0x227; main.o:_00446_DS_=0x227
00000224 fd43                 CLRR 0x3c
00000225 defe                 MOVIA 0x1
00000226 c5d6                 LGOTO 0x229; main.o:_00450_DS_=0x229
00000227                      main.o:_00446_DS_:
00000227 fd43                 CLRR 0x3c
00000228                      main.o:_00449_DS_:
00000228 deff                 MOVIA 0x0
00000229                      main.o:_00450_DS_:
00000229 ffef                 RET
0000022a                      _gotoSleep:
0000022a d47f                 LCALL 0x380; _LedInput=0x380
0000022b fd30                 CLRR 0x4f
0000022c fd2f                 CLRR 0x50
0000022d d4b6                 LCALL 0x349; _pwmStop=0x349
0000022e fd42                 CLRR 0x3d
0000022f de9f                 MOVIA 0x60
00000230 ff6a                 MOVAR 0x15
00000231 fd37                 CLRR 0x48
00000232 fd36                 CLRR 0x49
00000233 fd39                 CLRR 0x46
00000234 fd38                 CLRR 0x47
00000235 e2c8                 BCR 0x37, 0x2
00000236 def4                 MOVIA 0xb
00000237 ff71                 MOVAR 0xe
00000238 dee7                 MOVIA 0x18
00000239 ff77                 MOVAR 0x8
0000023a fd70                 CLRR 0xf
0000023b fffd                 CLRWDT
0000023c fffb                 ENI
0000023d fffe                 SLEEP
0000023e fd6a                 CLRR 0x15
0000023f defe                 MOVIA 0x1
00000240 ff71                 MOVAR 0xe
00000241 fd70                 CLRR 0xf
00000242 de47                 MOVIA 0xb8
00000243 ff77                 MOVAR 0x8
00000244 ffef                 RET
00000245                      _powerOff:
00000245 fd42                 CLRR 0x3d
00000246 d4b6                 LCALL 0x349; _pwmStop=0x349
00000247 d42d                 LCALL 0x3d2; _LEDHOFF=0x3d2
00000248 d7f9                 LCALL 0x6; _LEDLOFF=0x6
00000249 defa                 MOVIA 0x5
0000024a ff41                 MOVAR 0x3e
0000024b defd                 MOVIA 0x2
0000024c ff28                 MOVAR 0x57
0000024d ffef                 RET
0000024e                      _keyCtr:
0000024e fec2                 MOVR 0x3d, 0x0
0000024f f2fc                 BTRSC 0x3, 0x2
00000250 c5a9                 LGOTO 0x256; main.o:_00398_DS_=0x256
00000251 fea9                 MOVR 0x56, 0x0
00000252 f6fc                 BTRSS 0x3, 0x2
00000253 c5a9                 LGOTO 0x256; main.o:_00398_DS_=0x256
00000254 e779                 BSR 0x6, 0x1
00000255 c5a8                 LGOTO 0x257; main.o:_00399_DS_=0x257
00000256                      main.o:_00398_DS_:
00000256 e379                 BCR 0x6, 0x1
00000257                      main.o:_00399_DS_:
00000257 f8fa                 COMR 0x5, 0x0
00000258 ff55                 MOVAR 0x2a
00000259 debf                 MOVIA 0x40
0000025a ef55                 ANDAR 0x2a, 0x1
0000025b fed5                 MOVR 0x2a, 0x0
0000025c d5f7                 LCALL 0x208; _keyRead=0x208
0000025d ff55                 MOVAR 0x2a
0000025e dbfe                 XORIA 0x1
0000025f f6fc                 BTRSS 0x3, 0x2
00000260 c56a                 LGOTO 0x295; main.o:_00422_DS_=0x295
00000261 fec2                 MOVR 0x3d, 0x0
00000262 f2fc                 BTRSC 0x3, 0x2
00000263 c56a                 LGOTO 0x295; main.o:_00422_DS_=0x295
00000264 fd44                 CLRR 0x3b
00000265 fec2                 MOVR 0x3d, 0x0
00000266 f2fc                 BTRSC 0x3, 0x2
00000267 c58f                 LGOTO 0x270; main.o:_00404_DS_=0x270
00000268 fd29                 CLRR 0x56
00000269 fa42                 INCR 0x3d, 0x1
0000026a defa                 MOVIA 0x5
0000026b fbc2                 SUBAR 0x3d, 0x0
0000026c f7fc                 BTRSS 0x3, 0x0
0000026d c58f                 LGOTO 0x270; main.o:_00404_DS_=0x270
0000026e defe                 MOVIA 0x1
0000026f ff42                 MOVAR 0x3d
00000270                      main.o:_00404_DS_:
00000270 defe                 MOVIA 0x1
00000271 ff47                 MOVAR 0x38
00000272 fd46                 CLRR 0x39
00000273 fd39                 CLRR 0x46
00000274 fd38                 CLRR 0x47
00000275 fd28                 CLRR 0x57
00000276 fec2                 MOVR 0x3d, 0x0
00000277 dbfe                 XORIA 0x1
00000278 f6fc                 BTRSS 0x3, 0x2
00000279 c582                 LGOTO 0x27d; main.o:_00414_DS_=0x27d
0000027a ded9                 MOVIA 0x26
0000027b ff35                 MOVAR 0x4a
0000027c c56e                 LGOTO 0x291; main.o:_00415_DS_=0x291
0000027d                      main.o:_00414_DS_:
0000027d fec2                 MOVR 0x3d, 0x0
0000027e dbfd                 XORIA 0x2
0000027f f6fc                 BTRSS 0x3, 0x2
00000280 c57b                 LGOTO 0x284; main.o:_00411_DS_=0x284
00000281 dee5                 MOVIA 0x1a
00000282 ff35                 MOVAR 0x4a
00000283 c56e                 LGOTO 0x291; main.o:_00415_DS_=0x291
00000284                      main.o:_00411_DS_:
00000284 fec2                 MOVR 0x3d, 0x0
00000285 dbfc                 XORIA 0x3
00000286 f6fc                 BTRSS 0x3, 0x2
00000287 c574                 LGOTO 0x28b; main.o:_00408_DS_=0x28b
00000288 def0                 MOVIA 0xf
00000289 ff35                 MOVAR 0x4a
0000028a c56e                 LGOTO 0x291; main.o:_00415_DS_=0x291
0000028b                      main.o:_00408_DS_:
0000028b fec2                 MOVR 0x3d, 0x0
0000028c dbfb                 XORIA 0x4
0000028d f6fc                 BTRSS 0x3, 0x2
0000028e c56e                 LGOTO 0x291; main.o:_00415_DS_=0x291
0000028f defc                 MOVIA 0x3
00000290 ff35                 MOVAR 0x4a
00000291                      main.o:_00415_DS_:
00000291 feb5                 MOVR 0x4a, 0x0
00000292 ffb3                 SFUN 0xc
00000293 d4b3                 LCALL 0x34c; _pwmInit=0x34c
00000294 c54e                 LGOTO 0x2b1; main.o:_00425_DS_=0x2b1
00000295                      main.o:_00422_DS_:
00000295 fed5                 MOVR 0x2a, 0x0
00000296 dbfd                 XORIA 0x2
00000297 f6fc                 BTRSS 0x3, 0x2
00000298 c54e                 LGOTO 0x2b1; main.o:_00425_DS_=0x2b1
00000299 fec2                 MOVR 0x3d, 0x0
0000029a f2fc                 BTRSC 0x3, 0x2
0000029b c561                 LGOTO 0x29e; main.o:_00417_DS_=0x29e
0000029c d5ba                 LCALL 0x245; _powerOff=0x245
0000029d c54e                 LGOTO 0x2b1; main.o:_00425_DS_=0x2b1
0000029e                      main.o:_00417_DS_:
0000029e fd31                 CLRR 0x4e
0000029f fd30                 CLRR 0x4f
000002a0 fd2f                 CLRR 0x50
000002a1 defb                 MOVIA 0x4
000002a2 ff29                 MOVAR 0x56
000002a3 fd2e                 CLRR 0x51
000002a4 defe                 MOVIA 0x1
000002a5 ff28                 MOVAR 0x57
000002a6 deda                 MOVIA 0x25
000002a7 ff35                 MOVAR 0x4a
000002a8 defe                 MOVIA 0x1
000002a9 ff42                 MOVAR 0x3d
000002aa fd41                 CLRR 0x3e
000002ab fd44                 CLRR 0x3b
000002ac defe                 MOVIA 0x1
000002ad ff47                 MOVAR 0x38
000002ae fd46                 CLRR 0x39
000002af fd39                 CLRR 0x46
000002b0 fd38                 CLRR 0x47
000002b1                      main.o:_00425_DS_:
000002b1 ffef                 RET
000002b2                      _ledCtr:
000002b2 fea9                 MOVR 0x56, 0x0
000002b3 f6fc                 BTRSS 0x3, 0x2
000002b4 f929                 DECR 0x56, 0x1
000002b5 fea8                 MOVR 0x57, 0x0
000002b6 dbfe                 XORIA 0x1
000002b7 f6fc                 BTRSS 0x3, 0x2
000002b8 c53b                 LGOTO 0x2c4; main.o:_00390_DS_=0x2c4
000002b9 fa41                 INCR 0x3e, 0x1
000002ba defa                 MOVIA 0x5
000002bb fbc1                 SUBAR 0x3e, 0x0
000002bc f7fc                 BTRSS 0x3, 0x0
000002bd c528                 LGOTO 0x2d7; main.o:_00392_DS_=0x2d7
000002be fec2                 MOVR 0x3d, 0x0
000002bf ff41                 MOVAR 0x3e
000002c0 defc                 MOVIA 0x3
000002c1 ff28                 MOVAR 0x57
000002c2 d4b3                 LCALL 0x34c; _pwmInit=0x34c
000002c3 c528                 LGOTO 0x2d7; main.o:_00392_DS_=0x2d7
000002c4                      main.o:_00390_DS_:
000002c4 fea8                 MOVR 0x57, 0x0
000002c5 dbfd                 XORIA 0x2
000002c6 f6fc                 BTRSS 0x3, 0x2
000002c7 c530                 LGOTO 0x2cf; main.o:_00387_DS_=0x2cf
000002c8 fec1                 MOVR 0x3e, 0x0
000002c9 f2fc                 BTRSC 0x3, 0x2
000002ca c528                 LGOTO 0x2d7; main.o:_00392_DS_=0x2d7
000002cb e841                 DECRSZ 0x3e, 0x1
000002cc c528                 LGOTO 0x2d7; main.o:_00392_DS_=0x2d7
000002cd fd28                 CLRR 0x57
000002ce c528                 LGOTO 0x2d7; main.o:_00392_DS_=0x2d7
000002cf                      main.o:_00387_DS_:
000002cf fec2                 MOVR 0x3d, 0x0
000002d0 ff41                 MOVAR 0x3e
000002d1 fec2                 MOVR 0x3d, 0x0
000002d2 f2fc                 BTRSC 0x3, 0x2
000002d3 c528                 LGOTO 0x2d7; main.o:_00392_DS_=0x2d7
000002d4 fea9                 MOVR 0x56, 0x0
000002d5 f2fc                 BTRSC 0x3, 0x2
000002d6 d4b3                 LCALL 0x34c; _pwmInit=0x34c
000002d7                      main.o:_00392_DS_:
000002d7 ffef                 RET
000002d8                      _LedCtr2:
000002d8 fa31                 INCR 0x4e, 0x1
000002d9 def8                 MOVIA 0x7
000002da fbb1                 SUBAR 0x4e, 0x0
000002db f7fc                 BTRSS 0x3, 0x0
000002dc c51d                 LGOTO 0x2e2; main.o:_00344_DS_=0x2e2
000002dd fd28                 CLRR 0x57
000002de fd31                 CLRR 0x4e
000002df fec2                 MOVR 0x3d, 0x0
000002e0 ff41                 MOVAR 0x3e
000002e1 e2c8                 BCR 0x37, 0x2
000002e2                      main.o:_00344_DS_:
000002e2 f6c8                 BTRSS 0x37, 0x2
000002e3 c517                 LGOTO 0x2e8; main.o:_00346_DS_=0x2e8
000002e4 defc                 MOVIA 0x3
000002e5 fbb1                 SUBAR 0x4e, 0x0
000002e6 f3fc                 BTRSC 0x3, 0x0
000002e7 c4e2                 LGOTO 0x31d; main.o:_00370_DS_=0x31d
000002e8                      main.o:_00346_DS_:
000002e8 feb1                 MOVR 0x4e, 0x0
000002e9 dbfe                 XORIA 0x1
000002ea f6fc                 BTRSS 0x3, 0x2
000002eb c506                 LGOTO 0x2f9; main.o:_00368_DS_=0x2f9
000002ec feb4                 MOVR 0x4b, 0x0
000002ed dbfe                 XORIA 0x1
000002ee f6fc                 BTRSS 0x3, 0x2
000002ef c50c                 LGOTO 0x2f3; main.o:_00351_DS_=0x2f3
000002f0 d42b                 LCALL 0x3d4; _LEDLON=0x3d4
000002f1 e6c8                 BSR 0x37, 0x2
000002f2 c4e2                 LGOTO 0x31d; main.o:_00370_DS_=0x31d
000002f3                      main.o:_00351_DS_:
000002f3 defd                 MOVIA 0x2
000002f4 fbb4                 SUBAR 0x4b, 0x0
000002f5 f7fc                 BTRSS 0x3, 0x0
000002f6 c4e2                 LGOTO 0x31d; main.o:_00370_DS_=0x31d
000002f7 d429                 LCALL 0x3d6; _LEDHON=0x3d6
000002f8 c4e2                 LGOTO 0x31d; main.o:_00370_DS_=0x31d
000002f9                      main.o:_00368_DS_:
000002f9 feb1                 MOVR 0x4e, 0x0
000002fa dbfd                 XORIA 0x2
000002fb f6fc                 BTRSS 0x3, 0x2
000002fc c4ff                 LGOTO 0x300; main.o:_00365_DS_=0x300
000002fd d42d                 LCALL 0x3d2; _LEDHOFF=0x3d2
000002fe d7f9                 LCALL 0x6; _LEDLOFF=0x6
000002ff c4e2                 LGOTO 0x31d; main.o:_00370_DS_=0x31d
00000300                      main.o:_00365_DS_:
00000300 feb1                 MOVR 0x4e, 0x0
00000301 dbfc                 XORIA 0x3
00000302 f6fc                 BTRSS 0x3, 0x2
00000303 c4f5                 LGOTO 0x30a; main.o:_00361_DS_=0x30a
00000304 defc                 MOVIA 0x3
00000305 fbb4                 SUBAR 0x4b, 0x0
00000306 f7fc                 BTRSS 0x3, 0x0
00000307 c4f5                 LGOTO 0x30a; main.o:_00361_DS_=0x30a
00000308 d429                 LCALL 0x3d6; _LEDHON=0x3d6
00000309 c4e2                 LGOTO 0x31d; main.o:_00370_DS_=0x31d
0000030a                      main.o:_00361_DS_:
0000030a feb1                 MOVR 0x4e, 0x0
0000030b dbfb                 XORIA 0x4
0000030c f6fc                 BTRSS 0x3, 0x2
0000030d c4ee                 LGOTO 0x311; main.o:_00358_DS_=0x311
0000030e d42d                 LCALL 0x3d2; _LEDHOFF=0x3d2
0000030f d7f9                 LCALL 0x6; _LEDLOFF=0x6
00000310 c4e2                 LGOTO 0x31d; main.o:_00370_DS_=0x31d
00000311                      main.o:_00358_DS_:
00000311 feb1                 MOVR 0x4e, 0x0
00000312 dbfa                 XORIA 0x5
00000313 f6fc                 BTRSS 0x3, 0x2
00000314 c4e4                 LGOTO 0x31b; main.o:_00354_DS_=0x31b
00000315 defb                 MOVIA 0x4
00000316 fbb4                 SUBAR 0x4b, 0x0
00000317 f7fc                 BTRSS 0x3, 0x0
00000318 c4e4                 LGOTO 0x31b; main.o:_00354_DS_=0x31b
00000319 d429                 LCALL 0x3d6; _LEDHON=0x3d6
0000031a c4e2                 LGOTO 0x31d; main.o:_00370_DS_=0x31d
0000031b                      main.o:_00354_DS_:
0000031b d7f9                 LCALL 0x6; _LEDLOFF=0x6
0000031c d42d                 LCALL 0x3d2; _LEDHOFF=0x3d2
0000031d                      main.o:_00370_DS_:
0000031d ffef                 RET
0000031e                      _workCtr:
0000031e deff                 MOVIA 0x0
0000031f fbb6                 SUBAR 0x49, 0x0
00000320 f6fc                 BTRSS 0x3, 0x2
00000321 c4db                 LGOTO 0x324; main.o:_00338_DS_=0x324
00000322 deb8                 MOVIA 0x47
00000323 fbb7                 SUBAR 0x48, 0x0
00000324                      main.o:_00338_DS_:
00000324 f7fc                 BTRSS 0x3, 0x0
00000325 c4b9                 LGOTO 0x346; main.o:_00319_DS_=0x346
00000326 ded9                 MOVIA 0x26
00000327 ff56                 MOVAR 0x29
00000328 fec2                 MOVR 0x3d, 0x0
00000329 dbfe                 XORIA 0x1
0000032a f6fc                 BTRSS 0x3, 0x2
0000032b c4d0                 LGOTO 0x32f; main.o:_00316_DS_=0x32f
0000032c ded9                 MOVIA 0x26
0000032d ff56                 MOVAR 0x29
0000032e c4bc                 LGOTO 0x343; main.o:_00317_DS_=0x343
0000032f                      main.o:_00316_DS_:
0000032f fec2                 MOVR 0x3d, 0x0
00000330 dbfd                 XORIA 0x2
00000331 f6fc                 BTRSS 0x3, 0x2
00000332 c4c9                 LGOTO 0x336; main.o:_00313_DS_=0x336
00000333 def0                 MOVIA 0xf
00000334 ff56                 MOVAR 0x29
00000335 c4bc                 LGOTO 0x343; main.o:_00317_DS_=0x343
00000336                      main.o:_00313_DS_:
00000336 fec2                 MOVR 0x3d, 0x0
00000337 dbfc                 XORIA 0x3
00000338 f6fc                 BTRSS 0x3, 0x2
00000339 c4c2                 LGOTO 0x33d; main.o:_00310_DS_=0x33d
0000033a def4                 MOVIA 0xb
0000033b ff56                 MOVAR 0x29
0000033c c4bc                 LGOTO 0x343; main.o:_00317_DS_=0x343
0000033d                      main.o:_00310_DS_:
0000033d fec2                 MOVR 0x3d, 0x0
0000033e dbfb                 XORIA 0x4
0000033f f6fc                 BTRSS 0x3, 0x2
00000340 c4bc                 LGOTO 0x343; main.o:_00317_DS_=0x343
00000341 defc                 MOVIA 0x3
00000342 ff56                 MOVAR 0x29
00000343                      main.o:_00317_DS_:
00000343 fed6                 MOVR 0x29, 0x0
00000344 ffb3                 SFUN 0xc
00000345 c4b7                 LGOTO 0x348; main.o:_00321_DS_=0x348
00000346                      main.o:_00319_DS_:
00000346 feb5                 MOVR 0x4a, 0x0
00000347 ffb3                 SFUN 0xc
00000348                      main.o:_00321_DS_:
00000348 ffef                 RET
00000349                      _pwmStop:
00000349 fdff                 CLRA
0000034a ffb5                 SFUN 0xa
0000034b ffef                 RET
0000034c                      _pwmInit:
0000034c ff95                 SFUNR 0xa
0000034d ff57                 MOVAR 0x28
0000034e f057                 BTRSC 0x28, 0x7
0000034f c4a8                 LGOTO 0x357; main.o:_00298_DS_=0x357
00000350 fd66                 CLRR 0x19
00000351 de7f                 MOVIA 0x80
00000352 ffb6                 SFUN 0x9
00000353 fdff                 CLRA
00000354 ffb4                 SFUN 0xb
00000355 de7c                 MOVIA 0x83
00000356 ffb5                 SFUN 0xa
00000357                      main.o:_00298_DS_:
00000357 ffef                 RET
00000358                      _LED4ON:
00000358 ffe9                 IOSTR 0x6
00000359 ff58                 MOVAR 0x27
0000035a e258                 BCR 0x27, 0x3
0000035b fed8                 MOVR 0x27, 0x0
0000035c fff9                 IOST 0x6
0000035d e679                 BSR 0x6, 0x3
0000035e de9b                 MOVIA 0x64
0000035f d624                 LCALL 0x1db; _delay=0x1db
00000360 d47f                 LCALL 0x380; _LedInput=0x380
00000361 ffef                 RET
00000362                      _LED3ON:
00000362 ffea                 IOSTR 0x5
00000363 ff59                 MOVAR 0x26
00000364 e059                 BCR 0x26, 0x7
00000365 fed9                 MOVR 0x26, 0x0
00000366 fffa                 IOST 0x5
00000367 e47a                 BSR 0x5, 0x7
00000368 de9b                 MOVIA 0x64
00000369 d624                 LCALL 0x1db; _delay=0x1db
0000036a d47f                 LCALL 0x380; _LedInput=0x380
0000036b ffef                 RET
0000036c                      _LED2ON:
0000036c ffea                 IOSTR 0x5
0000036d ff5a                 MOVAR 0x25
0000036e e35a                 BCR 0x25, 0x1
0000036f feda                 MOVR 0x25, 0x0
00000370 fffa                 IOST 0x5
00000371 e77a                 BSR 0x5, 0x1
00000372 de9b                 MOVIA 0x64
00000373 d624                 LCALL 0x1db; _delay=0x1db
00000374 d47f                 LCALL 0x380; _LedInput=0x380
00000375 ffef                 RET
00000376                      _LED1ON:
00000376 ffea                 IOSTR 0x5
00000377 ff5b                 MOVAR 0x24
00000378 e3db                 BCR 0x24, 0x0
00000379 fedb                 MOVR 0x24, 0x0
0000037a fffa                 IOST 0x5
0000037b e7fa                 BSR 0x5, 0x0
0000037c de9b                 MOVIA 0x64
0000037d d624                 LCALL 0x1db; _delay=0x1db
0000037e d47f                 LCALL 0x380; _LedInput=0x380
0000037f ffef                 RET
00000380                      _LedInput:
00000380 ffea                 IOSTR 0x5
00000381 ff5c                 MOVAR 0x23
00000382 de7c                 MOVIA 0x83
00000383 ee5c                 IORAR 0x23, 0x1
00000384 fedc                 MOVR 0x23, 0x0
00000385 fffa                 IOST 0x5
00000386 ffe9                 IOSTR 0x6
00000387 ff5c                 MOVAR 0x23
00000388 e65c                 BSR 0x23, 0x3
00000389 fedc                 MOVR 0x23, 0x0
0000038a fff9                 IOST 0x6
0000038b de83                 MOVIA 0x7c
0000038c ef7a                 ANDAR 0x5, 0x1
0000038d e279                 BCR 0x6, 0x3
0000038e ffef                 RET
0000038f                      _ledShow:
0000038f d47f                 LCALL 0x380; _LedInput=0x380
00000390 defa                 MOVIA 0x5
00000391 fbc1                 SUBAR 0x3e, 0x0
00000392 f3fc                 BTRSC 0x3, 0x0
00000393 c459                 LGOTO 0x3a6; main.o:_00265_DS_=0x3a6
00000394 defc                 MOVIA 0x3
00000395 ff75                 MOVAR 0xa
00000396 fec1                 MOVR 0x3e, 0x0
00000397 da64                 ADDIA 0x9b
00000398 f3fc                 BTRSC 0x3, 0x0
00000399 fa75                 INCR 0xa, 0x1
0000039a ff7d                 MOVAR 0x2
0000039b                      main.o:_00271_DS_:
0000039b c45f                 LGOTO 0x3a0; main.o:_00259_DS_=0x3a0
0000039c c45a                 LGOTO 0x3a5; main.o:_00263_DS_=0x3a5
0000039d c45b                 LGOTO 0x3a4; main.o:_00262_DS_=0x3a4
0000039e c45c                 LGOTO 0x3a3; main.o:_00261_DS_=0x3a3
0000039f c45d                 LGOTO 0x3a2; main.o:_00260_DS_=0x3a2
000003a0                      main.o:_00259_DS_:
000003a0 d47f                 LCALL 0x380; _LedInput=0x380
000003a1 c459                 LGOTO 0x3a6; main.o:_00265_DS_=0x3a6
000003a2                      main.o:_00260_DS_:
000003a2 d4a7                 LCALL 0x358; _LED4ON=0x358
000003a3                      main.o:_00261_DS_:
000003a3 d489                 LCALL 0x376; _LED1ON=0x376
000003a4                      main.o:_00262_DS_:
000003a4 d49d                 LCALL 0x362; _LED3ON=0x362
000003a5                      main.o:_00263_DS_:
000003a5 d493                 LCALL 0x36c; _LED2ON=0x36c
000003a6                      main.o:_00265_DS_:
000003a6 ffef                 RET
000003a7                      _initSys:
000003a7 ffec                 DISI
000003a8 de8f                 MOVIA 0x70
000003a9 fffa                 IOST 0x5
000003aa defe                 MOVIA 0x1
000003ab fff9                 IOST 0x6
000003ac fd79                 CLRR 0x6
000003ad fd7a                 CLRR 0x5
000003ae de60                 MOVIA 0x9f
000003af fff6                 IOST 0x9
000003b0 de00                 MOVIA 0xff
000003b1 ff73                 MOVAR 0xc
000003b2 defe                 MOVIA 0x1
000003b3 ff71                 MOVAR 0xe
000003b4 fdff                 CLRA
000003b5 fff0                 IOST 0xf
000003b6 dec8                 MOVIA 0x37
000003b7 ff7e                 MOVAR 0x1
000003b8 fdff                 CLRA
000003b9 fffc                 T0MD
000003ba defe                 MOVIA 0x1
000003bb fff0                 IOST 0xf
000003bc de67                 MOVIA 0x98
000003bd ff77                 MOVAR 0x8
000003be defe                 MOVIA 0x1
000003bf fff0                 IOST 0xf
000003c0 fffb                 ENI
000003c1 ffef                 RET
000003c2                      _fgCtr:
000003c2 f7f9                 BTRSS 0x6, 0x0
000003c3 c42f                 LGOTO 0x3d0; main.o:_00248_DS_=0x3d0
000003c4 fec0                 MOVR 0x3f, 0x0
000003c5 f6fc                 BTRSS 0x3, 0x2
000003c6 c432                 LGOTO 0x3cd; main.o:_00246_DS_=0x3cd
000003c7 feb9                 MOVR 0x46, 0x0
000003c8 ff37                 MOVAR 0x48
000003c9 feb8                 MOVR 0x47, 0x0
000003ca ff36                 MOVAR 0x49
000003cb fd39                 CLRR 0x46
000003cc fd38                 CLRR 0x47
000003cd                      main.o:_00246_DS_:
000003cd defe                 MOVIA 0x1
000003ce ff40                 MOVAR 0x3f
000003cf c42e                 LGOTO 0x3d1; main.o:_00250_DS_=0x3d1
000003d0                      main.o:_00248_DS_:
000003d0 fd40                 CLRR 0x3f
000003d1                      main.o:_00250_DS_:
000003d1 ffef                 RET
000003d2                      _LEDHOFF:
000003d2 e2fa                 BCR 0x5, 0x2
000003d3 ffef                 RET
000003d4                      _LEDLON:
000003d4 e67a                 BSR 0x5, 0x3
000003d5 ffef                 RET
000003d6                      _LEDHON:
000003d6 e6fa                 BSR 0x5, 0x2
000003d7 ffef                 RET
000003d8                      ___cinit_load__:
