00000000 c7fe                 LGOTO 0x1; __nyc_ny8_startup=0x1
00000001                      __nyc_ny8_startup:
00000001 d167                 LCALL 0x698; ___cinit_load__=0x698
00000002 c790                 LGOTO 0x6f; _main=0x6f
00000003                      main.o:_00989_DS_:
00000003 f56f                 BTRSS 0x10, 0x5
00000004 c7fc                 LGOTO 0x3; main.o:_00989_DS_=0x3
00000005 ffef                 RET
00000008 c7f6                 LGOTO 0x9; main.o:__sdcc_interrupt=0x9
00000009                      main.o:__sdcc_interrupt:
00000009 ff3d                 MOVAR 0x42
0000000a eafc                 SWAPR 0x3, 0x0
0000000b fd7c                 CLRR 0x3
0000000c ff3e                 MOVAR 0x41
0000000d fef5                 MOVR 0xa, 0x0
0000000e fd75                 CLRR 0xa
0000000f ff3f                 MOVAR 0x40
00000010 fefb                 MOVR 0x4, 0x0
00000011 e0fc                 BCR 0x3, 0x6
00000012 ff35                 MOVAR 0x4a
00000013 feba                 MOVR 0x45, 0x0
00000014 ff34                 MOVAR 0x4b
00000015 febb                 MOVR 0x44, 0x0
00000016 ff33                 MOVAR 0x4c
00000017 f7f0                 BTRSS 0xf, 0x0
00000018 c7a4                 LGOTO 0x5b; main.o:_00128_DS_=0x5b
00000019 dec8                 MOVIA 0x37
0000001a fc7e                 ADDAR 0x1, 0x1
0000001b fa32                 INCR 0x4d, 0x1
0000001c de9b                 MOVIA 0x64
0000001d fbb2                 SUBAR 0x4d, 0x0
0000001e f7fc                 BTRSS 0x3, 0x0
0000001f c7a4                 LGOTO 0x5b; main.o:_00128_DS_=0x5b
00000020 defe                 MOVIA 0x1
00000021 ff17                 MOVAR 0x68
00000022 fd32                 CLRR 0x4d
00000023 feaf                 MOVR 0x50, 0x0
00000024 f2fc                 BTRSC 0x3, 0x2
00000025 c7d6                 LGOTO 0x29; main.o:_00106_DS_=0x29
00000026 fa2d                 INCR 0x52, 0x1
00000027 f2fc                 BTRSC 0x3, 0x2
00000028 fa2c                 INCR 0x53, 0x1
00000029                      main.o:_00106_DS_:
00000029 e0fc                 BCR 0x3, 0x6
0000002a fa31                 INCR 0x4e, 0x1
0000002b dec3                 MOVIA 0x3c
0000002c fbb1                 SUBAR 0x4e, 0x0
0000002d f3fc                 BTRSC 0x3, 0x0
0000002e fd31                 CLRR 0x4e
0000002f fa25                 INCR 0x5a, 0x1
00000030 deeb                 MOVIA 0x14
00000031 fba5                 SUBAR 0x5a, 0x0
00000032 f7fc                 BTRSS 0x3, 0x0
00000033 c7c7                 LGOTO 0x38; main.o:_00112_DS_=0x38
00000034 fd25                 CLRR 0x5a
00000035 fe92                 MOVR 0x6d, 0x0
00000036 f6fc                 BTRSS 0x3, 0x2
00000037 f912                 DECR 0x6d, 0x1
00000038                      main.o:_00112_DS_:
00000038 e0fc                 BCR 0x3, 0x6
00000039 fa24                 INCR 0x5b, 0x1
0000003a de9b                 MOVIA 0x64
0000003b fba4                 SUBAR 0x5b, 0x0
0000003c f7fc                 BTRSS 0x3, 0x0
0000003d c7a4                 LGOTO 0x5b; main.o:_00128_DS_=0x5b
0000003e fd24                 CLRR 0x5b
0000003f fe96                 MOVR 0x69, 0x0
00000040 dbfe                 XORIA 0x1
00000041 f6fc                 BTRSS 0x3, 0x2
00000042 c7b5                 LGOTO 0x4a; main.o:_00114_DS_=0x4a
00000043 feaa                 MOVR 0x55, 0x0
00000044 dbf7                 XORIA 0x8
00000045 f6fc                 BTRSS 0x3, 0x2
00000046 c7b5                 LGOTO 0x4a; main.o:_00114_DS_=0x4a
00000047 fa29                 INCR 0x56, 0x1
00000048 f2fc                 BTRSC 0x3, 0x2
00000049                      ___cinit_size__:
00000049 fa28                 INCR 0x57, 0x1
0000004a                      main.o:_00114_DS_:
0000004a e0fc                 BCR 0x3, 0x6
0000004b fe9f                 MOVR 0x60, 0x0
0000004c f6fc                 BTRSS 0x3, 0x2
0000004d f91f                 DECR 0x60, 0x1
0000004e fe9c                 MOVR 0x63, 0x0
0000004f f6fc                 BTRSS 0x3, 0x2
00000050 f91c                 DECR 0x63, 0x1
00000051 feaf                 MOVR 0x50, 0x0
00000052 f2fc                 BTRSC 0x3, 0x2
00000053 c7a7                 LGOTO 0x58; main.o:_00121_DS_=0x58
00000054 fa23                 INCR 0x5c, 0x1
00000055 f2fc                 BTRSC 0x3, 0x2
00000056 fa22                 INCR 0x5d, 0x1
00000057 c7a4                 LGOTO 0x5b; main.o:_00128_DS_=0x5b
00000058                      main.o:_00121_DS_:
00000058 e0fc                 BCR 0x3, 0x6
00000059 fd23                 CLRR 0x5c
0000005a fd22                 CLRR 0x5d
0000005b                      main.o:_00128_DS_:
0000005b f770                 BTRSS 0xf, 0x1
0000005c c7a0                 LGOTO 0x5f; main.o:_00130_DS_=0x5f
0000005d de02                 MOVIA 0xfd
0000005e ff70                 MOVAR 0xf
0000005f                      main.o:_00130_DS_:
0000005f fd70                 CLRR 0xf
00000060 e0fc                 BCR 0x3, 0x6
00000061 feb3                 MOVR 0x4c, 0x0
00000062 ff3b                 MOVAR 0x44
00000063 feb4                 MOVR 0x4b, 0x0
00000064 ff3a                 MOVAR 0x45
00000065 feb5                 MOVR 0x4a, 0x0
00000066 ff7b                 MOVAR 0x4
00000067 febf                 MOVR 0x40, 0x0
00000068 ff75                 MOVAR 0xa
00000069 fd7c                 CLRR 0x3
0000006a eabe                 SWAPR 0x41, 0x0
0000006b ff7c                 MOVAR 0x3
0000006c ea3d                 SWAPR 0x42, 0x1
0000006d eabd                 SWAPR 0x42, 0x0
0000006e                      main.o:END_OF_INTERRUPT:
0000006e ffee                 RETIE
0000006f                      _main:
0000006f d20e                 LCALL 0x5f1; _initSys=0x5f1
00000070 d3db                 LCALL 0x424; _initAD=0x424
00000071                      main.o:_00165_DS_:
00000071 fffd                 CLRWDT
00000072 d263                 LCALL 0x59c; _ledShow=0x59c
00000073 e0fc                 BCR 0x3, 0x6
00000074 fe97                 MOVR 0x68, 0x0
00000075 f2fc                 BTRSC 0x3, 0x2
00000076 c78e                 LGOTO 0x71; main.o:_00165_DS_=0x71
00000077 fd17                 CLRR 0x68
00000078 fe96                 MOVR 0x69, 0x0
00000079 f2fc                 BTRSC 0x3, 0x2
0000007a d1ea                 LCALL 0x615; _keyCtr=0x615
0000007b defa                 MOVIA 0x5
0000007c e0fc                 BCR 0x3, 0x6
0000007d fba5                 SUBAR 0x5a, 0x0
0000007e f3fc                 BTRSC 0x3, 0x0
0000007f c77d                 LGOTO 0x82; main.o:_00143_DS_=0x82
00000080 d5f1                 LCALL 0x20e; _checkBatAD=0x20e
00000081 c774                 LGOTO 0x8b; main.o:_00144_DS_=0x8b
00000082                      main.o:_00143_DS_:
00000082 def6                 MOVIA 0x9
00000083 e0fc                 BCR 0x3, 0x6
00000084 fba5                 SUBAR 0x5a, 0x0
00000085 f7fc                 BTRSS 0x3, 0x0
00000086 c774                 LGOTO 0x8b; main.o:_00144_DS_=0x8b
00000087 def4                 MOVIA 0xb
00000088 fba5                 SUBAR 0x5a, 0x0
00000089 f7fc                 BTRSS 0x3, 0x0
0000008a d6d4                 LCALL 0x12b; _checkOutA=0x12b
0000008b                      main.o:_00144_DS_:
0000008b d3c4                 LCALL 0x43b; _chrgCtr=0x43b
0000008c e0fc                 BCR 0x3, 0x6
0000008d feaf                 MOVR 0x50, 0x0
0000008e f2fc                 BTRSC 0x3, 0x2
0000008f c767                 LGOTO 0x98; main.o:_00146_DS_=0x98
00000090 fe9e                 MOVR 0x61, 0x0
00000091 fbab                 SUBAR 0x54, 0x0
00000092 f3fc                 BTRSC 0x3, 0x0
00000093 c767                 LGOTO 0x98; main.o:_00146_DS_=0x98
00000094 de09                 MOVIA 0xf6
00000095 fc1e                 ADDAR 0x61, 0x1
00000096 fe9e                 MOVR 0x61, 0x0
00000097 ffb3                 SFUN 0xc
00000098                      main.o:_00146_DS_:
00000098 defa                 MOVIA 0x5
00000099 e0fc                 BCR 0x3, 0x6
0000009a fba0                 SUBAR 0x5f, 0x0
0000009b f7fc                 BTRSS 0x3, 0x0
0000009c c74c                 LGOTO 0xb3; main.o:_00151_DS_=0xb3
0000009d feaf                 MOVR 0x50, 0x0
0000009e f2fc                 BTRSC 0x3, 0x2
0000009f c74c                 LGOTO 0xb3; main.o:_00151_DS_=0xb3
000000a0 fa14                 INCR 0x6b, 0x1
000000a1 f2fc                 BTRSC 0x3, 0x2
000000a2 fa13                 INCR 0x6c, 0x1
000000a3 defe                 MOVIA 0x1
000000a4 fb93                 SUBAR 0x6c, 0x0
000000a5 f6fc                 BTRSS 0x3, 0x2
000000a6 c756                 LGOTO 0xa9; main.o:_00228_DS_=0xa9
000000a7 de0a                 MOVIA 0xf5
000000a8 fb94                 SUBAR 0x6b, 0x0
000000a9                      main.o:_00228_DS_:
000000a9 f7fc                 BTRSS 0x3, 0x0
000000aa c749                 LGOTO 0xb6; main.o:_00152_DS_=0xb6
000000ab e0fc                 BCR 0x3, 0x6
000000ac fd20                 CLRR 0x5f
000000ad fd14                 CLRR 0x6b
000000ae fd13                 CLRR 0x6c
000000af dee6                 MOVIA 0x19
000000b0 ff12                 MOVAR 0x6d
000000b1 d1f0                 LCALL 0x60f; _powerOff=0x60f
000000b2 c749                 LGOTO 0xb6; main.o:_00152_DS_=0xb6
000000b3                      main.o:_00151_DS_:
000000b3 e0fc                 BCR 0x3, 0x6
000000b4 fd14                 CLRR 0x6b
000000b5 fd13                 CLRR 0x6c
000000b6                      main.o:_00152_DS_:
000000b6 e0fc                 BCR 0x3, 0x6
000000b7 feaf                 MOVR 0x50, 0x0
000000b8 f6fc                 BTRSS 0x3, 0x2
000000b9 c72e                 LGOTO 0xd1; main.o:_00157_DS_=0xd1
000000ba feb0                 MOVR 0x4f, 0x0
000000bb f6fc                 BTRSS 0x3, 0x2
000000bc c72e                 LGOTO 0xd1; main.o:_00157_DS_=0xd1
000000bd f17a                 BTRSC 0x5, 0x5
000000be c72e                 LGOTO 0xd1; main.o:_00157_DS_=0xd1
000000bf fe9f                 MOVR 0x60, 0x0
000000c0 f6fc                 BTRSS 0x3, 0x2
000000c1 c72e                 LGOTO 0xd1; main.o:_00157_DS_=0xd1
000000c2 fe92                 MOVR 0x6d, 0x0
000000c3 f6fc                 BTRSS 0x3, 0x2
000000c4 c72e                 LGOTO 0xd1; main.o:_00157_DS_=0xd1
000000c5 fa27                 INCR 0x58, 0x1
000000c6 f2fc                 BTRSC 0x3, 0x2
000000c7 fa26                 INCR 0x59, 0x1
000000c8 deff                 MOVIA 0x0
000000c9 fba6                 SUBAR 0x59, 0x0
000000ca f6fc                 BTRSS 0x3, 0x2
000000cb c731                 LGOTO 0xce; main.o:_00229_DS_=0xce
000000cc dee0                 MOVIA 0x1f
000000cd fba7                 SUBAR 0x58, 0x0
000000ce                      main.o:_00229_DS_:
000000ce f7fc                 BTRSS 0x3, 0x0
000000cf c72e                 LGOTO 0xd1; main.o:_00157_DS_=0xd1
000000d0 d331                 LCALL 0x4ce; _gotoSleep=0x4ce
000000d1                      main.o:_00157_DS_:
000000d1 defc                 MOVIA 0x3
000000d2 e0fc                 BCR 0x3, 0x6
000000d3 fba2                 SUBAR 0x5d, 0x0
000000d4 f6fc                 BTRSS 0x3, 0x2
000000d5 c727                 LGOTO 0xd8; main.o:_00230_DS_=0xd8
000000d6 de7b                 MOVIA 0x84
000000d7 fba3                 SUBAR 0x5c, 0x0
000000d8                      main.o:_00230_DS_:
000000d8 f7fc                 BTRSS 0x3, 0x0
000000d9 c78e                 LGOTO 0x71; main.o:_00165_DS_=0x71
000000da d1f0                 LCALL 0x60f; _powerOff=0x60f
000000db c78e                 LGOTO 0x71; main.o:_00165_DS_=0x71
000000dc ffef                 RET
000000dd                      _F_AIN3_Convert:
000000dd e0fc                 BCR 0x3, 0x6
000000de ff39                 MOVAR 0x46
000000df fd5a                 CLRR 0x25
000000e0 fd5c                 CLRR 0x23
000000e1 fd5b                 CLRR 0x24
000000e2 de6c                 MOVIA 0x93
000000e3 ff6f                 MOVAR 0x10
000000e4 de37                 MOVIA 0xc8
000000e5 d3d0                 LCALL 0x42f; _delay=0x42f
000000e6 defe                 MOVIA 0x1
000000e7 e0fc                 BCR 0x3, 0x6
000000e8 ff38                 MOVAR 0x47
000000e9                      main.o:_00973_DS_:
000000e9 e0fc                 BCR 0x3, 0x6
000000ea feb8                 MOVR 0x47, 0x0
000000eb fbb9                 SUBAR 0x46, 0x0
000000ec f7fc                 BTRSS 0x3, 0x0
000000ed c6fc                 LGOTO 0x103; main.o:_00975_DS_=0x103
000000ee e4ef                 BSR 0x10, 0x6
000000ef d7fc                 LCALL 0x3; main.o:_00989_DS_=0x3
000000f0 def0                 MOVIA 0xf
000000f1 efee                 ANDAR 0x11, 0x0
000000f2 e0fc                 BCR 0x3, 0x6
000000f3 fc5a                 ADDAR 0x25, 0x1
000000f4 feed                 MOVR 0x12, 0x0
000000f5 ff37                 MOVAR 0x48
000000f6 deff                 MOVIA 0x0
000000f7 ff36                 MOVAR 0x49
000000f8 feb7                 MOVR 0x48, 0x0
000000f9 fc5c                 ADDAR 0x23, 0x1
000000fa feb6                 MOVR 0x49, 0x0
000000fb f3fc                 BTRSC 0x3, 0x0
000000fc fab6                 INCR 0x49, 0x0
000000fd f2fc                 BTRSC 0x3, 0x2
000000fe c6ff                 LGOTO 0x100; main.o:_00002_DS_=0x100
000000ff fc5b                 ADDAR 0x24, 0x1
00000100                      main.o:_00002_DS_:
00000100 e0fc                 BCR 0x3, 0x6
00000101 fa38                 INCR 0x47, 0x1
00000102 c716                 LGOTO 0xe9; main.o:_00973_DS_=0xe9
00000103                      main.o:_00975_DS_:
00000103 ffef                 RET
00000104                      _F_AIN4_Convert:
00000104 e0fc                 BCR 0x3, 0x6
00000105 ff43                 MOVAR 0x3c
00000106 fd5d                 CLRR 0x22
00000107 fd5f                 CLRR 0x20
00000108 fd5e                 CLRR 0x21
00000109 de6b                 MOVIA 0x94
0000010a ff6f                 MOVAR 0x10
0000010b de37                 MOVIA 0xc8
0000010c d3d0                 LCALL 0x42f; _delay=0x42f
0000010d defe                 MOVIA 0x1
0000010e e0fc                 BCR 0x3, 0x6
0000010f ff42                 MOVAR 0x3d
00000110                      main.o:_00964_DS_:
00000110 e0fc                 BCR 0x3, 0x6
00000111 fec2                 MOVR 0x3d, 0x0
00000112 fbc3                 SUBAR 0x3c, 0x0
00000113 f7fc                 BTRSS 0x3, 0x0
00000114 c6d5                 LGOTO 0x12a; main.o:_00966_DS_=0x12a
00000115 e4ef                 BSR 0x10, 0x6
00000116 d7fc                 LCALL 0x3; main.o:_00989_DS_=0x3
00000117 def0                 MOVIA 0xf
00000118 efee                 ANDAR 0x11, 0x0
00000119 e0fc                 BCR 0x3, 0x6
0000011a fc5d                 ADDAR 0x22, 0x1
0000011b feed                 MOVR 0x12, 0x0
0000011c ff41                 MOVAR 0x3e
0000011d deff                 MOVIA 0x0
0000011e ff40                 MOVAR 0x3f
0000011f fec1                 MOVR 0x3e, 0x0
00000120 fc5f                 ADDAR 0x20, 0x1
00000121 fec0                 MOVR 0x3f, 0x0
00000122 f3fc                 BTRSC 0x3, 0x0
00000123 fac0                 INCR 0x3f, 0x0
00000124 f2fc                 BTRSC 0x3, 0x2
00000125 c6d8                 LGOTO 0x127; main.o:_00003_DS_=0x127
00000126 fc5e                 ADDAR 0x21, 0x1
00000127                      main.o:_00003_DS_:
00000127 e0fc                 BCR 0x3, 0x6
00000128 fa42                 INCR 0x3d, 0x1
00000129 c6ef                 LGOTO 0x110; main.o:_00964_DS_=0x110
0000012a                      main.o:_00966_DS_:
0000012a ffef                 RET
0000012b                      _checkOutA:
0000012b e0fc                 BCR 0x3, 0x6
0000012c fd5a                 CLRR 0x25
0000012d fd5c                 CLRR 0x23
0000012e fd5b                 CLRR 0x24
0000012f def7                 MOVIA 0x8
00000130 d722                 LCALL 0xdd; _F_AIN3_Convert=0xdd
00000131 e0fc                 BCR 0x3, 0x6
00000132 eadb                 SWAPR 0x24, 0x0
00000133 dd0f                 ANDIA 0xf0
00000134 ff5b                 MOVAR 0x24
00000135 eadc                 SWAPR 0x23, 0x0
00000136 ff5c                 MOVAR 0x23
00000137 ddf0                 ANDIA 0xf
00000138 ee5b                 IORAR 0x24, 0x1
00000139 ed5c                 XORAR 0x23, 0x1
0000013a de0f                 MOVIA 0xf0
0000013b ef5a                 ANDAR 0x25, 0x1
0000013c feda                 MOVR 0x25, 0x0
0000013d ff45                 MOVAR 0x3a
0000013e deff                 MOVIA 0x0
0000013f ff44                 MOVAR 0x3b
00000140 fec5                 MOVR 0x3a, 0x0
00000141 fc5c                 ADDAR 0x23, 0x1
00000142 fec4                 MOVR 0x3b, 0x0
00000143 f3fc                 BTRSC 0x3, 0x0
00000144 fac4                 INCR 0x3b, 0x0
00000145 f2fc                 BTRSC 0x3, 0x2
00000146 c6b7                 LGOTO 0x148; main.o:_00004_DS_=0x148
00000147 fc5b                 ADDAR 0x24, 0x1
00000148                      main.o:_00004_DS_:
00000148 e3fc                 BCR 0x3, 0x0
00000149 e0fc                 BCR 0x3, 0x6
0000014a ec5b                 RRR 0x24, 0x1
0000014b ec5c                 RRR 0x23, 0x1
0000014c e3fc                 BCR 0x3, 0x0
0000014d ec5b                 RRR 0x24, 0x1
0000014e ec5c                 RRR 0x23, 0x1
0000014f e3fc                 BCR 0x3, 0x0
00000150 ec5b                 RRR 0x24, 0x1
00000151 ec5c                 RRR 0x23, 0x1
00000152 fe90                 MOVR 0x6f, 0x0
00000153 f2fc                 BTRSC 0x3, 0x2
00000154 c6a6                 LGOTO 0x159; main.o:_00822_DS_=0x159
00000155 ded2                 MOVIA 0x2d
00000156 ff5c                 MOVAR 0x23
00000157 defe                 MOVIA 0x1
00000158 ff5b                 MOVAR 0x24
00000159                      main.o:_00822_DS_:
00000159 def6                 MOVIA 0x9
0000015a e0fc                 BCR 0x3, 0x6
0000015b fbaf                 SUBAR 0x50, 0x0
0000015c f3fc                 BTRSC 0x3, 0x0
0000015d c68e                 LGOTO 0x171; main.o:_00875_DS_=0x171
0000015e deff                 MOVIA 0x0
0000015f fbdb                 SUBAR 0x24, 0x0
00000160 f6fc                 BTRSS 0x3, 0x2
00000161 c69b                 LGOTO 0x164; main.o:_00950_DS_=0x164
00000162 de36                 MOVIA 0xc9
00000163 fbdc                 SUBAR 0x23, 0x0
00000164                      main.o:_00950_DS_:
00000164 f7fc                 BTRSS 0x3, 0x0
00000165 c68e                 LGOTO 0x171; main.o:_00875_DS_=0x171
00000166 e0fc                 BCR 0x3, 0x6
00000167 fa20                 INCR 0x5f, 0x1
00000168 def9                 MOVIA 0x6
00000169 fba0                 SUBAR 0x5f, 0x0
0000016a f7fc                 BTRSS 0x3, 0x0
0000016b c5f2                 LGOTO 0x20d; main.o:_00878_DS_=0x20d
0000016c defa                 MOVIA 0x5
0000016d ff20                 MOVAR 0x5f
0000016e feaf                 MOVR 0x50, 0x0
0000016f ff15                 MOVAR 0x6a
00000170 c5f2                 LGOTO 0x20d; main.o:_00878_DS_=0x20d
00000171                      main.o:_00875_DS_:
00000171 defe                 MOVIA 0x1
00000172 e0fc                 BCR 0x3, 0x6
00000173 fbdb                 SUBAR 0x24, 0x0
00000174 f6fc                 BTRSS 0x3, 0x2
00000175 c687                 LGOTO 0x178; main.o:_00952_DS_=0x178
00000176 de6e                 MOVIA 0x91
00000177 fbdc                 SUBAR 0x23, 0x0
00000178                      main.o:_00952_DS_:
00000178 f7fc                 BTRSS 0x3, 0x0
00000179 c67a                 LGOTO 0x185; main.o:_00872_DS_=0x185
0000017a e0fc                 BCR 0x3, 0x6
0000017b fa20                 INCR 0x5f, 0x1
0000017c def9                 MOVIA 0x6
0000017d fba0                 SUBAR 0x5f, 0x0
0000017e f7fc                 BTRSS 0x3, 0x0
0000017f c5f2                 LGOTO 0x20d; main.o:_00878_DS_=0x20d
00000180 defa                 MOVIA 0x5
00000181 ff20                 MOVAR 0x5f
00000182 feaf                 MOVR 0x50, 0x0
00000183 ff15                 MOVAR 0x6a
00000184 c5f2                 LGOTO 0x20d; main.o:_00878_DS_=0x20d
00000185                      main.o:_00872_DS_:
00000185 deff                 MOVIA 0x0
00000186 e0fc                 BCR 0x3, 0x6
00000187 fbdb                 SUBAR 0x24, 0x0
00000188 f6fc                 BTRSS 0x3, 0x2
00000189 c673                 LGOTO 0x18c; main.o:_00954_DS_=0x18c
0000018a deb3                 MOVIA 0x4c
0000018b fbdc                 SUBAR 0x23, 0x0
0000018c                      main.o:_00954_DS_:
0000018c f7fc                 BTRSS 0x3, 0x0
0000018d c62f                 LGOTO 0x1d0; main.o:_00869_DS_=0x1d0
0000018e e0fc                 BCR 0x3, 0x6
0000018f fea0                 MOVR 0x5f, 0x0
00000190 f6fc                 BTRSS 0x3, 0x2
00000191 f920                 DECR 0x5f, 0x1
00000192 feaf                 MOVR 0x50, 0x0
00000193 dbfe                 XORIA 0x1
00000194 f6fc                 BTRSS 0x3, 0x2
00000195 c666                 LGOTO 0x199; main.o:_00848_DS_=0x199
00000196 deb0                 MOVIA 0x4f
00000197 ff1a                 MOVAR 0x65
00000198 c633                 LGOTO 0x1cc; main.o:_00849_DS_=0x1cc
00000199                      main.o:_00848_DS_:
00000199 e0fc                 BCR 0x3, 0x6
0000019a feaf                 MOVR 0x50, 0x0
0000019b dbfd                 XORIA 0x2
0000019c f6fc                 BTRSS 0x3, 0x2
0000019d c65e                 LGOTO 0x1a1; main.o:_00845_DS_=0x1a1
0000019e dead                 MOVIA 0x52
0000019f ff1a                 MOVAR 0x65
000001a0 c633                 LGOTO 0x1cc; main.o:_00849_DS_=0x1cc
000001a1                      main.o:_00845_DS_:
000001a1 e0fc                 BCR 0x3, 0x6
000001a2 feaf                 MOVR 0x50, 0x0
000001a3 dbfc                 XORIA 0x3
000001a4 f6fc                 BTRSS 0x3, 0x2
000001a5 c656                 LGOTO 0x1a9; main.o:_00842_DS_=0x1a9
000001a6 deaa                 MOVIA 0x55
000001a7 ff1a                 MOVAR 0x65
000001a8 c633                 LGOTO 0x1cc; main.o:_00849_DS_=0x1cc
000001a9                      main.o:_00842_DS_:
000001a9 e0fc                 BCR 0x3, 0x6
000001aa feaf                 MOVR 0x50, 0x0
000001ab dbfb                 XORIA 0x4
000001ac f6fc                 BTRSS 0x3, 0x2
000001ad c64e                 LGOTO 0x1b1; main.o:_00839_DS_=0x1b1
000001ae dea7                 MOVIA 0x58
000001af ff1a                 MOVAR 0x65
000001b0 c633                 LGOTO 0x1cc; main.o:_00849_DS_=0x1cc
000001b1                      main.o:_00839_DS_:
000001b1 e0fc                 BCR 0x3, 0x6
000001b2 feaf                 MOVR 0x50, 0x0
000001b3 dbfa                 XORIA 0x5
000001b4 f6fc                 BTRSS 0x3, 0x2
000001b5 c646                 LGOTO 0x1b9; main.o:_00836_DS_=0x1b9
000001b6 dea5                 MOVIA 0x5a
000001b7 ff1a                 MOVAR 0x65
000001b8 c633                 LGOTO 0x1cc; main.o:_00849_DS_=0x1cc
000001b9                      main.o:_00836_DS_:
000001b9 e0fc                 BCR 0x3, 0x6
000001ba feaf                 MOVR 0x50, 0x0
000001bb dbf9                 XORIA 0x6
000001bc f6fc                 BTRSS 0x3, 0x2
000001bd c63e                 LGOTO 0x1c1; main.o:_00833_DS_=0x1c1
000001be dea2                 MOVIA 0x5d
000001bf ff1a                 MOVAR 0x65
000001c0 c633                 LGOTO 0x1cc; main.o:_00849_DS_=0x1cc
000001c1                      main.o:_00833_DS_:
000001c1 e0fc                 BCR 0x3, 0x6
000001c2 feaf                 MOVR 0x50, 0x0
000001c3 dbf8                 XORIA 0x7
000001c4 f6fc                 BTRSS 0x3, 0x2
000001c5 c636                 LGOTO 0x1c9; main.o:_00830_DS_=0x1c9
000001c6 de9f                 MOVIA 0x60
000001c7 ff1a                 MOVAR 0x65
000001c8 c633                 LGOTO 0x1cc; main.o:_00849_DS_=0x1cc
000001c9                      main.o:_00830_DS_:
000001c9 de9c                 MOVIA 0x63
000001ca e0fc                 BCR 0x3, 0x6
000001cb ff1a                 MOVAR 0x65
000001cc                      main.o:_00849_DS_:
000001cc e0fc                 BCR 0x3, 0x6
000001cd fe9a                 MOVR 0x65, 0x0
000001ce ffb3                 SFUN 0xc
000001cf c5f2                 LGOTO 0x20d; main.o:_00878_DS_=0x20d
000001d0                      main.o:_00869_DS_:
000001d0 e0fc                 BCR 0x3, 0x6
000001d1 fea0                 MOVR 0x5f, 0x0
000001d2 f6fc                 BTRSS 0x3, 0x2
000001d3 f920                 DECR 0x5f, 0x1
000001d4 deff                 MOVIA 0x0
000001d5 fbdb                 SUBAR 0x24, 0x0
000001d6 f6fc                 BTRSS 0x3, 0x2
000001d7 c625                 LGOTO 0x1da; main.o:_00955_DS_=0x1da
000001d8 debd                 MOVIA 0x42
000001d9 fbdc                 SUBAR 0x23, 0x0
000001da                      main.o:_00955_DS_:
000001da f7fc                 BTRSS 0x3, 0x0
000001db c604                 LGOTO 0x1fb; main.o:_00863_DS_=0x1fb
000001dc defb                 MOVIA 0x4
000001dd e0fc                 BCR 0x3, 0x6
000001de fbaf                 SUBAR 0x50, 0x0
000001df f3fc                 BTRSC 0x3, 0x0
000001e0 c604                 LGOTO 0x1fb; main.o:_00863_DS_=0x1fb
000001e1 feaf                 MOVR 0x50, 0x0
000001e2 dbfe                 XORIA 0x1
000001e3 f6fc                 BTRSS 0x3, 0x2
000001e4 c617                 LGOTO 0x1e8; main.o:_00858_DS_=0x1e8
000001e5 deb0                 MOVIA 0x4f
000001e6 ff1a                 MOVAR 0x65
000001e7 c608                 LGOTO 0x1f7; main.o:_00859_DS_=0x1f7
000001e8                      main.o:_00858_DS_:
000001e8 e0fc                 BCR 0x3, 0x6
000001e9 feaf                 MOVR 0x50, 0x0
000001ea dbfd                 XORIA 0x2
000001eb f6fc                 BTRSS 0x3, 0x2
000001ec c60f                 LGOTO 0x1f0; main.o:_00855_DS_=0x1f0
000001ed dead                 MOVIA 0x52
000001ee ff1a                 MOVAR 0x65
000001ef c608                 LGOTO 0x1f7; main.o:_00859_DS_=0x1f7
000001f0                      main.o:_00855_DS_:
000001f0 e0fc                 BCR 0x3, 0x6
000001f1 feaf                 MOVR 0x50, 0x0
000001f2 dbfc                 XORIA 0x3
000001f3 f6fc                 BTRSS 0x3, 0x2
000001f4 c608                 LGOTO 0x1f7; main.o:_00859_DS_=0x1f7
000001f5 deaa                 MOVIA 0x55
000001f6 ff1a                 MOVAR 0x65
000001f7                      main.o:_00859_DS_:
000001f7 e0fc                 BCR 0x3, 0x6
000001f8 fe9a                 MOVR 0x65, 0x0
000001f9 ffb3                 SFUN 0xc
000001fa c5f8                 LGOTO 0x207; main.o:_00864_DS_=0x207
000001fb                      main.o:_00863_DS_:
000001fb deff                 MOVIA 0x0
000001fc e0fc                 BCR 0x3, 0x6
000001fd fbdb                 SUBAR 0x24, 0x0
000001fe f6fc                 BTRSS 0x3, 0x2
000001ff c5fd                 LGOTO 0x202; main.o:_00957_DS_=0x202
00000200 ded2                 MOVIA 0x2d
00000201 fbdc                 SUBAR 0x23, 0x0
00000202                      main.o:_00957_DS_:
00000202 f3fc                 BTRSC 0x3, 0x0
00000203 c5f8                 LGOTO 0x207; main.o:_00864_DS_=0x207
00000204 e0fc                 BCR 0x3, 0x6
00000205 feab                 MOVR 0x54, 0x0
00000206 ffb3                 SFUN 0xc
00000207                      main.o:_00864_DS_:
00000207 e0fc                 BCR 0x3, 0x6
00000208 feaf                 MOVR 0x50, 0x0
00000209 f2fc                 BTRSC 0x3, 0x2
0000020a c5f2                 LGOTO 0x20d; main.o:_00878_DS_=0x20d
0000020b feaf                 MOVR 0x50, 0x0
0000020c ff2e                 MOVAR 0x51
0000020d                      main.o:_00878_DS_:
0000020d ffef                 RET
0000020e                      _checkBatAD:
0000020e e0fc                 BCR 0x3, 0x6
0000020f fd5d                 CLRR 0x22
00000210 fd5f                 CLRR 0x20
00000211 fd5e                 CLRR 0x21
00000212 def7                 MOVIA 0x8
00000213 d6fb                 LCALL 0x104; _F_AIN4_Convert=0x104
00000214 e0fc                 BCR 0x3, 0x6
00000215 eade                 SWAPR 0x21, 0x0
00000216 dd0f                 ANDIA 0xf0
00000217 ff5e                 MOVAR 0x21
00000218 eadf                 SWAPR 0x20, 0x0
00000219 ff5f                 MOVAR 0x20
0000021a ddf0                 ANDIA 0xf
0000021b ee5e                 IORAR 0x21, 0x1
0000021c ed5f                 XORAR 0x20, 0x1
0000021d de0f                 MOVIA 0xf0
0000021e ef5d                 ANDAR 0x22, 0x1
0000021f fedd                 MOVR 0x22, 0x0
00000220 ff47                 MOVAR 0x38
00000221 deff                 MOVIA 0x0
00000222 ff46                 MOVAR 0x39
00000223 fec7                 MOVR 0x38, 0x0
00000224 fc5f                 ADDAR 0x20, 0x1
00000225 fec6                 MOVR 0x39, 0x0
00000226 f3fc                 BTRSC 0x3, 0x0
00000227 fac6                 INCR 0x39, 0x0
00000228 f2fc                 BTRSC 0x3, 0x2
00000229 c5d4                 LGOTO 0x22b; main.o:_00005_DS_=0x22b
0000022a fc5e                 ADDAR 0x21, 0x1
0000022b                      main.o:_00005_DS_:
0000022b e3fc                 BCR 0x3, 0x0
0000022c e0fc                 BCR 0x3, 0x6
0000022d ec5e                 RRR 0x21, 0x1
0000022e ec5f                 RRR 0x20, 0x1
0000022f e3fc                 BCR 0x3, 0x0
00000230 ec5e                 RRR 0x21, 0x1
00000231 ec5f                 RRR 0x20, 0x1
00000232 e3fc                 BCR 0x3, 0x0
00000233 ec5e                 RRR 0x21, 0x1
00000234 ec5f                 RRR 0x20, 0x1
00000235 fe90                 MOVR 0x6f, 0x0
00000236 f2fc                 BTRSC 0x3, 0x2
00000237 c5c3                 LGOTO 0x23c; main.o:_00508_DS_=0x23c
00000238 def1                 MOVIA 0xe
00000239 ff5f                 MOVAR 0x20
0000023a def9                 MOVIA 0x6
0000023b ff5e                 MOVAR 0x21
0000023c                      main.o:_00508_DS_:
0000023c def9                 MOVIA 0x6
0000023d e0fc                 BCR 0x3, 0x6
0000023e fbde                 SUBAR 0x21, 0x0
0000023f f6fc                 BTRSS 0x3, 0x2
00000240 c5bc                 LGOTO 0x243; main.o:_00779_DS_=0x243
00000241 def0                 MOVIA 0xf
00000242 fbdf                 SUBAR 0x20, 0x0
00000243                      main.o:_00779_DS_:
00000243 f7fc                 BTRSS 0x3, 0x0
00000244 c5b7                 LGOTO 0x248; main.o:_00520_DS_=0x248
00000245 e0fc                 BCR 0x3, 0x6
00000246 fd19                 CLRR 0x66
00000247 c58c                 LGOTO 0x273; main.o:_00521_DS_=0x273
00000248                      main.o:_00520_DS_:
00000248 defb                 MOVIA 0x4
00000249 e0fc                 BCR 0x3, 0x6
0000024a fbde                 SUBAR 0x21, 0x0
0000024b f6fc                 BTRSS 0x3, 0x2
0000024c c5b0                 LGOTO 0x24f; main.o:_00780_DS_=0x24f
0000024d de90                 MOVIA 0x6f
0000024e fbdf                 SUBAR 0x20, 0x0
0000024f                      main.o:_00780_DS_:
0000024f f3fc                 BTRSC 0x3, 0x0
00000250 c58f                 LGOTO 0x270; main.o:_00517_DS_=0x270
00000251 e0fc                 BCR 0x3, 0x6
00000252 fa19                 INCR 0x66, 0x1
00000253 def5                 MOVIA 0xa
00000254 fb99                 SUBAR 0x66, 0x0
00000255 f7fc                 BTRSS 0x3, 0x0
00000256 c3dc                 LGOTO 0x423; main.o:_00624_DS_=0x423
00000257 def5                 MOVIA 0xa
00000258 ff19                 MOVAR 0x66
00000259 fd2a                 CLRR 0x55
0000025a deae                 MOVIA 0x51
0000025b ff5f                 MOVAR 0x20
0000025c defb                 MOVIA 0x4
0000025d ff5e                 MOVAR 0x21
0000025e feaf                 MOVR 0x50, 0x0
0000025f f2fc                 BTRSC 0x3, 0x2
00000260 c597                 LGOTO 0x268; main.o:_00512_DS_=0x268
00000261 fa1b                 INCR 0x64, 0x1
00000262 fe9b                 MOVR 0x64, 0x0
00000263 dbf5                 XORIA 0xa
00000264 f6fc                 BTRSS 0x3, 0x2
00000265 c597                 LGOTO 0x268; main.o:_00512_DS_=0x268
00000266 deef                 MOVIA 0x10
00000267 ff1c                 MOVAR 0x63
00000268                      main.o:_00512_DS_:
00000268 def3                 MOVIA 0xc
00000269 e0fc                 BCR 0x3, 0x6
0000026a fb9b                 SUBAR 0x64, 0x0
0000026b f7fc                 BTRSS 0x3, 0x0
0000026c c58c                 LGOTO 0x273; main.o:_00521_DS_=0x273
0000026d def4                 MOVIA 0xb
0000026e ff1b                 MOVAR 0x64
0000026f c58c                 LGOTO 0x273; main.o:_00521_DS_=0x273
00000270                      main.o:_00517_DS_:
00000270 e0fc                 BCR 0x3, 0x6
00000271 fd19                 CLRR 0x66
00000272 fd1b                 CLRR 0x64
00000273                      main.o:_00521_DS_:
00000273 de6e                 MOVIA 0x91
00000274 e0fc                 BCR 0x3, 0x6
00000275 fc5f                 ADDAR 0x20, 0x1
00000276 de04                 MOVIA 0xfb
00000277 f3fc                 BTRSC 0x3, 0x0
00000278 de03                 MOVIA 0xfc
00000279 fc5e                 ADDAR 0x21, 0x1
0000027a defe                 MOVIA 0x1
0000027b fbde                 SUBAR 0x21, 0x0
0000027c f6fc                 BTRSS 0x3, 0x2
0000027d c57f                 LGOTO 0x280; main.o:_00783_DS_=0x280
0000027e de5b                 MOVIA 0xa4
0000027f fbdf                 SUBAR 0x20, 0x0
00000280                      main.o:_00783_DS_:
00000280 f7fc                 BTRSS 0x3, 0x0
00000281 c579                 LGOTO 0x286; main.o:_00620_DS_=0x286
00000282 def5                 MOVIA 0xa
00000283 e0fc                 BCR 0x3, 0x6
00000284 ff2a                 MOVAR 0x55
00000285 c3e2                 LGOTO 0x41d; main.o:_00621_DS_=0x41d
00000286                      main.o:_00620_DS_:
00000286 defe                 MOVIA 0x1
00000287 e0fc                 BCR 0x3, 0x6
00000288 fbde                 SUBAR 0x21, 0x0
00000289 f6fc                 BTRSS 0x3, 0x2
0000028a c572                 LGOTO 0x28d; main.o:_00784_DS_=0x28d
0000028b de65                 MOVIA 0x9a
0000028c fbdf                 SUBAR 0x20, 0x0
0000028d                      main.o:_00784_DS_:
0000028d f7fc                 BTRSS 0x3, 0x0
0000028e c56c                 LGOTO 0x293; main.o:_00617_DS_=0x293
0000028f def6                 MOVIA 0x9
00000290 e0fc                 BCR 0x3, 0x6
00000291 ff2a                 MOVAR 0x55
00000292 c3e2                 LGOTO 0x41d; main.o:_00621_DS_=0x41d
00000293                      main.o:_00617_DS_:
00000293 defe                 MOVIA 0x1
00000294 e0fc                 BCR 0x3, 0x6
00000295 fbde                 SUBAR 0x21, 0x0
00000296 f6fc                 BTRSS 0x3, 0x2
00000297 c565                 LGOTO 0x29a; main.o:_00785_DS_=0x29a
00000298 de73                 MOVIA 0x8c
00000299 fbdf                 SUBAR 0x20, 0x0
0000029a                      main.o:_00785_DS_:
0000029a f7fc                 BTRSS 0x3, 0x0
0000029b c523                 LGOTO 0x2dc; main.o:_00614_DS_=0x2dc
0000029c e0fc                 BCR 0x3, 0x6
0000029d fd1d                 CLRR 0x62
0000029e def7                 MOVIA 0x8
0000029f fbaa                 SUBAR 0x55, 0x0
000002a0 f3fc                 BTRSC 0x3, 0x0
000002a1 c551                 LGOTO 0x2ae; main.o:_00528_DS_=0x2ae
000002a2 defe                 MOVIA 0x1
000002a3 fbde                 SUBAR 0x21, 0x0
000002a4 f6fc                 BTRSS 0x3, 0x2
000002a5 c557                 LGOTO 0x2a8; main.o:_00787_DS_=0x2a8
000002a6 de6e                 MOVIA 0x91
000002a7 fbdf                 SUBAR 0x20, 0x0
000002a8                      main.o:_00787_DS_:
000002a8 f7fc                 BTRSS 0x3, 0x0
000002a9 c541                 LGOTO 0x2be; main.o:_00529_DS_=0x2be
000002aa def7                 MOVIA 0x8
000002ab e0fc                 BCR 0x3, 0x6
000002ac ff2a                 MOVAR 0x55
000002ad c541                 LGOTO 0x2be; main.o:_00529_DS_=0x2be
000002ae                      main.o:_00528_DS_:
000002ae e0fc                 BCR 0x3, 0x6
000002af fea9                 MOVR 0x56, 0x0
000002b0 eea8                 IORAR 0x57, 0x0
000002b1 f6fc                 BTRSS 0x3, 0x2
000002b2 c541                 LGOTO 0x2be; main.o:_00529_DS_=0x2be
000002b3 defe                 MOVIA 0x1
000002b4 fbde                 SUBAR 0x21, 0x0
000002b5 f6fc                 BTRSS 0x3, 0x2
000002b6 c546                 LGOTO 0x2b9; main.o:_00788_DS_=0x2b9
000002b7 de6a                 MOVIA 0x95
000002b8 fbdf                 SUBAR 0x20, 0x0
000002b9                      main.o:_00788_DS_:
000002b9 f3fc                 BTRSC 0x3, 0x0
000002ba c541                 LGOTO 0x2be; main.o:_00529_DS_=0x2be
000002bb def7                 MOVIA 0x8
000002bc e0fc                 BCR 0x3, 0x6
000002bd ff2a                 MOVAR 0x55
000002be                      main.o:_00529_DS_:
000002be e0fc                 BCR 0x3, 0x6
000002bf fea9                 MOVR 0x56, 0x0
000002c0 eea8                 IORAR 0x57, 0x0
000002c1 f2fc                 BTRSC 0x3, 0x2
000002c2 c3e2                 LGOTO 0x41d; main.o:_00621_DS_=0x41d
000002c3 defe                 MOVIA 0x1
000002c4 fbde                 SUBAR 0x21, 0x0
000002c5 f6fc                 BTRSS 0x3, 0x2
000002c6 c536                 LGOTO 0x2c9; main.o:_00789_DS_=0x2c9
000002c7 de68                 MOVIA 0x97
000002c8 fbdf                 SUBAR 0x20, 0x0
000002c9                      main.o:_00789_DS_:
000002c9 f7fc                 BTRSS 0x3, 0x0
000002ca c3e2                 LGOTO 0x41d; main.o:_00621_DS_=0x41d
000002cb defd                 MOVIA 0x2
000002cc e0fc                 BCR 0x3, 0x6
000002cd fba8                 SUBAR 0x57, 0x0
000002ce f6fc                 BTRSS 0x3, 0x2
000002cf c52d                 LGOTO 0x2d2; main.o:_00790_DS_=0x2d2
000002d0 dea6                 MOVIA 0x59
000002d1 fba9                 SUBAR 0x56, 0x0
000002d2                      main.o:_00790_DS_:
000002d2 f7fc                 BTRSS 0x3, 0x0
000002d3 c3e2                 LGOTO 0x41d; main.o:_00621_DS_=0x41d
000002d4 dea7                 MOVIA 0x58
000002d5 e0fc                 BCR 0x3, 0x6
000002d6 ff29                 MOVAR 0x56
000002d7 defd                 MOVIA 0x2
000002d8 ff28                 MOVAR 0x57
000002d9 def6                 MOVIA 0x9
000002da ff2a                 MOVAR 0x55
000002db c3e2                 LGOTO 0x41d; main.o:_00621_DS_=0x41d
000002dc                      main.o:_00614_DS_:
000002dc defe                 MOVIA 0x1
000002dd e0fc                 BCR 0x3, 0x6
000002de fbde                 SUBAR 0x21, 0x0
000002df f6fc                 BTRSS 0x3, 0x2
000002e0 c51c                 LGOTO 0x2e3; main.o:_00791_DS_=0x2e3
000002e1 de82                 MOVIA 0x7d
000002e2 fbdf                 SUBAR 0x20, 0x0
000002e3                      main.o:_00791_DS_:
000002e3 f7fc                 BTRSS 0x3, 0x0
000002e4 c4f2                 LGOTO 0x30d; main.o:_00611_DS_=0x30d
000002e5 e0fc                 BCR 0x3, 0x6
000002e6 feaa                 MOVR 0x55, 0x0
000002e7 dbf9                 XORIA 0x6
000002e8 f6fc                 BTRSS 0x3, 0x2
000002e9 c50a                 LGOTO 0x2f5; main.o:_00537_DS_=0x2f5
000002ea defe                 MOVIA 0x1
000002eb fbde                 SUBAR 0x21, 0x0
000002ec f6fc                 BTRSS 0x3, 0x2
000002ed c50f                 LGOTO 0x2f0; main.o:_00792_DS_=0x2f0
000002ee de7d                 MOVIA 0x82
000002ef fbdf                 SUBAR 0x20, 0x0
000002f0                      main.o:_00792_DS_:
000002f0 f7fc                 BTRSS 0x3, 0x0
000002f1 c50a                 LGOTO 0x2f5; main.o:_00537_DS_=0x2f5
000002f2 def8                 MOVIA 0x7
000002f3 e0fc                 BCR 0x3, 0x6
000002f4 ff2a                 MOVAR 0x55
000002f5                      main.o:_00537_DS_:
000002f5 def7                 MOVIA 0x8
000002f6 e0fc                 BCR 0x3, 0x6
000002f7 fbaa                 SUBAR 0x55, 0x0
000002f8 f7fc                 BTRSS 0x3, 0x0
000002f9 c4f9                 LGOTO 0x306; main.o:_00541_DS_=0x306
000002fa defe                 MOVIA 0x1
000002fb fbde                 SUBAR 0x21, 0x0
000002fc f6fc                 BTRSS 0x3, 0x2
000002fd c4ff                 LGOTO 0x300; main.o:_00794_DS_=0x300
000002fe de79                 MOVIA 0x86
000002ff fbdf                 SUBAR 0x20, 0x0
00000300                      main.o:_00794_DS_:
00000300 f3fc                 BTRSC 0x3, 0x0
00000301 c4f6                 LGOTO 0x309; main.o:_00542_DS_=0x309
00000302 def8                 MOVIA 0x7
00000303 e0fc                 BCR 0x3, 0x6
00000304 ff2a                 MOVAR 0x55
00000305 c4f6                 LGOTO 0x309; main.o:_00542_DS_=0x309
00000306                      main.o:_00541_DS_:
00000306 def8                 MOVIA 0x7
00000307 e0fc                 BCR 0x3, 0x6
00000308 ff2a                 MOVAR 0x55
00000309                      main.o:_00542_DS_:
00000309 e0fc                 BCR 0x3, 0x6
0000030a fd29                 CLRR 0x56
0000030b fd28                 CLRR 0x57
0000030c c3e2                 LGOTO 0x41d; main.o:_00621_DS_=0x41d
0000030d                      main.o:_00611_DS_:
0000030d defe                 MOVIA 0x1
0000030e e0fc                 BCR 0x3, 0x6
0000030f fbde                 SUBAR 0x21, 0x0
00000310 f6fc                 BTRSS 0x3, 0x2
00000311 c4eb                 LGOTO 0x314; main.o:_00795_DS_=0x314
00000312 dea5                 MOVIA 0x5a
00000313 fbdf                 SUBAR 0x20, 0x0
00000314                      main.o:_00795_DS_:
00000314 f7fc                 BTRSS 0x3, 0x0
00000315 c4c1                 LGOTO 0x33e; main.o:_00608_DS_=0x33e
00000316 e0fc                 BCR 0x3, 0x6
00000317 feaa                 MOVR 0x55, 0x0
00000318 dbfa                 XORIA 0x5
00000319 f6fc                 BTRSS 0x3, 0x2
0000031a c4d9                 LGOTO 0x326; main.o:_00546_DS_=0x326
0000031b defe                 MOVIA 0x1
0000031c fbde                 SUBAR 0x21, 0x0
0000031d f6fc                 BTRSS 0x3, 0x2
0000031e c4de                 LGOTO 0x321; main.o:_00796_DS_=0x321
0000031f dea0                 MOVIA 0x5f
00000320 fbdf                 SUBAR 0x20, 0x0
00000321                      main.o:_00796_DS_:
00000321 f7fc                 BTRSS 0x3, 0x0
00000322 c4d9                 LGOTO 0x326; main.o:_00546_DS_=0x326
00000323 def9                 MOVIA 0x6
00000324 e0fc                 BCR 0x3, 0x6
00000325 ff2a                 MOVAR 0x55
00000326                      main.o:_00546_DS_:
00000326 def8                 MOVIA 0x7
00000327 e0fc                 BCR 0x3, 0x6
00000328 fbaa                 SUBAR 0x55, 0x0
00000329 f7fc                 BTRSS 0x3, 0x0
0000032a c4c8                 LGOTO 0x337; main.o:_00550_DS_=0x337
0000032b defe                 MOVIA 0x1
0000032c fbde                 SUBAR 0x21, 0x0
0000032d f6fc                 BTRSS 0x3, 0x2
0000032e c4ce                 LGOTO 0x331; main.o:_00798_DS_=0x331
0000032f de88                 MOVIA 0x77
00000330 fbdf                 SUBAR 0x20, 0x0
00000331                      main.o:_00798_DS_:
00000331 f3fc                 BTRSC 0x3, 0x0
00000332 c4c5                 LGOTO 0x33a; main.o:_00551_DS_=0x33a
00000333 def9                 MOVIA 0x6
00000334 e0fc                 BCR 0x3, 0x6
00000335 ff2a                 MOVAR 0x55
00000336 c4c5                 LGOTO 0x33a; main.o:_00551_DS_=0x33a
00000337                      main.o:_00550_DS_:
00000337 def9                 MOVIA 0x6
00000338 e0fc                 BCR 0x3, 0x6
00000339 ff2a                 MOVAR 0x55
0000033a                      main.o:_00551_DS_:
0000033a e0fc                 BCR 0x3, 0x6
0000033b fd29                 CLRR 0x56
0000033c fd28                 CLRR 0x57
0000033d c3e2                 LGOTO 0x41d; main.o:_00621_DS_=0x41d
0000033e                      main.o:_00608_DS_:
0000033e defe                 MOVIA 0x1
0000033f e0fc                 BCR 0x3, 0x6
00000340 fbde                 SUBAR 0x21, 0x0
00000341 f6fc                 BTRSS 0x3, 0x2
00000342 c4ba                 LGOTO 0x345; main.o:_00799_DS_=0x345
00000343 decd                 MOVIA 0x32
00000344 fbdf                 SUBAR 0x20, 0x0
00000345                      main.o:_00799_DS_:
00000345 f7fc                 BTRSS 0x3, 0x0
00000346 c490                 LGOTO 0x36f; main.o:_00605_DS_=0x36f
00000347 e0fc                 BCR 0x3, 0x6
00000348 feaa                 MOVR 0x55, 0x0
00000349 dbfb                 XORIA 0x4
0000034a f6fc                 BTRSS 0x3, 0x2
0000034b c4a8                 LGOTO 0x357; main.o:_00555_DS_=0x357
0000034c defe                 MOVIA 0x1
0000034d fbde                 SUBAR 0x21, 0x0
0000034e f6fc                 BTRSS 0x3, 0x2
0000034f c4ad                 LGOTO 0x352; main.o:_00800_DS_=0x352
00000350 dec8                 MOVIA 0x37
00000351 fbdf                 SUBAR 0x20, 0x0
00000352                      main.o:_00800_DS_:
00000352 f7fc                 BTRSS 0x3, 0x0
00000353 c4a8                 LGOTO 0x357; main.o:_00555_DS_=0x357
00000354 defa                 MOVIA 0x5
00000355 e0fc                 BCR 0x3, 0x6
00000356 ff2a                 MOVAR 0x55
00000357                      main.o:_00555_DS_:
00000357 def9                 MOVIA 0x6
00000358 e0fc                 BCR 0x3, 0x6
00000359 fbaa                 SUBAR 0x55, 0x0
0000035a f7fc                 BTRSS 0x3, 0x0
0000035b c497                 LGOTO 0x368; main.o:_00559_DS_=0x368
0000035c defe                 MOVIA 0x1
0000035d fbde                 SUBAR 0x21, 0x0
0000035e f6fc                 BTRSS 0x3, 0x2
0000035f c49d                 LGOTO 0x362; main.o:_00802_DS_=0x362
00000360 deab                 MOVIA 0x54
00000361 fbdf                 SUBAR 0x20, 0x0
00000362                      main.o:_00802_DS_:
00000362 f3fc                 BTRSC 0x3, 0x0
00000363 c494                 LGOTO 0x36b; main.o:_00560_DS_=0x36b
00000364 defa                 MOVIA 0x5
00000365 e0fc                 BCR 0x3, 0x6
00000366 ff2a                 MOVAR 0x55
00000367 c494                 LGOTO 0x36b; main.o:_00560_DS_=0x36b
00000368                      main.o:_00559_DS_:
00000368 defa                 MOVIA 0x5
00000369 e0fc                 BCR 0x3, 0x6
0000036a ff2a                 MOVAR 0x55
0000036b                      main.o:_00560_DS_:
0000036b e0fc                 BCR 0x3, 0x6
0000036c fd29                 CLRR 0x56
0000036d fd28                 CLRR 0x57
0000036e c3e2                 LGOTO 0x41d; main.o:_00621_DS_=0x41d
0000036f                      main.o:_00605_DS_:
0000036f deff                 MOVIA 0x0
00000370 e0fc                 BCR 0x3, 0x6
00000371 fbde                 SUBAR 0x21, 0x0
00000372 f6fc                 BTRSS 0x3, 0x2
00000373 c489                 LGOTO 0x376; main.o:_00803_DS_=0x376
00000374 de0e                 MOVIA 0xf1
00000375 fbdf                 SUBAR 0x20, 0x0
00000376                      main.o:_00803_DS_:
00000376 f7fc                 BTRSS 0x3, 0x0
00000377 c45f                 LGOTO 0x3a0; main.o:_00602_DS_=0x3a0
00000378 e0fc                 BCR 0x3, 0x6
00000379 feaa                 MOVR 0x55, 0x0
0000037a dbfc                 XORIA 0x3
0000037b f6fc                 BTRSS 0x3, 0x2
0000037c c477                 LGOTO 0x388; main.o:_00564_DS_=0x388
0000037d deff                 MOVIA 0x0
0000037e fbde                 SUBAR 0x21, 0x0
0000037f f6fc                 BTRSS 0x3, 0x2
00000380 c47c                 LGOTO 0x383; main.o:_00804_DS_=0x383
00000381 de09                 MOVIA 0xf6
00000382 fbdf                 SUBAR 0x20, 0x0
00000383                      main.o:_00804_DS_:
00000383 f7fc                 BTRSS 0x3, 0x0
00000384 c477                 LGOTO 0x388; main.o:_00564_DS_=0x388
00000385 defb                 MOVIA 0x4
00000386 e0fc                 BCR 0x3, 0x6
00000387 ff2a                 MOVAR 0x55
00000388                      main.o:_00564_DS_:
00000388 defa                 MOVIA 0x5
00000389 e0fc                 BCR 0x3, 0x6
0000038a fbaa                 SUBAR 0x55, 0x0
0000038b f7fc                 BTRSS 0x3, 0x0
0000038c c466                 LGOTO 0x399; main.o:_00568_DS_=0x399
0000038d defe                 MOVIA 0x1
0000038e fbde                 SUBAR 0x21, 0x0
0000038f f6fc                 BTRSS 0x3, 0x2
00000390 c46c                 LGOTO 0x393; main.o:_00806_DS_=0x393
00000391 ded3                 MOVIA 0x2c
00000392 fbdf                 SUBAR 0x20, 0x0
00000393                      main.o:_00806_DS_:
00000393 f3fc                 BTRSC 0x3, 0x0
00000394 c463                 LGOTO 0x39c; main.o:_00569_DS_=0x39c
00000395 defb                 MOVIA 0x4
00000396 e0fc                 BCR 0x3, 0x6
00000397 ff2a                 MOVAR 0x55
00000398 c463                 LGOTO 0x39c; main.o:_00569_DS_=0x39c
00000399                      main.o:_00568_DS_:
00000399 defb                 MOVIA 0x4
0000039a e0fc                 BCR 0x3, 0x6
0000039b ff2a                 MOVAR 0x55
0000039c                      main.o:_00569_DS_:
0000039c e0fc                 BCR 0x3, 0x6
0000039d fd29                 CLRR 0x56
0000039e fd28                 CLRR 0x57
0000039f c3e2                 LGOTO 0x41d; main.o:_00621_DS_=0x41d
000003a0                      main.o:_00602_DS_:
000003a0 deff                 MOVIA 0x0
000003a1 e0fc                 BCR 0x3, 0x6
000003a2 fbde                 SUBAR 0x21, 0x0
000003a3 f6fc                 BTRSS 0x3, 0x2
000003a4 c458                 LGOTO 0x3a7; main.o:_00807_DS_=0x3a7
000003a5 de36                 MOVIA 0xc9
000003a6 fbdf                 SUBAR 0x20, 0x0
000003a7                      main.o:_00807_DS_:
000003a7 f7fc                 BTRSS 0x3, 0x0
000003a8 c42e                 LGOTO 0x3d1; main.o:_00599_DS_=0x3d1
000003a9 e0fc                 BCR 0x3, 0x6
000003aa feaa                 MOVR 0x55, 0x0
000003ab dbfd                 XORIA 0x2
000003ac f6fc                 BTRSS 0x3, 0x2
000003ad c446                 LGOTO 0x3b9; main.o:_00573_DS_=0x3b9
000003ae deff                 MOVIA 0x0
000003af fbde                 SUBAR 0x21, 0x0
000003b0 f6fc                 BTRSS 0x3, 0x2
000003b1 c44b                 LGOTO 0x3b4; main.o:_00808_DS_=0x3b4
000003b2 de2c                 MOVIA 0xd3
000003b3 fbdf                 SUBAR 0x20, 0x0
000003b4                      main.o:_00808_DS_:
000003b4 f7fc                 BTRSS 0x3, 0x0
000003b5 c446                 LGOTO 0x3b9; main.o:_00573_DS_=0x3b9
000003b6 defc                 MOVIA 0x3
000003b7 e0fc                 BCR 0x3, 0x6
000003b8 ff2a                 MOVAR 0x55
000003b9                      main.o:_00573_DS_:
000003b9 defb                 MOVIA 0x4
000003ba e0fc                 BCR 0x3, 0x6
000003bb fbaa                 SUBAR 0x55, 0x0
000003bc f7fc                 BTRSS 0x3, 0x0
000003bd c435                 LGOTO 0x3ca; main.o:_00577_DS_=0x3ca
000003be deff                 MOVIA 0x0
000003bf fbde                 SUBAR 0x21, 0x0
000003c0 f6fc                 BTRSS 0x3, 0x2
000003c1 c43b                 LGOTO 0x3c4; main.o:_00810_DS_=0x3c4
000003c2 de14                 MOVIA 0xeb
000003c3 fbdf                 SUBAR 0x20, 0x0
000003c4                      main.o:_00810_DS_:
000003c4 f3fc                 BTRSC 0x3, 0x0
000003c5 c432                 LGOTO 0x3cd; main.o:_00578_DS_=0x3cd
000003c6 defc                 MOVIA 0x3
000003c7 e0fc                 BCR 0x3, 0x6
000003c8 ff2a                 MOVAR 0x55
000003c9 c432                 LGOTO 0x3cd; main.o:_00578_DS_=0x3cd
000003ca                      main.o:_00577_DS_:
000003ca defc                 MOVIA 0x3
000003cb e0fc                 BCR 0x3, 0x6
000003cc ff2a                 MOVAR 0x55
000003cd                      main.o:_00578_DS_:
000003cd e0fc                 BCR 0x3, 0x6
000003ce fd29                 CLRR 0x56
000003cf fd28                 CLRR 0x57
000003d0 c3e2                 LGOTO 0x41d; main.o:_00621_DS_=0x41d
000003d1                      main.o:_00599_DS_:
000003d1 deff                 MOVIA 0x0
000003d2 e0fc                 BCR 0x3, 0x6
000003d3 fbde                 SUBAR 0x21, 0x0
000003d4 f6fc                 BTRSS 0x3, 0x2
000003d5 c427                 LGOTO 0x3d8; main.o:_00811_DS_=0x3d8
000003d6 de9a                 MOVIA 0x65
000003d7 fbdf                 SUBAR 0x20, 0x0
000003d8                      main.o:_00811_DS_:
000003d8 f7fc                 BTRSS 0x3, 0x0
000003d9 c3fd                 LGOTO 0x402; main.o:_00596_DS_=0x402
000003da e0fc                 BCR 0x3, 0x6
000003db feaa                 MOVR 0x55, 0x0
000003dc dbfe                 XORIA 0x1
000003dd f6fc                 BTRSS 0x3, 0x2
000003de c415                 LGOTO 0x3ea; main.o:_00582_DS_=0x3ea
000003df deff                 MOVIA 0x0
000003e0 fbde                 SUBAR 0x21, 0x0
000003e1 f6fc                 BTRSS 0x3, 0x2
000003e2 c41a                 LGOTO 0x3e5; main.o:_00812_DS_=0x3e5
000003e3 de90                 MOVIA 0x6f
000003e4 fbdf                 SUBAR 0x20, 0x0
000003e5                      main.o:_00812_DS_:
000003e5 f7fc                 BTRSS 0x3, 0x0
000003e6 c415                 LGOTO 0x3ea; main.o:_00582_DS_=0x3ea
000003e7 defd                 MOVIA 0x2
000003e8 e0fc                 BCR 0x3, 0x6
000003e9 ff2a                 MOVAR 0x55
000003ea                      main.o:_00582_DS_:
000003ea defc                 MOVIA 0x3
000003eb e0fc                 BCR 0x3, 0x6
000003ec fbaa                 SUBAR 0x55, 0x0
000003ed f7fc                 BTRSS 0x3, 0x0
000003ee c404                 LGOTO 0x3fb; main.o:_00586_DS_=0x3fb
000003ef deff                 MOVIA 0x0
000003f0 fbde                 SUBAR 0x21, 0x0
000003f1 f6fc                 BTRSS 0x3, 0x2
000003f2 c40a                 LGOTO 0x3f5; main.o:_00814_DS_=0x3f5
000003f3 de41                 MOVIA 0xbe
000003f4 fbdf                 SUBAR 0x20, 0x0
000003f5                      main.o:_00814_DS_:
000003f5 f3fc                 BTRSC 0x3, 0x0
000003f6 c401                 LGOTO 0x3fe; main.o:_00587_DS_=0x3fe
000003f7 defd                 MOVIA 0x2
000003f8 e0fc                 BCR 0x3, 0x6
000003f9 ff2a                 MOVAR 0x55
000003fa c401                 LGOTO 0x3fe; main.o:_00587_DS_=0x3fe
000003fb                      main.o:_00586_DS_:
000003fb defd                 MOVIA 0x2
000003fc e0fc                 BCR 0x3, 0x6
000003fd ff2a                 MOVAR 0x55
000003fe                      main.o:_00587_DS_:
000003fe e0fc                 BCR 0x3, 0x6
000003ff fd29                 CLRR 0x56
00000400 fd28                 CLRR 0x57
00000401 c3e2                 LGOTO 0x41d; main.o:_00621_DS_=0x41d
00000402                      main.o:_00596_DS_:
00000402 e0fc                 BCR 0x3, 0x6
00000403 fedf                 MOVR 0x20, 0x0
00000404 eede                 IORAR 0x21, 0x0
00000405 f2fc                 BTRSC 0x3, 0x2
00000406 c3e2                 LGOTO 0x41d; main.o:_00621_DS_=0x41d
00000407 defd                 MOVIA 0x2
00000408 fbaa                 SUBAR 0x55, 0x0
00000409 f7fc                 BTRSS 0x3, 0x0
0000040a c3e8                 LGOTO 0x417; main.o:_00591_DS_=0x417
0000040b deff                 MOVIA 0x0
0000040c fbde                 SUBAR 0x21, 0x0
0000040d f6fc                 BTRSS 0x3, 0x2
0000040e c3ee                 LGOTO 0x411; main.o:_00816_DS_=0x411
0000040f dea5                 MOVIA 0x5a
00000410 fbdf                 SUBAR 0x20, 0x0
00000411                      main.o:_00816_DS_:
00000411 f3fc                 BTRSC 0x3, 0x0
00000412 c3e5                 LGOTO 0x41a; main.o:_00592_DS_=0x41a
00000413 defe                 MOVIA 0x1
00000414 e0fc                 BCR 0x3, 0x6
00000415 ff2a                 MOVAR 0x55
00000416 c3e5                 LGOTO 0x41a; main.o:_00592_DS_=0x41a
00000417                      main.o:_00591_DS_:
00000417 defe                 MOVIA 0x1
00000418 e0fc                 BCR 0x3, 0x6
00000419 ff2a                 MOVAR 0x55
0000041a                      main.o:_00592_DS_:
0000041a e0fc                 BCR 0x3, 0x6
0000041b fd29                 CLRR 0x56
0000041c fd28                 CLRR 0x57
0000041d                      main.o:_00621_DS_:
0000041d e0fc                 BCR 0x3, 0x6
0000041e feaf                 MOVR 0x50, 0x0
0000041f f2fc                 BTRSC 0x3, 0x2
00000420 c3dc                 LGOTO 0x423; main.o:_00624_DS_=0x423
00000421 feaf                 MOVR 0x50, 0x0
00000422 ff2e                 MOVAR 0x51
00000423                      main.o:_00624_DS_:
00000423 ffef                 RET
00000424                      _initAD:
00000424 de7b                 MOVIA 0x84
00000425 ff6f                 MOVAR 0x10
00000426 fd6c                 CLRR 0x13
00000427 deef                 MOVIA 0x10
00000428 ff6e                 MOVAR 0x11
00000429 defc                 MOVIA 0x3
0000042a ff6b                 MOVAR 0x14
0000042b e5ef                 BSR 0x10, 0x4
0000042c de9b                 MOVIA 0x64
0000042d d3d0                 LCALL 0x42f; _delay=0x42f
0000042e ffef                 RET
0000042f                      _delay:
0000042f e0fc                 BCR 0x3, 0x6
00000430 ff49                 MOVAR 0x36
00000431 fd48                 CLRR 0x37
00000432                      main.o:_00496_DS_:
00000432 e0fc                 BCR 0x3, 0x6
00000433 fec9                 MOVR 0x36, 0x0
00000434 fbc8                 SUBAR 0x37, 0x0
00000435 f3fc                 BTRSC 0x3, 0x0
00000436 c3c5                 LGOTO 0x43a; main.o:_00498_DS_=0x43a
00000437 ffff                 NOP
00000438 fa48                 INCR 0x37, 0x1
00000439 c3cd                 LGOTO 0x432; main.o:_00496_DS_=0x432
0000043a                      main.o:_00498_DS_:
0000043a ffef                 RET
0000043b                      _chrgCtr:
0000043b e0fc                 BCR 0x3, 0x6
0000043c f57a                 BTRSS 0x5, 0x5
0000043d c36d                 LGOTO 0x492; main.o:_00455_DS_=0x492
0000043e defe                 MOVIA 0x1
0000043f ff16                 MOVAR 0x69
00000440 fd2f                 CLRR 0x50
00000441 fd1f                 CLRR 0x60
00000442 d30b                 LCALL 0x4f4; _pwmStop=0x4f4
00000443 def6                 MOVIA 0x9
00000444 e0fc                 BCR 0x3, 0x6
00000445 fbaa                 SUBAR 0x55, 0x0
00000446 f7fc                 BTRSS 0x3, 0x0
00000447 c3a4                 LGOTO 0x45b; main.o:_00450_DS_=0x45b
00000448 def7                 MOVIA 0x8
00000449 ff2e                 MOVAR 0x51
0000044a feaa                 MOVR 0x55, 0x0
0000044b dbf5                 XORIA 0xa
0000044c f6fc                 BTRSS 0x3, 0x2
0000044d c3a7                 LGOTO 0x458; main.o:_00439_DS_=0x458
0000044e fa1d                 INCR 0x62, 0x1
0000044f de9a                 MOVIA 0x65
00000450 fb9d                 SUBAR 0x62, 0x0
00000451 f7fc                 BTRSS 0x3, 0x0
00000452 c3a7                 LGOTO 0x458; main.o:_00439_DS_=0x458
00000453 ffea                 IOSTR 0x5
00000454 ff4d                 MOVAR 0x32
00000455 e7cd                 BSR 0x32, 0x0
00000456 fecd                 MOVR 0x32, 0x0
00000457 fffa                 IOST 0x5
00000458                      main.o:_00439_DS_:
00000458 e0fc                 BCR 0x3, 0x6
00000459 e6fa                 BSR 0x5, 0x2
0000045a c35a                 LGOTO 0x4a5; main.o:_00457_DS_=0x4a5
0000045b                      main.o:_00450_DS_:
0000045b e0fc                 BCR 0x3, 0x6
0000045c e2fa                 BCR 0x5, 0x2
0000045d feb1                 MOVR 0x4e, 0x0
0000045e f6fc                 BTRSS 0x3, 0x2
0000045f c37e                 LGOTO 0x481; main.o:_00444_DS_=0x481
00000460 def6                 MOVIA 0x9
00000461 fbaa                 SUBAR 0x55, 0x0
00000462 f3fc                 BTRSC 0x3, 0x0
00000463 c37e                 LGOTO 0x481; main.o:_00444_DS_=0x481
00000464 feaa                 MOVR 0x55, 0x0
00000465 ff4d                 MOVAR 0x32
00000466 fd4c                 CLRR 0x33
00000467 de00                 MOVIA 0xff
00000468 fc4d                 ADDAR 0x32, 0x1
00000469 f3fc                 BTRSC 0x3, 0x0
0000046a c393                 LGOTO 0x46c; main.o:_00006_DS_=0x46c
0000046b f94c                 DECR 0x33, 0x1
0000046c                      main.o:_00006_DS_:
0000046c e0fc                 BCR 0x3, 0x6
0000046d fe91                 MOVR 0x6e, 0x0
0000046e ff4b                 MOVAR 0x34
0000046f deff                 MOVIA 0x0
00000470 da7f                 ADDIA 0x80
00000471 ff4a                 MOVAR 0x35
00000472 fecc                 MOVR 0x33, 0x0
00000473 da7f                 ADDIA 0x80
00000474 fbca                 SUBAR 0x35, 0x0
00000475 f6fc                 BTRSS 0x3, 0x2
00000476 c386                 LGOTO 0x479; main.o:_00489_DS_=0x479
00000477 fecd                 MOVR 0x32, 0x0
00000478 fbcb                 SUBAR 0x34, 0x0
00000479                      main.o:_00489_DS_:
00000479 f3fc                 BTRSC 0x3, 0x0
0000047a c381                 LGOTO 0x47e; main.o:_00442_DS_=0x47e
0000047b e0fc                 BCR 0x3, 0x6
0000047c f9aa                 DECR 0x55, 0x0
0000047d ff11                 MOVAR 0x6e
0000047e                      main.o:_00442_DS_:
0000047e e0fc                 BCR 0x3, 0x6
0000047f fe91                 MOVR 0x6e, 0x0
00000480 ff2e                 MOVAR 0x51
00000481                      main.o:_00444_DS_:
00000481 dee1                 MOVIA 0x1e
00000482 e0fc                 BCR 0x3, 0x6
00000483 fbb1                 SUBAR 0x4e, 0x0
00000484 f3fc                 BTRSC 0x3, 0x0
00000485 c377                 LGOTO 0x488; main.o:_00447_DS_=0x488
00000486 e77a                 BSR 0x5, 0x1
00000487 c375                 LGOTO 0x48a; main.o:_00448_DS_=0x48a
00000488                      main.o:_00447_DS_:
00000488 e0fc                 BCR 0x3, 0x6
00000489 e37a                 BCR 0x5, 0x1
0000048a                      main.o:_00448_DS_:
0000048a ffea                 IOSTR 0x5
0000048b e0fc                 BCR 0x3, 0x6
0000048c ff4d                 MOVAR 0x32
0000048d e3cd                 BCR 0x32, 0x0
0000048e fecd                 MOVR 0x32, 0x0
0000048f fffa                 IOST 0x5
00000490 e7fa                 BSR 0x5, 0x0
00000491 c35a                 LGOTO 0x4a5; main.o:_00457_DS_=0x4a5
00000492                      main.o:_00455_DS_:
00000492 e0fc                 BCR 0x3, 0x6
00000493 fd11                 CLRR 0x6e
00000494 e37a                 BCR 0x5, 0x1
00000495 e2fa                 BCR 0x5, 0x2
00000496 ffea                 IOSTR 0x5
00000497 ff4d                 MOVAR 0x32
00000498 e7cd                 BSR 0x32, 0x0
00000499 fecd                 MOVR 0x32, 0x0
0000049a fffa                 IOST 0x5
0000049b fd29                 CLRR 0x56
0000049c fd28                 CLRR 0x57
0000049d feaf                 MOVR 0x50, 0x0
0000049e f6fc                 BTRSS 0x3, 0x2
0000049f c35e                 LGOTO 0x4a1; main.o:_00007_DS_=0x4a1
000004a0 fd2e                 CLRR 0x51
000004a1                      main.o:_00007_DS_:
000004a1 e0fc                 BCR 0x3, 0x6
000004a2 fd16                 CLRR 0x69
000004a3 fd29                 CLRR 0x56
000004a4 fd28                 CLRR 0x57
000004a5                      main.o:_00457_DS_:
000004a5 ffef                 RET
000004a6                      _keyRead:
000004a6 e0fc                 BCR 0x3, 0x6
000004a7 ff4e                 MOVAR 0x31
000004a8 fece                 MOVR 0x31, 0x0
000004a9 f2fc                 BTRSC 0x3, 0x2
000004aa c346                 LGOTO 0x4b9; main.o:_00431_DS_=0x4b9
000004ab fa30                 INCR 0x4f, 0x1
000004ac de9b                 MOVIA 0x64
000004ad fbb0                 SUBAR 0x4f, 0x0
000004ae f7fc                 BTRSS 0x3, 0x0
000004af c333                 LGOTO 0x4cc; main.o:_00432_DS_=0x4cc
000004b0 de9b                 MOVIA 0x64
000004b1 ff30                 MOVAR 0x4f
000004b2 fe98                 MOVR 0x67, 0x0
000004b3 f6fc                 BTRSS 0x3, 0x2
000004b4 c333                 LGOTO 0x4cc; main.o:_00432_DS_=0x4cc
000004b5 defe                 MOVIA 0x1
000004b6 ff18                 MOVAR 0x67
000004b7 defd                 MOVIA 0x2
000004b8 c332                 LGOTO 0x4cd; main.o:_00433_DS_=0x4cd
000004b9                      main.o:_00431_DS_:
000004b9 de9b                 MOVIA 0x64
000004ba e0fc                 BCR 0x3, 0x6
000004bb fbb0                 SUBAR 0x4f, 0x0
000004bc f7fc                 BTRSS 0x3, 0x0
000004bd c33d                 LGOTO 0x4c2; main.o:_00428_DS_=0x4c2
000004be fd30                 CLRR 0x4f
000004bf fd18                 CLRR 0x67
000004c0 deff                 MOVIA 0x0
000004c1 c332                 LGOTO 0x4cd; main.o:_00433_DS_=0x4cd
000004c2                      main.o:_00428_DS_:
000004c2 defb                 MOVIA 0x4
000004c3 e0fc                 BCR 0x3, 0x6
000004c4 fbb0                 SUBAR 0x4f, 0x0
000004c5 f7fc                 BTRSS 0x3, 0x0
000004c6 c335                 LGOTO 0x4ca; main.o:_00429_DS_=0x4ca
000004c7 fd30                 CLRR 0x4f
000004c8 defe                 MOVIA 0x1
000004c9 c332                 LGOTO 0x4cd; main.o:_00433_DS_=0x4cd
000004ca                      main.o:_00429_DS_:
000004ca e0fc                 BCR 0x3, 0x6
000004cb fd30                 CLRR 0x4f
000004cc                      main.o:_00432_DS_:
000004cc deff                 MOVIA 0x0
000004cd                      main.o:_00433_DS_:
000004cd ffef                 RET
000004ce                      _gotoSleep:
000004ce d273                 LCALL 0x58c; _LedInput=0x58c
000004cf d30b                 LCALL 0x4f4; _pwmStop=0x4f4
000004d0 de9f                 MOVIA 0x60
000004d1 fffa                 IOST 0x5
000004d2 fdff                 CLRA
000004d3 fff9                 IOST 0x6
000004d4 de60                 MOVIA 0x9f
000004d5 fff6                 IOST 0x9
000004d6 fd79                 CLRR 0x6
000004d7 e0fc                 BCR 0x3, 0x6
000004d8 fd7a                 CLRR 0x5
000004d9 fd27                 CLRR 0x58
000004da fd26                 CLRR 0x59
000004db fd2f                 CLRR 0x50
000004dc de9f                 MOVIA 0x60
000004dd ff6a                 MOVAR 0x15
000004de defd                 MOVIA 0x2
000004df ff71                 MOVAR 0xe
000004e0 dee7                 MOVIA 0x18
000004e1 ff77                 MOVAR 0x8
000004e2 fd70                 CLRR 0xf
000004e3 fffd                 CLRWDT
000004e4 fffb                 ENI
000004e5 fffe                 SLEEP
000004e6 fd6a                 CLRR 0x15
000004e7 de40                 MOVIA 0xbf
000004e8 fff6                 IOST 0x9
000004e9 fd79                 CLRR 0x6
000004ea debf                 MOVIA 0x40
000004eb ff7a                 MOVAR 0x5
000004ec de87                 MOVIA 0x78
000004ed fffa                 IOST 0x5
000004ee defe                 MOVIA 0x1
000004ef ff71                 MOVAR 0xe
000004f0 fd70                 CLRR 0xf
000004f1 de47                 MOVIA 0xb8
000004f2 ff77                 MOVAR 0x8
000004f3 ffef                 RET
000004f4                      _pwmStop:
000004f4 fdff                 CLRA
000004f5 ffb5                 SFUN 0xa
000004f6 ffef                 RET
000004f7                      _pwmInit:
000004f7 ff95                 SFUNR 0xa
000004f8 e0fc                 BCR 0x3, 0x6
000004f9 ff4f                 MOVAR 0x30
000004fa f04f                 BTRSC 0x30, 0x7
000004fb c2fc                 LGOTO 0x503; main.o:_00408_DS_=0x503
000004fc fd66                 CLRR 0x19
000004fd de9c                 MOVIA 0x63
000004fe ffb6                 SFUN 0x9
000004ff fdff                 CLRA
00000500 ffb4                 SFUN 0xb
00000501 de7c                 MOVIA 0x83
00000502 ffb5                 SFUN 0xa
00000503                      main.o:_00408_DS_:
00000503 ffef                 RET
00000504                      _LED8ON:
00000504 ffe9                 IOSTR 0x6
00000505 e0fc                 BCR 0x3, 0x6
00000506 ff50                 MOVAR 0x2f
00000507 e3d0                 BCR 0x2f, 0x0
00000508 fed0                 MOVR 0x2f, 0x0
00000509 fff9                 IOST 0x6
0000050a ffe9                 IOSTR 0x6
0000050b ff50                 MOVAR 0x2f
0000050c e250                 BCR 0x2f, 0x3
0000050d fed0                 MOVR 0x2f, 0x0
0000050e fff9                 IOST 0x6
0000050f e7f9                 BSR 0x6, 0x0
00000510 e279                 BCR 0x6, 0x3
00000511 deaf                 MOVIA 0x50
00000512 d3d0                 LCALL 0x42f; _delay=0x42f
00000513 d273                 LCALL 0x58c; _LedInput=0x58c
00000514 ffef                 RET
00000515                      _LED7ON:
00000515 ffe9                 IOSTR 0x6
00000516 e0fc                 BCR 0x3, 0x6
00000517 ff51                 MOVAR 0x2e
00000518 e3d1                 BCR 0x2e, 0x0
00000519 fed1                 MOVR 0x2e, 0x0
0000051a fff9                 IOST 0x6
0000051b ffe9                 IOSTR 0x6
0000051c ff51                 MOVAR 0x2e
0000051d e251                 BCR 0x2e, 0x3
0000051e fed1                 MOVR 0x2e, 0x0
0000051f fff9                 IOST 0x6
00000520 e679                 BSR 0x6, 0x3
00000521 e3f9                 BCR 0x6, 0x0
00000522 deaf                 MOVIA 0x50
00000523 d3d0                 LCALL 0x42f; _delay=0x42f
00000524 d273                 LCALL 0x58c; _LedInput=0x58c
00000525 ffef                 RET
00000526                      _LED6ON:
00000526 ffe9                 IOSTR 0x6
00000527 e0fc                 BCR 0x3, 0x6
00000528 ff52                 MOVAR 0x2d
00000529 e3d2                 BCR 0x2d, 0x0
0000052a fed2                 MOVR 0x2d, 0x0
0000052b fff9                 IOST 0x6
0000052c ffea                 IOSTR 0x5
0000052d ff52                 MOVAR 0x2d
0000052e e052                 BCR 0x2d, 0x7
0000052f fed2                 MOVR 0x2d, 0x0
00000530 fffa                 IOST 0x5
00000531 e47a                 BSR 0x5, 0x7
00000532 e3f9                 BCR 0x6, 0x0
00000533 deaf                 MOVIA 0x50
00000534 d3d0                 LCALL 0x42f; _delay=0x42f
00000535 d273                 LCALL 0x58c; _LedInput=0x58c
00000536 ffef                 RET
00000537                      _LED5ON:
00000537 ffe9                 IOSTR 0x6
00000538 e0fc                 BCR 0x3, 0x6
00000539 ff53                 MOVAR 0x2c
0000053a e3d3                 BCR 0x2c, 0x0
0000053b fed3                 MOVR 0x2c, 0x0
0000053c fff9                 IOST 0x6
0000053d ffea                 IOSTR 0x5
0000053e ff53                 MOVAR 0x2c
0000053f e053                 BCR 0x2c, 0x7
00000540 fed3                 MOVR 0x2c, 0x0
00000541 fffa                 IOST 0x5
00000542 e7f9                 BSR 0x6, 0x0
00000543 e07a                 BCR 0x5, 0x7
00000544 deaf                 MOVIA 0x50
00000545 d3d0                 LCALL 0x42f; _delay=0x42f
00000546 d273                 LCALL 0x58c; _LedInput=0x58c
00000547 ffef                 RET
00000548                      _LED4ON:
00000548 ffe9                 IOSTR 0x6
00000549 e0fc                 BCR 0x3, 0x6
0000054a ff54                 MOVAR 0x2b
0000054b e354                 BCR 0x2b, 0x1
0000054c fed4                 MOVR 0x2b, 0x0
0000054d fff9                 IOST 0x6
0000054e ffe9                 IOSTR 0x6
0000054f ff54                 MOVAR 0x2b
00000550 e254                 BCR 0x2b, 0x3
00000551 fed4                 MOVR 0x2b, 0x0
00000552 fff9                 IOST 0x6
00000553 e779                 BSR 0x6, 0x1
00000554 e279                 BCR 0x6, 0x3
00000555 deaf                 MOVIA 0x50
00000556 d3d0                 LCALL 0x42f; _delay=0x42f
00000557 d273                 LCALL 0x58c; _LedInput=0x58c
00000558 ffef                 RET
00000559                      _LED3ON:
00000559 ffe9                 IOSTR 0x6
0000055a e0fc                 BCR 0x3, 0x6
0000055b ff55                 MOVAR 0x2a
0000055c e355                 BCR 0x2a, 0x1
0000055d fed5                 MOVR 0x2a, 0x0
0000055e fff9                 IOST 0x6
0000055f ffe9                 IOSTR 0x6
00000560 ff55                 MOVAR 0x2a
00000561 e255                 BCR 0x2a, 0x3
00000562 fed5                 MOVR 0x2a, 0x0
00000563 fff9                 IOST 0x6
00000564 e679                 BSR 0x6, 0x3
00000565 e379                 BCR 0x6, 0x1
00000566 deaf                 MOVIA 0x50
00000567 d3d0                 LCALL 0x42f; _delay=0x42f
00000568 d273                 LCALL 0x58c; _LedInput=0x58c
00000569 ffef                 RET
0000056a                      _LED2ON:
0000056a ffea                 IOSTR 0x5
0000056b e0fc                 BCR 0x3, 0x6
0000056c ff56                 MOVAR 0x29
0000056d e056                 BCR 0x29, 0x7
0000056e fed6                 MOVR 0x29, 0x0
0000056f fffa                 IOST 0x5
00000570 ffe9                 IOSTR 0x6
00000571 ff56                 MOVAR 0x29
00000572 e356                 BCR 0x29, 0x1
00000573 fed6                 MOVR 0x29, 0x0
00000574 fff9                 IOST 0x6
00000575 e779                 BSR 0x6, 0x1
00000576 e07a                 BCR 0x5, 0x7
00000577 deaf                 MOVIA 0x50
00000578 d3d0                 LCALL 0x42f; _delay=0x42f
00000579 d273                 LCALL 0x58c; _LedInput=0x58c
0000057a ffef                 RET
0000057b                      _LED1ON:
0000057b ffe9                 IOSTR 0x6
0000057c e0fc                 BCR 0x3, 0x6
0000057d ff57                 MOVAR 0x28
0000057e e357                 BCR 0x28, 0x1
0000057f fed7                 MOVR 0x28, 0x0
00000580 fff9                 IOST 0x6
00000581 ffea                 IOSTR 0x5
00000582 ff57                 MOVAR 0x28
00000583 e057                 BCR 0x28, 0x7
00000584 fed7                 MOVR 0x28, 0x0
00000585 fffa                 IOST 0x5
00000586 e47a                 BSR 0x5, 0x7
00000587 e379                 BCR 0x6, 0x1
00000588 deaf                 MOVIA 0x50
00000589 d3d0                 LCALL 0x42f; _delay=0x42f
0000058a d273                 LCALL 0x58c; _LedInput=0x58c
0000058b ffef                 RET
0000058c                      _LedInput:
0000058c ffea                 IOSTR 0x5
0000058d e0fc                 BCR 0x3, 0x6
0000058e ff58                 MOVAR 0x27
0000058f e458                 BSR 0x27, 0x7
00000590 fed8                 MOVR 0x27, 0x0
00000591 fffa                 IOST 0x5
00000592 ffe9                 IOSTR 0x6
00000593 ff58                 MOVAR 0x27
00000594 def4                 MOVIA 0xb
00000595 ee58                 IORAR 0x27, 0x1
00000596 fed8                 MOVR 0x27, 0x0
00000597 fff9                 IOST 0x6
00000598 e07a                 BCR 0x5, 0x7
00000599 de0b                 MOVIA 0xf4
0000059a ef79                 ANDAR 0x6, 0x1
0000059b ffef                 RET
0000059c                      _ledShow:
0000059c e0fc                 BCR 0x3, 0x6
0000059d fe92                 MOVR 0x6d, 0x0
0000059e f2fc                 BTRSC 0x3, 0x2
0000059f c255                 LGOTO 0x5aa; main.o:_00289_DS_=0x5aa
000005a0 feaf                 MOVR 0x50, 0x0
000005a1 f6fc                 BTRSS 0x3, 0x2
000005a2 c255                 LGOTO 0x5aa; main.o:_00289_DS_=0x5aa
000005a3 f392                 BTRSC 0x6d, 0x0
000005a4 c258                 LGOTO 0x5a7; main.o:_00286_DS_=0x5a7
000005a5 fd2e                 CLRR 0x51
000005a6 c255                 LGOTO 0x5aa; main.o:_00289_DS_=0x5aa
000005a7                      main.o:_00286_DS_:
000005a7 e0fc                 BCR 0x3, 0x6
000005a8 fe95                 MOVR 0x6a, 0x0
000005a9 ff2e                 MOVAR 0x51
000005aa                      main.o:_00289_DS_:
000005aa e0fc                 BCR 0x3, 0x6
000005ab fe9f                 MOVR 0x60, 0x0
000005ac f2fc                 BTRSC 0x3, 0x2
000005ad c24c                 LGOTO 0x5b3; main.o:_00292_DS_=0x5b3
000005ae feaa                 MOVR 0x55, 0x0
000005af f2fc                 BTRSC 0x3, 0x2
000005b0 c24c                 LGOTO 0x5b3; main.o:_00292_DS_=0x5b3
000005b1 fe95                 MOVR 0x6a, 0x0
000005b2 ff2e                 MOVAR 0x51
000005b3                      main.o:_00292_DS_:
000005b3 e0fc                 BCR 0x3, 0x6
000005b4 fe9c                 MOVR 0x63, 0x0
000005b5 f2fc                 BTRSC 0x3, 0x2
000005b6 c239                 LGOTO 0x5c6; main.o:_00298_DS_=0x5c6
000005b7 feaf                 MOVR 0x50, 0x0
000005b8 f2fc                 BTRSC 0x3, 0x2
000005b9 c239                 LGOTO 0x5c6; main.o:_00298_DS_=0x5c6
000005ba feaa                 MOVR 0x55, 0x0
000005bb f6fc                 BTRSS 0x3, 0x2
000005bc c239                 LGOTO 0x5c6; main.o:_00298_DS_=0x5c6
000005bd decd                 MOVIA 0x32
000005be fba4                 SUBAR 0x5b, 0x0
000005bf f3fc                 BTRSC 0x3, 0x0
000005c0 c23b                 LGOTO 0x5c4; main.o:_00295_DS_=0x5c4
000005c1 feaf                 MOVR 0x50, 0x0
000005c2 ff2e                 MOVAR 0x51
000005c3 c239                 LGOTO 0x5c6; main.o:_00298_DS_=0x5c6
000005c4                      main.o:_00295_DS_:
000005c4 e0fc                 BCR 0x3, 0x6
000005c5 fd2e                 CLRR 0x51
000005c6                      main.o:_00298_DS_:
000005c6 e0fc                 BCR 0x3, 0x6
000005c7 fe9c                 MOVR 0x63, 0x0
000005c8 f6fc                 BTRSS 0x3, 0x2
000005c9 c22f                 LGOTO 0x5d0; main.o:_00302_DS_=0x5d0
000005ca feaa                 MOVR 0x55, 0x0
000005cb f6fc                 BTRSS 0x3, 0x2
000005cc c22f                 LGOTO 0x5d0; main.o:_00302_DS_=0x5d0
000005cd fd2f                 CLRR 0x50
000005ce fd2e                 CLRR 0x51
000005cf d30b                 LCALL 0x4f4; _pwmStop=0x4f4
000005d0                      main.o:_00302_DS_:
000005d0 d273                 LCALL 0x58c; _LedInput=0x58c
000005d1 def6                 MOVIA 0x9
000005d2 e0fc                 BCR 0x3, 0x6
000005d3 fbae                 SUBAR 0x51, 0x0
000005d4 f3fc                 BTRSC 0x3, 0x0
000005d5 c20f                 LGOTO 0x5f0; main.o:_00314_DS_=0x5f0
000005d6 defa                 MOVIA 0x5
000005d7 ff75                 MOVAR 0xa
000005d8 feae                 MOVR 0x51, 0x0
000005d9 da22                 ADDIA 0xdd
000005da f3fc                 BTRSC 0x3, 0x0
000005db fa75                 INCR 0xa, 0x1
000005dc ff7d                 MOVAR 0x2
000005dd                      main.o:_00354_DS_:
000005dd c219                 LGOTO 0x5e6; main.o:_00304_DS_=0x5e6
000005de c210                 LGOTO 0x5ef; main.o:_00312_DS_=0x5ef
000005df c211                 LGOTO 0x5ee; main.o:_00311_DS_=0x5ee
000005e0 c212                 LGOTO 0x5ed; main.o:_00310_DS_=0x5ed
000005e1 c213                 LGOTO 0x5ec; main.o:_00309_DS_=0x5ec
000005e2 c214                 LGOTO 0x5eb; main.o:_00308_DS_=0x5eb
000005e3 c215                 LGOTO 0x5ea; main.o:_00307_DS_=0x5ea
000005e4 c216                 LGOTO 0x5e9; main.o:_00306_DS_=0x5e9
000005e5 c217                 LGOTO 0x5e8; main.o:_00305_DS_=0x5e8
000005e6                      main.o:_00304_DS_:
000005e6 d273                 LCALL 0x58c; _LedInput=0x58c
000005e7 c20f                 LGOTO 0x5f0; main.o:_00314_DS_=0x5f0
000005e8                      main.o:_00305_DS_:
000005e8 d2fb                 LCALL 0x504; _LED8ON=0x504
000005e9                      main.o:_00306_DS_:
000005e9 d2ea                 LCALL 0x515; _LED7ON=0x515
000005ea                      main.o:_00307_DS_:
000005ea d2d9                 LCALL 0x526; _LED6ON=0x526
000005eb                      main.o:_00308_DS_:
000005eb d2c8                 LCALL 0x537; _LED5ON=0x537
000005ec                      main.o:_00309_DS_:
000005ec d2b7                 LCALL 0x548; _LED4ON=0x548
000005ed                      main.o:_00310_DS_:
000005ed d2a6                 LCALL 0x559; _LED3ON=0x559
000005ee                      main.o:_00311_DS_:
000005ee d295                 LCALL 0x56a; _LED2ON=0x56a
000005ef                      main.o:_00312_DS_:
000005ef d284                 LCALL 0x57b; _LED1ON=0x57b
000005f0                      main.o:_00314_DS_:
000005f0 ffef                 RET
000005f1                      _initSys:
000005f1 ffec                 DISI
000005f2 de87                 MOVIA 0x78
000005f3 fffa                 IOST 0x5
000005f4 fdff                 CLRA
000005f5 fff9                 IOST 0x6
000005f6 fd79                 CLRR 0x6
000005f7 e0fc                 BCR 0x3, 0x6
000005f8 fd7a                 CLRR 0x5
000005f9 d273                 LCALL 0x58c; _LedInput=0x58c
000005fa de40                 MOVIA 0xbf
000005fb fff6                 IOST 0x9
000005fc de00                 MOVIA 0xff
000005fd ff73                 MOVAR 0xc
000005fe ff74                 MOVAR 0xb
000005ff defe                 MOVIA 0x1
00000600 ff71                 MOVAR 0xe
00000601 fdff                 CLRA
00000602 fff0                 IOST 0xf
00000603 dec8                 MOVIA 0x37
00000604 ff7e                 MOVAR 0x1
00000605 fdff                 CLRA
00000606 fffc                 T0MD
00000607 defe                 MOVIA 0x1
00000608 fff0                 IOST 0xf
00000609 de67                 MOVIA 0x98
0000060a ff77                 MOVAR 0x8
0000060b defe                 MOVIA 0x1
0000060c fff0                 IOST 0xf
0000060d fffb                 ENI
0000060e ffef                 RET
0000060f                      _powerOff:
0000060f e0fc                 BCR 0x3, 0x6
00000610 fd2f                 CLRR 0x50
00000611 d30b                 LCALL 0x4f4; _pwmStop=0x4f4
00000612 e0fc                 BCR 0x3, 0x6
00000613 fd2e                 CLRR 0x51
00000614 ffef                 RET
00000615                      _keyCtr:
00000615 e0fc                 BCR 0x3, 0x6
00000616 f8fa                 COMR 0x5, 0x0
00000617 ff59                 MOVAR 0x26
00000618 debf                 MOVIA 0x40
00000619 ef59                 ANDAR 0x26, 0x1
0000061a fed9                 MOVR 0x26, 0x0
0000061b d359                 LCALL 0x4a6; _keyRead=0x4a6
0000061c e0fc                 BCR 0x3, 0x6
0000061d ff59                 MOVAR 0x26
0000061e dbfe                 XORIA 0x1
0000061f f6fc                 BTRSS 0x3, 0x2
00000620 c182                 LGOTO 0x67d; main.o:_00270_DS_=0x67d
00000621 fd31                 CLRR 0x4e
00000622 fd1f                 CLRR 0x60
00000623 feaf                 MOVR 0x50, 0x0
00000624 f6fc                 BTRSS 0x3, 0x2
00000625 c1d7                 LGOTO 0x628; main.o:_00236_DS_=0x628
00000626 fd24                 CLRR 0x5b
00000627 c168                 LGOTO 0x697; main.o:_00272_DS_=0x697
00000628                      main.o:_00236_DS_:
00000628 e0fc                 BCR 0x3, 0x6
00000629 fd21                 CLRR 0x5e
0000062a fa2f                 INCR 0x50, 0x1
0000062b def6                 MOVIA 0x9
0000062c fbaf                 SUBAR 0x50, 0x0
0000062d f7fc                 BTRSS 0x3, 0x0
0000062e c1ce                 LGOTO 0x631; main.o:_00238_DS_=0x631
0000062f defe                 MOVIA 0x1
00000630 ff2f                 MOVAR 0x50
00000631                      main.o:_00238_DS_:
00000631 def9                 MOVIA 0x6
00000632 e0fc                 BCR 0x3, 0x6
00000633 ff1c                 MOVAR 0x63
00000634 feaf                 MOVR 0x50, 0x0
00000635 dbfe                 XORIA 0x1
00000636 f6fc                 BTRSS 0x3, 0x2
00000637 c1c4                 LGOTO 0x63b; main.o:_00260_DS_=0x63b
00000638 ded7                 MOVIA 0x28
00000639 ff2b                 MOVAR 0x54
0000063a c18d                 LGOTO 0x672; main.o:_00261_DS_=0x672
0000063b                      main.o:_00260_DS_:
0000063b e0fc                 BCR 0x3, 0x6
0000063c feaf                 MOVR 0x50, 0x0
0000063d dbfd                 XORIA 0x2
0000063e f6fc                 BTRSS 0x3, 0x2
0000063f c1bc                 LGOTO 0x643; main.o:_00257_DS_=0x643
00000640 ded3                 MOVIA 0x2c
00000641 ff2b                 MOVAR 0x54
00000642 c18d                 LGOTO 0x672; main.o:_00261_DS_=0x672
00000643                      main.o:_00257_DS_:
00000643 e0fc                 BCR 0x3, 0x6
00000644 feaf                 MOVR 0x50, 0x0
00000645 dbfc                 XORIA 0x3
00000646 f6fc                 BTRSS 0x3, 0x2
00000647 c1b4                 LGOTO 0x64b; main.o:_00254_DS_=0x64b
00000648 decf                 MOVIA 0x30
00000649 ff2b                 MOVAR 0x54
0000064a c18d                 LGOTO 0x672; main.o:_00261_DS_=0x672
0000064b                      main.o:_00254_DS_:
0000064b e0fc                 BCR 0x3, 0x6
0000064c feaf                 MOVR 0x50, 0x0
0000064d dbfb                 XORIA 0x4
0000064e f6fc                 BTRSS 0x3, 0x2
0000064f c1ac                 LGOTO 0x653; main.o:_00251_DS_=0x653
00000650 decb                 MOVIA 0x34
00000651 ff2b                 MOVAR 0x54
00000652 c18d                 LGOTO 0x672; main.o:_00261_DS_=0x672
00000653                      main.o:_00251_DS_:
00000653 e0fc                 BCR 0x3, 0x6
00000654 feaf                 MOVR 0x50, 0x0
00000655 dbfa                 XORIA 0x5
00000656 f6fc                 BTRSS 0x3, 0x2
00000657 c1a4                 LGOTO 0x65b; main.o:_00248_DS_=0x65b
00000658 dec8                 MOVIA 0x37
00000659 ff2b                 MOVAR 0x54
0000065a c18d                 LGOTO 0x672; main.o:_00261_DS_=0x672
0000065b                      main.o:_00248_DS_:
0000065b e0fc                 BCR 0x3, 0x6
0000065c feaf                 MOVR 0x50, 0x0
0000065d dbf9                 XORIA 0x6
0000065e f6fc                 BTRSS 0x3, 0x2
0000065f c19c                 LGOTO 0x663; main.o:_00245_DS_=0x663
00000660 dec5                 MOVIA 0x3a
00000661 ff2b                 MOVAR 0x54
00000662 c18d                 LGOTO 0x672; main.o:_00261_DS_=0x672
00000663                      main.o:_00245_DS_:
00000663 e0fc                 BCR 0x3, 0x6
00000664 feaf                 MOVR 0x50, 0x0
00000665 dbf8                 XORIA 0x7
00000666 f6fc                 BTRSS 0x3, 0x2
00000667 c194                 LGOTO 0x66b; main.o:_00242_DS_=0x66b
00000668 dec2                 MOVIA 0x3d
00000669 ff2b                 MOVAR 0x54
0000066a c18d                 LGOTO 0x672; main.o:_00261_DS_=0x672
0000066b                      main.o:_00242_DS_:
0000066b e0fc                 BCR 0x3, 0x6
0000066c feaf                 MOVR 0x50, 0x0
0000066d dbf7                 XORIA 0x8
0000066e f6fc                 BTRSS 0x3, 0x2
0000066f c18d                 LGOTO 0x672; main.o:_00261_DS_=0x672
00000670 debf                 MOVIA 0x40
00000671 ff2b                 MOVAR 0x54
00000672                      main.o:_00261_DS_:
00000672 e0fc                 BCR 0x3, 0x6
00000673 feaf                 MOVR 0x50, 0x0
00000674 f2fc                 BTRSC 0x3, 0x2
00000675 c186                 LGOTO 0x679; main.o:_00263_DS_=0x679
00000676 feab                 MOVR 0x54, 0x0
00000677 ffb3                 SFUN 0xc
00000678 d308                 LCALL 0x4f7; _pwmInit=0x4f7
00000679                      main.o:_00263_DS_:
00000679 e0fc                 BCR 0x3, 0x6
0000067a feaf                 MOVR 0x50, 0x0
0000067b ff2e                 MOVAR 0x51
0000067c c168                 LGOTO 0x697; main.o:_00272_DS_=0x697
0000067d                      main.o:_00270_DS_:
0000067d e0fc                 BCR 0x3, 0x6
0000067e fed9                 MOVR 0x26, 0x0
0000067f dbfd                 XORIA 0x2
00000680 f6fc                 BTRSS 0x3, 0x2
00000681 c168                 LGOTO 0x697; main.o:_00272_DS_=0x697
00000682 feaf                 MOVR 0x50, 0x0
00000683 f2fc                 BTRSC 0x3, 0x2
00000684 c178                 LGOTO 0x687; main.o:_00265_DS_=0x687
00000685 d1f0                 LCALL 0x60f; _powerOff=0x60f
00000686 c16b                 LGOTO 0x694; main.o:_00266_DS_=0x694
00000687                      main.o:_00265_DS_:
00000687 e0fc                 BCR 0x3, 0x6
00000688 fd1f                 CLRR 0x60
00000689 defe                 MOVIA 0x1
0000068a ff2f                 MOVAR 0x50
0000068b deaf                 MOVIA 0x50
0000068c ffb3                 SFUN 0xc
0000068d ff1e                 MOVAR 0x61
0000068e ded7                 MOVIA 0x28
0000068f ff2b                 MOVAR 0x54
00000690 d308                 LCALL 0x4f7; _pwmInit=0x4f7
00000691 deef                 MOVIA 0x10
00000692 e0fc                 BCR 0x3, 0x6
00000693 ff1c                 MOVAR 0x63
00000694                      main.o:_00266_DS_:
00000694 e0fc                 BCR 0x3, 0x6
00000695 feaf                 MOVR 0x50, 0x0
00000696 ff2e                 MOVAR 0x51
00000697                      main.o:_00272_DS_:
00000697 ffef                 RET
00000698                      ___cinit_load__:
