00000000 c7fe                 LGOTO 0x1; __nyc_ny8_startup=0x1
00000001                      __nyc_ny8_startup:
00000001 d0a3                 LCALL 0x75c; ___cinit_load__=0x75c
00000002 c790                 LGOTO 0x6f; _main=0x6f
00000003                      main.o:_01075_DS_:
00000003 f56f                 BTRSS 0x10, 0x5
00000004 c7fc                 LGOTO 0x3; main.o:_01075_DS_=0x3
00000005 ffef                 RET
00000008 c7f6                 LGOTO 0x9; main.o:__sdcc_interrupt=0x9
00000009                      main.o:__sdcc_interrupt:
00000009 ff3d                 MOVAR 0x42
0000000a eafc                 SWAPR 0x3, 0x0
0000000b fd7c                 CLRR 0x3
0000000c ff3e                 MOVAR 0x41
0000000d fef5                 MOVR 0xa, 0x0
0000000e fd75                 CLRR 0xa
0000000f ff3f                 MOVAR 0x40
00000010 fefb                 MOVR 0x4, 0x0
00000011 e0fc                 BCR 0x3, 0x6
00000012 ff35                 MOVAR 0x4a
00000013 feba                 MOVR 0x45, 0x0
00000014 ff34                 MOVAR 0x4b
00000015 febb                 MOVR 0x44, 0x0
00000016 ff33                 MOVAR 0x4c
00000017 f7f0                 BTRSS 0xf, 0x0
00000018 c7a4                 LGOTO 0x5b; main.o:_00128_DS_=0x5b
00000019 dec8                 MOVIA 0x37
0000001a fc7e                 ADDAR 0x1, 0x1
0000001b fa32                 INCR 0x4d, 0x1
0000001c de9b                 MOVIA 0x64
0000001d fbb2                 SUBAR 0x4d, 0x0
0000001e f7fc                 BTRSS 0x3, 0x0
0000001f c7a4                 LGOTO 0x5b; main.o:_00128_DS_=0x5b
00000020 defe                 MOVIA 0x1
00000021 ff17                 MOVAR 0x68
00000022 fd32                 CLRR 0x4d
00000023 feaf                 MOVR 0x50, 0x0
00000024 f2fc                 BTRSC 0x3, 0x2
00000025 c7d6                 LGOTO 0x29; main.o:_00106_DS_=0x29
00000026 fa2d                 INCR 0x52, 0x1
00000027 f2fc                 BTRSC 0x3, 0x2
00000028 fa2c                 INCR 0x53, 0x1
00000029                      main.o:_00106_DS_:
00000029 e0fc                 BCR 0x3, 0x6
0000002a fa31                 INCR 0x4e, 0x1
0000002b dec3                 MOVIA 0x3c
0000002c fbb1                 SUBAR 0x4e, 0x0
0000002d f3fc                 BTRSC 0x3, 0x0
0000002e fd31                 CLRR 0x4e
0000002f fa25                 INCR 0x5a, 0x1
00000030 deeb                 MOVIA 0x14
00000031 fba5                 SUBAR 0x5a, 0x0
00000032 f7fc                 BTRSS 0x3, 0x0
00000033 c7c7                 LGOTO 0x38; main.o:_00112_DS_=0x38
00000034 fd25                 CLRR 0x5a
00000035 fe92                 MOVR 0x6d, 0x0
00000036 f6fc                 BTRSS 0x3, 0x2
00000037 f912                 DECR 0x6d, 0x1
00000038                      main.o:_00112_DS_:
00000038 e0fc                 BCR 0x3, 0x6
00000039 fa24                 INCR 0x5b, 0x1
0000003a de9b                 MOVIA 0x64
0000003b fba4                 SUBAR 0x5b, 0x0
0000003c f7fc                 BTRSS 0x3, 0x0
0000003d c7a4                 LGOTO 0x5b; main.o:_00128_DS_=0x5b
0000003e fd24                 CLRR 0x5b
0000003f fe96                 MOVR 0x69, 0x0
00000040 dbfe                 XORIA 0x1
00000041 f6fc                 BTRSS 0x3, 0x2
00000042 c7b5                 LGOTO 0x4a; main.o:_00114_DS_=0x4a
00000043 feaa                 MOVR 0x55, 0x0
00000044 dbf7                 XORIA 0x8
00000045 f6fc                 BTRSS 0x3, 0x2
00000046 c7b5                 LGOTO 0x4a; main.o:_00114_DS_=0x4a
00000047 fa29                 INCR 0x56, 0x1
00000048 f2fc                 BTRSC 0x3, 0x2
00000049 fa28                 INCR 0x57, 0x1
0000004a                      main.o:_00114_DS_:
0000004a e0fc                 BCR 0x3, 0x6
0000004b fe9f                 MOVR 0x60, 0x0
0000004c f6fc                 BTRSS 0x3, 0x2
0000004d f91f                 DECR 0x60, 0x1
0000004e fe9c                 MOVR 0x63, 0x0
0000004f f6fc                 BTRSS 0x3, 0x2
00000050 f91c                 DECR 0x63, 0x1
00000051 feaf                 MOVR 0x50, 0x0
00000052 f2fc                 BTRSC 0x3, 0x2
00000053 c7a7                 LGOTO 0x58; main.o:_00121_DS_=0x58
00000054 fa23                 INCR 0x5c, 0x1
00000055 f2fc                 BTRSC 0x3, 0x2
00000056 fa22                 INCR 0x5d, 0x1
00000057 c7a4                 LGOTO 0x5b; main.o:_00128_DS_=0x5b
00000058                      main.o:_00121_DS_:
00000058 e0fc                 BCR 0x3, 0x6
00000059                      ___cinit_size__:
00000059 fd23                 CLRR 0x5c
0000005a fd22                 CLRR 0x5d
0000005b                      main.o:_00128_DS_:
0000005b f770                 BTRSS 0xf, 0x1
0000005c c7a0                 LGOTO 0x5f; main.o:_00130_DS_=0x5f
0000005d de02                 MOVIA 0xfd
0000005e ff70                 MOVAR 0xf
0000005f                      main.o:_00130_DS_:
0000005f fd70                 CLRR 0xf
00000060 e0fc                 BCR 0x3, 0x6
00000061 feb3                 MOVR 0x4c, 0x0
00000062 ff3b                 MOVAR 0x44
00000063 feb4                 MOVR 0x4b, 0x0
00000064 ff3a                 MOVAR 0x45
00000065 feb5                 MOVR 0x4a, 0x0
00000066 ff7b                 MOVAR 0x4
00000067 febf                 MOVR 0x40, 0x0
00000068 ff75                 MOVAR 0xa
00000069 fd7c                 CLRR 0x3
0000006a eabe                 SWAPR 0x41, 0x0
0000006b ff7c                 MOVAR 0x3
0000006c ea3d                 SWAPR 0x42, 0x1
0000006d eabd                 SWAPR 0x42, 0x0
0000006e                      main.o:END_OF_INTERRUPT:
0000006e ffee                 RETIE
0000006f                      _main:
0000006f d19d                 LCALL 0x662; _initSys=0x662
00000070 d3a2                 LCALL 0x45d; _initAD=0x45d
00000071                      main.o:_00166_DS_:
00000071 fffd                 CLRWDT
00000072 d1d5                 LCALL 0x62a; _ledShow=0x62a
00000073 e0fc                 BCR 0x3, 0x6
00000074 fe97                 MOVR 0x68, 0x0
00000075 f2fc                 BTRSC 0x3, 0x2
00000076 c78e                 LGOTO 0x71; main.o:_00166_DS_=0x71
00000077 fd17                 CLRR 0x68
00000078 fe96                 MOVR 0x69, 0x0
00000079 f2fc                 BTRSC 0x3, 0x2
0000007a d179                 LCALL 0x686; _keyCtr=0x686
0000007b defa                 MOVIA 0x5
0000007c e0fc                 BCR 0x3, 0x6
0000007d fba5                 SUBAR 0x5a, 0x0
0000007e f3fc                 BTRSC 0x3, 0x0
0000007f c77d                 LGOTO 0x82; main.o:_00143_DS_=0x82
00000080 d5b8                 LCALL 0x247; _checkBatAD=0x247
00000081 c774                 LGOTO 0x8b; main.o:_00144_DS_=0x8b
00000082                      main.o:_00143_DS_:
00000082 def6                 MOVIA 0x9
00000083 e0fc                 BCR 0x3, 0x6
00000084 fba5                 SUBAR 0x5a, 0x0
00000085 f7fc                 BTRSS 0x3, 0x0
00000086 c774                 LGOTO 0x8b; main.o:_00144_DS_=0x8b
00000087 def4                 MOVIA 0xb
00000088 fba5                 SUBAR 0x5a, 0x0
00000089 f7fc                 BTRSS 0x3, 0x0
0000008a d6d0                 LCALL 0x12f; _checkOutA=0x12f
0000008b                      main.o:_00144_DS_:
0000008b d38b                 LCALL 0x474; _chrgCtr=0x474
0000008c e0fc                 BCR 0x3, 0x6
0000008d feaf                 MOVR 0x50, 0x0
0000008e f2fc                 BTRSC 0x3, 0x2
0000008f c767                 LGOTO 0x98; main.o:_00146_DS_=0x98
00000090 fe9e                 MOVR 0x61, 0x0
00000091 fbab                 SUBAR 0x54, 0x0
00000092 f3fc                 BTRSC 0x3, 0x0
00000093 c767                 LGOTO 0x98; main.o:_00146_DS_=0x98
00000094 de09                 MOVIA 0xf6
00000095 fc1e                 ADDAR 0x61, 0x1
00000096 fe9e                 MOVR 0x61, 0x0
00000097 ffb3                 SFUN 0xc
00000098                      main.o:_00146_DS_:
00000098 defa                 MOVIA 0x5
00000099 e0fc                 BCR 0x3, 0x6
0000009a fba0                 SUBAR 0x5f, 0x0
0000009b f7fc                 BTRSS 0x3, 0x0
0000009c c74c                 LGOTO 0xb3; main.o:_00151_DS_=0xb3
0000009d feaf                 MOVR 0x50, 0x0
0000009e f2fc                 BTRSC 0x3, 0x2
0000009f c74c                 LGOTO 0xb3; main.o:_00151_DS_=0xb3
000000a0 fa14                 INCR 0x6b, 0x1
000000a1 f2fc                 BTRSC 0x3, 0x2
000000a2 fa13                 INCR 0x6c, 0x1
000000a3 defe                 MOVIA 0x1
000000a4 fb93                 SUBAR 0x6c, 0x0
000000a5 f6fc                 BTRSS 0x3, 0x2
000000a6 c756                 LGOTO 0xa9; main.o:_00232_DS_=0xa9
000000a7 de0a                 MOVIA 0xf5
000000a8 fb94                 SUBAR 0x6b, 0x0
000000a9                      main.o:_00232_DS_:
000000a9 f7fc                 BTRSS 0x3, 0x0
000000aa c749                 LGOTO 0xb6; main.o:_00152_DS_=0xb6
000000ab e0fc                 BCR 0x3, 0x6
000000ac fd20                 CLRR 0x5f
000000ad fd14                 CLRR 0x6b
000000ae fd13                 CLRR 0x6c
000000af dee6                 MOVIA 0x19
000000b0 ff12                 MOVAR 0x6d
000000b1 d17f                 LCALL 0x680; _powerOff=0x680
000000b2 c749                 LGOTO 0xb6; main.o:_00152_DS_=0xb6
000000b3                      main.o:_00151_DS_:
000000b3 e0fc                 BCR 0x3, 0x6
000000b4 fd14                 CLRR 0x6b
000000b5 fd13                 CLRR 0x6c
000000b6                      main.o:_00152_DS_:
000000b6 e0fc                 BCR 0x3, 0x6
000000b7 feaf                 MOVR 0x50, 0x0
000000b8 f6fc                 BTRSS 0x3, 0x2
000000b9 c72a                 LGOTO 0xd5; main.o:_00157_DS_=0xd5
000000ba feb0                 MOVR 0x4f, 0x0
000000bb f6fc                 BTRSS 0x3, 0x2
000000bc c72a                 LGOTO 0xd5; main.o:_00157_DS_=0xd5
000000bd f17a                 BTRSC 0x5, 0x5
000000be c72a                 LGOTO 0xd5; main.o:_00157_DS_=0xd5
000000bf fe9f                 MOVR 0x60, 0x0
000000c0 f6fc                 BTRSS 0x3, 0x2
000000c1 c72a                 LGOTO 0xd5; main.o:_00157_DS_=0xd5
000000c2 fe92                 MOVR 0x6d, 0x0
000000c3 f6fc                 BTRSS 0x3, 0x2
000000c4 c72a                 LGOTO 0xd5; main.o:_00157_DS_=0xd5
000000c5 fe90                 MOVR 0x6f, 0x0
000000c6 ee8f                 IORAR 0x70, 0x0
000000c7 f6fc                 BTRSS 0x3, 0x2
000000c8 c72a                 LGOTO 0xd5; main.o:_00157_DS_=0xd5
000000c9 fa27                 INCR 0x58, 0x1
000000ca f2fc                 BTRSC 0x3, 0x2
000000cb fa26                 INCR 0x59, 0x1
000000cc deff                 MOVIA 0x0
000000cd fba6                 SUBAR 0x59, 0x0
000000ce f6fc                 BTRSS 0x3, 0x2
000000cf c72d                 LGOTO 0xd2; main.o:_00233_DS_=0xd2
000000d0 dee0                 MOVIA 0x1f
000000d1 fba7                 SUBAR 0x58, 0x0
000000d2                      main.o:_00233_DS_:
000000d2 f7fc                 BTRSS 0x3, 0x0
000000d3 c72a                 LGOTO 0xd5; main.o:_00157_DS_=0xd5
000000d4 d2a6                 LCALL 0x559; _gotoSleep=0x559
000000d5                      main.o:_00157_DS_:
000000d5 defc                 MOVIA 0x3
000000d6 e0fc                 BCR 0x3, 0x6
000000d7 fba2                 SUBAR 0x5d, 0x0
000000d8 f6fc                 BTRSS 0x3, 0x2
000000d9 c723                 LGOTO 0xdc; main.o:_00234_DS_=0xdc
000000da de7b                 MOVIA 0x84
000000db fba3                 SUBAR 0x5c, 0x0
000000dc                      main.o:_00234_DS_:
000000dc f7fc                 BTRSS 0x3, 0x0
000000dd c78e                 LGOTO 0x71; main.o:_00166_DS_=0x71
000000de d17f                 LCALL 0x680; _powerOff=0x680
000000df c78e                 LGOTO 0x71; main.o:_00166_DS_=0x71
000000e0 ffef                 RET
000000e1                      _F_AIN3_Convert:
000000e1 e0fc                 BCR 0x3, 0x6
000000e2 ff39                 MOVAR 0x46
000000e3 fd5a                 CLRR 0x25
000000e4 fd5c                 CLRR 0x23
000000e5 fd5b                 CLRR 0x24
000000e6 de6c                 MOVIA 0x93
000000e7 ff6f                 MOVAR 0x10
000000e8 de37                 MOVIA 0xc8
000000e9 d397                 LCALL 0x468; _delay=0x468
000000ea defe                 MOVIA 0x1
000000eb e0fc                 BCR 0x3, 0x6
000000ec ff38                 MOVAR 0x47
000000ed                      main.o:_01059_DS_:
000000ed e0fc                 BCR 0x3, 0x6
000000ee feb8                 MOVR 0x47, 0x0
000000ef fbb9                 SUBAR 0x46, 0x0
000000f0 f7fc                 BTRSS 0x3, 0x0
000000f1 c6f8                 LGOTO 0x107; main.o:_01061_DS_=0x107
000000f2 e4ef                 BSR 0x10, 0x6
000000f3 d7fc                 LCALL 0x3; main.o:_01075_DS_=0x3
000000f4 def0                 MOVIA 0xf
000000f5 efee                 ANDAR 0x11, 0x0
000000f6 e0fc                 BCR 0x3, 0x6
000000f7 fc5a                 ADDAR 0x25, 0x1
000000f8 feed                 MOVR 0x12, 0x0
000000f9 ff37                 MOVAR 0x48
000000fa deff                 MOVIA 0x0
000000fb ff36                 MOVAR 0x49
000000fc feb7                 MOVR 0x48, 0x0
000000fd fc5c                 ADDAR 0x23, 0x1
000000fe feb6                 MOVR 0x49, 0x0
000000ff f3fc                 BTRSC 0x3, 0x0
00000100 fab6                 INCR 0x49, 0x0
00000101 f2fc                 BTRSC 0x3, 0x2
00000102 c6fb                 LGOTO 0x104; main.o:_00002_DS_=0x104
00000103 fc5b                 ADDAR 0x24, 0x1
00000104                      main.o:_00002_DS_:
00000104 e0fc                 BCR 0x3, 0x6
00000105 fa38                 INCR 0x47, 0x1
00000106 c712                 LGOTO 0xed; main.o:_01059_DS_=0xed
00000107                      main.o:_01061_DS_:
00000107 ffef                 RET
00000108                      _F_AIN4_Convert:
00000108 e0fc                 BCR 0x3, 0x6
00000109 ff43                 MOVAR 0x3c
0000010a fd5d                 CLRR 0x22
0000010b fd5f                 CLRR 0x20
0000010c fd5e                 CLRR 0x21
0000010d de6b                 MOVIA 0x94
0000010e ff6f                 MOVAR 0x10
0000010f de37                 MOVIA 0xc8
00000110 d397                 LCALL 0x468; _delay=0x468
00000111 defe                 MOVIA 0x1
00000112 e0fc                 BCR 0x3, 0x6
00000113 ff42                 MOVAR 0x3d
00000114                      main.o:_01050_DS_:
00000114 e0fc                 BCR 0x3, 0x6
00000115 fec2                 MOVR 0x3d, 0x0
00000116 fbc3                 SUBAR 0x3c, 0x0
00000117 f7fc                 BTRSS 0x3, 0x0
00000118 c6d1                 LGOTO 0x12e; main.o:_01052_DS_=0x12e
00000119 e4ef                 BSR 0x10, 0x6
0000011a d7fc                 LCALL 0x3; main.o:_01075_DS_=0x3
0000011b def0                 MOVIA 0xf
0000011c efee                 ANDAR 0x11, 0x0
0000011d e0fc                 BCR 0x3, 0x6
0000011e fc5d                 ADDAR 0x22, 0x1
0000011f feed                 MOVR 0x12, 0x0
00000120 ff41                 MOVAR 0x3e
00000121 deff                 MOVIA 0x0
00000122 ff40                 MOVAR 0x3f
00000123 fec1                 MOVR 0x3e, 0x0
00000124 fc5f                 ADDAR 0x20, 0x1
00000125 fec0                 MOVR 0x3f, 0x0
00000126 f3fc                 BTRSC 0x3, 0x0
00000127 fac0                 INCR 0x3f, 0x0
00000128 f2fc                 BTRSC 0x3, 0x2
00000129 c6d4                 LGOTO 0x12b; main.o:_00003_DS_=0x12b
0000012a fc5e                 ADDAR 0x21, 0x1
0000012b                      main.o:_00003_DS_:
0000012b e0fc                 BCR 0x3, 0x6
0000012c fa42                 INCR 0x3d, 0x1
0000012d c6eb                 LGOTO 0x114; main.o:_01050_DS_=0x114
0000012e                      main.o:_01052_DS_:
0000012e ffef                 RET
0000012f                      _checkOutA:
0000012f e0fc                 BCR 0x3, 0x6
00000130 fd5a                 CLRR 0x25
00000131 fd5c                 CLRR 0x23
00000132 fd5b                 CLRR 0x24
00000133 def7                 MOVIA 0x8
00000134 d71e                 LCALL 0xe1; _F_AIN3_Convert=0xe1
00000135 e0fc                 BCR 0x3, 0x6
00000136 eadb                 SWAPR 0x24, 0x0
00000137 dd0f                 ANDIA 0xf0
00000138 ff5b                 MOVAR 0x24
00000139 eadc                 SWAPR 0x23, 0x0
0000013a ff5c                 MOVAR 0x23
0000013b ddf0                 ANDIA 0xf
0000013c ee5b                 IORAR 0x24, 0x1
0000013d ed5c                 XORAR 0x23, 0x1
0000013e de0f                 MOVIA 0xf0
0000013f ef5a                 ANDAR 0x25, 0x1
00000140 feda                 MOVR 0x25, 0x0
00000141 ff45                 MOVAR 0x3a
00000142 deff                 MOVIA 0x0
00000143 ff44                 MOVAR 0x3b
00000144 fec5                 MOVR 0x3a, 0x0
00000145 fc5c                 ADDAR 0x23, 0x1
00000146 fec4                 MOVR 0x3b, 0x0
00000147 f3fc                 BTRSC 0x3, 0x0
00000148 fac4                 INCR 0x3b, 0x0
00000149 f2fc                 BTRSC 0x3, 0x2
0000014a c6b3                 LGOTO 0x14c; main.o:_00004_DS_=0x14c
0000014b fc5b                 ADDAR 0x24, 0x1
0000014c                      main.o:_00004_DS_:
0000014c e3fc                 BCR 0x3, 0x0
0000014d e0fc                 BCR 0x3, 0x6
0000014e ec5b                 RRR 0x24, 0x1
0000014f ec5c                 RRR 0x23, 0x1
00000150 e3fc                 BCR 0x3, 0x0
00000151 ec5b                 RRR 0x24, 0x1
00000152 ec5c                 RRR 0x23, 0x1
00000153 e3fc                 BCR 0x3, 0x0
00000154 ec5b                 RRR 0x24, 0x1
00000155 ec5c                 RRR 0x23, 0x1
00000156 fe88                 MOVR 0x77, 0x0
00000157 f2fc                 BTRSC 0x3, 0x2
00000158 c6a2                 LGOTO 0x15d; main.o:_00874_DS_=0x15d
00000159 ded2                 MOVIA 0x2d
0000015a ff5c                 MOVAR 0x23
0000015b defe                 MOVIA 0x1
0000015c ff5b                 MOVAR 0x24
0000015d                      main.o:_00874_DS_:
0000015d def6                 MOVIA 0x9
0000015e e0fc                 BCR 0x3, 0x6
0000015f fbaf                 SUBAR 0x50, 0x0
00000160 f3fc                 BTRSC 0x3, 0x0
00000161 c68a                 LGOTO 0x175; main.o:_00937_DS_=0x175
00000162 deff                 MOVIA 0x0
00000163 fbdb                 SUBAR 0x24, 0x0
00000164 f6fc                 BTRSS 0x3, 0x2
00000165 c697                 LGOTO 0x168; main.o:_01030_DS_=0x168
00000166 de36                 MOVIA 0xc9
00000167 fbdc                 SUBAR 0x23, 0x0
00000168                      main.o:_01030_DS_:
00000168 f7fc                 BTRSS 0x3, 0x0
00000169 c68a                 LGOTO 0x175; main.o:_00937_DS_=0x175
0000016a e0fc                 BCR 0x3, 0x6
0000016b fa20                 INCR 0x5f, 0x1
0000016c def9                 MOVIA 0x6
0000016d fba0                 SUBAR 0x5f, 0x0
0000016e f7fc                 BTRSS 0x3, 0x0
0000016f c5b9                 LGOTO 0x246; main.o:_00940_DS_=0x246
00000170 defa                 MOVIA 0x5
00000171 ff20                 MOVAR 0x5f
00000172 feaf                 MOVR 0x50, 0x0
00000173 ff15                 MOVAR 0x6a
00000174 c5b9                 LGOTO 0x246; main.o:_00940_DS_=0x246
00000175                      main.o:_00937_DS_:
00000175 defe                 MOVIA 0x1
00000176 e0fc                 BCR 0x3, 0x6
00000177 fbdb                 SUBAR 0x24, 0x0
00000178 f6fc                 BTRSS 0x3, 0x2
00000179 c683                 LGOTO 0x17c; main.o:_01032_DS_=0x17c
0000017a de6e                 MOVIA 0x91
0000017b fbdc                 SUBAR 0x23, 0x0
0000017c                      main.o:_01032_DS_:
0000017c f7fc                 BTRSS 0x3, 0x0
0000017d c676                 LGOTO 0x189; main.o:_00934_DS_=0x189
0000017e e0fc                 BCR 0x3, 0x6
0000017f fa20                 INCR 0x5f, 0x1
00000180 def9                 MOVIA 0x6
00000181 fba0                 SUBAR 0x5f, 0x0
00000182 f7fc                 BTRSS 0x3, 0x0
00000183 c5b9                 LGOTO 0x246; main.o:_00940_DS_=0x246
00000184 defa                 MOVIA 0x5
00000185 ff20                 MOVAR 0x5f
00000186 feaf                 MOVR 0x50, 0x0
00000187 ff15                 MOVAR 0x6a
00000188 c5b9                 LGOTO 0x246; main.o:_00940_DS_=0x246
00000189                      main.o:_00934_DS_:
00000189 deff                 MOVIA 0x0
0000018a e0fc                 BCR 0x3, 0x6
0000018b fbdb                 SUBAR 0x24, 0x0
0000018c f6fc                 BTRSS 0x3, 0x2
0000018d c66f                 LGOTO 0x190; main.o:_01034_DS_=0x190
0000018e deb3                 MOVIA 0x4c
0000018f fbdc                 SUBAR 0x23, 0x0
00000190                      main.o:_01034_DS_:
00000190 f7fc                 BTRSS 0x3, 0x0
00000191 c619                 LGOTO 0x1e6; main.o:_00931_DS_=0x1e6
00000192 e0fc                 BCR 0x3, 0x6
00000193 fea0                 MOVR 0x5f, 0x0
00000194 f6fc                 BTRSS 0x3, 0x2
00000195 f920                 DECR 0x5f, 0x1
00000196 feaf                 MOVR 0x50, 0x0
00000197 dbfe                 XORIA 0x1
00000198 f6fc                 BTRSS 0x3, 0x2
00000199 c662                 LGOTO 0x19d; main.o:_00904_DS_=0x19d
0000019a deb0                 MOVIA 0x4f
0000019b ff1a                 MOVAR 0x65
0000019c c61d                 LGOTO 0x1e2; main.o:_00905_DS_=0x1e2
0000019d                      main.o:_00904_DS_:
0000019d e0fc                 BCR 0x3, 0x6
0000019e feaf                 MOVR 0x50, 0x0
0000019f dbfd                 XORIA 0x2
000001a0 f6fc                 BTRSS 0x3, 0x2
000001a1 c65a                 LGOTO 0x1a5; main.o:_00901_DS_=0x1a5
000001a2 dead                 MOVIA 0x52
000001a3 ff1a                 MOVAR 0x65
000001a4 c61d                 LGOTO 0x1e2; main.o:_00905_DS_=0x1e2
000001a5                      main.o:_00901_DS_:
000001a5 e0fc                 BCR 0x3, 0x6
000001a6 feaf                 MOVR 0x50, 0x0
000001a7 dbfc                 XORIA 0x3
000001a8 f6fc                 BTRSS 0x3, 0x2
000001a9 c652                 LGOTO 0x1ad; main.o:_00898_DS_=0x1ad
000001aa deaa                 MOVIA 0x55
000001ab ff1a                 MOVAR 0x65
000001ac c61d                 LGOTO 0x1e2; main.o:_00905_DS_=0x1e2
000001ad                      main.o:_00898_DS_:
000001ad e0fc                 BCR 0x3, 0x6
000001ae feaf                 MOVR 0x50, 0x0
000001af dbfb                 XORIA 0x4
000001b0 f6fc                 BTRSS 0x3, 0x2
000001b1 c64a                 LGOTO 0x1b5; main.o:_00895_DS_=0x1b5
000001b2 dea7                 MOVIA 0x58
000001b3 ff1a                 MOVAR 0x65
000001b4 c61d                 LGOTO 0x1e2; main.o:_00905_DS_=0x1e2
000001b5                      main.o:_00895_DS_:
000001b5 e0fc                 BCR 0x3, 0x6
000001b6 feaf                 MOVR 0x50, 0x0
000001b7 dbfa                 XORIA 0x5
000001b8 f6fc                 BTRSS 0x3, 0x2
000001b9 c642                 LGOTO 0x1bd; main.o:_00892_DS_=0x1bd
000001ba dea5                 MOVIA 0x5a
000001bb ff1a                 MOVAR 0x65
000001bc c61d                 LGOTO 0x1e2; main.o:_00905_DS_=0x1e2
000001bd                      main.o:_00892_DS_:
000001bd e0fc                 BCR 0x3, 0x6
000001be feaf                 MOVR 0x50, 0x0
000001bf dbf9                 XORIA 0x6
000001c0 f6fc                 BTRSS 0x3, 0x2
000001c1 c63a                 LGOTO 0x1c5; main.o:_00889_DS_=0x1c5
000001c2 dea2                 MOVIA 0x5d
000001c3 ff1a                 MOVAR 0x65
000001c4 c61d                 LGOTO 0x1e2; main.o:_00905_DS_=0x1e2
000001c5                      main.o:_00889_DS_:
000001c5 e0fc                 BCR 0x3, 0x6
000001c6 feaf                 MOVR 0x50, 0x0
000001c7 dbf8                 XORIA 0x7
000001c8 f6fc                 BTRSS 0x3, 0x2
000001c9 c629                 LGOTO 0x1d6; main.o:_00886_DS_=0x1d6
000001ca deff                 MOVIA 0x0
000001cb fbdb                 SUBAR 0x24, 0x0
000001cc f6fc                 BTRSS 0x3, 0x2
000001cd c62f                 LGOTO 0x1d0; main.o:_01035_DS_=0x1d0
000001ce dea9                 MOVIA 0x56
000001cf fbdc                 SUBAR 0x23, 0x0
000001d0                      main.o:_01035_DS_:
000001d0 f7fc                 BTRSS 0x3, 0x0
000001d1 c61d                 LGOTO 0x1e2; main.o:_00905_DS_=0x1e2
000001d2 de9f                 MOVIA 0x60
000001d3 e0fc                 BCR 0x3, 0x6
000001d4 ff1a                 MOVAR 0x65
000001d5 c61d                 LGOTO 0x1e2; main.o:_00905_DS_=0x1e2
000001d6                      main.o:_00886_DS_:
000001d6 deff                 MOVIA 0x0
000001d7 e0fc                 BCR 0x3, 0x6
000001d8 fbdb                 SUBAR 0x24, 0x0
000001d9 f6fc                 BTRSS 0x3, 0x2
000001da c622                 LGOTO 0x1dd; main.o:_01036_DS_=0x1dd
000001db dea4                 MOVIA 0x5b
000001dc fbdc                 SUBAR 0x23, 0x0
000001dd                      main.o:_01036_DS_:
000001dd f7fc                 BTRSS 0x3, 0x0
000001de c61d                 LGOTO 0x1e2; main.o:_00905_DS_=0x1e2
000001df de9c                 MOVIA 0x63
000001e0 e0fc                 BCR 0x3, 0x6
000001e1 ff1a                 MOVAR 0x65
000001e2                      main.o:_00905_DS_:
000001e2 e0fc                 BCR 0x3, 0x6
000001e3 fe9a                 MOVR 0x65, 0x0
000001e4 ffb3                 SFUN 0xc
000001e5 c5b9                 LGOTO 0x246; main.o:_00940_DS_=0x246
000001e6                      main.o:_00931_DS_:
000001e6 e0fc                 BCR 0x3, 0x6
000001e7 fea0                 MOVR 0x5f, 0x0
000001e8 f6fc                 BTRSS 0x3, 0x2
000001e9 f920                 DECR 0x5f, 0x1
000001ea deff                 MOVIA 0x0
000001eb fbdb                 SUBAR 0x24, 0x0
000001ec f6fc                 BTRSS 0x3, 0x2
000001ed c60f                 LGOTO 0x1f0; main.o:_01037_DS_=0x1f0
000001ee debe                 MOVIA 0x41
000001ef fbdc                 SUBAR 0x23, 0x0
000001f0                      main.o:_01037_DS_:
000001f0 f7fc                 BTRSS 0x3, 0x0
000001f1 c5dc                 LGOTO 0x223; main.o:_00925_DS_=0x223
000001f2 defc                 MOVIA 0x3
000001f3 e0fc                 BCR 0x3, 0x6
000001f4 fbaf                 SUBAR 0x50, 0x0
000001f5 f3fc                 BTRSC 0x3, 0x0
000001f6 c5dc                 LGOTO 0x223; main.o:_00925_DS_=0x223
000001f7 feaf                 MOVR 0x50, 0x0
000001f8 dbfe                 XORIA 0x1
000001f9 f6fc                 BTRSS 0x3, 0x2
000001fa c601                 LGOTO 0x1fe; main.o:_00916_DS_=0x1fe
000001fb deb0                 MOVIA 0x4f
000001fc ff1a                 MOVAR 0x65
000001fd c5e0                 LGOTO 0x21f; main.o:_00917_DS_=0x21f
000001fe                      main.o:_00916_DS_:
000001fe e0fc                 BCR 0x3, 0x6
000001ff feaf                 MOVR 0x50, 0x0
00000200 dbfd                 XORIA 0x2
00000201 f6fc                 BTRSS 0x3, 0x2
00000202 c5f0                 LGOTO 0x20f; main.o:_00912_DS_=0x20f
00000203 deff                 MOVIA 0x0
00000204 fbdb                 SUBAR 0x24, 0x0
00000205 f6fc                 BTRSS 0x3, 0x2
00000206 c5f6                 LGOTO 0x209; main.o:_01039_DS_=0x209
00000207 deba                 MOVIA 0x45
00000208 fbdc                 SUBAR 0x23, 0x0
00000209                      main.o:_01039_DS_:
00000209 f7fc                 BTRSS 0x3, 0x0
0000020a c5f0                 LGOTO 0x20f; main.o:_00912_DS_=0x20f
0000020b dead                 MOVIA 0x52
0000020c e0fc                 BCR 0x3, 0x6
0000020d ff1a                 MOVAR 0x65
0000020e c5e0                 LGOTO 0x21f; main.o:_00917_DS_=0x21f
0000020f                      main.o:_00912_DS_:
0000020f e0fc                 BCR 0x3, 0x6
00000210 feaf                 MOVR 0x50, 0x0
00000211 dbfc                 XORIA 0x3
00000212 f6fc                 BTRSS 0x3, 0x2
00000213 c5e0                 LGOTO 0x21f; main.o:_00917_DS_=0x21f
00000214 deff                 MOVIA 0x0
00000215 fbdb                 SUBAR 0x24, 0x0
00000216 f6fc                 BTRSS 0x3, 0x2
00000217 c5e5                 LGOTO 0x21a; main.o:_01040_DS_=0x21a
00000218 deb8                 MOVIA 0x47
00000219 fbdc                 SUBAR 0x23, 0x0
0000021a                      main.o:_01040_DS_:
0000021a f7fc                 BTRSS 0x3, 0x0
0000021b c5e0                 LGOTO 0x21f; main.o:_00917_DS_=0x21f
0000021c deaa                 MOVIA 0x55
0000021d e0fc                 BCR 0x3, 0x6
0000021e ff1a                 MOVAR 0x65
0000021f                      main.o:_00917_DS_:
0000021f e0fc                 BCR 0x3, 0x6
00000220 fe9a                 MOVR 0x65, 0x0
00000221 ffb3                 SFUN 0xc
00000222 c5bf                 LGOTO 0x240; main.o:_00926_DS_=0x240
00000223                      main.o:_00925_DS_:
00000223 deff                 MOVIA 0x0
00000224 e0fc                 BCR 0x3, 0x6
00000225 fbdb                 SUBAR 0x24, 0x0
00000226 f6fc                 BTRSS 0x3, 0x2
00000227 c5d5                 LGOTO 0x22a; main.o:_01041_DS_=0x22a
00000228 decd                 MOVIA 0x32
00000229 fbdc                 SUBAR 0x23, 0x0
0000022a                      main.o:_01041_DS_:
0000022a f3fc                 BTRSC 0x3, 0x0
0000022b c5cf                 LGOTO 0x230; main.o:_00922_DS_=0x230
0000022c e0fc                 BCR 0x3, 0x6
0000022d feab                 MOVR 0x54, 0x0
0000022e ffb3                 SFUN 0xc
0000022f c5bf                 LGOTO 0x240; main.o:_00926_DS_=0x240
00000230                      main.o:_00922_DS_:
00000230 def8                 MOVIA 0x7
00000231 e0fc                 BCR 0x3, 0x6
00000232 fbaf                 SUBAR 0x50, 0x0
00000233 f7fc                 BTRSS 0x3, 0x0
00000234 c5bf                 LGOTO 0x240; main.o:_00926_DS_=0x240
00000235 deff                 MOVIA 0x0
00000236 fbdb                 SUBAR 0x24, 0x0
00000237 f6fc                 BTRSS 0x3, 0x2
00000238 c5c4                 LGOTO 0x23b; main.o:_01043_DS_=0x23b
00000239 debb                 MOVIA 0x44
0000023a fbdc                 SUBAR 0x23, 0x0
0000023b                      main.o:_01043_DS_:
0000023b f3fc                 BTRSC 0x3, 0x0
0000023c c5bf                 LGOTO 0x240; main.o:_00926_DS_=0x240
0000023d e0fc                 BCR 0x3, 0x6
0000023e feab                 MOVR 0x54, 0x0
0000023f ffb3                 SFUN 0xc
00000240                      main.o:_00926_DS_:
00000240 e0fc                 BCR 0x3, 0x6
00000241 feaf                 MOVR 0x50, 0x0
00000242 f2fc                 BTRSC 0x3, 0x2
00000243 c5b9                 LGOTO 0x246; main.o:_00940_DS_=0x246
00000244 feaf                 MOVR 0x50, 0x0
00000245 ff2e                 MOVAR 0x51
00000246                      main.o:_00940_DS_:
00000246 ffef                 RET
00000247                      _checkBatAD:
00000247 e0fc                 BCR 0x3, 0x6
00000248 fd5d                 CLRR 0x22
00000249 fd5f                 CLRR 0x20
0000024a fd5e                 CLRR 0x21
0000024b def7                 MOVIA 0x8
0000024c d6f7                 LCALL 0x108; _F_AIN4_Convert=0x108
0000024d e0fc                 BCR 0x3, 0x6
0000024e eade                 SWAPR 0x21, 0x0
0000024f dd0f                 ANDIA 0xf0
00000250 ff5e                 MOVAR 0x21
00000251 eadf                 SWAPR 0x20, 0x0
00000252 ff5f                 MOVAR 0x20
00000253 ddf0                 ANDIA 0xf
00000254 ee5e                 IORAR 0x21, 0x1
00000255 ed5f                 XORAR 0x20, 0x1
00000256 de0f                 MOVIA 0xf0
00000257 ef5d                 ANDAR 0x22, 0x1
00000258 fedd                 MOVR 0x22, 0x0
00000259 ff47                 MOVAR 0x38
0000025a deff                 MOVIA 0x0
0000025b ff46                 MOVAR 0x39
0000025c fec7                 MOVR 0x38, 0x0
0000025d fc5f                 ADDAR 0x20, 0x1
0000025e fec6                 MOVR 0x39, 0x0
0000025f f3fc                 BTRSC 0x3, 0x0
00000260 fac6                 INCR 0x39, 0x0
00000261 f2fc                 BTRSC 0x3, 0x2
00000262 c59b                 LGOTO 0x264; main.o:_00005_DS_=0x264
00000263 fc5e                 ADDAR 0x21, 0x1
00000264                      main.o:_00005_DS_:
00000264 e3fc                 BCR 0x3, 0x0
00000265 e0fc                 BCR 0x3, 0x6
00000266 ec5e                 RRR 0x21, 0x1
00000267 ec5f                 RRR 0x20, 0x1
00000268 e3fc                 BCR 0x3, 0x0
00000269 ec5e                 RRR 0x21, 0x1
0000026a ec5f                 RRR 0x20, 0x1
0000026b e3fc                 BCR 0x3, 0x0
0000026c ec5e                 RRR 0x21, 0x1
0000026d ec5f                 RRR 0x20, 0x1
0000026e fe88                 MOVR 0x77, 0x0
0000026f f2fc                 BTRSC 0x3, 0x2
00000270 c58a                 LGOTO 0x275; main.o:_00560_DS_=0x275
00000271 def1                 MOVIA 0xe
00000272 ff5f                 MOVAR 0x20
00000273 def9                 MOVIA 0x6
00000274 ff5e                 MOVAR 0x21
00000275                      main.o:_00560_DS_:
00000275 def9                 MOVIA 0x6
00000276 e0fc                 BCR 0x3, 0x6
00000277 fbde                 SUBAR 0x21, 0x0
00000278 f6fc                 BTRSS 0x3, 0x2
00000279 c583                 LGOTO 0x27c; main.o:_00831_DS_=0x27c
0000027a def0                 MOVIA 0xf
0000027b fbdf                 SUBAR 0x20, 0x0
0000027c                      main.o:_00831_DS_:
0000027c f7fc                 BTRSS 0x3, 0x0
0000027d c57e                 LGOTO 0x281; main.o:_00572_DS_=0x281
0000027e e0fc                 BCR 0x3, 0x6
0000027f fd19                 CLRR 0x66
00000280 c553                 LGOTO 0x2ac; main.o:_00573_DS_=0x2ac
00000281                      main.o:_00572_DS_:
00000281 defb                 MOVIA 0x4
00000282 e0fc                 BCR 0x3, 0x6
00000283 fbde                 SUBAR 0x21, 0x0
00000284 f6fc                 BTRSS 0x3, 0x2
00000285 c577                 LGOTO 0x288; main.o:_00832_DS_=0x288
00000286 de90                 MOVIA 0x6f
00000287 fbdf                 SUBAR 0x20, 0x0
00000288                      main.o:_00832_DS_:
00000288 f3fc                 BTRSC 0x3, 0x0
00000289 c556                 LGOTO 0x2a9; main.o:_00569_DS_=0x2a9
0000028a e0fc                 BCR 0x3, 0x6
0000028b fa19                 INCR 0x66, 0x1
0000028c def5                 MOVIA 0xa
0000028d fb99                 SUBAR 0x66, 0x0
0000028e f7fc                 BTRSS 0x3, 0x0
0000028f c3a3                 LGOTO 0x45c; main.o:_00676_DS_=0x45c
00000290 def5                 MOVIA 0xa
00000291 ff19                 MOVAR 0x66
00000292 fd2a                 CLRR 0x55
00000293 de90                 MOVIA 0x6f
00000294 ff5f                 MOVAR 0x20
00000295 defb                 MOVIA 0x4
00000296 ff5e                 MOVAR 0x21
00000297 feaf                 MOVR 0x50, 0x0
00000298 f2fc                 BTRSC 0x3, 0x2
00000299 c55e                 LGOTO 0x2a1; main.o:_00564_DS_=0x2a1
0000029a fa1b                 INCR 0x64, 0x1
0000029b fe9b                 MOVR 0x64, 0x0
0000029c dbf5                 XORIA 0xa
0000029d f6fc                 BTRSS 0x3, 0x2
0000029e c55e                 LGOTO 0x2a1; main.o:_00564_DS_=0x2a1
0000029f deef                 MOVIA 0x10
000002a0 ff1c                 MOVAR 0x63
000002a1                      main.o:_00564_DS_:
000002a1 def3                 MOVIA 0xc
000002a2 e0fc                 BCR 0x3, 0x6
000002a3 fb9b                 SUBAR 0x64, 0x0
000002a4 f7fc                 BTRSS 0x3, 0x0
000002a5 c553                 LGOTO 0x2ac; main.o:_00573_DS_=0x2ac
000002a6 def4                 MOVIA 0xb
000002a7 ff1b                 MOVAR 0x64
000002a8 c553                 LGOTO 0x2ac; main.o:_00573_DS_=0x2ac
000002a9                      main.o:_00569_DS_:
000002a9 e0fc                 BCR 0x3, 0x6
000002aa fd19                 CLRR 0x66
000002ab fd1b                 CLRR 0x64
000002ac                      main.o:_00573_DS_:
000002ac de6e                 MOVIA 0x91
000002ad e0fc                 BCR 0x3, 0x6
000002ae fc5f                 ADDAR 0x20, 0x1
000002af de04                 MOVIA 0xfb
000002b0 f3fc                 BTRSC 0x3, 0x0
000002b1 de03                 MOVIA 0xfc
000002b2 fc5e                 ADDAR 0x21, 0x1
000002b3 defe                 MOVIA 0x1
000002b4 fbde                 SUBAR 0x21, 0x0
000002b5 f6fc                 BTRSS 0x3, 0x2
000002b6 c546                 LGOTO 0x2b9; main.o:_00835_DS_=0x2b9
000002b7 de5b                 MOVIA 0xa4
000002b8 fbdf                 SUBAR 0x20, 0x0
000002b9                      main.o:_00835_DS_:
000002b9 f7fc                 BTRSS 0x3, 0x0
000002ba c540                 LGOTO 0x2bf; main.o:_00672_DS_=0x2bf
000002bb def5                 MOVIA 0xa
000002bc e0fc                 BCR 0x3, 0x6
000002bd ff2a                 MOVAR 0x55
000002be c3a9                 LGOTO 0x456; main.o:_00673_DS_=0x456
000002bf                      main.o:_00672_DS_:
000002bf defe                 MOVIA 0x1
000002c0 e0fc                 BCR 0x3, 0x6
000002c1 fbde                 SUBAR 0x21, 0x0
000002c2 f6fc                 BTRSS 0x3, 0x2
000002c3 c539                 LGOTO 0x2c6; main.o:_00836_DS_=0x2c6
000002c4 de65                 MOVIA 0x9a
000002c5 fbdf                 SUBAR 0x20, 0x0
000002c6                      main.o:_00836_DS_:
000002c6 f7fc                 BTRSS 0x3, 0x0
000002c7 c533                 LGOTO 0x2cc; main.o:_00669_DS_=0x2cc
000002c8 def6                 MOVIA 0x9
000002c9 e0fc                 BCR 0x3, 0x6
000002ca ff2a                 MOVAR 0x55
000002cb c3a9                 LGOTO 0x456; main.o:_00673_DS_=0x456
000002cc                      main.o:_00669_DS_:
000002cc defe                 MOVIA 0x1
000002cd e0fc                 BCR 0x3, 0x6
000002ce fbde                 SUBAR 0x21, 0x0
000002cf f6fc                 BTRSS 0x3, 0x2
000002d0 c52c                 LGOTO 0x2d3; main.o:_00837_DS_=0x2d3
000002d1 de73                 MOVIA 0x8c
000002d2 fbdf                 SUBAR 0x20, 0x0
000002d3                      main.o:_00837_DS_:
000002d3 f7fc                 BTRSS 0x3, 0x0
000002d4 c4ea                 LGOTO 0x315; main.o:_00666_DS_=0x315
000002d5 e0fc                 BCR 0x3, 0x6
000002d6 fd1d                 CLRR 0x62
000002d7 def7                 MOVIA 0x8
000002d8 fbaa                 SUBAR 0x55, 0x0
000002d9 f3fc                 BTRSC 0x3, 0x0
000002da c518                 LGOTO 0x2e7; main.o:_00580_DS_=0x2e7
000002db defe                 MOVIA 0x1
000002dc fbde                 SUBAR 0x21, 0x0
000002dd f6fc                 BTRSS 0x3, 0x2
000002de c51e                 LGOTO 0x2e1; main.o:_00839_DS_=0x2e1
000002df de6e                 MOVIA 0x91
000002e0 fbdf                 SUBAR 0x20, 0x0
000002e1                      main.o:_00839_DS_:
000002e1 f7fc                 BTRSS 0x3, 0x0
000002e2 c508                 LGOTO 0x2f7; main.o:_00581_DS_=0x2f7
000002e3 def7                 MOVIA 0x8
000002e4 e0fc                 BCR 0x3, 0x6
000002e5 ff2a                 MOVAR 0x55
000002e6 c508                 LGOTO 0x2f7; main.o:_00581_DS_=0x2f7
000002e7                      main.o:_00580_DS_:
000002e7 e0fc                 BCR 0x3, 0x6
000002e8 fea9                 MOVR 0x56, 0x0
000002e9 eea8                 IORAR 0x57, 0x0
000002ea f6fc                 BTRSS 0x3, 0x2
000002eb c508                 LGOTO 0x2f7; main.o:_00581_DS_=0x2f7
000002ec defe                 MOVIA 0x1
000002ed fbde                 SUBAR 0x21, 0x0
000002ee f6fc                 BTRSS 0x3, 0x2
000002ef c50d                 LGOTO 0x2f2; main.o:_00840_DS_=0x2f2
000002f0 de6a                 MOVIA 0x95
000002f1 fbdf                 SUBAR 0x20, 0x0
000002f2                      main.o:_00840_DS_:
000002f2 f3fc                 BTRSC 0x3, 0x0
000002f3 c508                 LGOTO 0x2f7; main.o:_00581_DS_=0x2f7
000002f4 def7                 MOVIA 0x8
000002f5 e0fc                 BCR 0x3, 0x6
000002f6 ff2a                 MOVAR 0x55
000002f7                      main.o:_00581_DS_:
000002f7 e0fc                 BCR 0x3, 0x6
000002f8 fea9                 MOVR 0x56, 0x0
000002f9 eea8                 IORAR 0x57, 0x0
000002fa f2fc                 BTRSC 0x3, 0x2
000002fb c3a9                 LGOTO 0x456; main.o:_00673_DS_=0x456
000002fc defe                 MOVIA 0x1
000002fd fbde                 SUBAR 0x21, 0x0
000002fe f6fc                 BTRSS 0x3, 0x2
000002ff c4fd                 LGOTO 0x302; main.o:_00841_DS_=0x302
00000300 de68                 MOVIA 0x97
00000301 fbdf                 SUBAR 0x20, 0x0
00000302                      main.o:_00841_DS_:
00000302 f7fc                 BTRSS 0x3, 0x0
00000303 c3a9                 LGOTO 0x456; main.o:_00673_DS_=0x456
00000304 defd                 MOVIA 0x2
00000305 e0fc                 BCR 0x3, 0x6
00000306 fba8                 SUBAR 0x57, 0x0
00000307 f6fc                 BTRSS 0x3, 0x2
00000308 c4f4                 LGOTO 0x30b; main.o:_00842_DS_=0x30b
00000309 dea6                 MOVIA 0x59
0000030a fba9                 SUBAR 0x56, 0x0
0000030b                      main.o:_00842_DS_:
0000030b f7fc                 BTRSS 0x3, 0x0
0000030c c3a9                 LGOTO 0x456; main.o:_00673_DS_=0x456
0000030d dea7                 MOVIA 0x58
0000030e e0fc                 BCR 0x3, 0x6
0000030f ff29                 MOVAR 0x56
00000310 defd                 MOVIA 0x2
00000311 ff28                 MOVAR 0x57
00000312 def6                 MOVIA 0x9
00000313 ff2a                 MOVAR 0x55
00000314 c3a9                 LGOTO 0x456; main.o:_00673_DS_=0x456
00000315                      main.o:_00666_DS_:
00000315 defe                 MOVIA 0x1
00000316 e0fc                 BCR 0x3, 0x6
00000317 fbde                 SUBAR 0x21, 0x0
00000318 f6fc                 BTRSS 0x3, 0x2
00000319 c4e3                 LGOTO 0x31c; main.o:_00843_DS_=0x31c
0000031a de82                 MOVIA 0x7d
0000031b fbdf                 SUBAR 0x20, 0x0
0000031c                      main.o:_00843_DS_:
0000031c f7fc                 BTRSS 0x3, 0x0
0000031d c4b9                 LGOTO 0x346; main.o:_00663_DS_=0x346
0000031e e0fc                 BCR 0x3, 0x6
0000031f feaa                 MOVR 0x55, 0x0
00000320 dbf9                 XORIA 0x6
00000321 f6fc                 BTRSS 0x3, 0x2
00000322 c4d1                 LGOTO 0x32e; main.o:_00589_DS_=0x32e
00000323 defe                 MOVIA 0x1
00000324 fbde                 SUBAR 0x21, 0x0
00000325 f6fc                 BTRSS 0x3, 0x2
00000326 c4d6                 LGOTO 0x329; main.o:_00844_DS_=0x329
00000327 de7d                 MOVIA 0x82
00000328 fbdf                 SUBAR 0x20, 0x0
00000329                      main.o:_00844_DS_:
00000329 f7fc                 BTRSS 0x3, 0x0
0000032a c4d1                 LGOTO 0x32e; main.o:_00589_DS_=0x32e
0000032b def8                 MOVIA 0x7
0000032c e0fc                 BCR 0x3, 0x6
0000032d ff2a                 MOVAR 0x55
0000032e                      main.o:_00589_DS_:
0000032e def7                 MOVIA 0x8
0000032f e0fc                 BCR 0x3, 0x6
00000330 fbaa                 SUBAR 0x55, 0x0
00000331 f7fc                 BTRSS 0x3, 0x0
00000332 c4c0                 LGOTO 0x33f; main.o:_00593_DS_=0x33f
00000333 defe                 MOVIA 0x1
00000334 fbde                 SUBAR 0x21, 0x0
00000335 f6fc                 BTRSS 0x3, 0x2
00000336 c4c6                 LGOTO 0x339; main.o:_00846_DS_=0x339
00000337 de79                 MOVIA 0x86
00000338 fbdf                 SUBAR 0x20, 0x0
00000339                      main.o:_00846_DS_:
00000339 f3fc                 BTRSC 0x3, 0x0
0000033a c4bd                 LGOTO 0x342; main.o:_00594_DS_=0x342
0000033b def8                 MOVIA 0x7
0000033c e0fc                 BCR 0x3, 0x6
0000033d ff2a                 MOVAR 0x55
0000033e c4bd                 LGOTO 0x342; main.o:_00594_DS_=0x342
0000033f                      main.o:_00593_DS_:
0000033f def8                 MOVIA 0x7
00000340 e0fc                 BCR 0x3, 0x6
00000341 ff2a                 MOVAR 0x55
00000342                      main.o:_00594_DS_:
00000342 e0fc                 BCR 0x3, 0x6
00000343 fd29                 CLRR 0x56
00000344 fd28                 CLRR 0x57
00000345 c3a9                 LGOTO 0x456; main.o:_00673_DS_=0x456
00000346                      main.o:_00663_DS_:
00000346 defe                 MOVIA 0x1
00000347 e0fc                 BCR 0x3, 0x6
00000348 fbde                 SUBAR 0x21, 0x0
00000349 f6fc                 BTRSS 0x3, 0x2
0000034a c4b2                 LGOTO 0x34d; main.o:_00847_DS_=0x34d
0000034b dea5                 MOVIA 0x5a
0000034c fbdf                 SUBAR 0x20, 0x0
0000034d                      main.o:_00847_DS_:
0000034d f7fc                 BTRSS 0x3, 0x0
0000034e c488                 LGOTO 0x377; main.o:_00660_DS_=0x377
0000034f e0fc                 BCR 0x3, 0x6
00000350 feaa                 MOVR 0x55, 0x0
00000351 dbfa                 XORIA 0x5
00000352 f6fc                 BTRSS 0x3, 0x2
00000353 c4a0                 LGOTO 0x35f; main.o:_00598_DS_=0x35f
00000354 defe                 MOVIA 0x1
00000355 fbde                 SUBAR 0x21, 0x0
00000356 f6fc                 BTRSS 0x3, 0x2
00000357 c4a5                 LGOTO 0x35a; main.o:_00848_DS_=0x35a
00000358 dea0                 MOVIA 0x5f
00000359 fbdf                 SUBAR 0x20, 0x0
0000035a                      main.o:_00848_DS_:
0000035a f7fc                 BTRSS 0x3, 0x0
0000035b c4a0                 LGOTO 0x35f; main.o:_00598_DS_=0x35f
0000035c def9                 MOVIA 0x6
0000035d e0fc                 BCR 0x3, 0x6
0000035e ff2a                 MOVAR 0x55
0000035f                      main.o:_00598_DS_:
0000035f def8                 MOVIA 0x7
00000360 e0fc                 BCR 0x3, 0x6
00000361 fbaa                 SUBAR 0x55, 0x0
00000362 f7fc                 BTRSS 0x3, 0x0
00000363 c48f                 LGOTO 0x370; main.o:_00602_DS_=0x370
00000364 defe                 MOVIA 0x1
00000365 fbde                 SUBAR 0x21, 0x0
00000366 f6fc                 BTRSS 0x3, 0x2
00000367 c495                 LGOTO 0x36a; main.o:_00850_DS_=0x36a
00000368 de88                 MOVIA 0x77
00000369 fbdf                 SUBAR 0x20, 0x0
0000036a                      main.o:_00850_DS_:
0000036a f3fc                 BTRSC 0x3, 0x0
0000036b c48c                 LGOTO 0x373; main.o:_00603_DS_=0x373
0000036c def9                 MOVIA 0x6
0000036d e0fc                 BCR 0x3, 0x6
0000036e ff2a                 MOVAR 0x55
0000036f c48c                 LGOTO 0x373; main.o:_00603_DS_=0x373
00000370                      main.o:_00602_DS_:
00000370 def9                 MOVIA 0x6
00000371 e0fc                 BCR 0x3, 0x6
00000372 ff2a                 MOVAR 0x55
00000373                      main.o:_00603_DS_:
00000373 e0fc                 BCR 0x3, 0x6
00000374 fd29                 CLRR 0x56
00000375 fd28                 CLRR 0x57
00000376 c3a9                 LGOTO 0x456; main.o:_00673_DS_=0x456
00000377                      main.o:_00660_DS_:
00000377 defe                 MOVIA 0x1
00000378 e0fc                 BCR 0x3, 0x6
00000379 fbde                 SUBAR 0x21, 0x0
0000037a f6fc                 BTRSS 0x3, 0x2
0000037b c481                 LGOTO 0x37e; main.o:_00851_DS_=0x37e
0000037c decd                 MOVIA 0x32
0000037d fbdf                 SUBAR 0x20, 0x0
0000037e                      main.o:_00851_DS_:
0000037e f7fc                 BTRSS 0x3, 0x0
0000037f c457                 LGOTO 0x3a8; main.o:_00657_DS_=0x3a8
00000380 e0fc                 BCR 0x3, 0x6
00000381 feaa                 MOVR 0x55, 0x0
00000382 dbfb                 XORIA 0x4
00000383 f6fc                 BTRSS 0x3, 0x2
00000384 c46f                 LGOTO 0x390; main.o:_00607_DS_=0x390
00000385 defe                 MOVIA 0x1
00000386 fbde                 SUBAR 0x21, 0x0
00000387 f6fc                 BTRSS 0x3, 0x2
00000388 c474                 LGOTO 0x38b; main.o:_00852_DS_=0x38b
00000389 dec8                 MOVIA 0x37
0000038a fbdf                 SUBAR 0x20, 0x0
0000038b                      main.o:_00852_DS_:
0000038b f7fc                 BTRSS 0x3, 0x0
0000038c c46f                 LGOTO 0x390; main.o:_00607_DS_=0x390
0000038d defa                 MOVIA 0x5
0000038e e0fc                 BCR 0x3, 0x6
0000038f ff2a                 MOVAR 0x55
00000390                      main.o:_00607_DS_:
00000390 def9                 MOVIA 0x6
00000391 e0fc                 BCR 0x3, 0x6
00000392 fbaa                 SUBAR 0x55, 0x0
00000393 f7fc                 BTRSS 0x3, 0x0
00000394 c45e                 LGOTO 0x3a1; main.o:_00611_DS_=0x3a1
00000395 defe                 MOVIA 0x1
00000396 fbde                 SUBAR 0x21, 0x0
00000397 f6fc                 BTRSS 0x3, 0x2
00000398 c464                 LGOTO 0x39b; main.o:_00854_DS_=0x39b
00000399 deab                 MOVIA 0x54
0000039a fbdf                 SUBAR 0x20, 0x0
0000039b                      main.o:_00854_DS_:
0000039b f3fc                 BTRSC 0x3, 0x0
0000039c c45b                 LGOTO 0x3a4; main.o:_00612_DS_=0x3a4
0000039d defa                 MOVIA 0x5
0000039e e0fc                 BCR 0x3, 0x6
0000039f ff2a                 MOVAR 0x55
000003a0 c45b                 LGOTO 0x3a4; main.o:_00612_DS_=0x3a4
000003a1                      main.o:_00611_DS_:
000003a1 defa                 MOVIA 0x5
000003a2 e0fc                 BCR 0x3, 0x6
000003a3 ff2a                 MOVAR 0x55
000003a4                      main.o:_00612_DS_:
000003a4 e0fc                 BCR 0x3, 0x6
000003a5 fd29                 CLRR 0x56
000003a6 fd28                 CLRR 0x57
000003a7 c3a9                 LGOTO 0x456; main.o:_00673_DS_=0x456
000003a8                      main.o:_00657_DS_:
000003a8 deff                 MOVIA 0x0
000003a9 e0fc                 BCR 0x3, 0x6
000003aa fbde                 SUBAR 0x21, 0x0
000003ab f6fc                 BTRSS 0x3, 0x2
000003ac c450                 LGOTO 0x3af; main.o:_00855_DS_=0x3af
000003ad de0e                 MOVIA 0xf1
000003ae fbdf                 SUBAR 0x20, 0x0
000003af                      main.o:_00855_DS_:
000003af f7fc                 BTRSS 0x3, 0x0
000003b0 c426                 LGOTO 0x3d9; main.o:_00654_DS_=0x3d9
000003b1 e0fc                 BCR 0x3, 0x6
000003b2 feaa                 MOVR 0x55, 0x0
000003b3 dbfc                 XORIA 0x3
000003b4 f6fc                 BTRSS 0x3, 0x2
000003b5 c43e                 LGOTO 0x3c1; main.o:_00616_DS_=0x3c1
000003b6 deff                 MOVIA 0x0
000003b7 fbde                 SUBAR 0x21, 0x0
000003b8 f6fc                 BTRSS 0x3, 0x2
000003b9 c443                 LGOTO 0x3bc; main.o:_00856_DS_=0x3bc
000003ba de09                 MOVIA 0xf6
000003bb fbdf                 SUBAR 0x20, 0x0
000003bc                      main.o:_00856_DS_:
000003bc f7fc                 BTRSS 0x3, 0x0
000003bd c43e                 LGOTO 0x3c1; main.o:_00616_DS_=0x3c1
000003be defb                 MOVIA 0x4
000003bf e0fc                 BCR 0x3, 0x6
000003c0 ff2a                 MOVAR 0x55
000003c1                      main.o:_00616_DS_:
000003c1 defa                 MOVIA 0x5
000003c2 e0fc                 BCR 0x3, 0x6
000003c3 fbaa                 SUBAR 0x55, 0x0
000003c4 f7fc                 BTRSS 0x3, 0x0
000003c5 c42d                 LGOTO 0x3d2; main.o:_00620_DS_=0x3d2
000003c6 defe                 MOVIA 0x1
000003c7 fbde                 SUBAR 0x21, 0x0
000003c8 f6fc                 BTRSS 0x3, 0x2
000003c9 c433                 LGOTO 0x3cc; main.o:_00858_DS_=0x3cc
000003ca ded3                 MOVIA 0x2c
000003cb fbdf                 SUBAR 0x20, 0x0
000003cc                      main.o:_00858_DS_:
000003cc f3fc                 BTRSC 0x3, 0x0
000003cd c42a                 LGOTO 0x3d5; main.o:_00621_DS_=0x3d5
000003ce defb                 MOVIA 0x4
000003cf e0fc                 BCR 0x3, 0x6
000003d0 ff2a                 MOVAR 0x55
000003d1 c42a                 LGOTO 0x3d5; main.o:_00621_DS_=0x3d5
000003d2                      main.o:_00620_DS_:
000003d2 defb                 MOVIA 0x4
000003d3 e0fc                 BCR 0x3, 0x6
000003d4 ff2a                 MOVAR 0x55
000003d5                      main.o:_00621_DS_:
000003d5 e0fc                 BCR 0x3, 0x6
000003d6 fd29                 CLRR 0x56
000003d7 fd28                 CLRR 0x57
000003d8 c3a9                 LGOTO 0x456; main.o:_00673_DS_=0x456
000003d9                      main.o:_00654_DS_:
000003d9 deff                 MOVIA 0x0
000003da e0fc                 BCR 0x3, 0x6
000003db fbde                 SUBAR 0x21, 0x0
000003dc f6fc                 BTRSS 0x3, 0x2
000003dd c41f                 LGOTO 0x3e0; main.o:_00859_DS_=0x3e0
000003de de36                 MOVIA 0xc9
000003df fbdf                 SUBAR 0x20, 0x0
000003e0                      main.o:_00859_DS_:
000003e0 f7fc                 BTRSS 0x3, 0x0
000003e1 c3f5                 LGOTO 0x40a; main.o:_00651_DS_=0x40a
000003e2 e0fc                 BCR 0x3, 0x6
000003e3 feaa                 MOVR 0x55, 0x0
000003e4 dbfd                 XORIA 0x2
000003e5 f6fc                 BTRSS 0x3, 0x2
000003e6 c40d                 LGOTO 0x3f2; main.o:_00625_DS_=0x3f2
000003e7 deff                 MOVIA 0x0
000003e8 fbde                 SUBAR 0x21, 0x0
000003e9 f6fc                 BTRSS 0x3, 0x2
000003ea c412                 LGOTO 0x3ed; main.o:_00860_DS_=0x3ed
000003eb de2c                 MOVIA 0xd3
000003ec fbdf                 SUBAR 0x20, 0x0
000003ed                      main.o:_00860_DS_:
000003ed f7fc                 BTRSS 0x3, 0x0
000003ee c40d                 LGOTO 0x3f2; main.o:_00625_DS_=0x3f2
000003ef defc                 MOVIA 0x3
000003f0 e0fc                 BCR 0x3, 0x6
000003f1 ff2a                 MOVAR 0x55
000003f2                      main.o:_00625_DS_:
000003f2 defb                 MOVIA 0x4
000003f3 e0fc                 BCR 0x3, 0x6
000003f4 fbaa                 SUBAR 0x55, 0x0
000003f5 f7fc                 BTRSS 0x3, 0x0
000003f6 c3fc                 LGOTO 0x403; main.o:_00629_DS_=0x403
000003f7 deff                 MOVIA 0x0
000003f8 fbde                 SUBAR 0x21, 0x0
000003f9 f6fc                 BTRSS 0x3, 0x2
000003fa c402                 LGOTO 0x3fd; main.o:_00862_DS_=0x3fd
000003fb de14                 MOVIA 0xeb
000003fc fbdf                 SUBAR 0x20, 0x0
000003fd                      main.o:_00862_DS_:
000003fd f3fc                 BTRSC 0x3, 0x0
000003fe c3f9                 LGOTO 0x406; main.o:_00630_DS_=0x406
000003ff defc                 MOVIA 0x3
00000400 e0fc                 BCR 0x3, 0x6
00000401 ff2a                 MOVAR 0x55
00000402 c3f9                 LGOTO 0x406; main.o:_00630_DS_=0x406
00000403                      main.o:_00629_DS_:
00000403 defc                 MOVIA 0x3
00000404 e0fc                 BCR 0x3, 0x6
00000405 ff2a                 MOVAR 0x55
00000406                      main.o:_00630_DS_:
00000406 e0fc                 BCR 0x3, 0x6
00000407 fd29                 CLRR 0x56
00000408 fd28                 CLRR 0x57
00000409 c3a9                 LGOTO 0x456; main.o:_00673_DS_=0x456
0000040a                      main.o:_00651_DS_:
0000040a deff                 MOVIA 0x0
0000040b e0fc                 BCR 0x3, 0x6
0000040c fbde                 SUBAR 0x21, 0x0
0000040d f6fc                 BTRSS 0x3, 0x2
0000040e c3ee                 LGOTO 0x411; main.o:_00863_DS_=0x411
0000040f de9a                 MOVIA 0x65
00000410 fbdf                 SUBAR 0x20, 0x0
00000411                      main.o:_00863_DS_:
00000411 f7fc                 BTRSS 0x3, 0x0
00000412 c3c4                 LGOTO 0x43b; main.o:_00648_DS_=0x43b
00000413 e0fc                 BCR 0x3, 0x6
00000414 feaa                 MOVR 0x55, 0x0
00000415 dbfe                 XORIA 0x1
00000416 f6fc                 BTRSS 0x3, 0x2
00000417 c3dc                 LGOTO 0x423; main.o:_00634_DS_=0x423
00000418 deff                 MOVIA 0x0
00000419 fbde                 SUBAR 0x21, 0x0
0000041a f6fc                 BTRSS 0x3, 0x2
0000041b c3e1                 LGOTO 0x41e; main.o:_00864_DS_=0x41e
0000041c de90                 MOVIA 0x6f
0000041d fbdf                 SUBAR 0x20, 0x0
0000041e                      main.o:_00864_DS_:
0000041e f7fc                 BTRSS 0x3, 0x0
0000041f c3dc                 LGOTO 0x423; main.o:_00634_DS_=0x423
00000420 defd                 MOVIA 0x2
00000421 e0fc                 BCR 0x3, 0x6
00000422 ff2a                 MOVAR 0x55
00000423                      main.o:_00634_DS_:
00000423 defc                 MOVIA 0x3
00000424 e0fc                 BCR 0x3, 0x6
00000425 fbaa                 SUBAR 0x55, 0x0
00000426 f7fc                 BTRSS 0x3, 0x0
00000427 c3cb                 LGOTO 0x434; main.o:_00638_DS_=0x434
00000428 deff                 MOVIA 0x0
00000429 fbde                 SUBAR 0x21, 0x0
0000042a f6fc                 BTRSS 0x3, 0x2
0000042b c3d1                 LGOTO 0x42e; main.o:_00866_DS_=0x42e
0000042c de69                 MOVIA 0x96
0000042d fbdf                 SUBAR 0x20, 0x0
0000042e                      main.o:_00866_DS_:
0000042e f3fc                 BTRSC 0x3, 0x0
0000042f c3c8                 LGOTO 0x437; main.o:_00639_DS_=0x437
00000430 defd                 MOVIA 0x2
00000431 e0fc                 BCR 0x3, 0x6
00000432 ff2a                 MOVAR 0x55
00000433 c3c8                 LGOTO 0x437; main.o:_00639_DS_=0x437
00000434                      main.o:_00638_DS_:
00000434 defd                 MOVIA 0x2
00000435 e0fc                 BCR 0x3, 0x6
00000436 ff2a                 MOVAR 0x55
00000437                      main.o:_00639_DS_:
00000437 e0fc                 BCR 0x3, 0x6
00000438 fd29                 CLRR 0x56
00000439 fd28                 CLRR 0x57
0000043a c3a9                 LGOTO 0x456; main.o:_00673_DS_=0x456
0000043b                      main.o:_00648_DS_:
0000043b e0fc                 BCR 0x3, 0x6
0000043c fedf                 MOVR 0x20, 0x0
0000043d eede                 IORAR 0x21, 0x0
0000043e f2fc                 BTRSC 0x3, 0x2
0000043f c3a9                 LGOTO 0x456; main.o:_00673_DS_=0x456
00000440 defd                 MOVIA 0x2
00000441 fbaa                 SUBAR 0x55, 0x0
00000442 f7fc                 BTRSS 0x3, 0x0
00000443 c3af                 LGOTO 0x450; main.o:_00643_DS_=0x450
00000444 deff                 MOVIA 0x0
00000445 fbde                 SUBAR 0x21, 0x0
00000446 f6fc                 BTRSS 0x3, 0x2
00000447 c3b5                 LGOTO 0x44a; main.o:_00868_DS_=0x44a
00000448 decd                 MOVIA 0x32
00000449 fbdf                 SUBAR 0x20, 0x0
0000044a                      main.o:_00868_DS_:
0000044a f3fc                 BTRSC 0x3, 0x0
0000044b c3ac                 LGOTO 0x453; main.o:_00644_DS_=0x453
0000044c defe                 MOVIA 0x1
0000044d e0fc                 BCR 0x3, 0x6
0000044e ff2a                 MOVAR 0x55
0000044f c3ac                 LGOTO 0x453; main.o:_00644_DS_=0x453
00000450                      main.o:_00643_DS_:
00000450 defe                 MOVIA 0x1
00000451 e0fc                 BCR 0x3, 0x6
00000452 ff2a                 MOVAR 0x55
00000453                      main.o:_00644_DS_:
00000453 e0fc                 BCR 0x3, 0x6
00000454 fd29                 CLRR 0x56
00000455 fd28                 CLRR 0x57
00000456                      main.o:_00673_DS_:
00000456 e0fc                 BCR 0x3, 0x6
00000457 feaf                 MOVR 0x50, 0x0
00000458 f2fc                 BTRSC 0x3, 0x2
00000459 c3a3                 LGOTO 0x45c; main.o:_00676_DS_=0x45c
0000045a feaf                 MOVR 0x50, 0x0
0000045b ff2e                 MOVAR 0x51
0000045c                      main.o:_00676_DS_:
0000045c ffef                 RET
0000045d                      _initAD:
0000045d de7b                 MOVIA 0x84
0000045e ff6f                 MOVAR 0x10
0000045f fd6c                 CLRR 0x13
00000460 deef                 MOVIA 0x10
00000461 ff6e                 MOVAR 0x11
00000462 defc                 MOVIA 0x3
00000463 ff6b                 MOVAR 0x14
00000464 e5ef                 BSR 0x10, 0x4
00000465 de9b                 MOVIA 0x64
00000466 d397                 LCALL 0x468; _delay=0x468
00000467 ffef                 RET
00000468                      _delay:
00000468 e0fc                 BCR 0x3, 0x6
00000469 ff49                 MOVAR 0x36
0000046a fd48                 CLRR 0x37
0000046b                      main.o:_00548_DS_:
0000046b e0fc                 BCR 0x3, 0x6
0000046c fec9                 MOVR 0x36, 0x0
0000046d fbc8                 SUBAR 0x37, 0x0
0000046e f3fc                 BTRSC 0x3, 0x0
0000046f c38c                 LGOTO 0x473; main.o:_00550_DS_=0x473
00000470 ffff                 NOP
00000471 fa48                 INCR 0x37, 0x1
00000472 c394                 LGOTO 0x46b; main.o:_00548_DS_=0x46b
00000473                      main.o:_00550_DS_:
00000473 ffef                 RET
00000474                      _chrgCtr:
00000474 e0fc                 BCR 0x3, 0x6
00000475 f57a                 BTRSS 0x5, 0x5
00000476 c316                 LGOTO 0x4e9; main.o:_00479_DS_=0x4e9
00000477 fd0c                 CLRR 0x73
00000478 defe                 MOVIA 0x1
00000479 ff16                 MOVAR 0x69
0000047a fd2f                 CLRR 0x50
0000047b fd1f                 CLRR 0x60
0000047c d27d                 LCALL 0x582; _pwmStop=0x582
0000047d e0fc                 BCR 0x3, 0x6
0000047e fe8b                 MOVR 0x74, 0x0
0000047f f6fc                 BTRSS 0x3, 0x2
00000480 c37a                 LGOTO 0x485; main.o:_00460_DS_=0x485
00000481 def6                 MOVIA 0x9
00000482 fbaa                 SUBAR 0x55, 0x0
00000483 f7fc                 BTRSS 0x3, 0x0
00000484 c35c                 LGOTO 0x4a3; main.o:_00461_DS_=0x4a3
00000485                      main.o:_00460_DS_:
00000485 def7                 MOVIA 0x8
00000486 e0fc                 BCR 0x3, 0x6
00000487 ff2e                 MOVAR 0x51
00000488 fa0a                 INCR 0x75, 0x1
00000489 de36                 MOVIA 0xc9
0000048a fb8a                 SUBAR 0x75, 0x0
0000048b f7fc                 BTRSS 0x3, 0x0
0000048c c36e                 LGOTO 0x491; main.o:_00443_DS_=0x491
0000048d defe                 MOVIA 0x1
0000048e ff0b                 MOVAR 0x74
0000048f de37                 MOVIA 0xc8
00000490 ff0a                 MOVAR 0x75
00000491                      main.o:_00443_DS_:
00000491 e0fc                 BCR 0x3, 0x6
00000492 feaa                 MOVR 0x55, 0x0
00000493 dbf5                 XORIA 0xa
00000494 f6fc                 BTRSS 0x3, 0x2
00000495 c35f                 LGOTO 0x4a0; main.o:_00445_DS_=0x4a0
00000496 fa1d                 INCR 0x62, 0x1
00000497 de9a                 MOVIA 0x65
00000498 fb9d                 SUBAR 0x62, 0x0
00000499 f7fc                 BTRSS 0x3, 0x0
0000049a c35f                 LGOTO 0x4a0; main.o:_00445_DS_=0x4a0
0000049b ffea                 IOSTR 0x5
0000049c ff4d                 MOVAR 0x32
0000049d e7cd                 BSR 0x32, 0x0
0000049e fecd                 MOVR 0x32, 0x0
0000049f fffa                 IOST 0x5
000004a0                      main.o:_00445_DS_:
000004a0 e0fc                 BCR 0x3, 0x6
000004a1 e6fa                 BSR 0x5, 0x2
000004a2 c2cf                 LGOTO 0x530; main.o:_00481_DS_=0x530
000004a3                      main.o:_00461_DS_:
000004a3 e0fc                 BCR 0x3, 0x6
000004a4 fd0a                 CLRR 0x75
000004a5 e2fa                 BCR 0x5, 0x2
000004a6 feb1                 MOVR 0x4e, 0x0
000004a7 f6fc                 BTRSS 0x3, 0x2
000004a8 c327                 LGOTO 0x4d8; main.o:_00455_DS_=0x4d8
000004a9 def6                 MOVIA 0x9
000004aa fbaa                 SUBAR 0x55, 0x0
000004ab f3fc                 BTRSC 0x3, 0x0
000004ac c327                 LGOTO 0x4d8; main.o:_00455_DS_=0x4d8
000004ad feaa                 MOVR 0x55, 0x0
000004ae ff4d                 MOVAR 0x32
000004af fd4c                 CLRR 0x33
000004b0 de00                 MOVIA 0xff
000004b1 fc4d                 ADDAR 0x32, 0x1
000004b2 f3fc                 BTRSC 0x3, 0x0
000004b3 c34a                 LGOTO 0x4b5; main.o:_00006_DS_=0x4b5
000004b4 f94c                 DECR 0x33, 0x1
000004b5                      main.o:_00006_DS_:
000004b5 e0fc                 BCR 0x3, 0x6
000004b6 fe91                 MOVR 0x6e, 0x0
000004b7 ff4b                 MOVAR 0x34
000004b8 deff                 MOVIA 0x0
000004b9 da7f                 ADDIA 0x80
000004ba ff4a                 MOVAR 0x35
000004bb fecc                 MOVR 0x33, 0x0
000004bc da7f                 ADDIA 0x80
000004bd fbca                 SUBAR 0x35, 0x0
000004be f6fc                 BTRSS 0x3, 0x2
000004bf c33d                 LGOTO 0x4c2; main.o:_00538_DS_=0x4c2
000004c0 fecd                 MOVR 0x32, 0x0
000004c1 fbcb                 SUBAR 0x34, 0x0
000004c2                      main.o:_00538_DS_:
000004c2 f3fc                 BTRSC 0x3, 0x0
000004c3 c32c                 LGOTO 0x4d3; main.o:_00452_DS_=0x4d3
000004c4 e0fc                 BCR 0x3, 0x6
000004c5 fe91                 MOVR 0x6e, 0x0
000004c6 f6fc                 BTRSS 0x3, 0x2
000004c7 c335                 LGOTO 0x4ca; main.o:_00448_DS_=0x4ca
000004c8 f9aa                 DECR 0x55, 0x0
000004c9 ff11                 MOVAR 0x6e
000004ca                      main.o:_00448_DS_:
000004ca e0fc                 BCR 0x3, 0x6
000004cb fa09                 INCR 0x76, 0x1
000004cc de9a                 MOVIA 0x65
000004cd fb89                 SUBAR 0x76, 0x0
000004ce f7fc                 BTRSS 0x3, 0x0
000004cf c32a                 LGOTO 0x4d5; main.o:_00453_DS_=0x4d5
000004d0 f9aa                 DECR 0x55, 0x0
000004d1 ff11                 MOVAR 0x6e
000004d2 c32a                 LGOTO 0x4d5; main.o:_00453_DS_=0x4d5
000004d3                      main.o:_00452_DS_:
000004d3 e0fc                 BCR 0x3, 0x6
000004d4 fd09                 CLRR 0x76
000004d5                      main.o:_00453_DS_:
000004d5 e0fc                 BCR 0x3, 0x6
000004d6 fe91                 MOVR 0x6e, 0x0
000004d7 ff2e                 MOVAR 0x51
000004d8                      main.o:_00455_DS_:
000004d8 dee1                 MOVIA 0x1e
000004d9 e0fc                 BCR 0x3, 0x6
000004da fbb1                 SUBAR 0x4e, 0x0
000004db f3fc                 BTRSC 0x3, 0x0
000004dc c320                 LGOTO 0x4df; main.o:_00458_DS_=0x4df
000004dd e77a                 BSR 0x5, 0x1
000004de c31e                 LGOTO 0x4e1; main.o:_00459_DS_=0x4e1
000004df                      main.o:_00458_DS_:
000004df e0fc                 BCR 0x3, 0x6
000004e0 e37a                 BCR 0x5, 0x1
000004e1                      main.o:_00459_DS_:
000004e1 ffea                 IOSTR 0x5
000004e2 e0fc                 BCR 0x3, 0x6
000004e3 ff4d                 MOVAR 0x32
000004e4 e3cd                 BCR 0x32, 0x0
000004e5 fecd                 MOVR 0x32, 0x0
000004e6 fffa                 IOST 0x5
000004e7 e7fa                 BSR 0x5, 0x0
000004e8 c2cf                 LGOTO 0x530; main.o:_00481_DS_=0x530
000004e9                      main.o:_00479_DS_:
000004e9 e0fc                 BCR 0x3, 0x6
000004ea fd0b                 CLRR 0x74
000004eb fd0a                 CLRR 0x75
000004ec fd11                 CLRR 0x6e
000004ed feaf                 MOVR 0x50, 0x0
000004ee f2fc                 BTRSC 0x3, 0x2
000004ef c2f7                 LGOTO 0x508; main.o:_00467_DS_=0x508
000004f0 feaa                 MOVR 0x55, 0x0
000004f1 f6fc                 BTRSS 0x3, 0x2
000004f2 c2f7                 LGOTO 0x508; main.o:_00467_DS_=0x508
000004f3 fa0e                 INCR 0x71, 0x1
000004f4 f2fc                 BTRSC 0x3, 0x2
000004f5 fa0d                 INCR 0x72, 0x1
000004f6 dee8                 MOVIA 0x17
000004f7 fb8d                 SUBAR 0x72, 0x0
000004f8 f6fc                 BTRSS 0x3, 0x2
000004f9 c303                 LGOTO 0x4fc; main.o:_00541_DS_=0x4fc
000004fa de8e                 MOVIA 0x71
000004fb fb8e                 SUBAR 0x71, 0x0
000004fc                      main.o:_00541_DS_:
000004fc f7fc                 BTRSS 0x3, 0x0
000004fd c2f4                 LGOTO 0x50b; main.o:_00468_DS_=0x50b
000004fe de0b                 MOVIA 0xf4
000004ff e0fc                 BCR 0x3, 0x6
00000500 ff10                 MOVAR 0x6f
00000501 defe                 MOVIA 0x1
00000502 ff0f                 MOVAR 0x70
00000503 ff0c                 MOVAR 0x73
00000504 fd0e                 CLRR 0x71
00000505 fd0d                 CLRR 0x72
00000506 d17f                 LCALL 0x680; _powerOff=0x680
00000507 c2f4                 LGOTO 0x50b; main.o:_00468_DS_=0x50b
00000508                      main.o:_00467_DS_:
00000508 e0fc                 BCR 0x3, 0x6
00000509 fd0e                 CLRR 0x71
0000050a fd0d                 CLRR 0x72
0000050b                      main.o:_00468_DS_:
0000050b e0fc                 BCR 0x3, 0x6
0000050c fe90                 MOVR 0x6f, 0x0
0000050d ee8f                 IORAR 0x70, 0x0
0000050e f2fc                 BTRSC 0x3, 0x2
0000050f c2e2                 LGOTO 0x51d; main.o:_00474_DS_=0x51d
00000510 de00                 MOVIA 0xff
00000511 fc10                 ADDAR 0x6f, 0x1
00000512 f7fc                 BTRSS 0x3, 0x0
00000513 f90f                 DECR 0x70, 0x1
00000514 dee1                 MOVIA 0x1e
00000515 fbb1                 SUBAR 0x4e, 0x0
00000516 f3fc                 BTRSC 0x3, 0x0
00000517 c2e5                 LGOTO 0x51a; main.o:_00471_DS_=0x51a
00000518 e77a                 BSR 0x5, 0x1
00000519 c2e0                 LGOTO 0x51f; main.o:_00475_DS_=0x51f
0000051a                      main.o:_00471_DS_:
0000051a e0fc                 BCR 0x3, 0x6
0000051b e37a                 BCR 0x5, 0x1
0000051c c2e0                 LGOTO 0x51f; main.o:_00475_DS_=0x51f
0000051d                      main.o:_00474_DS_:
0000051d e0fc                 BCR 0x3, 0x6
0000051e e37a                 BCR 0x5, 0x1
0000051f                      main.o:_00475_DS_:
0000051f e0fc                 BCR 0x3, 0x6
00000520 e2fa                 BCR 0x5, 0x2
00000521 ffea                 IOSTR 0x5
00000522 ff4d                 MOVAR 0x32
00000523 e7cd                 BSR 0x32, 0x0
00000524 fecd                 MOVR 0x32, 0x0
00000525 fffa                 IOST 0x5
00000526 fd29                 CLRR 0x56
00000527 fd28                 CLRR 0x57
00000528 feaf                 MOVR 0x50, 0x0
00000529 f6fc                 BTRSS 0x3, 0x2
0000052a c2d3                 LGOTO 0x52c; main.o:_00007_DS_=0x52c
0000052b fd2e                 CLRR 0x51
0000052c                      main.o:_00007_DS_:
0000052c e0fc                 BCR 0x3, 0x6
0000052d fd16                 CLRR 0x69
0000052e fd29                 CLRR 0x56
0000052f fd28                 CLRR 0x57
00000530                      main.o:_00481_DS_:
00000530 ffef                 RET
00000531                      _keyRead:
00000531 e0fc                 BCR 0x3, 0x6
00000532 ff4e                 MOVAR 0x31
00000533 fece                 MOVR 0x31, 0x0
00000534 f2fc                 BTRSC 0x3, 0x2
00000535 c2bb                 LGOTO 0x544; main.o:_00435_DS_=0x544
00000536 fa30                 INCR 0x4f, 0x1
00000537 de9b                 MOVIA 0x64
00000538 fbb0                 SUBAR 0x4f, 0x0
00000539 f7fc                 BTRSS 0x3, 0x0
0000053a c2a8                 LGOTO 0x557; main.o:_00436_DS_=0x557
0000053b de9b                 MOVIA 0x64
0000053c ff30                 MOVAR 0x4f
0000053d fe98                 MOVR 0x67, 0x0
0000053e f6fc                 BTRSS 0x3, 0x2
0000053f c2a8                 LGOTO 0x557; main.o:_00436_DS_=0x557
00000540 defe                 MOVIA 0x1
00000541 ff18                 MOVAR 0x67
00000542 defd                 MOVIA 0x2
00000543 c2a7                 LGOTO 0x558; main.o:_00437_DS_=0x558
00000544                      main.o:_00435_DS_:
00000544 de9b                 MOVIA 0x64
00000545 e0fc                 BCR 0x3, 0x6
00000546 fbb0                 SUBAR 0x4f, 0x0
00000547 f7fc                 BTRSS 0x3, 0x0
00000548 c2b2                 LGOTO 0x54d; main.o:_00432_DS_=0x54d
00000549 fd30                 CLRR 0x4f
0000054a fd18                 CLRR 0x67
0000054b deff                 MOVIA 0x0
0000054c c2a7                 LGOTO 0x558; main.o:_00437_DS_=0x558
0000054d                      main.o:_00432_DS_:
0000054d defb                 MOVIA 0x4
0000054e e0fc                 BCR 0x3, 0x6
0000054f fbb0                 SUBAR 0x4f, 0x0
00000550 f7fc                 BTRSS 0x3, 0x0
00000551 c2aa                 LGOTO 0x555; main.o:_00433_DS_=0x555
00000552 fd30                 CLRR 0x4f
00000553 defe                 MOVIA 0x1
00000554 c2a7                 LGOTO 0x558; main.o:_00437_DS_=0x558
00000555                      main.o:_00433_DS_:
00000555 e0fc                 BCR 0x3, 0x6
00000556 fd30                 CLRR 0x4f
00000557                      main.o:_00436_DS_:
00000557 deff                 MOVIA 0x0
00000558                      main.o:_00437_DS_:
00000558 ffef                 RET
00000559                      _gotoSleep:
00000559 e0fc                 BCR 0x3, 0x6
0000055a fd23                 CLRR 0x5c
0000055b fd22                 CLRR 0x5d
0000055c d1e5                 LCALL 0x61a; _LedInput=0x61a
0000055d d27d                 LCALL 0x582; _pwmStop=0x582
0000055e de9f                 MOVIA 0x60
0000055f fffa                 IOST 0x5
00000560 fdff                 CLRA
00000561 fff9                 IOST 0x6
00000562 de60                 MOVIA 0x9f
00000563 fff6                 IOST 0x9
00000564 fd79                 CLRR 0x6
00000565 e0fc                 BCR 0x3, 0x6
00000566 fd7a                 CLRR 0x5
00000567 fd27                 CLRR 0x58
00000568 fd26                 CLRR 0x59
00000569 fd2f                 CLRR 0x50
0000056a de9f                 MOVIA 0x60
0000056b ff6a                 MOVAR 0x15
0000056c defd                 MOVIA 0x2
0000056d ff71                 MOVAR 0xe
0000056e dee7                 MOVIA 0x18
0000056f ff77                 MOVAR 0x8
00000570 fd70                 CLRR 0xf
00000571 fffd                 CLRWDT
00000572 fffb                 ENI
00000573 fffe                 SLEEP
00000574 fd6a                 CLRR 0x15
00000575 de40                 MOVIA 0xbf
00000576 fff6                 IOST 0x9
00000577 fd79                 CLRR 0x6
00000578 debf                 MOVIA 0x40
00000579 ff7a                 MOVAR 0x5
0000057a de87                 MOVIA 0x78
0000057b fffa                 IOST 0x5
0000057c defe                 MOVIA 0x1
0000057d ff71                 MOVAR 0xe
0000057e fd70                 CLRR 0xf
0000057f de47                 MOVIA 0xb8
00000580 ff77                 MOVAR 0x8
00000581 ffef                 RET
00000582                      _pwmStop:
00000582 fdff                 CLRA
00000583 ffb5                 SFUN 0xa
00000584 ffef                 RET
00000585                      _pwmInit:
00000585 ff95                 SFUNR 0xa
00000586 e0fc                 BCR 0x3, 0x6
00000587 ff4f                 MOVAR 0x30
00000588 f04f                 BTRSC 0x30, 0x7
00000589 c26e                 LGOTO 0x591; main.o:_00412_DS_=0x591
0000058a fd66                 CLRR 0x19
0000058b de9c                 MOVIA 0x63
0000058c ffb6                 SFUN 0x9
0000058d fdff                 CLRA
0000058e ffb4                 SFUN 0xb
0000058f de7c                 MOVIA 0x83
00000590 ffb5                 SFUN 0xa
00000591                      main.o:_00412_DS_:
00000591 ffef                 RET
00000592                      _LED8ON:
00000592 ffe9                 IOSTR 0x6
00000593 e0fc                 BCR 0x3, 0x6
00000594 ff50                 MOVAR 0x2f
00000595 e3d0                 BCR 0x2f, 0x0
00000596 fed0                 MOVR 0x2f, 0x0
00000597 fff9                 IOST 0x6
00000598 ffe9                 IOSTR 0x6
00000599 ff50                 MOVAR 0x2f
0000059a e250                 BCR 0x2f, 0x3
0000059b fed0                 MOVR 0x2f, 0x0
0000059c fff9                 IOST 0x6
0000059d e7f9                 BSR 0x6, 0x0
0000059e e279                 BCR 0x6, 0x3
0000059f deaf                 MOVIA 0x50
000005a0 d397                 LCALL 0x468; _delay=0x468
000005a1 d1e5                 LCALL 0x61a; _LedInput=0x61a
000005a2 ffef                 RET
000005a3                      _LED7ON:
000005a3 ffe9                 IOSTR 0x6
000005a4 e0fc                 BCR 0x3, 0x6
000005a5 ff51                 MOVAR 0x2e
000005a6 e3d1                 BCR 0x2e, 0x0
000005a7 fed1                 MOVR 0x2e, 0x0
000005a8 fff9                 IOST 0x6
000005a9 ffe9                 IOSTR 0x6
000005aa ff51                 MOVAR 0x2e
000005ab e251                 BCR 0x2e, 0x3
000005ac fed1                 MOVR 0x2e, 0x0
000005ad fff9                 IOST 0x6
000005ae e679                 BSR 0x6, 0x3
000005af e3f9                 BCR 0x6, 0x0
000005b0 deaf                 MOVIA 0x50
000005b1 d397                 LCALL 0x468; _delay=0x468
000005b2 d1e5                 LCALL 0x61a; _LedInput=0x61a
000005b3 ffef                 RET
000005b4                      _LED6ON:
000005b4 ffe9                 IOSTR 0x6
000005b5 e0fc                 BCR 0x3, 0x6
000005b6 ff52                 MOVAR 0x2d
000005b7 e3d2                 BCR 0x2d, 0x0
000005b8 fed2                 MOVR 0x2d, 0x0
000005b9 fff9                 IOST 0x6
000005ba ffea                 IOSTR 0x5
000005bb ff52                 MOVAR 0x2d
000005bc e052                 BCR 0x2d, 0x7
000005bd fed2                 MOVR 0x2d, 0x0
000005be fffa                 IOST 0x5
000005bf e47a                 BSR 0x5, 0x7
000005c0 e3f9                 BCR 0x6, 0x0
000005c1 deaf                 MOVIA 0x50
000005c2 d397                 LCALL 0x468; _delay=0x468
000005c3 d1e5                 LCALL 0x61a; _LedInput=0x61a
000005c4 ffef                 RET
000005c5                      _LED5ON:
000005c5 ffe9                 IOSTR 0x6
000005c6 e0fc                 BCR 0x3, 0x6
000005c7 ff53                 MOVAR 0x2c
000005c8 e3d3                 BCR 0x2c, 0x0
000005c9 fed3                 MOVR 0x2c, 0x0
000005ca fff9                 IOST 0x6
000005cb ffea                 IOSTR 0x5
000005cc ff53                 MOVAR 0x2c
000005cd e053                 BCR 0x2c, 0x7
000005ce fed3                 MOVR 0x2c, 0x0
000005cf fffa                 IOST 0x5
000005d0 e7f9                 BSR 0x6, 0x0
000005d1 e07a                 BCR 0x5, 0x7
000005d2 deaf                 MOVIA 0x50
000005d3 d397                 LCALL 0x468; _delay=0x468
000005d4 d1e5                 LCALL 0x61a; _LedInput=0x61a
000005d5 ffef                 RET
000005d6                      _LED4ON:
000005d6 ffe9                 IOSTR 0x6
000005d7 e0fc                 BCR 0x3, 0x6
000005d8 ff54                 MOVAR 0x2b
000005d9 e354                 BCR 0x2b, 0x1
000005da fed4                 MOVR 0x2b, 0x0
000005db fff9                 IOST 0x6
000005dc ffe9                 IOSTR 0x6
000005dd ff54                 MOVAR 0x2b
000005de e254                 BCR 0x2b, 0x3
000005df fed4                 MOVR 0x2b, 0x0
000005e0 fff9                 IOST 0x6
000005e1 e779                 BSR 0x6, 0x1
000005e2 e279                 BCR 0x6, 0x3
000005e3 deaf                 MOVIA 0x50
000005e4 d397                 LCALL 0x468; _delay=0x468
000005e5 d1e5                 LCALL 0x61a; _LedInput=0x61a
000005e6 ffef                 RET
000005e7                      _LED3ON:
000005e7 ffe9                 IOSTR 0x6
000005e8 e0fc                 BCR 0x3, 0x6
000005e9 ff55                 MOVAR 0x2a
000005ea e355                 BCR 0x2a, 0x1
000005eb fed5                 MOVR 0x2a, 0x0
000005ec fff9                 IOST 0x6
000005ed ffe9                 IOSTR 0x6
000005ee ff55                 MOVAR 0x2a
000005ef e255                 BCR 0x2a, 0x3
000005f0 fed5                 MOVR 0x2a, 0x0
000005f1 fff9                 IOST 0x6
000005f2 e679                 BSR 0x6, 0x3
000005f3 e379                 BCR 0x6, 0x1
000005f4 deaf                 MOVIA 0x50
000005f5 d397                 LCALL 0x468; _delay=0x468
000005f6 d1e5                 LCALL 0x61a; _LedInput=0x61a
000005f7 ffef                 RET
000005f8                      _LED2ON:
000005f8 ffea                 IOSTR 0x5
000005f9 e0fc                 BCR 0x3, 0x6
000005fa ff56                 MOVAR 0x29
000005fb e056                 BCR 0x29, 0x7
000005fc fed6                 MOVR 0x29, 0x0
000005fd fffa                 IOST 0x5
000005fe ffe9                 IOSTR 0x6
000005ff ff56                 MOVAR 0x29
00000600 e356                 BCR 0x29, 0x1
00000601 fed6                 MOVR 0x29, 0x0
00000602 fff9                 IOST 0x6
00000603 e779                 BSR 0x6, 0x1
00000604 e07a                 BCR 0x5, 0x7
00000605 deaf                 MOVIA 0x50
00000606 d397                 LCALL 0x468; _delay=0x468
00000607 d1e5                 LCALL 0x61a; _LedInput=0x61a
00000608 ffef                 RET
00000609                      _LED1ON:
00000609 ffe9                 IOSTR 0x6
0000060a e0fc                 BCR 0x3, 0x6
0000060b ff57                 MOVAR 0x28
0000060c e357                 BCR 0x28, 0x1
0000060d fed7                 MOVR 0x28, 0x0
0000060e fff9                 IOST 0x6
0000060f ffea                 IOSTR 0x5
00000610 ff57                 MOVAR 0x28
00000611 e057                 BCR 0x28, 0x7
00000612 fed7                 MOVR 0x28, 0x0
00000613 fffa                 IOST 0x5
00000614 e47a                 BSR 0x5, 0x7
00000615 e379                 BCR 0x6, 0x1
00000616 deaf                 MOVIA 0x50
00000617 d397                 LCALL 0x468; _delay=0x468
00000618 d1e5                 LCALL 0x61a; _LedInput=0x61a
00000619 ffef                 RET
0000061a                      _LedInput:
0000061a ffea                 IOSTR 0x5
0000061b e0fc                 BCR 0x3, 0x6
0000061c ff58                 MOVAR 0x27
0000061d e458                 BSR 0x27, 0x7
0000061e fed8                 MOVR 0x27, 0x0
0000061f fffa                 IOST 0x5
00000620 ffe9                 IOSTR 0x6
00000621 ff58                 MOVAR 0x27
00000622 def4                 MOVIA 0xb
00000623 ee58                 IORAR 0x27, 0x1
00000624 fed8                 MOVR 0x27, 0x0
00000625 fff9                 IOST 0x6
00000626 e07a                 BCR 0x5, 0x7
00000627 de0b                 MOVIA 0xf4
00000628 ef79                 ANDAR 0x6, 0x1
00000629 ffef                 RET
0000062a                      _ledShow:
0000062a e0fc                 BCR 0x3, 0x6
0000062b fe92                 MOVR 0x6d, 0x0
0000062c f2fc                 BTRSC 0x3, 0x2
0000062d c1c7                 LGOTO 0x638; main.o:_00322_DS_=0x638
0000062e feaf                 MOVR 0x50, 0x0
0000062f f6fc                 BTRSS 0x3, 0x2
00000630 c1c7                 LGOTO 0x638; main.o:_00322_DS_=0x638
00000631 f392                 BTRSC 0x6d, 0x0
00000632 c1ca                 LGOTO 0x635; main.o:_00319_DS_=0x635
00000633 fd2e                 CLRR 0x51
00000634 c1c7                 LGOTO 0x638; main.o:_00322_DS_=0x638
00000635                      main.o:_00319_DS_:
00000635 e0fc                 BCR 0x3, 0x6
00000636 fe95                 MOVR 0x6a, 0x0
00000637 ff2e                 MOVAR 0x51
00000638                      main.o:_00322_DS_:
00000638 e0fc                 BCR 0x3, 0x6
00000639 fe9f                 MOVR 0x60, 0x0
0000063a f2fc                 BTRSC 0x3, 0x2
0000063b c1be                 LGOTO 0x641; main.o:_00325_DS_=0x641
0000063c feaa                 MOVR 0x55, 0x0
0000063d f2fc                 BTRSC 0x3, 0x2
0000063e c1be                 LGOTO 0x641; main.o:_00325_DS_=0x641
0000063f fe95                 MOVR 0x6a, 0x0
00000640 ff2e                 MOVAR 0x51
00000641                      main.o:_00325_DS_:
00000641 d1e5                 LCALL 0x61a; _LedInput=0x61a
00000642 def6                 MOVIA 0x9
00000643 e0fc                 BCR 0x3, 0x6
00000644 fbae                 SUBAR 0x51, 0x0
00000645 f3fc                 BTRSC 0x3, 0x0
00000646 c19e                 LGOTO 0x661; main.o:_00337_DS_=0x661
00000647 def9                 MOVIA 0x6
00000648 ff75                 MOVAR 0xa
00000649 feae                 MOVR 0x51, 0x0
0000064a dab1                 ADDIA 0x4e
0000064b f3fc                 BTRSC 0x3, 0x0
0000064c fa75                 INCR 0xa, 0x1
0000064d ff7d                 MOVAR 0x2
0000064e                      main.o:_00358_DS_:
0000064e c1a8                 LGOTO 0x657; main.o:_00327_DS_=0x657
0000064f c19f                 LGOTO 0x660; main.o:_00335_DS_=0x660
00000650 c1a0                 LGOTO 0x65f; main.o:_00334_DS_=0x65f
00000651 c1a1                 LGOTO 0x65e; main.o:_00333_DS_=0x65e
00000652 c1a2                 LGOTO 0x65d; main.o:_00332_DS_=0x65d
00000653 c1a3                 LGOTO 0x65c; main.o:_00331_DS_=0x65c
00000654 c1a4                 LGOTO 0x65b; main.o:_00330_DS_=0x65b
00000655 c1a5                 LGOTO 0x65a; main.o:_00329_DS_=0x65a
00000656 c1a6                 LGOTO 0x659; main.o:_00328_DS_=0x659
00000657                      main.o:_00327_DS_:
00000657 d1e5                 LCALL 0x61a; _LedInput=0x61a
00000658 c19e                 LGOTO 0x661; main.o:_00337_DS_=0x661
00000659                      main.o:_00328_DS_:
00000659 d26d                 LCALL 0x592; _LED8ON=0x592
0000065a                      main.o:_00329_DS_:
0000065a d25c                 LCALL 0x5a3; _LED7ON=0x5a3
0000065b                      main.o:_00330_DS_:
0000065b d24b                 LCALL 0x5b4; _LED6ON=0x5b4
0000065c                      main.o:_00331_DS_:
0000065c d23a                 LCALL 0x5c5; _LED5ON=0x5c5
0000065d                      main.o:_00332_DS_:
0000065d d229                 LCALL 0x5d6; _LED4ON=0x5d6
0000065e                      main.o:_00333_DS_:
0000065e d218                 LCALL 0x5e7; _LED3ON=0x5e7
0000065f                      main.o:_00334_DS_:
0000065f d207                 LCALL 0x5f8; _LED2ON=0x5f8
00000660                      main.o:_00335_DS_:
00000660 d1f6                 LCALL 0x609; _LED1ON=0x609
00000661                      main.o:_00337_DS_:
00000661 ffef                 RET
00000662                      _initSys:
00000662 ffec                 DISI
00000663 de87                 MOVIA 0x78
00000664 fffa                 IOST 0x5
00000665 fdff                 CLRA
00000666 fff9                 IOST 0x6
00000667 fd79                 CLRR 0x6
00000668 e0fc                 BCR 0x3, 0x6
00000669 fd7a                 CLRR 0x5
0000066a d1e5                 LCALL 0x61a; _LedInput=0x61a
0000066b de40                 MOVIA 0xbf
0000066c fff6                 IOST 0x9
0000066d de00                 MOVIA 0xff
0000066e ff73                 MOVAR 0xc
0000066f ff74                 MOVAR 0xb
00000670 defe                 MOVIA 0x1
00000671 ff71                 MOVAR 0xe
00000672 fdff                 CLRA
00000673 fff0                 IOST 0xf
00000674 dec8                 MOVIA 0x37
00000675 ff7e                 MOVAR 0x1
00000676 fdff                 CLRA
00000677 fffc                 T0MD
00000678 defe                 MOVIA 0x1
00000679 fff0                 IOST 0xf
0000067a de67                 MOVIA 0x98
0000067b ff77                 MOVAR 0x8
0000067c defe                 MOVIA 0x1
0000067d fff0                 IOST 0xf
0000067e fffb                 ENI
0000067f ffef                 RET
00000680                      _powerOff:
00000680 e0fc                 BCR 0x3, 0x6
00000681 fd2f                 CLRR 0x50
00000682 d27d                 LCALL 0x582; _pwmStop=0x582
00000683 e0fc                 BCR 0x3, 0x6
00000684 fd2e                 CLRR 0x51
00000685 ffef                 RET
00000686                      _keyCtr:
00000686 e0fc                 BCR 0x3, 0x6
00000687 f8fa                 COMR 0x5, 0x0
00000688 ff59                 MOVAR 0x26
00000689 debf                 MOVIA 0x40
0000068a ef59                 ANDAR 0x26, 0x1
0000068b fed9                 MOVR 0x26, 0x0
0000068c d2ce                 LCALL 0x531; _keyRead=0x531
0000068d e0fc                 BCR 0x3, 0x6
0000068e ff59                 MOVAR 0x26
0000068f dbfe                 XORIA 0x1
00000690 f6fc                 BTRSS 0x3, 0x2
00000691 c0cd                 LGOTO 0x732; main.o:_00303_DS_=0x732
00000692 fd31                 CLRR 0x4e
00000693 fd1f                 CLRR 0x60
00000694 feaf                 MOVR 0x50, 0x0
00000695 f6fc                 BTRSS 0x3, 0x2
00000696 c166                 LGOTO 0x699; main.o:_00240_DS_=0x699
00000697 fd24                 CLRR 0x5b
00000698 c0a4                 LGOTO 0x75b; main.o:_00305_DS_=0x75b
00000699                      main.o:_00240_DS_:
00000699 e0fc                 BCR 0x3, 0x6
0000069a fd21                 CLRR 0x5e
0000069b fa2f                 INCR 0x50, 0x1
0000069c def6                 MOVIA 0x9
0000069d fbaf                 SUBAR 0x50, 0x0
0000069e f7fc                 BTRSS 0x3, 0x0
0000069f c15d                 LGOTO 0x6a2; main.o:_00242_DS_=0x6a2
000006a0 defe                 MOVIA 0x1
000006a1 ff2f                 MOVAR 0x50
000006a2                      main.o:_00242_DS_:
000006a2 def9                 MOVIA 0x6
000006a3 e0fc                 BCR 0x3, 0x6
000006a4 ff1c                 MOVAR 0x63
000006a5 defc                 MOVIA 0x3
000006a6 fbaa                 SUBAR 0x55, 0x0
000006a7 f3fc                 BTRSC 0x3, 0x0
000006a8 c117                 LGOTO 0x6e8; main.o:_00290_DS_=0x6e8
000006a9 feaf                 MOVR 0x50, 0x0
000006aa dbfe                 XORIA 0x1
000006ab f6fc                 BTRSS 0x3, 0x2
000006ac c14f                 LGOTO 0x6b0; main.o:_00264_DS_=0x6b0
000006ad decd                 MOVIA 0x32
000006ae ff2b                 MOVAR 0x54
000006af c0d8                 LGOTO 0x727; main.o:_00291_DS_=0x727
000006b0                      main.o:_00264_DS_:
000006b0 e0fc                 BCR 0x3, 0x6
000006b1 feaf                 MOVR 0x50, 0x0
000006b2 dbfd                 XORIA 0x2
000006b3 f6fc                 BTRSS 0x3, 0x2
000006b4 c147                 LGOTO 0x6b8; main.o:_00261_DS_=0x6b8
000006b5 decb                 MOVIA 0x34
000006b6 ff2b                 MOVAR 0x54
000006b7 c0d8                 LGOTO 0x727; main.o:_00291_DS_=0x727
000006b8                      main.o:_00261_DS_:
000006b8 e0fc                 BCR 0x3, 0x6
000006b9 feaf                 MOVR 0x50, 0x0
000006ba dbfc                 XORIA 0x3
000006bb f6fc                 BTRSS 0x3, 0x2
000006bc c13f                 LGOTO 0x6c0; main.o:_00258_DS_=0x6c0
000006bd dec9                 MOVIA 0x36
000006be ff2b                 MOVAR 0x54
000006bf c0d8                 LGOTO 0x727; main.o:_00291_DS_=0x727
000006c0                      main.o:_00258_DS_:
000006c0 e0fc                 BCR 0x3, 0x6
000006c1 feaf                 MOVR 0x50, 0x0
000006c2 dbfb                 XORIA 0x4
000006c3 f6fc                 BTRSS 0x3, 0x2
000006c4 c137                 LGOTO 0x6c8; main.o:_00255_DS_=0x6c8
000006c5 dec7                 MOVIA 0x38
000006c6 ff2b                 MOVAR 0x54
000006c7 c0d8                 LGOTO 0x727; main.o:_00291_DS_=0x727
000006c8                      main.o:_00255_DS_:
000006c8 e0fc                 BCR 0x3, 0x6
000006c9 feaf                 MOVR 0x50, 0x0
000006ca dbfa                 XORIA 0x5
000006cb f6fc                 BTRSS 0x3, 0x2
000006cc c12f                 LGOTO 0x6d0; main.o:_00252_DS_=0x6d0
000006cd dec5                 MOVIA 0x3a
000006ce ff2b                 MOVAR 0x54
000006cf c0d8                 LGOTO 0x727; main.o:_00291_DS_=0x727
000006d0                      main.o:_00252_DS_:
000006d0 e0fc                 BCR 0x3, 0x6
000006d1 feaf                 MOVR 0x50, 0x0
000006d2 dbf9                 XORIA 0x6
000006d3 f6fc                 BTRSS 0x3, 0x2
000006d4 c127                 LGOTO 0x6d8; main.o:_00249_DS_=0x6d8
000006d5 dec3                 MOVIA 0x3c
000006d6 ff2b                 MOVAR 0x54
000006d7 c0d8                 LGOTO 0x727; main.o:_00291_DS_=0x727
000006d8                      main.o:_00249_DS_:
000006d8 e0fc                 BCR 0x3, 0x6
000006d9 feaf                 MOVR 0x50, 0x0
000006da dbf8                 XORIA 0x7
000006db f6fc                 BTRSS 0x3, 0x2
000006dc c11f                 LGOTO 0x6e0; main.o:_00246_DS_=0x6e0
000006dd dec1                 MOVIA 0x3e
000006de ff2b                 MOVAR 0x54
000006df c0d8                 LGOTO 0x727; main.o:_00291_DS_=0x727
000006e0                      main.o:_00246_DS_:
000006e0 e0fc                 BCR 0x3, 0x6
000006e1 feaf                 MOVR 0x50, 0x0
000006e2 dbf7                 XORIA 0x8
000006e3 f6fc                 BTRSS 0x3, 0x2
000006e4 c0d8                 LGOTO 0x727; main.o:_00291_DS_=0x727
000006e5 debf                 MOVIA 0x40
000006e6 ff2b                 MOVAR 0x54
000006e7 c0d8                 LGOTO 0x727; main.o:_00291_DS_=0x727
000006e8                      main.o:_00290_DS_:
000006e8 e0fc                 BCR 0x3, 0x6
000006e9 feaf                 MOVR 0x50, 0x0
000006ea dbfe                 XORIA 0x1
000006eb f6fc                 BTRSS 0x3, 0x2
000006ec c10f                 LGOTO 0x6f0; main.o:_00287_DS_=0x6f0
000006ed ded7                 MOVIA 0x28
000006ee ff2b                 MOVAR 0x54
000006ef c0d8                 LGOTO 0x727; main.o:_00291_DS_=0x727
000006f0                      main.o:_00287_DS_:
000006f0 e0fc                 BCR 0x3, 0x6
000006f1 feaf                 MOVR 0x50, 0x0
000006f2 dbfd                 XORIA 0x2
000006f3 f6fc                 BTRSS 0x3, 0x2
000006f4 c107                 LGOTO 0x6f8; main.o:_00284_DS_=0x6f8
000006f5 ded3                 MOVIA 0x2c
000006f6 ff2b                 MOVAR 0x54
000006f7 c0d8                 LGOTO 0x727; main.o:_00291_DS_=0x727
000006f8                      main.o:_00284_DS_:
000006f8 e0fc                 BCR 0x3, 0x6
000006f9 feaf                 MOVR 0x50, 0x0
000006fa dbfc                 XORIA 0x3
000006fb f6fc                 BTRSS 0x3, 0x2
000006fc c0ff                 LGOTO 0x700; main.o:_00281_DS_=0x700
000006fd decf                 MOVIA 0x30
000006fe ff2b                 MOVAR 0x54
000006ff c0d8                 LGOTO 0x727; main.o:_00291_DS_=0x727
00000700                      main.o:_00281_DS_:
00000700 e0fc                 BCR 0x3, 0x6
00000701 feaf                 MOVR 0x50, 0x0
00000702 dbfb                 XORIA 0x4
00000703 f6fc                 BTRSS 0x3, 0x2
00000704 c0f7                 LGOTO 0x708; main.o:_00278_DS_=0x708
00000705 decb                 MOVIA 0x34
00000706 ff2b                 MOVAR 0x54
00000707 c0d8                 LGOTO 0x727; main.o:_00291_DS_=0x727
00000708                      main.o:_00278_DS_:
00000708 e0fc                 BCR 0x3, 0x6
00000709 feaf                 MOVR 0x50, 0x0
0000070a dbfa                 XORIA 0x5
0000070b f6fc                 BTRSS 0x3, 0x2
0000070c c0ef                 LGOTO 0x710; main.o:_00275_DS_=0x710
0000070d dec8                 MOVIA 0x37
0000070e ff2b                 MOVAR 0x54
0000070f c0d8                 LGOTO 0x727; main.o:_00291_DS_=0x727
00000710                      main.o:_00275_DS_:
00000710 e0fc                 BCR 0x3, 0x6
00000711 feaf                 MOVR 0x50, 0x0
00000712 dbf9                 XORIA 0x6
00000713 f6fc                 BTRSS 0x3, 0x2
00000714 c0e7                 LGOTO 0x718; main.o:_00272_DS_=0x718
00000715 dec5                 MOVIA 0x3a
00000716 ff2b                 MOVAR 0x54
00000717 c0d8                 LGOTO 0x727; main.o:_00291_DS_=0x727
00000718                      main.o:_00272_DS_:
00000718 e0fc                 BCR 0x3, 0x6
00000719 feaf                 MOVR 0x50, 0x0
0000071a dbf8                 XORIA 0x7
0000071b f6fc                 BTRSS 0x3, 0x2
0000071c c0df                 LGOTO 0x720; main.o:_00269_DS_=0x720
0000071d dec2                 MOVIA 0x3d
0000071e ff2b                 MOVAR 0x54
0000071f c0d8                 LGOTO 0x727; main.o:_00291_DS_=0x727
00000720                      main.o:_00269_DS_:
00000720 e0fc                 BCR 0x3, 0x6
00000721 feaf                 MOVR 0x50, 0x0
00000722 dbf7                 XORIA 0x8
00000723 f6fc                 BTRSS 0x3, 0x2
00000724 c0d8                 LGOTO 0x727; main.o:_00291_DS_=0x727
00000725 debf                 MOVIA 0x40
00000726 ff2b                 MOVAR 0x54
00000727                      main.o:_00291_DS_:
00000727 e0fc                 BCR 0x3, 0x6
00000728 feaf                 MOVR 0x50, 0x0
00000729 f2fc                 BTRSC 0x3, 0x2
0000072a c0d1                 LGOTO 0x72e; main.o:_00293_DS_=0x72e
0000072b feab                 MOVR 0x54, 0x0
0000072c ffb3                 SFUN 0xc
0000072d d27a                 LCALL 0x585; _pwmInit=0x585
0000072e                      main.o:_00293_DS_:
0000072e e0fc                 BCR 0x3, 0x6
0000072f feaf                 MOVR 0x50, 0x0
00000730 ff2e                 MOVAR 0x51
00000731 c0a4                 LGOTO 0x75b; main.o:_00305_DS_=0x75b
00000732                      main.o:_00303_DS_:
00000732 e0fc                 BCR 0x3, 0x6
00000733 fed9                 MOVR 0x26, 0x0
00000734 dbfd                 XORIA 0x2
00000735 f6fc                 BTRSS 0x3, 0x2
00000736 c0a4                 LGOTO 0x75b; main.o:_00305_DS_=0x75b
00000737 feaf                 MOVR 0x50, 0x0
00000738 f2fc                 BTRSC 0x3, 0x2
00000739 c0c3                 LGOTO 0x73c; main.o:_00298_DS_=0x73c
0000073a d17f                 LCALL 0x680; _powerOff=0x680
0000073b c0a7                 LGOTO 0x758; main.o:_00299_DS_=0x758
0000073c                      main.o:_00298_DS_:
0000073c e0fc                 BCR 0x3, 0x6
0000073d feaa                 MOVR 0x55, 0x0
0000073e f2fc                 BTRSC 0x3, 0x2
0000073f c0bc                 LGOTO 0x743; main.o:_00294_DS_=0x743
00000740 fe8c                 MOVR 0x73, 0x0
00000741 f2fc                 BTRSC 0x3, 0x2
00000742 c0b4                 LGOTO 0x74b; main.o:_00295_DS_=0x74b
00000743                      main.o:_00294_DS_:
00000743 defe                 MOVIA 0x1
00000744 e0fc                 BCR 0x3, 0x6
00000745 ff0c                 MOVAR 0x73
00000746 de0b                 MOVIA 0xf4
00000747 ff10                 MOVAR 0x6f
00000748 defe                 MOVIA 0x1
00000749 ff0f                 MOVAR 0x70
0000074a c0a4                 LGOTO 0x75b; main.o:_00305_DS_=0x75b
0000074b                      main.o:_00295_DS_:
0000074b e0fc                 BCR 0x3, 0x6
0000074c fd1f                 CLRR 0x60
0000074d defe                 MOVIA 0x1
0000074e ff2f                 MOVAR 0x50
0000074f deaf                 MOVIA 0x50
00000750 ffb3                 SFUN 0xc
00000751 ff1e                 MOVAR 0x61
00000752 ded7                 MOVIA 0x28
00000753 ff2b                 MOVAR 0x54
00000754 d27a                 LCALL 0x585; _pwmInit=0x585
00000755 deef                 MOVIA 0x10
00000756 e0fc                 BCR 0x3, 0x6
00000757 ff1c                 MOVAR 0x63
00000758                      main.o:_00299_DS_:
00000758 e0fc                 BCR 0x3, 0x6
00000759 feaf                 MOVR 0x50, 0x0
0000075a ff2e                 MOVAR 0x51
0000075b                      main.o:_00305_DS_:
0000075b ffef                 RET
0000075c                      ___cinit_load__:
