00000000 c7fe                LGOTO    0x1; __nyc_ny8_startup=0x1
00000001                     __nyc_ny8_startup:
00000001 d1e8                LCALL    0x617; ___cinit_load__=0x617
00000002 c2f9                LGOTO    0x506; _main=0x506
00000003                     _F_wait_eoc:
00000003 f56f                BTRSS    ADMD, EOC
00000004 c7fc                LGOTO    0x3; _F_wait_eoc=0x3
00000005 ffef                RET
00000008 c286                LGOTO    0x579; _isr=0x579
00000009                     _checkBatAD:
00000009 e0fc                BCR      STATUS, BK0
0000000a fd5b                CLRR     0x24
0000000b fd5f                CLRR     0x20
0000000c fd5e                CLRR     0x21
0000000d def7                MOVIA    0x8
0000000e d142                LCALL    0x6bd; _F_AIN4_Convert=0x6bd
0000000f e0fc                BCR      STATUS, BK0
00000010 eade                SWAPR    0x21, ToAcc
00000011 dd0f                ANDIA    0xf0
00000012 ff5e                MOVAR    0x21
00000013 eadf                SWAPR    0x20, ToAcc
00000014 ff5f                MOVAR    0x20
00000015 ddf0                ANDIA    0xf
00000016 ee5e                IORAR    0x21, ToReg
00000017 ed5f                XORAR    0x20, ToReg
00000018 de0f                MOVIA    0xf0
00000019 ef5b                ANDAR    0x24, ToReg
0000001a fedb                MOVR     0x24, ToAcc
0000001b ff47                MOVAR    0x38
0000001c deff                MOVIA    0x0
0000001d ff46                MOVAR    0x39
0000001e fec7                MOVR     0x38, ToAcc
0000001f fc5f                ADDAR    0x20, ToReg
00000020 fec6                MOVR     0x39, ToAcc
00000021 f3fc                BTRSC    STATUS, C
00000022 fac6                INCR     0x39, ToAcc
00000023 f2fc                BTRSC    STATUS, Z
00000024 c7d9                LGOTO    0x26; main.o:_00006_DS_=0x26
00000025 fc5e                ADDAR    0x21, ToReg
00000026                     main.o:_00006_DS_:
00000026 e3fc                BCR      STATUS, C
00000027 e0fc                BCR      STATUS, BK0
00000028 ec5e                RRR      0x21, ToReg
00000029 ec5f                RRR      0x20, ToReg
0000002a e3fc                BCR      STATUS, C
0000002b ec5e                RRR      0x21, ToReg
0000002c ec5f                RRR      0x20, ToReg
0000002d e3fc                BCR      STATUS, C
0000002e ec5e                RRR      0x21, ToReg
0000002f ec5f                RRR      0x20, ToReg
00000030 fe85                MOVR     0x7a, ToAcc
00000031 f2fc                BTRSC    STATUS, Z
00000032 c7c8                LGOTO    0x37; main.o:_00563_DS_=0x37
00000033 def1                MOVIA    0xe
00000034 ff5f                MOVAR    0x20
00000035 def9                MOVIA    0x6
00000036 ff5e                MOVAR    0x21
00000037                     main.o:_00563_DS_:
00000037 def9                MOVIA    0x6
00000038 e0fc                BCR      STATUS, BK0
00000039 fbde                SUBAR    0x21, ToAcc
0000003a f6fc                BTRSS    STATUS, Z
0000003b c7c1                LGOTO    0x3e; main.o:_00834_DS_=0x3e
0000003c def0                MOVIA    0xf
0000003d fbdf                SUBAR    0x20, ToAcc
0000003e                     main.o:_00834_DS_:
0000003e f7fc                BTRSS    STATUS, C
0000003f c7bc                LGOTO    0x43; main.o:_00575_DS_=0x43
00000040 e0fc                BCR      STATUS, BK0
00000041 fd11                CLRR     0x6e
00000042 c791                LGOTO    0x6e; main.o:_00576_DS_=0x6e
00000043                     main.o:_00575_DS_:
00000043 defb                MOVIA    0x4
00000044 e0fc                BCR      STATUS, BK0
00000045 fbde                SUBAR    0x21, ToAcc
00000046 f6fc                BTRSS    STATUS, Z
00000047 c7b5                LGOTO    0x4a; main.o:_00835_DS_=0x4a
00000048 de86                MOVIA    0x79
00000049 fbdf                SUBAR    0x20, ToAcc
0000004a                     main.o:_00835_DS_:
0000004a f3fc                BTRSC    STATUS, C
0000004b c794                LGOTO    0x6b; main.o:_00572_DS_=0x6b
0000004c e0fc                BCR      STATUS, BK0
0000004d fa11                INCR     0x6e, ToReg
0000004e def5                MOVIA    0xa
0000004f fb91                SUBAR    0x6e, ToAcc
00000050 f7fc                BTRSS    STATUS, C
00000051 c5e1                LGOTO    0x21e; main.o:_00679_DS_=0x21e
00000052 def5                MOVIA    0xa
00000053 ff11                MOVAR    0x6e
00000054 fd1c                CLRR     0x63
00000055 de90                MOVIA    0x6f
00000056 ff5f                MOVAR    0x20
00000057 defb                MOVIA    0x4
00000058 ff5e                MOVAR    0x21
00000059 fe9f                MOVR     0x60, ToAcc
0000005a f2fc                BTRSC    STATUS, Z
0000005b c79c                LGOTO    0x63; main.o:_00567_DS_=0x63
0000005c fa13                INCR     0x6c, ToReg
0000005d fe93                MOVR     0x6c, ToAcc
0000005e dbf5                XORIA    0xa
0000005f f6fc                BTRSS    STATUS, Z
00000060 c79c                LGOTO    0x63; main.o:_00567_DS_=0x63
00000061 deef                MOVIA    0x10
00000062 ff14                MOVAR    0x6b
00000063                     main.o:_00567_DS_:
00000063 def3                MOVIA    0xc
00000064 e0fc                BCR      STATUS, BK0
00000065 fb93                SUBAR    0x6c, ToAcc
00000066 f7fc                BTRSS    STATUS, C
00000067 c791                LGOTO    0x6e; main.o:_00576_DS_=0x6e
00000068 def4                MOVIA    0xb
00000069 ff13                MOVAR    0x6c
0000006a c791                LGOTO    0x6e; main.o:_00576_DS_=0x6e
0000006b                     main.o:_00572_DS_:
0000006b e0fc                BCR      STATUS, BK0
0000006c fd11                CLRR     0x6e
0000006d fd13                CLRR     0x6c
0000006e                     main.o:_00576_DS_:
0000006e de6e                MOVIA    0x91
0000006f e0fc                BCR      STATUS, BK0
00000070 fc5f                ADDAR    0x20, ToReg
00000071 de04                MOVIA    0xfb
00000072 f3fc                BTRSC    STATUS, C
00000073 de03                MOVIA    0xfc
00000074 fc5e                ADDAR    0x21, ToReg
00000075 defe                MOVIA    0x1
00000076 fbde                SUBAR    0x21, ToAcc
00000077 f6fc                BTRSS    STATUS, Z
00000078 c784                LGOTO    0x7b; main.o:_00838_DS_=0x7b
00000079 de5b                MOVIA    0xa4
0000007a fbdf                SUBAR    0x20, ToAcc
0000007b                     main.o:_00838_DS_:
0000007b f7fc                BTRSS    STATUS, C
0000007c c77e                LGOTO    0x81; main.o:_00675_DS_=0x81
0000007d def5                MOVIA    0xa
0000007e e0fc                BCR      STATUS, BK0
0000007f ff1c                MOVAR    0x63
00000080 c5e7                LGOTO    0x218; main.o:_00676_DS_=0x218
00000081                     main.o:_00675_DS_:
00000081 defe                MOVIA    0x1
00000082 e0fc                BCR      STATUS, BK0
00000083 fbde                SUBAR    0x21, ToAcc
00000084 f6fc                BTRSS    STATUS, Z
00000085 c777                LGOTO    0x88; main.o:_00839_DS_=0x88
00000086 de65                MOVIA    0x9a
00000087 fbdf                SUBAR    0x20, ToAcc
00000088                     main.o:_00839_DS_:
00000088 f7fc                BTRSS    STATUS, C
00000089 c771                LGOTO    0x8e; main.o:_00672_DS_=0x8e
0000008a def6                MOVIA    0x9
0000008b e0fc                BCR      STATUS, BK0
0000008c ff1c                MOVAR    0x63
0000008d c5e7                LGOTO    0x218; main.o:_00676_DS_=0x218
0000008e                     main.o:_00672_DS_:
0000008e defe                MOVIA    0x1
0000008f e0fc                BCR      STATUS, BK0
00000090 fbde                SUBAR    0x21, ToAcc
00000091 f6fc                BTRSS    STATUS, Z
00000092 c76a                LGOTO    0x95; main.o:_00840_DS_=0x95
00000093 de73                MOVIA    0x8c
00000094 fbdf                SUBAR    0x20, ToAcc
00000095                     main.o:_00840_DS_:
00000095 f7fc                BTRSS    STATUS, C
00000096 c728                LGOTO    0xd7; main.o:_00669_DS_=0xd7
00000097 e0fc                BCR      STATUS, BK0
00000098 fd15                CLRR     0x6a
00000099 def7                MOVIA    0x8
0000009a fb9c                SUBAR    0x63, ToAcc
0000009b f3fc                BTRSC    STATUS, C
0000009c c756                LGOTO    0xa9; main.o:_00583_DS_=0xa9
0000009d defe                MOVIA    0x1
0000009e fbde                SUBAR    0x21, ToAcc
0000009f f6fc                BTRSS    STATUS, Z
000000a0 c75c                LGOTO    0xa3; main.o:_00842_DS_=0xa3
000000a1 de6e                MOVIA    0x91
000000a2 fbdf                SUBAR    0x20, ToAcc
000000a3                     main.o:_00842_DS_:
000000a3 f7fc                BTRSS    STATUS, C
000000a4 c746                LGOTO    0xb9; main.o:_00584_DS_=0xb9
000000a5 def7                MOVIA    0x8
000000a6 e0fc                BCR      STATUS, BK0
000000a7 ff1c                MOVAR    0x63
000000a8 c746                LGOTO    0xb9; main.o:_00584_DS_=0xb9
000000a9                     main.o:_00583_DS_:
000000a9 e0fc                BCR      STATUS, BK0
000000aa feae                MOVR     0x51, ToAcc
000000ab eead                IORAR    0x52, ToAcc
000000ac f6fc                BTRSS    STATUS, Z
000000ad c746                LGOTO    0xb9; main.o:_00584_DS_=0xb9
000000ae defe                MOVIA    0x1
000000af fbde                SUBAR    0x21, ToAcc
000000b0 f6fc                BTRSS    STATUS, Z
000000b1 c74b                LGOTO    0xb4; main.o:_00843_DS_=0xb4
000000b2 de6a                MOVIA    0x95
000000b3 fbdf                SUBAR    0x20, ToAcc
000000b4                     main.o:_00843_DS_:
000000b4 f3fc                BTRSC    STATUS, C
000000b5 c746                LGOTO    0xb9; main.o:_00584_DS_=0xb9
000000b6 def7                MOVIA    0x8
000000b7 e0fc                BCR      STATUS, BK0
000000b8 ff1c                MOVAR    0x63
000000b9                     main.o:_00584_DS_:
000000b9 e0fc                BCR      STATUS, BK0
000000ba feae                MOVR     0x51, ToAcc
000000bb eead                IORAR    0x52, ToAcc
000000bc f2fc                BTRSC    STATUS, Z
000000bd c5e7                LGOTO    0x218; main.o:_00676_DS_=0x218
000000be defe                MOVIA    0x1
000000bf fbde                SUBAR    0x21, ToAcc
000000c0 f6fc                BTRSS    STATUS, Z
000000c1 c73b                LGOTO    0xc4; main.o:_00844_DS_=0xc4
000000c2 de68                MOVIA    0x97
000000c3 fbdf                SUBAR    0x20, ToAcc
000000c4                     main.o:_00844_DS_:
000000c4 f7fc                BTRSS    STATUS, C
000000c5 c5e7                LGOTO    0x218; main.o:_00676_DS_=0x218
000000c6 defd                MOVIA    0x2
000000c7 e0fc                BCR      STATUS, BK0
000000c8 fbad                SUBAR    0x52, ToAcc
000000c9 f6fc                BTRSS    STATUS, Z
000000ca c732                LGOTO    0xcd; main.o:_00845_DS_=0xcd
000000cb dea6                MOVIA    0x59
000000cc fbae                SUBAR    0x51, ToAcc
000000cd                     main.o:_00845_DS_:
000000cd f7fc                BTRSS    STATUS, C
000000ce c5e7                LGOTO    0x218; main.o:_00676_DS_=0x218
000000cf dea7                MOVIA    0x58
000000d0 e0fc                BCR      STATUS, BK0
000000d1 ff2e                MOVAR    0x51
000000d2 defd                MOVIA    0x2
000000d3 ff2d                MOVAR    0x52
000000d4 def6                MOVIA    0x9
000000d5 ff1c                MOVAR    0x63
000000d6 c5e7                LGOTO    0x218; main.o:_00676_DS_=0x218
000000d7                     main.o:_00669_DS_:
000000d7 defe                MOVIA    0x1
000000d8 e0fc                BCR      STATUS, BK0
000000d9 fbde                SUBAR    0x21, ToAcc
000000da f6fc                BTRSS    STATUS, Z
000000db c721                LGOTO    0xde; main.o:_00846_DS_=0xde
000000dc de82                MOVIA    0x7d
000000dd fbdf                SUBAR    0x20, ToAcc
000000de                     main.o:_00846_DS_:
000000de f7fc                BTRSS    STATUS, C
000000df c6f7                LGOTO    0x108; main.o:_00666_DS_=0x108
000000e0 e0fc                BCR      STATUS, BK0
000000e1 fe9c                MOVR     0x63, ToAcc
000000e2 dbf9                XORIA    0x6
000000e3 f6fc                BTRSS    STATUS, Z
000000e4 c70f                LGOTO    0xf0; main.o:_00592_DS_=0xf0
000000e5 defe                MOVIA    0x1
000000e6 fbde                SUBAR    0x21, ToAcc
000000e7 f6fc                BTRSS    STATUS, Z
000000e8 c714                LGOTO    0xeb; main.o:_00847_DS_=0xeb
000000e9 de7d                MOVIA    0x82
000000ea fbdf                SUBAR    0x20, ToAcc
000000eb                     main.o:_00847_DS_:
000000eb f7fc                BTRSS    STATUS, C
000000ec c70f                LGOTO    0xf0; main.o:_00592_DS_=0xf0
000000ed def8                MOVIA    0x7
000000ee e0fc                BCR      STATUS, BK0
000000ef ff1c                MOVAR    0x63
000000f0                     main.o:_00592_DS_:
000000f0 def7                MOVIA    0x8
000000f1 e0fc                BCR      STATUS, BK0
000000f2 fb9c                SUBAR    0x63, ToAcc
000000f3 f7fc                BTRSS    STATUS, C
000000f4 c6fe                LGOTO    0x101; main.o:_00596_DS_=0x101
000000f5 defe                MOVIA    0x1
000000f6 fbde                SUBAR    0x21, ToAcc
000000f7 f6fc                BTRSS    STATUS, Z
000000f8 c704                LGOTO    0xfb; main.o:_00849_DS_=0xfb
000000f9 de79                MOVIA    0x86
000000fa fbdf                SUBAR    0x20, ToAcc
000000fb                     main.o:_00849_DS_:
000000fb f3fc                BTRSC    STATUS, C
000000fc c6fb                LGOTO    0x104; main.o:_00597_DS_=0x104
000000fd def8                MOVIA    0x7
000000fe e0fc                BCR      STATUS, BK0
000000ff ff1c                MOVAR    0x63
00000100 c6fb                LGOTO    0x104; main.o:_00597_DS_=0x104
00000101                     main.o:_00596_DS_:
00000101 def8                MOVIA    0x7
00000102 e0fc                BCR      STATUS, BK0
00000103 ff1c                MOVAR    0x63
00000104                     main.o:_00597_DS_:
00000104 e0fc                BCR      STATUS, BK0
00000105 fd2e                CLRR     0x51
00000106 fd2d                CLRR     0x52
00000107 c5e7                LGOTO    0x218; main.o:_00676_DS_=0x218
00000108                     main.o:_00666_DS_:
00000108 defe                MOVIA    0x1
00000109 e0fc                BCR      STATUS, BK0
0000010a fbde                SUBAR    0x21, ToAcc
0000010b f6fc                BTRSS    STATUS, Z
0000010c c6f0                LGOTO    0x10f; main.o:_00850_DS_=0x10f
0000010d dea5                MOVIA    0x5a
0000010e fbdf                SUBAR    0x20, ToAcc
0000010f                     main.o:_00850_DS_:
0000010f f7fc                BTRSS    STATUS, C
00000110 c6c6                LGOTO    0x139; main.o:_00663_DS_=0x139
00000111 e0fc                BCR      STATUS, BK0
00000112 fe9c                MOVR     0x63, ToAcc
00000113 dbfa                XORIA    0x5
00000114 f6fc                BTRSS    STATUS, Z
00000115 c6de                LGOTO    0x121; main.o:_00601_DS_=0x121
00000116 defe                MOVIA    0x1
00000117 fbde                SUBAR    0x21, ToAcc
00000118 f6fc                BTRSS    STATUS, Z
00000119 c6e3                LGOTO    0x11c; main.o:_00851_DS_=0x11c
0000011a dea0                MOVIA    0x5f
0000011b fbdf                SUBAR    0x20, ToAcc
0000011c                     main.o:_00851_DS_:
0000011c f7fc                BTRSS    STATUS, C
0000011d c6de                LGOTO    0x121; main.o:_00601_DS_=0x121
0000011e def9                MOVIA    0x6
0000011f e0fc                BCR      STATUS, BK0
00000120 ff1c                MOVAR    0x63
00000121                     main.o:_00601_DS_:
00000121 def8                MOVIA    0x7
00000122 e0fc                BCR      STATUS, BK0
00000123 fb9c                SUBAR    0x63, ToAcc
00000124 f7fc                BTRSS    STATUS, C
00000125 c6cd                LGOTO    0x132; main.o:_00605_DS_=0x132
00000126 defe                MOVIA    0x1
00000127 fbde                SUBAR    0x21, ToAcc
00000128 f6fc                BTRSS    STATUS, Z
00000129 c6d3                LGOTO    0x12c; main.o:_00853_DS_=0x12c
0000012a de88                MOVIA    0x77
0000012b fbdf                SUBAR    0x20, ToAcc
0000012c                     main.o:_00853_DS_:
0000012c f3fc                BTRSC    STATUS, C
0000012d c6ca                LGOTO    0x135; main.o:_00606_DS_=0x135
0000012e def9                MOVIA    0x6
0000012f e0fc                BCR      STATUS, BK0
00000130 ff1c                MOVAR    0x63
00000131 c6ca                LGOTO    0x135; main.o:_00606_DS_=0x135
00000132                     main.o:_00605_DS_:
00000132 def9                MOVIA    0x6
00000133 e0fc                BCR      STATUS, BK0
00000134 ff1c                MOVAR    0x63
00000135                     main.o:_00606_DS_:
00000135 e0fc                BCR      STATUS, BK0
00000136 fd2e                CLRR     0x51
00000137 fd2d                CLRR     0x52
00000138 c5e7                LGOTO    0x218; main.o:_00676_DS_=0x218
00000139                     main.o:_00663_DS_:
00000139 defe                MOVIA    0x1
0000013a e0fc                BCR      STATUS, BK0
0000013b fbde                SUBAR    0x21, ToAcc
0000013c f6fc                BTRSS    STATUS, Z
0000013d c6bf                LGOTO    0x140; main.o:_00854_DS_=0x140
0000013e decd                MOVIA    0x32
0000013f fbdf                SUBAR    0x20, ToAcc
00000140                     main.o:_00854_DS_:
00000140 f7fc                BTRSS    STATUS, C
00000141 c695                LGOTO    0x16a; main.o:_00660_DS_=0x16a
00000142 e0fc                BCR      STATUS, BK0
00000143 fe9c                MOVR     0x63, ToAcc
00000144 dbfb                XORIA    0x4
00000145 f6fc                BTRSS    STATUS, Z
00000146 c6ad                LGOTO    0x152; main.o:_00610_DS_=0x152
00000147 defe                MOVIA    0x1
00000148 fbde                SUBAR    0x21, ToAcc
00000149 f6fc                BTRSS    STATUS, Z
0000014a c6b2                LGOTO    0x14d; main.o:_00855_DS_=0x14d
0000014b dec8                MOVIA    0x37
0000014c fbdf                SUBAR    0x20, ToAcc
0000014d                     main.o:_00855_DS_:
0000014d f7fc                BTRSS    STATUS, C
0000014e c6ad                LGOTO    0x152; main.o:_00610_DS_=0x152
0000014f defa                MOVIA    0x5
00000150 e0fc                BCR      STATUS, BK0
00000151 ff1c                MOVAR    0x63
00000152                     main.o:_00610_DS_:
00000152 def9                MOVIA    0x6
00000153 e0fc                BCR      STATUS, BK0
00000154 fb9c                SUBAR    0x63, ToAcc
00000155 f7fc                BTRSS    STATUS, C
00000156 c69c                LGOTO    0x163; main.o:_00614_DS_=0x163
00000157 defe                MOVIA    0x1
00000158 fbde                SUBAR    0x21, ToAcc
00000159 f6fc                BTRSS    STATUS, Z
0000015a c6a2                LGOTO    0x15d; main.o:_00857_DS_=0x15d
0000015b deab                MOVIA    0x54
0000015c fbdf                SUBAR    0x20, ToAcc
0000015d                     main.o:_00857_DS_:
0000015d f3fc                BTRSC    STATUS, C
0000015e c699                LGOTO    0x166; main.o:_00615_DS_=0x166
0000015f defa                MOVIA    0x5
00000160 e0fc                BCR      STATUS, BK0
00000161 ff1c                MOVAR    0x63
00000162 c699                LGOTO    0x166; main.o:_00615_DS_=0x166
00000163                     main.o:_00614_DS_:
00000163 defa                MOVIA    0x5
00000164 e0fc                BCR      STATUS, BK0
00000165 ff1c                MOVAR    0x63
00000166                     main.o:_00615_DS_:
00000166 e0fc                BCR      STATUS, BK0
00000167 fd2e                CLRR     0x51
00000168 fd2d                CLRR     0x52
00000169 c5e7                LGOTO    0x218; main.o:_00676_DS_=0x218
0000016a                     main.o:_00660_DS_:
0000016a deff                MOVIA    0x0
0000016b e0fc                BCR      STATUS, BK0
0000016c fbde                SUBAR    0x21, ToAcc
0000016d f6fc                BTRSS    STATUS, Z
0000016e c68e                LGOTO    0x171; main.o:_00858_DS_=0x171
0000016f de0e                MOVIA    0xf1
00000170 fbdf                SUBAR    0x20, ToAcc
00000171                     main.o:_00858_DS_:
00000171 f7fc                BTRSS    STATUS, C
00000172 c664                LGOTO    0x19b; main.o:_00657_DS_=0x19b
00000173 e0fc                BCR      STATUS, BK0
00000174 fe9c                MOVR     0x63, ToAcc
00000175 dbfc                XORIA    0x3
00000176 f6fc                BTRSS    STATUS, Z
00000177 c67c                LGOTO    0x183; main.o:_00619_DS_=0x183
00000178 deff                MOVIA    0x0
00000179 fbde                SUBAR    0x21, ToAcc
0000017a f6fc                BTRSS    STATUS, Z
0000017b c681                LGOTO    0x17e; main.o:_00859_DS_=0x17e
0000017c de09                MOVIA    0xf6
0000017d fbdf                SUBAR    0x20, ToAcc
0000017e                     main.o:_00859_DS_:
0000017e f7fc                BTRSS    STATUS, C
0000017f c67c                LGOTO    0x183; main.o:_00619_DS_=0x183
00000180 defb                MOVIA    0x4
00000181 e0fc                BCR      STATUS, BK0
00000182 ff1c                MOVAR    0x63
00000183                     main.o:_00619_DS_:
00000183 defa                MOVIA    0x5
00000184 e0fc                BCR      STATUS, BK0
00000185 fb9c                SUBAR    0x63, ToAcc
00000186 f7fc                BTRSS    STATUS, C
00000187 c66b                LGOTO    0x194; main.o:_00623_DS_=0x194
00000188 defe                MOVIA    0x1
00000189 fbde                SUBAR    0x21, ToAcc
0000018a f6fc                BTRSS    STATUS, Z
0000018b c671                LGOTO    0x18e; main.o:_00861_DS_=0x18e
0000018c ded3                MOVIA    0x2c
0000018d fbdf                SUBAR    0x20, ToAcc
0000018e                     main.o:_00861_DS_:
0000018e f3fc                BTRSC    STATUS, C
0000018f c668                LGOTO    0x197; main.o:_00624_DS_=0x197
00000190 defb                MOVIA    0x4
00000191 e0fc                BCR      STATUS, BK0
00000192 ff1c                MOVAR    0x63
00000193 c668                LGOTO    0x197; main.o:_00624_DS_=0x197
00000194                     main.o:_00623_DS_:
00000194 defb                MOVIA    0x4
00000195 e0fc                BCR      STATUS, BK0
00000196 ff1c                MOVAR    0x63
00000197                     main.o:_00624_DS_:
00000197 e0fc                BCR      STATUS, BK0
00000198 fd2e                CLRR     0x51
00000199 fd2d                CLRR     0x52
0000019a c5e7                LGOTO    0x218; main.o:_00676_DS_=0x218
0000019b                     main.o:_00657_DS_:
0000019b deff                MOVIA    0x0
0000019c e0fc                BCR      STATUS, BK0
0000019d fbde                SUBAR    0x21, ToAcc
0000019e f6fc                BTRSS    STATUS, Z
0000019f c65d                LGOTO    0x1a2; main.o:_00862_DS_=0x1a2
000001a0 de36                MOVIA    0xc9
000001a1 fbdf                SUBAR    0x20, ToAcc
000001a2                     main.o:_00862_DS_:
000001a2 f7fc                BTRSS    STATUS, C
000001a3 c633                LGOTO    0x1cc; main.o:_00654_DS_=0x1cc
000001a4 e0fc                BCR      STATUS, BK0
000001a5 fe9c                MOVR     0x63, ToAcc
000001a6 dbfd                XORIA    0x2
000001a7 f6fc                BTRSS    STATUS, Z
000001a8 c64b                LGOTO    0x1b4; main.o:_00628_DS_=0x1b4
000001a9 deff                MOVIA    0x0
000001aa fbde                SUBAR    0x21, ToAcc
000001ab f6fc                BTRSS    STATUS, Z
000001ac c650                LGOTO    0x1af; main.o:_00863_DS_=0x1af
000001ad de2c                MOVIA    0xd3
000001ae fbdf                SUBAR    0x20, ToAcc
000001af                     main.o:_00863_DS_:
000001af f7fc                BTRSS    STATUS, C
000001b0 c64b                LGOTO    0x1b4; main.o:_00628_DS_=0x1b4
000001b1 defc                MOVIA    0x3
000001b2 e0fc                BCR      STATUS, BK0
000001b3 ff1c                MOVAR    0x63
000001b4                     main.o:_00628_DS_:
000001b4 defb                MOVIA    0x4
000001b5 e0fc                BCR      STATUS, BK0
000001b6 fb9c                SUBAR    0x63, ToAcc
000001b7 f7fc                BTRSS    STATUS, C
000001b8 c63a                LGOTO    0x1c5; main.o:_00632_DS_=0x1c5
000001b9 deff                MOVIA    0x0
000001ba fbde                SUBAR    0x21, ToAcc
000001bb f6fc                BTRSS    STATUS, Z
000001bc c640                LGOTO    0x1bf; main.o:_00865_DS_=0x1bf
000001bd de14                MOVIA    0xeb
000001be fbdf                SUBAR    0x20, ToAcc
000001bf                     main.o:_00865_DS_:
000001bf f3fc                BTRSC    STATUS, C
000001c0 c637                LGOTO    0x1c8; main.o:_00633_DS_=0x1c8
000001c1 defc                MOVIA    0x3
000001c2 e0fc                BCR      STATUS, BK0
000001c3 ff1c                MOVAR    0x63
000001c4 c637                LGOTO    0x1c8; main.o:_00633_DS_=0x1c8
000001c5                     main.o:_00632_DS_:
000001c5 defc                MOVIA    0x3
000001c6 e0fc                BCR      STATUS, BK0
000001c7 ff1c                MOVAR    0x63
000001c8                     main.o:_00633_DS_:
000001c8 e0fc                BCR      STATUS, BK0
000001c9 fd2e                CLRR     0x51
000001ca fd2d                CLRR     0x52
000001cb c5e7                LGOTO    0x218; main.o:_00676_DS_=0x218
000001cc                     main.o:_00654_DS_:
000001cc deff                MOVIA    0x0
000001cd e0fc                BCR      STATUS, BK0
000001ce fbde                SUBAR    0x21, ToAcc
000001cf f6fc                BTRSS    STATUS, Z
000001d0 c62c                LGOTO    0x1d3; main.o:_00866_DS_=0x1d3
000001d1 de9a                MOVIA    0x65
000001d2 fbdf                SUBAR    0x20, ToAcc
000001d3                     main.o:_00866_DS_:
000001d3 f7fc                BTRSS    STATUS, C
000001d4 c602                LGOTO    0x1fd; main.o:_00651_DS_=0x1fd
000001d5 e0fc                BCR      STATUS, BK0
000001d6 fe9c                MOVR     0x63, ToAcc
000001d7 dbfe                XORIA    0x1
000001d8 f6fc                BTRSS    STATUS, Z
000001d9 c61a                LGOTO    0x1e5; main.o:_00637_DS_=0x1e5
000001da deff                MOVIA    0x0
000001db fbde                SUBAR    0x21, ToAcc
000001dc f6fc                BTRSS    STATUS, Z
000001dd c61f                LGOTO    0x1e0; main.o:_00867_DS_=0x1e0
000001de de90                MOVIA    0x6f
000001df fbdf                SUBAR    0x20, ToAcc
000001e0                     main.o:_00867_DS_:
000001e0 f7fc                BTRSS    STATUS, C
000001e1 c61a                LGOTO    0x1e5; main.o:_00637_DS_=0x1e5
000001e2 defd                MOVIA    0x2
000001e3 e0fc                BCR      STATUS, BK0
000001e4 ff1c                MOVAR    0x63
000001e5                     main.o:_00637_DS_:
000001e5 defc                MOVIA    0x3
000001e6 e0fc                BCR      STATUS, BK0
000001e7 fb9c                SUBAR    0x63, ToAcc
000001e8 f7fc                BTRSS    STATUS, C
000001e9 c609                LGOTO    0x1f6; main.o:_00641_DS_=0x1f6
000001ea deff                MOVIA    0x0
000001eb fbde                SUBAR    0x21, ToAcc
000001ec f6fc                BTRSS    STATUS, Z
000001ed c60f                LGOTO    0x1f0; main.o:_00869_DS_=0x1f0
000001ee de69                MOVIA    0x96
000001ef fbdf                SUBAR    0x20, ToAcc
000001f0                     main.o:_00869_DS_:
000001f0 f3fc                BTRSC    STATUS, C
000001f1 c606                LGOTO    0x1f9; main.o:_00642_DS_=0x1f9
000001f2 defd                MOVIA    0x2
000001f3 e0fc                BCR      STATUS, BK0
000001f4 ff1c                MOVAR    0x63
000001f5 c606                LGOTO    0x1f9; main.o:_00642_DS_=0x1f9
000001f6                     main.o:_00641_DS_:
000001f6 defd                MOVIA    0x2
000001f7 e0fc                BCR      STATUS, BK0
000001f8 ff1c                MOVAR    0x63
000001f9                     main.o:_00642_DS_:
000001f9 e0fc                BCR      STATUS, BK0
000001fa fd2e                CLRR     0x51
000001fb fd2d                CLRR     0x52
000001fc c5e7                LGOTO    0x218; main.o:_00676_DS_=0x218
000001fd                     main.o:_00651_DS_:
000001fd e0fc                BCR      STATUS, BK0
000001fe fedf                MOVR     0x20, ToAcc
000001ff eede                IORAR    0x21, ToAcc
00000200 f2fc                BTRSC    STATUS, Z
00000201 c5e7                LGOTO    0x218; main.o:_00676_DS_=0x218
00000202 defd                MOVIA    0x2
00000203 fb9c                SUBAR    0x63, ToAcc
00000204 f7fc                BTRSS    STATUS, C
00000205 c5ed                LGOTO    0x212; main.o:_00646_DS_=0x212
00000206 deff                MOVIA    0x0
00000207 fbde                SUBAR    0x21, ToAcc
00000208 f6fc                BTRSS    STATUS, Z
00000209 c5f3                LGOTO    0x20c; main.o:_00871_DS_=0x20c
0000020a decd                MOVIA    0x32
0000020b fbdf                SUBAR    0x20, ToAcc
0000020c                     main.o:_00871_DS_:
0000020c f3fc                BTRSC    STATUS, C
0000020d c5ea                LGOTO    0x215; main.o:_00647_DS_=0x215
0000020e defe                MOVIA    0x1
0000020f e0fc                BCR      STATUS, BK0
00000210 ff1c                MOVAR    0x63
00000211 c5ea                LGOTO    0x215; main.o:_00647_DS_=0x215
00000212                     main.o:_00646_DS_:
00000212 defe                MOVIA    0x1
00000213 e0fc                BCR      STATUS, BK0
00000214 ff1c                MOVAR    0x63
00000215                     main.o:_00647_DS_:
00000215 e0fc                BCR      STATUS, BK0
00000216 fd2e                CLRR     0x51
00000217 fd2d                CLRR     0x52
00000218                     main.o:_00676_DS_:
00000218 e0fc                BCR      STATUS, BK0
00000219 fe9f                MOVR     0x60, ToAcc
0000021a f2fc                BTRSC    STATUS, Z
0000021b c5e1                LGOTO    0x21e; main.o:_00679_DS_=0x21e
0000021c fe9f                MOVR     0x60, ToAcc
0000021d ff1e                MOVAR    0x61
0000021e                     main.o:_00679_DS_:
0000021e ffef                RET
0000021f                     _checkOutA:
0000021f e0fc                BCR      STATUS, BK0
00000220 fd5a                CLRR     0x25
00000221 fd5d                CLRR     0x22
00000222 fd5c                CLRR     0x23
00000223 def7                MOVIA    0x8
00000224 d169                LCALL    0x696; _F_AIN3_Convert=0x696
00000225 e0fc                BCR      STATUS, BK0
00000226 eadc                SWAPR    0x23, ToAcc
00000227 dd0f                ANDIA    0xf0
00000228 ff5c                MOVAR    0x23
00000229 eadd                SWAPR    0x22, ToAcc
0000022a ff5d                MOVAR    0x22
0000022b ddf0                ANDIA    0xf
0000022c ee5c                IORAR    0x23, ToReg
0000022d ed5d                XORAR    0x22, ToReg
0000022e de0f                MOVIA    0xf0
0000022f ef5a                ANDAR    0x25, ToReg
00000230 feda                MOVR     0x25, ToAcc
00000231 ff43                MOVAR    0x3c
00000232 ff45                MOVAR    0x3a
00000233 fd44                CLRR     0x3b
00000234 deff                MOVIA    0x0
00000235 ff42                MOVAR    0x3d
00000236 fec3                MOVR     0x3c, ToAcc
00000237 fc5d                ADDAR    0x22, ToReg
00000238 fec2                MOVR     0x3d, ToAcc
00000239 f3fc                BTRSC    STATUS, C
0000023a fac2                INCR     0x3d, ToAcc
0000023b f2fc                BTRSC    STATUS, Z
0000023c c5c1                LGOTO    0x23e; main.o:_00004_DS_=0x23e
0000023d fc5c                ADDAR    0x23, ToReg
0000023e                     main.o:_00004_DS_:
0000023e e3fc                BCR      STATUS, C
0000023f e0fc                BCR      STATUS, BK0
00000240 ec5c                RRR      0x23, ToReg
00000241 ec5d                RRR      0x22, ToReg
00000242 e3fc                BCR      STATUS, C
00000243 ec5c                RRR      0x23, ToReg
00000244 ec5d                RRR      0x22, ToReg
00000245 e3fc                BCR      STATUS, C
00000246 ec5c                RRR      0x23, ToReg
00000247 ec5d                RRR      0x22, ToReg
00000248 fe85                MOVR     0x7a, ToAcc
00000249 f2fc                BTRSC    STATUS, Z
0000024a c5b0                LGOTO    0x24f; main.o:_00877_DS_=0x24f
0000024b ded2                MOVIA    0x2d
0000024c ff5d                MOVAR    0x22
0000024d defe                MOVIA    0x1
0000024e ff5c                MOVAR    0x23
0000024f                     main.o:_00877_DS_:
0000024f defb                MOVIA    0x4
00000250 e0fc                BCR      STATUS, BK0
00000251 fb9c                SUBAR    0x63, ToAcc
00000252 f7fc                BTRSS    STATUS, C
00000253 c5a8                LGOTO    0x257; main.o:_00882_DS_=0x257
00000254 deaf                MOVIA    0x50
00000255 ff06                MOVAR    0x79
00000256 c59d                LGOTO    0x262; main.o:_00883_DS_=0x262
00000257                     main.o:_00882_DS_:
00000257 defd                MOVIA    0x2
00000258 e0fc                BCR      STATUS, BK0
00000259 fb9c                SUBAR    0x63, ToAcc
0000025a f7fc                BTRSS    STATUS, C
0000025b c5a0                LGOTO    0x25f; main.o:_00879_DS_=0x25f
0000025c debe                MOVIA    0x41
0000025d ff06                MOVAR    0x79
0000025e c59d                LGOTO    0x262; main.o:_00883_DS_=0x262
0000025f                     main.o:_00879_DS_:
0000025f dec3                MOVIA    0x3c
00000260 e0fc                BCR      STATUS, BK0
00000261 ff06                MOVAR    0x79
00000262                     main.o:_00883_DS_:
00000262 def6                MOVIA    0x9
00000263 e0fc                BCR      STATUS, BK0
00000264 fb9f                SUBAR    0x60, ToAcc
00000265 f3fc                BTRSC    STATUS, C
00000266 c585                LGOTO    0x27a; main.o:_00953_DS_=0x27a
00000267 deff                MOVIA    0x0
00000268 fbdc                SUBAR    0x23, ToAcc
00000269 f6fc                BTRSS    STATUS, Z
0000026a c592                LGOTO    0x26d; main.o:_01063_DS_=0x26d
0000026b de36                MOVIA    0xc9
0000026c fbdd                SUBAR    0x22, ToAcc
0000026d                     main.o:_01063_DS_:
0000026d f7fc                BTRSS    STATUS, C
0000026e c585                LGOTO    0x27a; main.o:_00953_DS_=0x27a
0000026f e0fc                BCR      STATUS, BK0
00000270 fa18                INCR     0x67, ToReg
00000271 def9                MOVIA    0x6
00000272 fb98                SUBAR    0x67, ToAcc
00000273 f7fc                BTRSS    STATUS, C
00000274 c496                LGOTO    0x369; main.o:_00956_DS_=0x369
00000275 defa                MOVIA    0x5
00000276 ff18                MOVAR    0x67
00000277 fe9f                MOVR     0x60, ToAcc
00000278 ff0d                MOVAR    0x72
00000279 c496                LGOTO    0x369; main.o:_00956_DS_=0x369
0000027a                     main.o:_00953_DS_:
0000027a defe                MOVIA    0x1
0000027b e0fc                BCR      STATUS, BK0
0000027c fbdc                SUBAR    0x23, ToAcc
0000027d f6fc                BTRSS    STATUS, Z
0000027e c57e                LGOTO    0x281; main.o:_01065_DS_=0x281
0000027f de6e                MOVIA    0x91
00000280 fbdd                SUBAR    0x22, ToAcc
00000281                     main.o:_01065_DS_:
00000281 f7fc                BTRSS    STATUS, C
00000282 c571                LGOTO    0x28e; main.o:_00950_DS_=0x28e
00000283 e0fc                BCR      STATUS, BK0
00000284 fa18                INCR     0x67, ToReg
00000285 def9                MOVIA    0x6
00000286 fb98                SUBAR    0x67, ToAcc
00000287 f7fc                BTRSS    STATUS, C
00000288 c496                LGOTO    0x369; main.o:_00956_DS_=0x369
00000289 defa                MOVIA    0x5
0000028a ff18                MOVAR    0x67
0000028b fe9f                MOVR     0x60, ToAcc
0000028c ff0d                MOVAR    0x72
0000028d c496                LGOTO    0x369; main.o:_00956_DS_=0x369
0000028e                     main.o:_00950_DS_:
0000028e e0fc                BCR      STATUS, BK0
0000028f fe86                MOVR     0x79, ToAcc
00000290 ff45                MOVAR    0x3a
00000291 fd44                CLRR     0x3b
00000292 fedc                MOVR     0x23, ToAcc
00000293 fbc4                SUBAR    0x3b, ToAcc
00000294 f6fc                BTRSS    STATUS, Z
00000295 c567                LGOTO    0x298; main.o:_01067_DS_=0x298
00000296 fedd                MOVR     0x22, ToAcc
00000297 fbc5                SUBAR    0x3a, ToAcc
00000298                     main.o:_01067_DS_:
00000298 f3fc                BTRSC    STATUS, C
00000299 c511                LGOTO    0x2ee; main.o:_00947_DS_=0x2ee
0000029a e0fc                BCR      STATUS, BK0
0000029b fe98                MOVR     0x67, ToAcc
0000029c f6fc                BTRSS    STATUS, Z
0000029d f918                DECR     0x67, ToReg
0000029e fe9f                MOVR     0x60, ToAcc
0000029f dbfe                XORIA    0x1
000002a0 f6fc                BTRSS    STATUS, Z
000002a1 c55a                LGOTO    0x2a5; main.o:_00913_DS_=0x2a5
000002a2 deb0                MOVIA    0x4f
000002a3 ff12                MOVAR    0x6d
000002a4 c515                LGOTO    0x2ea; main.o:_00914_DS_=0x2ea
000002a5                     main.o:_00913_DS_:
000002a5 e0fc                BCR      STATUS, BK0
000002a6 fe9f                MOVR     0x60, ToAcc
000002a7 dbfd                XORIA    0x2
000002a8 f6fc                BTRSS    STATUS, Z
000002a9 c552                LGOTO    0x2ad; main.o:_00910_DS_=0x2ad
000002aa dead                MOVIA    0x52
000002ab ff12                MOVAR    0x6d
000002ac c515                LGOTO    0x2ea; main.o:_00914_DS_=0x2ea
000002ad                     main.o:_00910_DS_:
000002ad e0fc                BCR      STATUS, BK0
000002ae fe9f                MOVR     0x60, ToAcc
000002af dbfc                XORIA    0x3
000002b0 f6fc                BTRSS    STATUS, Z
000002b1 c54a                LGOTO    0x2b5; main.o:_00907_DS_=0x2b5
000002b2 deaa                MOVIA    0x55
000002b3 ff12                MOVAR    0x6d
000002b4 c515                LGOTO    0x2ea; main.o:_00914_DS_=0x2ea
000002b5                     main.o:_00907_DS_:
000002b5 e0fc                BCR      STATUS, BK0
000002b6 fe9f                MOVR     0x60, ToAcc
000002b7 dbfb                XORIA    0x4
000002b8 f6fc                BTRSS    STATUS, Z
000002b9 c542                LGOTO    0x2bd; main.o:_00904_DS_=0x2bd
000002ba dea7                MOVIA    0x58
000002bb ff12                MOVAR    0x6d
000002bc c515                LGOTO    0x2ea; main.o:_00914_DS_=0x2ea
000002bd                     main.o:_00904_DS_:
000002bd e0fc                BCR      STATUS, BK0
000002be fe9f                MOVR     0x60, ToAcc
000002bf dbfa                XORIA    0x5
000002c0 f6fc                BTRSS    STATUS, Z
000002c1 c53a                LGOTO    0x2c5; main.o:_00901_DS_=0x2c5
000002c2 dea5                MOVIA    0x5a
000002c3 ff12                MOVAR    0x6d
000002c4 c515                LGOTO    0x2ea; main.o:_00914_DS_=0x2ea
000002c5                     main.o:_00901_DS_:
000002c5 e0fc                BCR      STATUS, BK0
000002c6 fe9f                MOVR     0x60, ToAcc
000002c7 dbf9                XORIA    0x6
000002c8 f6fc                BTRSS    STATUS, Z
000002c9 c532                LGOTO    0x2cd; main.o:_00898_DS_=0x2cd
000002ca dea2                MOVIA    0x5d
000002cb ff12                MOVAR    0x6d
000002cc c515                LGOTO    0x2ea; main.o:_00914_DS_=0x2ea
000002cd                     main.o:_00898_DS_:
000002cd e0fc                BCR      STATUS, BK0
000002ce fe9f                MOVR     0x60, ToAcc
000002cf dbf8                XORIA    0x7
000002d0 f6fc                BTRSS    STATUS, Z
000002d1 c521                LGOTO    0x2de; main.o:_00895_DS_=0x2de
000002d2 deff                MOVIA    0x0
000002d3 fbdc                SUBAR    0x23, ToAcc
000002d4 f6fc                BTRSS    STATUS, Z
000002d5 c527                LGOTO    0x2d8; main.o:_01068_DS_=0x2d8
000002d6 dea9                MOVIA    0x56
000002d7 fbdd                SUBAR    0x22, ToAcc
000002d8                     main.o:_01068_DS_:
000002d8 f7fc                BTRSS    STATUS, C
000002d9 c515                LGOTO    0x2ea; main.o:_00914_DS_=0x2ea
000002da de9f                MOVIA    0x60
000002db e0fc                BCR      STATUS, BK0
000002dc ff12                MOVAR    0x6d
000002dd c515                LGOTO    0x2ea; main.o:_00914_DS_=0x2ea
000002de                     main.o:_00895_DS_:
000002de deff                MOVIA    0x0
000002df e0fc                BCR      STATUS, BK0
000002e0 fbdc                SUBAR    0x23, ToAcc
000002e1 f6fc                BTRSS    STATUS, Z
000002e2 c51a                LGOTO    0x2e5; main.o:_01069_DS_=0x2e5
000002e3 dea4                MOVIA    0x5b
000002e4 fbdd                SUBAR    0x22, ToAcc
000002e5                     main.o:_01069_DS_:
000002e5 f7fc                BTRSS    STATUS, C
000002e6 c515                LGOTO    0x2ea; main.o:_00914_DS_=0x2ea
000002e7 de9c                MOVIA    0x63
000002e8 e0fc                BCR      STATUS, BK0
000002e9 ff12                MOVAR    0x6d
000002ea                     main.o:_00914_DS_:
000002ea e0fc                BCR      STATUS, BK0
000002eb fe92                MOVR     0x6d, ToAcc
000002ec ffb3                SFUN     PWM2DUTY
000002ed c496                LGOTO    0x369; main.o:_00956_DS_=0x369
000002ee                     main.o:_00947_DS_:
000002ee e0fc                BCR      STATUS, BK0
000002ef fe98                MOVR     0x67, ToAcc
000002f0 f6fc                BTRSS    STATUS, Z
000002f1 f918                DECR     0x67, ToReg
000002f2 fe86                MOVR     0x79, ToAcc
000002f3 ff45                MOVAR    0x3a
000002f4 fd44                CLRR     0x3b
000002f5 de19                MOVIA    0xe6
000002f6 fc45                ADDAR    0x3a, ToReg
000002f7 f3fc                BTRSC    STATUS, C
000002f8 c505                LGOTO    0x2fa; main.o:_00005_DS_=0x2fa
000002f9 f944                DECR     0x3b, ToReg
000002fa                     main.o:_00005_DS_:
000002fa e0fc                BCR      STATUS, BK0
000002fb fec5                MOVR     0x3a, ToAcc
000002fc ff43                MOVAR    0x3c
000002fd fec4                MOVR     0x3b, ToAcc
000002fe ff42                MOVAR    0x3d
000002ff fedc                MOVR     0x23, ToAcc
00000300 fbc2                SUBAR    0x3d, ToAcc
00000301 f6fc                BTRSS    STATUS, Z
00000302 c4fa                LGOTO    0x305; main.o:_01070_DS_=0x305
00000303 fedd                MOVR     0x22, ToAcc
00000304 fbc3                SUBAR    0x3c, ToAcc
00000305                     main.o:_01070_DS_:
00000305 f3fc                BTRSC    STATUS, C
00000306 c4da                LGOTO    0x325; main.o:_00926_DS_=0x325
00000307 defb                MOVIA    0x4
00000308 e0fc                BCR      STATUS, BK0
00000309 fb9f                SUBAR    0x60, ToAcc
0000030a f3fc                BTRSC    STATUS, C
0000030b c4da                LGOTO    0x325; main.o:_00926_DS_=0x325
0000030c fe9f                MOVR     0x60, ToAcc
0000030d dbfe                XORIA    0x1
0000030e f6fc                BTRSS    STATUS, Z
0000030f c4ec                LGOTO    0x313; main.o:_00923_DS_=0x313
00000310 deb0                MOVIA    0x4f
00000311 ff12                MOVAR    0x6d
00000312 c4dd                LGOTO    0x322; main.o:_00924_DS_=0x322
00000313                     main.o:_00923_DS_:
00000313 e0fc                BCR      STATUS, BK0
00000314 fe9f                MOVR     0x60, ToAcc
00000315 dbfd                XORIA    0x2
00000316 f6fc                BTRSS    STATUS, Z
00000317 c4e4                LGOTO    0x31b; main.o:_00920_DS_=0x31b
00000318 dead                MOVIA    0x52
00000319 ff12                MOVAR    0x6d
0000031a c4dd                LGOTO    0x322; main.o:_00924_DS_=0x322
0000031b                     main.o:_00920_DS_:
0000031b e0fc                BCR      STATUS, BK0
0000031c fe9f                MOVR     0x60, ToAcc
0000031d dbfc                XORIA    0x3
0000031e f6fc                BTRSS    STATUS, Z
0000031f c4dd                LGOTO    0x322; main.o:_00924_DS_=0x322
00000320 deaa                MOVIA    0x55
00000321 ff12                MOVAR    0x6d
00000322                     main.o:_00924_DS_:
00000322 e0fc                BCR      STATUS, BK0
00000323 fe92                MOVR     0x6d, ToAcc
00000324 ffb3                SFUN     PWM2DUTY
00000325                     main.o:_00926_DS_:
00000325 deff                MOVIA    0x0
00000326 e0fc                BCR      STATUS, BK0
00000327 fbdc                SUBAR    0x23, ToAcc
00000328 f6fc                BTRSS    STATUS, Z
00000329 c4d3                LGOTO    0x32c; main.o:_01072_DS_=0x32c
0000032a dec3                MOVIA    0x3c
0000032b fbdd                SUBAR    0x22, ToAcc
0000032c                     main.o:_01072_DS_:
0000032c f7fc                BTRSS    STATUS, C
0000032d c4b9                LGOTO    0x346; main.o:_00940_DS_=0x346
0000032e def9                MOVIA    0x6
0000032f e0fc                BCR      STATUS, BK0
00000330 fb9f                SUBAR    0x60, ToAcc
00000331 f3fc                BTRSC    STATUS, C
00000332 c4b9                LGOTO    0x346; main.o:_00940_DS_=0x346
00000333 defb                MOVIA    0x4
00000334 fb9f                SUBAR    0x60, ToAcc
00000335 f7fc                BTRSS    STATUS, C
00000336 c4b9                LGOTO    0x346; main.o:_00940_DS_=0x346
00000337 fe9f                MOVR     0x60, ToAcc
00000338 dbfb                XORIA    0x4
00000339 f6fc                BTRSS    STATUS, Z
0000033a c4c1                LGOTO    0x33e; main.o:_00931_DS_=0x33e
0000033b dea7                MOVIA    0x58
0000033c ff12                MOVAR    0x6d
0000033d c49c                LGOTO    0x363; main.o:_00941_DS_=0x363
0000033e                     main.o:_00931_DS_:
0000033e e0fc                BCR      STATUS, BK0
0000033f fe9f                MOVR     0x60, ToAcc
00000340 dbfa                XORIA    0x5
00000341 f6fc                BTRSS    STATUS, Z
00000342 c49c                LGOTO    0x363; main.o:_00941_DS_=0x363
00000343 dea5                MOVIA    0x5a
00000344 ff12                MOVAR    0x6d
00000345 c49c                LGOTO    0x363; main.o:_00941_DS_=0x363
00000346                     main.o:_00940_DS_:
00000346 deff                MOVIA    0x0
00000347 e0fc                BCR      STATUS, BK0
00000348 fbdc                SUBAR    0x23, ToAcc
00000349 f6fc                BTRSS    STATUS, Z
0000034a c4b2                LGOTO    0x34d; main.o:_01075_DS_=0x34d
0000034b debc                MOVIA    0x43
0000034c fbdd                SUBAR    0x22, ToAcc
0000034d                     main.o:_01075_DS_:
0000034d f3fc                BTRSC    STATUS, C
0000034e c4ac                LGOTO    0x353; main.o:_00937_DS_=0x353
0000034f e0fc                BCR      STATUS, BK0
00000350 fe9d                MOVR     0x62, ToAcc
00000351 ffb3                SFUN     PWM2DUTY
00000352 c49c                LGOTO    0x363; main.o:_00941_DS_=0x363
00000353                     main.o:_00937_DS_:
00000353 def8                MOVIA    0x7
00000354 e0fc                BCR      STATUS, BK0
00000355 fb9f                SUBAR    0x60, ToAcc
00000356 f7fc                BTRSS    STATUS, C
00000357 c49c                LGOTO    0x363; main.o:_00941_DS_=0x363
00000358 deff                MOVIA    0x0
00000359 fbdc                SUBAR    0x23, ToAcc
0000035a f6fc                BTRSS    STATUS, Z
0000035b c4a1                LGOTO    0x35e; main.o:_01077_DS_=0x35e
0000035c deb4                MOVIA    0x4b
0000035d fbdd                SUBAR    0x22, ToAcc
0000035e                     main.o:_01077_DS_:
0000035e f3fc                BTRSC    STATUS, C
0000035f c49c                LGOTO    0x363; main.o:_00941_DS_=0x363
00000360 e0fc                BCR      STATUS, BK0
00000361 fe9d                MOVR     0x62, ToAcc
00000362 ffb3                SFUN     PWM2DUTY
00000363                     main.o:_00941_DS_:
00000363 e0fc                BCR      STATUS, BK0
00000364 fe9f                MOVR     0x60, ToAcc
00000365 f2fc                BTRSC    STATUS, Z
00000366 c496                LGOTO    0x369; main.o:_00956_DS_=0x369
00000367 fe9f                MOVR     0x60, ToAcc
00000368 ff1e                MOVAR    0x61
00000369                     main.o:_00956_DS_:
00000369 ffef                RET
0000036a                     _keyCtr:
0000036a e0fc                BCR      STATUS, BK0
0000036b f8fa                COMR     PORTA, ToAcc
0000036c ff59                MOVAR    0x26
0000036d debf                MOVIA    0x40
0000036e ef59                ANDAR    0x26, ToReg
0000036f fed9                MOVR     0x26, ToAcc
00000370 d191                LCALL    0x66e; _keyRead=0x66e
00000371 e0fc                BCR      STATUS, BK0
00000372 ff59                MOVAR    0x26
00000373 dbfe                XORIA    0x1
00000374 f6fc                BTRSS    STATUS, Z
00000375 c3e9                LGOTO    0x416; main.o:_00306_DS_=0x416
00000376 fd21                CLRR     0x5e
00000377 fd17                CLRR     0x68
00000378 fe9f                MOVR     0x60, ToAcc
00000379 f6fc                BTRSS    STATUS, Z
0000037a c482                LGOTO    0x37d; main.o:_00240_DS_=0x37d
0000037b fd1a                CLRR     0x65
0000037c c3b8                LGOTO    0x447; main.o:_00308_DS_=0x447
0000037d                     main.o:_00240_DS_:
0000037d e0fc                BCR      STATUS, BK0
0000037e fd19                CLRR     0x66
0000037f fa1f                INCR     0x60, ToReg
00000380 def6                MOVIA    0x9
00000381 fb9f                SUBAR    0x60, ToAcc
00000382 f7fc                BTRSS    STATUS, C
00000383 c479                LGOTO    0x386; main.o:_00242_DS_=0x386
00000384 defe                MOVIA    0x1
00000385 ff1f                MOVAR    0x60
00000386                     main.o:_00242_DS_:
00000386 def9                MOVIA    0x6
00000387 e0fc                BCR      STATUS, BK0
00000388 ff14                MOVAR    0x6b
00000389 defc                MOVIA    0x3
0000038a fb9c                SUBAR    0x63, ToAcc
0000038b f3fc                BTRSC    STATUS, C
0000038c c433                LGOTO    0x3cc; main.o:_00290_DS_=0x3cc
0000038d fe9f                MOVR     0x60, ToAcc
0000038e dbfe                XORIA    0x1
0000038f f6fc                BTRSS    STATUS, Z
00000390 c46b                LGOTO    0x394; main.o:_00264_DS_=0x394
00000391 decd                MOVIA    0x32
00000392 ff1d                MOVAR    0x62
00000393 c3f4                LGOTO    0x40b; main.o:_00291_DS_=0x40b
00000394                     main.o:_00264_DS_:
00000394 e0fc                BCR      STATUS, BK0
00000395 fe9f                MOVR     0x60, ToAcc
00000396 dbfd                XORIA    0x2
00000397 f6fc                BTRSS    STATUS, Z
00000398 c463                LGOTO    0x39c; main.o:_00261_DS_=0x39c
00000399 decb                MOVIA    0x34
0000039a ff1d                MOVAR    0x62
0000039b c3f4                LGOTO    0x40b; main.o:_00291_DS_=0x40b
0000039c                     main.o:_00261_DS_:
0000039c e0fc                BCR      STATUS, BK0
0000039d fe9f                MOVR     0x60, ToAcc
0000039e dbfc                XORIA    0x3
0000039f f6fc                BTRSS    STATUS, Z
000003a0 c45b                LGOTO    0x3a4; main.o:_00258_DS_=0x3a4
000003a1 dec9                MOVIA    0x36
000003a2 ff1d                MOVAR    0x62
000003a3 c3f4                LGOTO    0x40b; main.o:_00291_DS_=0x40b
000003a4                     main.o:_00258_DS_:
000003a4 e0fc                BCR      STATUS, BK0
000003a5 fe9f                MOVR     0x60, ToAcc
000003a6 dbfb                XORIA    0x4
000003a7 f6fc                BTRSS    STATUS, Z
000003a8 c453                LGOTO    0x3ac; main.o:_00255_DS_=0x3ac
000003a9 dec7                MOVIA    0x38
000003aa ff1d                MOVAR    0x62
000003ab c3f4                LGOTO    0x40b; main.o:_00291_DS_=0x40b
000003ac                     main.o:_00255_DS_:
000003ac e0fc                BCR      STATUS, BK0
000003ad fe9f                MOVR     0x60, ToAcc
000003ae dbfa                XORIA    0x5
000003af f6fc                BTRSS    STATUS, Z
000003b0 c44b                LGOTO    0x3b4; main.o:_00252_DS_=0x3b4
000003b1 dec5                MOVIA    0x3a
000003b2 ff1d                MOVAR    0x62
000003b3 c3f4                LGOTO    0x40b; main.o:_00291_DS_=0x40b
000003b4                     main.o:_00252_DS_:
000003b4 e0fc                BCR      STATUS, BK0
000003b5 fe9f                MOVR     0x60, ToAcc
000003b6 dbf9                XORIA    0x6
000003b7 f6fc                BTRSS    STATUS, Z
000003b8 c443                LGOTO    0x3bc; main.o:_00249_DS_=0x3bc
000003b9 dec3                MOVIA    0x3c
000003ba ff1d                MOVAR    0x62
000003bb c3f4                LGOTO    0x40b; main.o:_00291_DS_=0x40b
000003bc                     main.o:_00249_DS_:
000003bc e0fc                BCR      STATUS, BK0
000003bd fe9f                MOVR     0x60, ToAcc
000003be dbf8                XORIA    0x7
000003bf f6fc                BTRSS    STATUS, Z
000003c0 c43b                LGOTO    0x3c4; main.o:_00246_DS_=0x3c4
000003c1 dec1                MOVIA    0x3e
000003c2 ff1d                MOVAR    0x62
000003c3 c3f4                LGOTO    0x40b; main.o:_00291_DS_=0x40b
000003c4                     main.o:_00246_DS_:
000003c4 e0fc                BCR      STATUS, BK0
000003c5 fe9f                MOVR     0x60, ToAcc
000003c6 dbf7                XORIA    0x8
000003c7 f6fc                BTRSS    STATUS, Z
000003c8 c3f4                LGOTO    0x40b; main.o:_00291_DS_=0x40b
000003c9 debf                MOVIA    0x40
000003ca ff1d                MOVAR    0x62
000003cb c3f4                LGOTO    0x40b; main.o:_00291_DS_=0x40b
000003cc                     main.o:_00290_DS_:
000003cc e0fc                BCR      STATUS, BK0
000003cd fe9f                MOVR     0x60, ToAcc
000003ce dbfe                XORIA    0x1
000003cf f6fc                BTRSS    STATUS, Z
000003d0 c42b                LGOTO    0x3d4; main.o:_00287_DS_=0x3d4
000003d1 ded7                MOVIA    0x28
000003d2 ff1d                MOVAR    0x62
000003d3 c3f4                LGOTO    0x40b; main.o:_00291_DS_=0x40b
000003d4                     main.o:_00287_DS_:
000003d4 e0fc                BCR      STATUS, BK0
000003d5 fe9f                MOVR     0x60, ToAcc
000003d6 dbfd                XORIA    0x2
000003d7 f6fc                BTRSS    STATUS, Z
000003d8 c423                LGOTO    0x3dc; main.o:_00284_DS_=0x3dc
000003d9 ded3                MOVIA    0x2c
000003da ff1d                MOVAR    0x62
000003db c3f4                LGOTO    0x40b; main.o:_00291_DS_=0x40b
000003dc                     main.o:_00284_DS_:
000003dc e0fc                BCR      STATUS, BK0
000003dd fe9f                MOVR     0x60, ToAcc
000003de dbfc                XORIA    0x3
000003df f6fc                BTRSS    STATUS, Z
000003e0 c41b                LGOTO    0x3e4; main.o:_00281_DS_=0x3e4
000003e1 decf                MOVIA    0x30
000003e2 ff1d                MOVAR    0x62
000003e3 c3f4                LGOTO    0x40b; main.o:_00291_DS_=0x40b
000003e4                     main.o:_00281_DS_:
000003e4 e0fc                BCR      STATUS, BK0
000003e5 fe9f                MOVR     0x60, ToAcc
000003e6 dbfb                XORIA    0x4
000003e7 f6fc                BTRSS    STATUS, Z
000003e8 c413                LGOTO    0x3ec; main.o:_00278_DS_=0x3ec
000003e9 decb                MOVIA    0x34
000003ea ff1d                MOVAR    0x62
000003eb c3f4                LGOTO    0x40b; main.o:_00291_DS_=0x40b
000003ec                     main.o:_00278_DS_:
000003ec e0fc                BCR      STATUS, BK0
000003ed fe9f                MOVR     0x60, ToAcc
000003ee dbfa                XORIA    0x5
000003ef f6fc                BTRSS    STATUS, Z
000003f0 c40b                LGOTO    0x3f4; main.o:_00275_DS_=0x3f4
000003f1 dec8                MOVIA    0x37
000003f2 ff1d                MOVAR    0x62
000003f3 c3f4                LGOTO    0x40b; main.o:_00291_DS_=0x40b
000003f4                     main.o:_00275_DS_:
000003f4 e0fc                BCR      STATUS, BK0
000003f5 fe9f                MOVR     0x60, ToAcc
000003f6 dbf9                XORIA    0x6
000003f7 f6fc                BTRSS    STATUS, Z
000003f8 c403                LGOTO    0x3fc; main.o:_00272_DS_=0x3fc
000003f9 dec5                MOVIA    0x3a
000003fa ff1d                MOVAR    0x62
000003fb c3f4                LGOTO    0x40b; main.o:_00291_DS_=0x40b
000003fc                     main.o:_00272_DS_:
000003fc e0fc                BCR      STATUS, BK0
000003fd fe9f                MOVR     0x60, ToAcc
000003fe dbf8                XORIA    0x7
000003ff f6fc                BTRSS    STATUS, Z
00000400 c3fb                LGOTO    0x404; main.o:_00269_DS_=0x404
00000401 dec2                MOVIA    0x3d
00000402 ff1d                MOVAR    0x62
00000403 c3f4                LGOTO    0x40b; main.o:_00291_DS_=0x40b
00000404                     main.o:_00269_DS_:
00000404 e0fc                BCR      STATUS, BK0
00000405 fe9f                MOVR     0x60, ToAcc
00000406 dbf7                XORIA    0x8
00000407 f6fc                BTRSS    STATUS, Z
00000408 c3f4                LGOTO    0x40b; main.o:_00291_DS_=0x40b
00000409 debf                MOVIA    0x40
0000040a ff1d                MOVAR    0x62
0000040b                     main.o:_00291_DS_:
0000040b e0fc                BCR      STATUS, BK0
0000040c fe9f                MOVR     0x60, ToAcc
0000040d f2fc                BTRSC    STATUS, Z
0000040e c3ed                LGOTO    0x412; main.o:_00293_DS_=0x412
0000040f fe9d                MOVR     0x62, ToAcc
00000410 ffb3                SFUN     PWM2DUTY
00000411 d065                LCALL    0x79a; _pwmInit=0x79a
00000412                     main.o:_00293_DS_:
00000412 e0fc                BCR      STATUS, BK0
00000413 fe9f                MOVR     0x60, ToAcc
00000414 ff1e                MOVAR    0x61
00000415 c3b8                LGOTO    0x447; main.o:_00308_DS_=0x447
00000416                     main.o:_00306_DS_:
00000416 e0fc                BCR      STATUS, BK0
00000417 fed9                MOVR     0x26, ToAcc
00000418 dbfd                XORIA    0x2
00000419 f6fc                BTRSS    STATUS, Z
0000041a c3b8                LGOTO    0x447; main.o:_00308_DS_=0x447
0000041b fe9f                MOVR     0x60, ToAcc
0000041c f2fc                BTRSC    STATUS, Z
0000041d c3df                LGOTO    0x420; main.o:_00301_DS_=0x420
0000041e d041                LCALL    0x7be; _powerOff=0x7be
0000041f c3bb                LGOTO    0x444; main.o:_00302_DS_=0x444
00000420                     main.o:_00301_DS_:
00000420 e0fc                BCR      STATUS, BK0
00000421 fe9c                MOVR     0x63, ToAcc
00000422 f2fc                BTRSC    STATUS, Z
00000423 c3d8                LGOTO    0x427; main.o:_00294_DS_=0x427
00000424 fe8a                MOVR     0x75, ToAcc
00000425 f2fc                BTRSC    STATUS, Z
00000426 c3d0                LGOTO    0x42f; main.o:_00295_DS_=0x42f
00000427                     main.o:_00294_DS_:
00000427 defe                MOVIA    0x1
00000428 e0fc                BCR      STATUS, BK0
00000429 ff0a                MOVAR    0x75
0000042a de0b                MOVIA    0xf4
0000042b ff26                MOVAR    0x59
0000042c defe                MOVIA    0x1
0000042d ff25                MOVAR    0x5a
0000042e c3b8                LGOTO    0x447; main.o:_00308_DS_=0x447
0000042f                     main.o:_00295_DS_:
0000042f e0fc                BCR      STATUS, BK0
00000430 fd17                CLRR     0x68
00000431 defe                MOVIA    0x1
00000432 ff1f                MOVAR    0x60
00000433 deaf                MOVIA    0x50
00000434 ffb3                SFUN     PWM2DUTY
00000435 ff16                MOVAR    0x69
00000436 defc                MOVIA    0x3
00000437 fb9c                SUBAR    0x63, ToAcc
00000438 f3fc                BTRSC    STATUS, C
00000439 c3c2                LGOTO    0x43d; main.o:_00298_DS_=0x43d
0000043a decd                MOVIA    0x32
0000043b ff1d                MOVAR    0x62
0000043c c3bf                LGOTO    0x440; main.o:_00299_DS_=0x440
0000043d                     main.o:_00298_DS_:
0000043d ded7                MOVIA    0x28
0000043e e0fc                BCR      STATUS, BK0
0000043f ff1d                MOVAR    0x62
00000440                     main.o:_00299_DS_:
00000440 d065                LCALL    0x79a; _pwmInit=0x79a
00000441 deef                MOVIA    0x10
00000442 e0fc                BCR      STATUS, BK0
00000443 ff14                MOVAR    0x6b
00000444                     main.o:_00302_DS_:
00000444 e0fc                BCR      STATUS, BK0
00000445 fe9f                MOVR     0x60, ToAcc
00000446 ff1e                MOVAR    0x61
00000447                     main.o:_00308_DS_:
00000447 ffef                RET
00000448                     _chrgCtr:
00000448 e0fc                BCR      STATUS, BK0
00000449 f57a                BTRSS    PORTA, PA5
0000044a c341                LGOTO    0x4be; main.o:_00482_DS_=0x4be
0000044b fd0a                CLRR     0x75
0000044c defe                MOVIA    0x1
0000044d ff0e                MOVAR    0x71
0000044e fd1f                CLRR     0x60
0000044f fd17                CLRR     0x68
00000450 d03b                LCALL    0x7c4; _pwmStop=0x7c4
00000451 e0fc                BCR      STATUS, BK0
00000452 fe89                MOVR     0x76, ToAcc
00000453 f6fc                BTRSS    STATUS, Z
00000454 c3a6                LGOTO    0x459; main.o:_00463_DS_=0x459
00000455 def6                MOVIA    0x9
00000456 fb9c                SUBAR    0x63, ToAcc
00000457 f7fc                BTRSS    STATUS, C
00000458 c388                LGOTO    0x477; main.o:_00464_DS_=0x477
00000459                     main.o:_00463_DS_:
00000459 def7                MOVIA    0x8
0000045a e0fc                BCR      STATUS, BK0
0000045b ff1e                MOVAR    0x61
0000045c fa08                INCR     0x77, ToReg
0000045d de36                MOVIA    0xc9
0000045e fb88                SUBAR    0x77, ToAcc
0000045f f7fc                BTRSS    STATUS, C
00000460 c399                LGOTO    0x466; main.o:_00446_DS_=0x466
00000461 defe                MOVIA    0x1
00000462 ff09                MOVAR    0x76
00000463 de37                MOVIA    0xc8
00000464 ff08                MOVAR    0x77
00000465 e6fa                BSR      PORTA, PA2
00000466                     main.o:_00446_DS_:
00000466 e0fc                BCR      STATUS, BK0
00000467 fe9c                MOVR     0x63, ToAcc
00000468 dbf5                XORIA    0xa
00000469 f6fc                BTRSS    STATUS, Z
0000046a c2fa                LGOTO    0x505; main.o:_00484_DS_=0x505
0000046b fa15                INCR     0x6a, ToReg
0000046c de9a                MOVIA    0x65
0000046d fb95                SUBAR    0x6a, ToAcc
0000046e f7fc                BTRSS    STATUS, C
0000046f c2fa                LGOTO    0x505; main.o:_00484_DS_=0x505
00000470 ffea                IOSTR    IOSTA
00000471 ff4d                MOVAR    0x32
00000472 e7cd                BSR      0x32, 0x0
00000473 fecd                MOVR     0x32, ToAcc
00000474 fffa                IOST     IOSTA
00000475 e6fa                BSR      PORTA, PA2
00000476 c2fa                LGOTO    0x505; main.o:_00484_DS_=0x505
00000477                     main.o:_00464_DS_:
00000477 e0fc                BCR      STATUS, BK0
00000478 fd08                CLRR     0x77
00000479 e2fa                BCR      PORTA, PA2
0000047a fd15                CLRR     0x6a
0000047b fea1                MOVR     0x5e, ToAcc
0000047c f6fc                BTRSS    STATUS, Z
0000047d c352                LGOTO    0x4ad; main.o:_00458_DS_=0x4ad
0000047e def6                MOVIA    0x9
0000047f fb9c                SUBAR    0x63, ToAcc
00000480 f3fc                BTRSC    STATUS, C
00000481 c352                LGOTO    0x4ad; main.o:_00458_DS_=0x4ad
00000482 fe9c                MOVR     0x63, ToAcc
00000483 ff4d                MOVAR    0x32
00000484 fd4c                CLRR     0x33
00000485 de00                MOVIA    0xff
00000486 fc4d                ADDAR    0x32, ToReg
00000487 f3fc                BTRSC    STATUS, C
00000488 c375                LGOTO    0x48a; main.o:_00007_DS_=0x48a
00000489 f94c                DECR     0x33, ToReg
0000048a                     main.o:_00007_DS_:
0000048a e0fc                BCR      STATUS, BK0
0000048b fe8b                MOVR     0x74, ToAcc
0000048c ff4b                MOVAR    0x34
0000048d deff                MOVIA    0x0
0000048e da7f                ADDIA    0x80
0000048f ff4a                MOVAR    0x35
00000490 fecc                MOVR     0x33, ToAcc
00000491 da7f                ADDIA    0x80
00000492 fbca                SUBAR    0x35, ToAcc
00000493 f6fc                BTRSS    STATUS, Z
00000494 c368                LGOTO    0x497; main.o:_00541_DS_=0x497
00000495 fecd                MOVR     0x32, ToAcc
00000496 fbcb                SUBAR    0x34, ToAcc
00000497                     main.o:_00541_DS_:
00000497 f3fc                BTRSC    STATUS, C
00000498 c357                LGOTO    0x4a8; main.o:_00455_DS_=0x4a8
00000499 e0fc                BCR      STATUS, BK0
0000049a fe8b                MOVR     0x74, ToAcc
0000049b f6fc                BTRSS    STATUS, Z
0000049c c360                LGOTO    0x49f; main.o:_00451_DS_=0x49f
0000049d f99c                DECR     0x63, ToAcc
0000049e ff0b                MOVAR    0x74
0000049f                     main.o:_00451_DS_:
0000049f e0fc                BCR      STATUS, BK0
000004a0 fa07                INCR     0x78, ToReg
000004a1 de9a                MOVIA    0x65
000004a2 fb87                SUBAR    0x78, ToAcc
000004a3 f7fc                BTRSS    STATUS, C
000004a4 c355                LGOTO    0x4aa; main.o:_00456_DS_=0x4aa
000004a5 f99c                DECR     0x63, ToAcc
000004a6 ff0b                MOVAR    0x74
000004a7 c355                LGOTO    0x4aa; main.o:_00456_DS_=0x4aa
000004a8                     main.o:_00455_DS_:
000004a8 e0fc                BCR      STATUS, BK0
000004a9 fd07                CLRR     0x78
000004aa                     main.o:_00456_DS_:
000004aa e0fc                BCR      STATUS, BK0
000004ab fe8b                MOVR     0x74, ToAcc
000004ac ff1e                MOVAR    0x61
000004ad                     main.o:_00458_DS_:
000004ad dee1                MOVIA    0x1e
000004ae e0fc                BCR      STATUS, BK0
000004af fba1                SUBAR    0x5e, ToAcc
000004b0 f3fc                BTRSC    STATUS, C
000004b1 c34b                LGOTO    0x4b4; main.o:_00461_DS_=0x4b4
000004b2 e77a                BSR      PORTA, PA1
000004b3 c349                LGOTO    0x4b6; main.o:_00462_DS_=0x4b6
000004b4                     main.o:_00461_DS_:
000004b4 e0fc                BCR      STATUS, BK0
000004b5 e37a                BCR      PORTA, PA1
000004b6                     main.o:_00462_DS_:
000004b6 ffea                IOSTR    IOSTA
000004b7 e0fc                BCR      STATUS, BK0
000004b8 ff4d                MOVAR    0x32
000004b9 e3cd                BCR      0x32, 0x0
000004ba fecd                MOVR     0x32, ToAcc
000004bb fffa                IOST     IOSTA
000004bc e7fa                BSR      PORTA, PA0
000004bd c2fa                LGOTO    0x505; main.o:_00484_DS_=0x505
000004be                     main.o:_00482_DS_:
000004be e0fc                BCR      STATUS, BK0
000004bf fd09                CLRR     0x76
000004c0 fd08                CLRR     0x77
000004c1 fd0b                CLRR     0x74
000004c2 fe9f                MOVR     0x60, ToAcc
000004c3 f2fc                BTRSC    STATUS, Z
000004c4 c322                LGOTO    0x4dd; main.o:_00470_DS_=0x4dd
000004c5 fe9c                MOVR     0x63, ToAcc
000004c6 f6fc                BTRSS    STATUS, Z
000004c7 c322                LGOTO    0x4dd; main.o:_00470_DS_=0x4dd
000004c8 fa24                INCR     0x5b, ToReg
000004c9 f2fc                BTRSC    STATUS, Z
000004ca fa23                INCR     0x5c, ToReg
000004cb dee8                MOVIA    0x17
000004cc fba3                SUBAR    0x5c, ToAcc
000004cd f6fc                BTRSS    STATUS, Z
000004ce c32e                LGOTO    0x4d1; main.o:_00544_DS_=0x4d1
000004cf de8e                MOVIA    0x71
000004d0 fba4                SUBAR    0x5b, ToAcc
000004d1                     main.o:_00544_DS_:
000004d1 f7fc                BTRSS    STATUS, C
000004d2 c31f                LGOTO    0x4e0; main.o:_00471_DS_=0x4e0
000004d3 de0b                MOVIA    0xf4
000004d4 e0fc                BCR      STATUS, BK0
000004d5 ff26                MOVAR    0x59
000004d6 defe                MOVIA    0x1
000004d7 ff25                MOVAR    0x5a
000004d8 ff0a                MOVAR    0x75
000004d9 fd24                CLRR     0x5b
000004da fd23                CLRR     0x5c
000004db d041                LCALL    0x7be; _powerOff=0x7be
000004dc c31f                LGOTO    0x4e0; main.o:_00471_DS_=0x4e0
000004dd                     main.o:_00470_DS_:
000004dd e0fc                BCR      STATUS, BK0
000004de fd24                CLRR     0x5b
000004df fd23                CLRR     0x5c
000004e0                     main.o:_00471_DS_:
000004e0 e0fc                BCR      STATUS, BK0
000004e1 fea6                MOVR     0x59, ToAcc
000004e2 eea5                IORAR    0x5a, ToAcc
000004e3 f2fc                BTRSC    STATUS, Z
000004e4 c30d                LGOTO    0x4f2; main.o:_00477_DS_=0x4f2
000004e5 de00                MOVIA    0xff
000004e6 fc26                ADDAR    0x59, ToReg
000004e7 f7fc                BTRSS    STATUS, C
000004e8 f925                DECR     0x5a, ToReg
000004e9 dee1                MOVIA    0x1e
000004ea fba1                SUBAR    0x5e, ToAcc
000004eb f3fc                BTRSC    STATUS, C
000004ec c310                LGOTO    0x4ef; main.o:_00474_DS_=0x4ef
000004ed e77a                BSR      PORTA, PA1
000004ee c30b                LGOTO    0x4f4; main.o:_00478_DS_=0x4f4
000004ef                     main.o:_00474_DS_:
000004ef e0fc                BCR      STATUS, BK0
000004f0 e37a                BCR      PORTA, PA1
000004f1 c30b                LGOTO    0x4f4; main.o:_00478_DS_=0x4f4
000004f2                     main.o:_00477_DS_:
000004f2 e0fc                BCR      STATUS, BK0
000004f3 e37a                BCR      PORTA, PA1
000004f4                     main.o:_00478_DS_:
000004f4 e0fc                BCR      STATUS, BK0
000004f5 e2fa                BCR      PORTA, PA2
000004f6 ffea                IOSTR    IOSTA
000004f7 ff4d                MOVAR    0x32
000004f8 e7cd                BSR      0x32, 0x0
000004f9 fecd                MOVR     0x32, ToAcc
000004fa fffa                IOST     IOSTA
000004fb fd2e                CLRR     0x51
000004fc fd2d                CLRR     0x52
000004fd fe9f                MOVR     0x60, ToAcc
000004fe f6fc                BTRSS    STATUS, Z
000004ff c2fe                LGOTO    0x501; main.o:_00008_DS_=0x501
00000500 fd1e                CLRR     0x61
00000501                     main.o:_00008_DS_:
00000501 e0fc                BCR      STATUS, BK0
00000502 fd0e                CLRR     0x71
00000503 fd2e                CLRR     0x51
00000504 fd2d                CLRR     0x52
00000505                     main.o:_00484_DS_:
00000505 ffef                RET
00000506                     _main:
00000506 d11b                LCALL    0x6e4; _initSys=0x6e4
00000507 d04c                LCALL    0x7b3; _initAD=0x7b3
00000508                     main.o:_00166_DS_:
00000508 fffd                CLRWDT
00000509 d220                LCALL    0x5df; _ledShow=0x5df
0000050a e0fc                BCR      STATUS, BK0
0000050b fe8f                MOVR     0x70, ToAcc
0000050c f2fc                BTRSC    STATUS, Z
0000050d c2f7                LGOTO    0x508; main.o:_00166_DS_=0x508
0000050e fd0f                CLRR     0x70
0000050f fe8e                MOVR     0x71, ToAcc
00000510 f2fc                BTRSC    STATUS, Z
00000511 d495                LCALL    0x36a; _keyCtr=0x36a
00000512 defa                MOVIA    0x5
00000513 e0fc                BCR      STATUS, BK0
00000514 fb9b                SUBAR    0x64, ToAcc
00000515 f3fc                BTRSC    STATUS, C
00000516 c2e6                LGOTO    0x519; main.o:_00143_DS_=0x519
00000517 d7f6                LCALL    0x9; _checkBatAD=0x9
00000518 c2dd                LGOTO    0x522; main.o:_00144_DS_=0x522
00000519                     main.o:_00143_DS_:
00000519 def6                MOVIA    0x9
0000051a e0fc                BCR      STATUS, BK0
0000051b fb9b                SUBAR    0x64, ToAcc
0000051c f7fc                BTRSS    STATUS, C
0000051d c2dd                LGOTO    0x522; main.o:_00144_DS_=0x522
0000051e def4                MOVIA    0xb
0000051f fb9b                SUBAR    0x64, ToAcc
00000520 f7fc                BTRSS    STATUS, C
00000521 d5e0                LCALL    0x21f; _checkOutA=0x21f
00000522                     main.o:_00144_DS_:
00000522 d3b7                LCALL    0x448; _chrgCtr=0x448
00000523 d220                LCALL    0x5df; _ledShow=0x5df
00000524 e0fc                BCR      STATUS, BK0
00000525 fe9f                MOVR     0x60, ToAcc
00000526 f2fc                BTRSC    STATUS, Z
00000527 c2cf                LGOTO    0x530; main.o:_00146_DS_=0x530
00000528 fe96                MOVR     0x69, ToAcc
00000529 fb9d                SUBAR    0x62, ToAcc
0000052a f3fc                BTRSC    STATUS, C
0000052b c2cf                LGOTO    0x530; main.o:_00146_DS_=0x530
0000052c de09                MOVIA    0xf6
0000052d fc16                ADDAR    0x69, ToReg
0000052e fe96                MOVR     0x69, ToAcc
0000052f ffb3                SFUN     PWM2DUTY
00000530                     main.o:_00146_DS_:
00000530 defa                MOVIA    0x5
00000531 e0fc                BCR      STATUS, BK0
00000532 fb98                SUBAR    0x67, ToAcc
00000533 f7fc                BTRSS    STATUS, C
00000534 c2b4                LGOTO    0x54b; main.o:_00151_DS_=0x54b
00000535 fe9f                MOVR     0x60, ToAcc
00000536 f2fc                BTRSC    STATUS, Z
00000537 c2b4                LGOTO    0x54b; main.o:_00151_DS_=0x54b
00000538 fa28                INCR     0x57, ToReg
00000539 f2fc                BTRSC    STATUS, Z
0000053a fa27                INCR     0x58, ToReg
0000053b defe                MOVIA    0x1
0000053c fba7                SUBAR    0x58, ToAcc
0000053d f6fc                BTRSS    STATUS, Z
0000053e c2be                LGOTO    0x541; main.o:_00232_DS_=0x541
0000053f de0a                MOVIA    0xf5
00000540 fba8                SUBAR    0x57, ToAcc
00000541                     main.o:_00232_DS_:
00000541 f7fc                BTRSS    STATUS, C
00000542 c2b1                LGOTO    0x54e; main.o:_00152_DS_=0x54e
00000543 e0fc                BCR      STATUS, BK0
00000544 fd18                CLRR     0x67
00000545 fd28                CLRR     0x57
00000546 fd27                CLRR     0x58
00000547 dee6                MOVIA    0x19
00000548 ff0c                MOVAR    0x73
00000549 d041                LCALL    0x7be; _powerOff=0x7be
0000054a c2b1                LGOTO    0x54e; main.o:_00152_DS_=0x54e
0000054b                     main.o:_00151_DS_:
0000054b e0fc                BCR      STATUS, BK0
0000054c fd28                CLRR     0x57
0000054d fd27                CLRR     0x58
0000054e                     main.o:_00152_DS_:
0000054e e0fc                BCR      STATUS, BK0
0000054f fe9f                MOVR     0x60, ToAcc
00000550 f6fc                BTRSS    STATUS, Z
00000551 c292                LGOTO    0x56d; main.o:_00157_DS_=0x56d
00000552 fea0                MOVR     0x5f, ToAcc
00000553 f6fc                BTRSS    STATUS, Z
00000554 c292                LGOTO    0x56d; main.o:_00157_DS_=0x56d
00000555 f17a                BTRSC    PORTA, PA5
00000556 c292                LGOTO    0x56d; main.o:_00157_DS_=0x56d
00000557 fe97                MOVR     0x68, ToAcc
00000558 f6fc                BTRSS    STATUS, Z
00000559 c292                LGOTO    0x56d; main.o:_00157_DS_=0x56d
0000055a fe8c                MOVR     0x73, ToAcc
0000055b f6fc                BTRSS    STATUS, Z
0000055c c292                LGOTO    0x56d; main.o:_00157_DS_=0x56d
0000055d fea6                MOVR     0x59, ToAcc
0000055e eea5                IORAR    0x5a, ToAcc
0000055f f6fc                BTRSS    STATUS, Z
00000560 c292                LGOTO    0x56d; main.o:_00157_DS_=0x56d
00000561 fa2c                INCR     0x53, ToReg
00000562 f2fc                BTRSC    STATUS, Z
00000563 fa2b                INCR     0x54, ToReg
00000564 deff                MOVIA    0x0
00000565 fbab                SUBAR    0x54, ToAcc
00000566 f6fc                BTRSS    STATUS, Z
00000567 c295                LGOTO    0x56a; main.o:_00233_DS_=0x56a
00000568 dee0                MOVIA    0x1f
00000569 fbac                SUBAR    0x53, ToAcc
0000056a                     main.o:_00233_DS_:
0000056a f7fc                BTRSS    STATUS, C
0000056b c292                LGOTO    0x56d; main.o:_00157_DS_=0x56d
0000056c d1ba                LCALL    0x645; _gotoSleep=0x645
0000056d                     main.o:_00157_DS_:
0000056d defc                MOVIA    0x3
0000056e e0fc                BCR      STATUS, BK0
0000056f fba9                SUBAR    0x56, ToAcc
00000570 f6fc                BTRSS    STATUS, Z
00000571 c28b                LGOTO    0x574; main.o:_00234_DS_=0x574
00000572 de7b                MOVIA    0x84
00000573 fbaa                SUBAR    0x55, ToAcc
00000574                     main.o:_00234_DS_:
00000574 f7fc                BTRSS    STATUS, C
00000575 c2f7                LGOTO    0x508; main.o:_00166_DS_=0x508
00000576 d041                LCALL    0x7be; _powerOff=0x7be
00000577 c2f7                LGOTO    0x508; main.o:_00166_DS_=0x508
00000578 ffef                RET
00000579                     _isr:
00000579 ff3d                MOVAR    0x42
0000057a eafc                SWAPR    STATUS, ToAcc
0000057b fd7c                CLRR     STATUS
0000057c ff3e                MOVAR    0x41
0000057d fef5                MOVR     PCHBUF, ToAcc
0000057e fd75                CLRR     PCHBUF
0000057f ff3f                MOVAR    0x40
00000580 fefb                MOVR     FSR, ToAcc
00000581 e0fc                BCR      STATUS, BK0
00000582 ff33                MOVAR    0x4c
00000583 feba                MOVR     0x45, ToAcc
00000584 ff32                MOVAR    0x4d
00000585 febb                MOVR     0x44, ToAcc
00000586 ff31                MOVAR    0x4e
00000587 f7f0                BTRSS    INTF, T0IF
00000588 c234                LGOTO    0x5cb; main.o:_00128_DS_=0x5cb
00000589 dec8                MOVIA    0x37
0000058a fc7e                ADDAR    TMR0, ToReg
0000058b fa22                INCR     0x5d, ToReg
0000058c de9b                MOVIA    0x64
0000058d fba2                SUBAR    0x5d, ToAcc
0000058e f7fc                BTRSS    STATUS, C
0000058f c234                LGOTO    0x5cb; main.o:_00128_DS_=0x5cb
00000590 defe                MOVIA    0x1
00000591 ff0f                MOVAR    0x70
00000592 fd22                CLRR     0x5d
00000593 fe9f                MOVR     0x60, ToAcc
00000594 f2fc                BTRSC    STATUS, Z
00000595 c266                LGOTO    0x599; main.o:_00106_DS_=0x599
00000596 fa30                INCR     0x4f, ToReg
00000597 f2fc                BTRSC    STATUS, Z
00000598 fa2f                INCR     0x50, ToReg
00000599                     main.o:_00106_DS_:
00000599 e0fc                BCR      STATUS, BK0
0000059a fa21                INCR     0x5e, ToReg
0000059b dec3                MOVIA    0x3c
0000059c fba1                SUBAR    0x5e, ToAcc
0000059d f3fc                BTRSC    STATUS, C
0000059e fd21                CLRR     0x5e
0000059f fa1b                INCR     0x64, ToReg
000005a0 deeb                MOVIA    0x14
000005a1 fb9b                SUBAR    0x64, ToAcc
000005a2 f7fc                BTRSS    STATUS, C
000005a3 c257                LGOTO    0x5a8; main.o:_00112_DS_=0x5a8
000005a4 fd1b                CLRR     0x64
000005a5 fe8c                MOVR     0x73, ToAcc
000005a6 f6fc                BTRSS    STATUS, Z
000005a7 f90c                DECR     0x73, ToReg
000005a8                     main.o:_00112_DS_:
000005a8 e0fc                BCR      STATUS, BK0
000005a9 fa1a                INCR     0x65, ToReg
000005aa de9b                MOVIA    0x64
000005ab fb9a                SUBAR    0x65, ToAcc
000005ac f7fc                BTRSS    STATUS, C
000005ad c234                LGOTO    0x5cb; main.o:_00128_DS_=0x5cb
000005ae fd1a                CLRR     0x65
000005af fe8e                MOVR     0x71, ToAcc
000005b0 dbfe                XORIA    0x1
000005b1 f6fc                BTRSS    STATUS, Z
000005b2 c245                LGOTO    0x5ba; main.o:_00114_DS_=0x5ba
000005b3 fe9c                MOVR     0x63, ToAcc
000005b4 dbf7                XORIA    0x8
000005b5 f6fc                BTRSS    STATUS, Z
000005b6 c245                LGOTO    0x5ba; main.o:_00114_DS_=0x5ba
000005b7 fa2e                INCR     0x51, ToReg
000005b8 f2fc                BTRSC    STATUS, Z
000005b9 fa2d                INCR     0x52, ToReg
000005ba                     main.o:_00114_DS_:
000005ba e0fc                BCR      STATUS, BK0
000005bb fe97                MOVR     0x68, ToAcc
000005bc f6fc                BTRSS    STATUS, Z
000005bd f917                DECR     0x68, ToReg
000005be fe94                MOVR     0x6b, ToAcc
000005bf f6fc                BTRSS    STATUS, Z
000005c0 f914                DECR     0x6b, ToReg
000005c1 fe9f                MOVR     0x60, ToAcc
000005c2 f2fc                BTRSC    STATUS, Z
000005c3 c237                LGOTO    0x5c8; main.o:_00121_DS_=0x5c8
000005c4 fa2a                INCR     0x55, ToReg
000005c5 f2fc                BTRSC    STATUS, Z
000005c6 fa29                INCR     0x56, ToReg
000005c7 c234                LGOTO    0x5cb; main.o:_00128_DS_=0x5cb
000005c8                     main.o:_00121_DS_:
000005c8 e0fc                BCR      STATUS, BK0
000005c9 fd2a                CLRR     0x55
000005ca fd29                CLRR     0x56
000005cb                     main.o:_00128_DS_:
000005cb f770                BTRSS    INTF, PABIF
000005cc c230                LGOTO    0x5cf; main.o:_00130_DS_=0x5cf
000005cd de02                MOVIA    0xfd
000005ce ff70                MOVAR    INTF
000005cf                     main.o:_00130_DS_:
000005cf fd70                CLRR     INTF
000005d0 e0fc                BCR      STATUS, BK0
000005d1 feb1                MOVR     0x4e, ToAcc
000005d2 ff3b                MOVAR    0x44
000005d3 feb2                MOVR     0x4d, ToAcc
000005d4 ff3a                MOVAR    0x45
000005d5 feb3                MOVR     0x4c, ToAcc
000005d6 ff7b                MOVAR    FSR
000005d7 febf                MOVR     0x40, ToAcc
000005d8 ff75                MOVAR    PCHBUF
000005d9 fd7c                CLRR     STATUS
000005da eabe                SWAPR    0x41, ToAcc
000005db ff7c                MOVAR    STATUS
000005dc ea3d                SWAPR    0x42, ToReg
000005dd eabd                SWAPR    0x42, ToAcc
000005de                     main.o:END_OF_INTERRUPT:
000005de ffee                RETIE
000005df                     _ledShow:
000005df e0fc                BCR      STATUS, BK0
000005e0 fe8c                MOVR     0x73, ToAcc
000005e1 f2fc                BTRSC    STATUS, Z
000005e2 c212                LGOTO    0x5ed; main.o:_00325_DS_=0x5ed
000005e3 fe9f                MOVR     0x60, ToAcc
000005e4 f6fc                BTRSS    STATUS, Z
000005e5 c212                LGOTO    0x5ed; main.o:_00325_DS_=0x5ed
000005e6 f38c                BTRSC    0x73, 0x0
000005e7 c215                LGOTO    0x5ea; main.o:_00322_DS_=0x5ea
000005e8 fd1e                CLRR     0x61
000005e9 c212                LGOTO    0x5ed; main.o:_00325_DS_=0x5ed
000005ea                     main.o:_00322_DS_:
000005ea e0fc                BCR      STATUS, BK0
000005eb fe8d                MOVR     0x72, ToAcc
000005ec ff1e                MOVAR    0x61
000005ed                     main.o:_00325_DS_:
000005ed e0fc                BCR      STATUS, BK0
000005ee fe97                MOVR     0x68, ToAcc
000005ef f2fc                BTRSC    STATUS, Z
000005f0 c209                LGOTO    0x5f6; main.o:_00328_DS_=0x5f6
000005f1 fe9c                MOVR     0x63, ToAcc
000005f2 f2fc                BTRSC    STATUS, Z
000005f3 c209                LGOTO    0x5f6; main.o:_00328_DS_=0x5f6
000005f4 fe8d                MOVR     0x72, ToAcc
000005f5 ff1e                MOVAR    0x61
000005f6                     main.o:_00328_DS_:
000005f6 d075                LCALL    0x78a; _LedInput=0x78a
000005f7 def6                MOVIA    0x9
000005f8 e0fc                BCR      STATUS, BK0
000005f9 fb9e                SUBAR    0x61, ToAcc
000005fa f3fc                BTRSC    STATUS, C
000005fb c1e9                LGOTO    0x616; main.o:_00340_DS_=0x616
000005fc def9                MOVIA    0x6
000005fd ff75                MOVAR    PCHBUF
000005fe fe9e                MOVR     0x61, ToAcc
000005ff dafc                ADDIA    0x3
00000600 f3fc                BTRSC    STATUS, C
00000601 fa75                INCR     PCHBUF, ToReg
00000602 ff7d                MOVAR    PCL
00000603                     main.o:_00361_DS_:
00000603 c1f3                LGOTO    0x60c; main.o:_00330_DS_=0x60c
00000604 c1ea                LGOTO    0x615; main.o:_00338_DS_=0x615
00000605 c1eb                LGOTO    0x614; main.o:_00337_DS_=0x614
00000606 c1ec                LGOTO    0x613; main.o:_00336_DS_=0x613
00000607 c1ed                LGOTO    0x612; main.o:_00335_DS_=0x612
00000608 c1ee                LGOTO    0x611; main.o:_00334_DS_=0x611
00000609 c1ef                LGOTO    0x610; main.o:_00333_DS_=0x610
0000060a c1f0                LGOTO    0x60f; main.o:_00332_DS_=0x60f
0000060b c1f1                LGOTO    0x60e; main.o:_00331_DS_=0x60e
0000060c                     main.o:_00330_DS_:
0000060c d075                LCALL    0x78a; _LedInput=0x78a
0000060d c1e9                LGOTO    0x616; main.o:_00340_DS_=0x616
0000060e                     main.o:_00331_DS_:
0000060e d0fd                LCALL    0x702; _LED8ON=0x702
0000060f                     main.o:_00332_DS_:
0000060f d0ec                LCALL    0x713; _LED7ON=0x713
00000610                     main.o:_00333_DS_:
00000610 d0db                LCALL    0x724; _LED6ON=0x724
00000611                     main.o:_00334_DS_:
00000611 d0ca                LCALL    0x735; _LED5ON=0x735
00000612                     main.o:_00335_DS_:
00000612 d0b9                LCALL    0x746; _LED4ON=0x746
00000613                     main.o:_00336_DS_:
00000613 d0a8                LCALL    0x757; _LED3ON=0x757
00000614                     main.o:_00337_DS_:
00000614 d097                LCALL    0x768; _LED2ON=0x768
00000615                     main.o:_00338_DS_:
00000615 d086                LCALL    0x779; _LED1ON=0x779
00000616                     main.o:_00340_DS_:
00000616 ffef                RET
00000617                     ___cinit_load__:
00000617 e0fc                BCR      STATUS, BK0
00000618 fd22                CLRR     0x5d
00000619 fd21                CLRR     0x5e
0000061a fd20                CLRR     0x5f
0000061b fd1f                CLRR     0x60
0000061c fd1e                CLRR     0x61
0000061d fd30                CLRR     0x4f
0000061e fd2f                CLRR     0x50
0000061f fd1d                CLRR     0x62
00000620 fd1c                CLRR     0x63
00000621 fd2e                CLRR     0x51
00000622 fd2d                CLRR     0x52
00000623 fd2c                CLRR     0x53
00000624 fd2b                CLRR     0x54
00000625 fd1b                CLRR     0x64
00000626 fd1a                CLRR     0x65
00000627 fd2a                CLRR     0x55
00000628 fd29                CLRR     0x56
00000629 fd19                CLRR     0x66
0000062a fd18                CLRR     0x67
0000062b fd17                CLRR     0x68
0000062c fd16                CLRR     0x69
0000062d fd15                CLRR     0x6a
0000062e fd14                CLRR     0x6b
0000062f fd13                CLRR     0x6c
00000630 fd12                CLRR     0x6d
00000631 fd11                CLRR     0x6e
00000632 fd10                CLRR     0x6f
00000633 fd0f                CLRR     0x70
00000634 fd0e                CLRR     0x71
00000635 fd0d                CLRR     0x72
00000636 fd28                CLRR     0x57
00000637 fd27                CLRR     0x58
00000638 fd0c                CLRR     0x73
00000639 fd0b                CLRR     0x74
0000063a fd26                CLRR     0x59
0000063b fd25                CLRR     0x5a
0000063c fd24                CLRR     0x5b
0000063d fd23                CLRR     0x5c
0000063e fd0a                CLRR     0x75
0000063f fd09                CLRR     0x76
00000640 fd08                CLRR     0x77
00000641 fd07                CLRR     0x78
00000642 fd06                CLRR     0x79
00000643 fd05                CLRR     0x7a
00000644 ffef                RET
00000645                     _gotoSleep:
00000645 e0fc                BCR      STATUS, BK0
00000646 fd2a                CLRR     0x55
00000647 fd29                CLRR     0x56
00000648 d075                LCALL    0x78a; _LedInput=0x78a
00000649 d03b                LCALL    0x7c4; _pwmStop=0x7c4
0000064a de9f                MOVIA    0x60
0000064b fffa                IOST     IOSTA
0000064c fdff                CLRA
0000064d fff9                IOST     IOSTB
0000064e de60                MOVIA    0x9f
0000064f fff6                IOST     APHCON
00000650 fd79                CLRR     PORTB
00000651 e0fc                BCR      STATUS, BK0
00000652 fd7a                CLRR     PORTA
00000653 fd2c                CLRR     0x53
00000654 fd2b                CLRR     0x54
00000655 fd1f                CLRR     0x60
00000656 de9f                MOVIA    0x60
00000657 ff6a                MOVAR    AWUCON
00000658 defd                MOVIA    0x2
00000659 ff71                MOVAR    INTE
0000065a dee7                MOVIA    0x18
0000065b ff77                MOVAR    PCON
0000065c fd70                CLRR     INTF
0000065d fffd                CLRWDT
0000065e fffb                ENI
0000065f fffe                SLEEP
00000660 fd6a                CLRR     AWUCON
00000661 de40                MOVIA    0xbf
00000662 fff6                IOST     APHCON
00000663 fd79                CLRR     PORTB
00000664 debf                MOVIA    0x40
00000665 ff7a                MOVAR    PORTA
00000666 de87                MOVIA    0x78
00000667 fffa                IOST     IOSTA
00000668 defe                MOVIA    0x1
00000669 ff71                MOVAR    INTE
0000066a fd70                CLRR     INTF
0000066b de47                MOVIA    0xb8
0000066c ff77                MOVAR    PCON
0000066d ffef                RET
0000066e                     _keyRead:
0000066e e0fc                BCR      STATUS, BK0
0000066f ff4e                MOVAR    0x31
00000670 fece                MOVR     0x31, ToAcc
00000671 f2fc                BTRSC    STATUS, Z
00000672 c17e                LGOTO    0x681; main.o:_00438_DS_=0x681
00000673 fa20                INCR     0x5f, ToReg
00000674 de9b                MOVIA    0x64
00000675 fba0                SUBAR    0x5f, ToAcc
00000676 f7fc                BTRSS    STATUS, C
00000677 c16b                LGOTO    0x694; main.o:_00439_DS_=0x694
00000678 de9b                MOVIA    0x64
00000679 ff20                MOVAR    0x5f
0000067a fe90                MOVR     0x6f, ToAcc
0000067b f6fc                BTRSS    STATUS, Z
0000067c c16b                LGOTO    0x694; main.o:_00439_DS_=0x694
0000067d defe                MOVIA    0x1
0000067e ff10                MOVAR    0x6f
0000067f defd                MOVIA    0x2
00000680 c16a                LGOTO    0x695; main.o:_00440_DS_=0x695
00000681                     main.o:_00438_DS_:
00000681 de9b                MOVIA    0x64
00000682 e0fc                BCR      STATUS, BK0
00000683 fba0                SUBAR    0x5f, ToAcc
00000684 f7fc                BTRSS    STATUS, C
00000685 c175                LGOTO    0x68a; main.o:_00435_DS_=0x68a
00000686 fd20                CLRR     0x5f
00000687 fd10                CLRR     0x6f
00000688 deff                MOVIA    0x0
00000689 c16a                LGOTO    0x695; main.o:_00440_DS_=0x695
0000068a                     main.o:_00435_DS_:
0000068a defb                MOVIA    0x4
0000068b e0fc                BCR      STATUS, BK0
0000068c fba0                SUBAR    0x5f, ToAcc
0000068d f7fc                BTRSS    STATUS, C
0000068e c16d                LGOTO    0x692; main.o:_00436_DS_=0x692
0000068f fd20                CLRR     0x5f
00000690 defe                MOVIA    0x1
00000691 c16a                LGOTO    0x695; main.o:_00440_DS_=0x695
00000692                     main.o:_00436_DS_:
00000692 e0fc                BCR      STATUS, BK0
00000693 fd20                CLRR     0x5f
00000694                     main.o:_00439_DS_:
00000694 deff                MOVIA    0x0
00000695                     main.o:_00440_DS_:
00000695 ffef                RET
00000696                     _F_AIN3_Convert:
00000696 e0fc                BCR      STATUS, BK0
00000697 ff37                MOVAR    0x48
00000698 fd5a                CLRR     0x25
00000699 fd5d                CLRR     0x22
0000069a fd5c                CLRR     0x23
0000069b de6c                MOVIA    0x93
0000069c ff6f                MOVAR    ADMD
0000069d de37                MOVIA    0xc8
0000069e d058                LCALL    0x7a7; _delay=0x7a7
0000069f defe                MOVIA    0x1
000006a0 e0fc                BCR      STATUS, BK0
000006a1 ff36                MOVAR    0x49
000006a2                     main.o:_01093_DS_:
000006a2 e0fc                BCR      STATUS, BK0
000006a3 feb6                MOVR     0x49, ToAcc
000006a4 fbb7                SUBAR    0x48, ToAcc
000006a5 f7fc                BTRSS    STATUS, C
000006a6 c143                LGOTO    0x6bc; main.o:_01095_DS_=0x6bc
000006a7 e4ef                BSR      ADMD, START
000006a8 d7fc                LCALL    0x3; _F_wait_eoc=0x3
000006a9 def0                MOVIA    0xf
000006aa efee                ANDAR    ADR, ToAcc
000006ab e0fc                BCR      STATUS, BK0
000006ac fc5a                ADDAR    0x25, ToReg
000006ad feed                MOVR     ADD, ToAcc
000006ae ff35                MOVAR    0x4a
000006af deff                MOVIA    0x0
000006b0 ff34                MOVAR    0x4b
000006b1 feb5                MOVR     0x4a, ToAcc
000006b2 fc5d                ADDAR    0x22, ToReg
000006b3 feb4                MOVR     0x4b, ToAcc
000006b4 f3fc                BTRSC    STATUS, C
000006b5 fab4                INCR     0x4b, ToAcc
000006b6 f2fc                BTRSC    STATUS, Z
000006b7 c146                LGOTO    0x6b9; main.o:_00002_DS_=0x6b9
000006b8 fc5c                ADDAR    0x23, ToReg
000006b9                     main.o:_00002_DS_:
000006b9 e0fc                BCR      STATUS, BK0
000006ba fa36                INCR     0x49, ToReg
000006bb c15d                LGOTO    0x6a2; main.o:_01093_DS_=0x6a2
000006bc                     main.o:_01095_DS_:
000006bc ffef                RET
000006bd                     _F_AIN4_Convert:
000006bd e0fc                BCR      STATUS, BK0
000006be ff41                MOVAR    0x3e
000006bf fd5b                CLRR     0x24
000006c0 fd5f                CLRR     0x20
000006c1 fd5e                CLRR     0x21
000006c2 de6b                MOVIA    0x94
000006c3 ff6f                MOVAR    ADMD
000006c4 de37                MOVIA    0xc8
000006c5 d058                LCALL    0x7a7; _delay=0x7a7
000006c6 defe                MOVIA    0x1
000006c7 e0fc                BCR      STATUS, BK0
000006c8 ff40                MOVAR    0x3f
000006c9                     main.o:_01084_DS_:
000006c9 e0fc                BCR      STATUS, BK0
000006ca fec0                MOVR     0x3f, ToAcc
000006cb fbc1                SUBAR    0x3e, ToAcc
000006cc f7fc                BTRSS    STATUS, C
000006cd c11c                LGOTO    0x6e3; main.o:_01086_DS_=0x6e3
000006ce e4ef                BSR      ADMD, START
000006cf d7fc                LCALL    0x3; _F_wait_eoc=0x3
000006d0 def0                MOVIA    0xf
000006d1 efee                ANDAR    ADR, ToAcc
000006d2 e0fc                BCR      STATUS, BK0
000006d3 fc5b                ADDAR    0x24, ToReg
000006d4 feed                MOVR     ADD, ToAcc
000006d5 ff39                MOVAR    0x46
000006d6 deff                MOVIA    0x0
000006d7 ff38                MOVAR    0x47
000006d8 feb9                MOVR     0x46, ToAcc
000006d9 fc5f                ADDAR    0x20, ToReg
000006da feb8                MOVR     0x47, ToAcc
000006db f3fc                BTRSC    STATUS, C
000006dc fab8                INCR     0x47, ToAcc
000006dd f2fc                BTRSC    STATUS, Z
000006de c11f                LGOTO    0x6e0; main.o:_00003_DS_=0x6e0
000006df fc5e                ADDAR    0x21, ToReg
000006e0                     main.o:_00003_DS_:
000006e0 e0fc                BCR      STATUS, BK0
000006e1 fa40                INCR     0x3f, ToReg
000006e2 c136                LGOTO    0x6c9; main.o:_01084_DS_=0x6c9
000006e3                     main.o:_01086_DS_:
000006e3 ffef                RET
000006e4                     _initSys:
000006e4 ffec                DISI
000006e5 de87                MOVIA    0x78
000006e6 fffa                IOST     IOSTA
000006e7 fdff                CLRA
000006e8 fff9                IOST     IOSTB
000006e9 fd79                CLRR     PORTB
000006ea e0fc                BCR      STATUS, BK0
000006eb fd7a                CLRR     PORTA
000006ec d075                LCALL    0x78a; _LedInput=0x78a
000006ed de40                MOVIA    0xbf
000006ee fff6                IOST     APHCON
000006ef de00                MOVIA    0xff
000006f0 ff73                MOVAR    BPHCON
000006f1 ff74                MOVAR    ABPLCON
000006f2 defe                MOVIA    0x1
000006f3 ff71                MOVAR    INTE
000006f4 fdff                CLRA
000006f5 fff0                IOST     PCON1
000006f6 dec8                MOVIA    0x37
000006f7 ff7e                MOVAR    TMR0
000006f8 fdff                CLRA
000006f9 fffc                T0MD
000006fa defe                MOVIA    0x1
000006fb fff0                IOST     PCON1
000006fc de67                MOVIA    0x98
000006fd ff77                MOVAR    PCON
000006fe defe                MOVIA    0x1
000006ff fff0                IOST     PCON1
00000700 fffb                ENI
00000701 ffef                RET
00000702                     _LED8ON:
00000702 ffe9                IOSTR    IOSTB
00000703 e0fc                BCR      STATUS, BK0
00000704 ff50                MOVAR    0x2f
00000705 e3d0                BCR      0x2f, 0x0
00000706 fed0                MOVR     0x2f, ToAcc
00000707 fff9                IOST     IOSTB
00000708 ffe9                IOSTR    IOSTB
00000709 ff50                MOVAR    0x2f
0000070a e250                BCR      0x2f, 0x3
0000070b fed0                MOVR     0x2f, ToAcc
0000070c fff9                IOST     IOSTB
0000070d e7f9                BSR      PORTB, PB0
0000070e e279                BCR      PORTB, PB3
0000070f deaf                MOVIA    0x50
00000710 d058                LCALL    0x7a7; _delay=0x7a7
00000711 d075                LCALL    0x78a; _LedInput=0x78a
00000712 ffef                RET
00000713                     _LED7ON:
00000713 ffe9                IOSTR    IOSTB
00000714 e0fc                BCR      STATUS, BK0
00000715 ff51                MOVAR    0x2e
00000716 e3d1                BCR      0x2e, 0x0
00000717 fed1                MOVR     0x2e, ToAcc
00000718 fff9                IOST     IOSTB
00000719 ffe9                IOSTR    IOSTB
0000071a ff51                MOVAR    0x2e
0000071b e251                BCR      0x2e, 0x3
0000071c fed1                MOVR     0x2e, ToAcc
0000071d fff9                IOST     IOSTB
0000071e e679                BSR      PORTB, PB3
0000071f e3f9                BCR      PORTB, PB0
00000720 deaf                MOVIA    0x50
00000721 d058                LCALL    0x7a7; _delay=0x7a7
00000722 d075                LCALL    0x78a; _LedInput=0x78a
00000723 ffef                RET
00000724                     _LED6ON:
00000724 ffe9                IOSTR    IOSTB
00000725 e0fc                BCR      STATUS, BK0
00000726 ff52                MOVAR    0x2d
00000727 e3d2                BCR      0x2d, 0x0
00000728 fed2                MOVR     0x2d, ToAcc
00000729 fff9                IOST     IOSTB
0000072a ffea                IOSTR    IOSTA
0000072b ff52                MOVAR    0x2d
0000072c e052                BCR      0x2d, 0x7
0000072d fed2                MOVR     0x2d, ToAcc
0000072e fffa                IOST     IOSTA
0000072f e47a                BSR      PORTA, PA7
00000730 e3f9                BCR      PORTB, PB0
00000731 deaf                MOVIA    0x50
00000732 d058                LCALL    0x7a7; _delay=0x7a7
00000733 d075                LCALL    0x78a; _LedInput=0x78a
00000734 ffef                RET
00000735                     _LED5ON:
00000735 ffe9                IOSTR    IOSTB
00000736 e0fc                BCR      STATUS, BK0
00000737 ff53                MOVAR    0x2c
00000738 e3d3                BCR      0x2c, 0x0
00000739 fed3                MOVR     0x2c, ToAcc
0000073a fff9                IOST     IOSTB
0000073b ffea                IOSTR    IOSTA
0000073c ff53                MOVAR    0x2c
0000073d e053                BCR      0x2c, 0x7
0000073e fed3                MOVR     0x2c, ToAcc
0000073f fffa                IOST     IOSTA
00000740 e7f9                BSR      PORTB, PB0
00000741 e07a                BCR      PORTA, PA7
00000742 deaf                MOVIA    0x50
00000743 d058                LCALL    0x7a7; _delay=0x7a7
00000744 d075                LCALL    0x78a; _LedInput=0x78a
00000745 ffef                RET
00000746                     _LED4ON:
00000746 ffe9                IOSTR    IOSTB
00000747 e0fc                BCR      STATUS, BK0
00000748 ff54                MOVAR    0x2b
00000749 e354                BCR      0x2b, 0x1
0000074a fed4                MOVR     0x2b, ToAcc
0000074b fff9                IOST     IOSTB
0000074c ffe9                IOSTR    IOSTB
0000074d ff54                MOVAR    0x2b
0000074e e254                BCR      0x2b, 0x3
0000074f fed4                MOVR     0x2b, ToAcc
00000750 fff9                IOST     IOSTB
00000751 e779                BSR      PORTB, PB1
00000752 e279                BCR      PORTB, PB3
00000753 deaf                MOVIA    0x50
00000754 d058                LCALL    0x7a7; _delay=0x7a7
00000755 d075                LCALL    0x78a; _LedInput=0x78a
00000756 ffef                RET
00000757                     _LED3ON:
00000757 ffe9                IOSTR    IOSTB
00000758 e0fc                BCR      STATUS, BK0
00000759 ff55                MOVAR    0x2a
0000075a e355                BCR      0x2a, 0x1
0000075b fed5                MOVR     0x2a, ToAcc
0000075c fff9                IOST     IOSTB
0000075d ffe9                IOSTR    IOSTB
0000075e ff55                MOVAR    0x2a
0000075f e255                BCR      0x2a, 0x3
00000760 fed5                MOVR     0x2a, ToAcc
00000761 fff9                IOST     IOSTB
00000762 e679                BSR      PORTB, PB3
00000763 e379                BCR      PORTB, PB1
00000764 deaf                MOVIA    0x50
00000765 d058                LCALL    0x7a7; _delay=0x7a7
00000766 d075                LCALL    0x78a; _LedInput=0x78a
00000767 ffef                RET
00000768                     _LED2ON:
00000768 ffea                IOSTR    IOSTA
00000769 e0fc                BCR      STATUS, BK0
0000076a ff56                MOVAR    0x29
0000076b e056                BCR      0x29, 0x7
0000076c fed6                MOVR     0x29, ToAcc
0000076d fffa                IOST     IOSTA
0000076e ffe9                IOSTR    IOSTB
0000076f ff56                MOVAR    0x29
00000770 e356                BCR      0x29, 0x1
00000771 fed6                MOVR     0x29, ToAcc
00000772 fff9                IOST     IOSTB
00000773 e779                BSR      PORTB, PB1
00000774 e07a                BCR      PORTA, PA7
00000775 deaf                MOVIA    0x50
00000776 d058                LCALL    0x7a7; _delay=0x7a7
00000777 d075                LCALL    0x78a; _LedInput=0x78a
00000778 ffef                RET
00000779                     _LED1ON:
00000779 ffe9                IOSTR    IOSTB
0000077a e0fc                BCR      STATUS, BK0
0000077b ff57                MOVAR    0x28
0000077c e357                BCR      0x28, 0x1
0000077d fed7                MOVR     0x28, ToAcc
0000077e fff9                IOST     IOSTB
0000077f ffea                IOSTR    IOSTA
00000780 ff57                MOVAR    0x28
00000781 e057                BCR      0x28, 0x7
00000782 fed7                MOVR     0x28, ToAcc
00000783 fffa                IOST     IOSTA
00000784 e47a                BSR      PORTA, PA7
00000785 e379                BCR      PORTB, PB1
00000786 deaf                MOVIA    0x50
00000787 d058                LCALL    0x7a7; _delay=0x7a7
00000788 d075                LCALL    0x78a; _LedInput=0x78a
00000789 ffef                RET
0000078a                     _LedInput:
0000078a ffea                IOSTR    IOSTA
0000078b e0fc                BCR      STATUS, BK0
0000078c ff58                MOVAR    0x27
0000078d e458                BSR      0x27, 0x7
0000078e fed8                MOVR     0x27, ToAcc
0000078f fffa                IOST     IOSTA
00000790 ffe9                IOSTR    IOSTB
00000791 ff58                MOVAR    0x27
00000792 def4                MOVIA    0xb
00000793 ee58                IORAR    0x27, ToReg
00000794 fed8                MOVR     0x27, ToAcc
00000795 fff9                IOST     IOSTB
00000796 e07a                BCR      PORTA, PA7
00000797 de0b                MOVIA    0xf4
00000798 ef79                ANDAR    PORTB, ToReg
00000799 ffef                RET
0000079a                     _pwmInit:
0000079a ff95                SFUNR    T2CR1
0000079b e0fc                BCR      STATUS, BK0
0000079c ff4f                MOVAR    0x30
0000079d f04f                BTRSC    0x30, 0x7
0000079e c059                LGOTO    0x7a6; main.o:_00415_DS_=0x7a6
0000079f fd66                CLRR     TMRH
000007a0 de9c                MOVIA    0x63
000007a1 ffb6                SFUN     TMR2
000007a2 fdff                CLRA
000007a3 ffb4                SFUN     T2CR2
000007a4 de7c                MOVIA    0x83
000007a5 ffb5                SFUN     T2CR1
000007a6                     main.o:_00415_DS_:
000007a6 ffef                RET
000007a7                     _delay:
000007a7 e0fc                BCR      STATUS, BK0
000007a8 ff49                MOVAR    0x36
000007a9 fd48                CLRR     0x37
000007aa                     main.o:_00551_DS_:
000007aa e0fc                BCR      STATUS, BK0
000007ab fec9                MOVR     0x36, ToAcc
000007ac fbc8                SUBAR    0x37, ToAcc
000007ad f3fc                BTRSC    STATUS, C
000007ae c04d                LGOTO    0x7b2; main.o:_00553_DS_=0x7b2
000007af ffff                NOP
000007b0 fa48                INCR     0x37, ToReg
000007b1 c055                LGOTO    0x7aa; main.o:_00551_DS_=0x7aa
000007b2                     main.o:_00553_DS_:
000007b2 ffef                RET
000007b3                     _initAD:
000007b3 de7b                MOVIA    0x84
000007b4 ff6f                MOVAR    ADMD
000007b5 fd6c                CLRR     ADVREFH
000007b6 deef                MOVIA    0x10
000007b7 ff6e                MOVAR    ADR
000007b8 defc                MOVIA    0x3
000007b9 ff6b                MOVAR    ADCR
000007ba e5ef                BSR      ADMD, GCHS
000007bb de9b                MOVIA    0x64
000007bc d058                LCALL    0x7a7; _delay=0x7a7
000007bd ffef                RET
000007be                     _powerOff:
000007be e0fc                BCR      STATUS, BK0
000007bf fd1f                CLRR     0x60
000007c0 d03b                LCALL    0x7c4; _pwmStop=0x7c4
000007c1 e0fc                BCR      STATUS, BK0
000007c2 fd1e                CLRR     0x61
000007c3 ffef                RET
000007c4                     _pwmStop:
000007c4 fdff                CLRA
000007c5 ffb5                SFUN     T2CR1
000007c6 ffef                RET

