00000000 c7fe                LGOTO    0x1; __nyc_ny8_startup=0x1
00000001                     __nyc_ny8_startup:
00000001 d1ec                LCALL    0x613; ___cinit_load__=0x613
00000002 c5ea                LGOTO    0x215; _main=0x215
00000003                     _pwm1Stop:
00000003 fdff                CLRA
00000004 ffbe                SFUN     T1CR1
00000005 e279                BCR      PORTB, PB3
00000006 ffef                RET
00000008 c301                LGOTO    0x4fe; _isr=0x4fe
00000009                     _checkBatAD:
00000009 e4fc                BSR      STATUS, BK0
0000000a fd5c                CLRR     0x23
0000000b e0fc                BCR      STATUS, BK0
0000000c fd11                CLRR     0x6e
0000000d fd10                CLRR     0x6f
0000000e def7                MOVIA    0x8
0000000f d100                LCALL    0x6ff; _F_AIN0_Convert=0x6ff
00000010 e0fc                BCR      STATUS, BK0
00000011 ea90                SWAPR    0x6f, ToAcc
00000012 dd0f                ANDIA    0xf0
00000013 ff10                MOVAR    0x6f
00000014 ea91                SWAPR    0x6e, ToAcc
00000015 ff11                MOVAR    0x6e
00000016 ddf0                ANDIA    0xf
00000017 ee10                IORAR    0x6f, ToReg
00000018 ed11                XORAR    0x6e, ToReg
00000019 de0f                MOVIA    0xf0
0000001a e4fc                BSR      STATUS, BK0
0000001b ef5c                ANDAR    0x23, ToReg
0000001c fedc                MOVR     0x23, ToAcc
0000001d e0fc                BCR      STATUS, BK0
0000001e ff49                MOVAR    0x36
0000001f fd48                CLRR     0x37
00000020 deff                MOVIA    0x0
00000021 ff47                MOVAR    0x38
00000022 fec9                MOVR     0x36, ToAcc
00000023 fc11                ADDAR    0x6e, ToReg
00000024 fec7                MOVR     0x38, ToAcc
00000025 f3fc                BTRSC    STATUS, C
00000026 fac7                INCR     0x38, ToAcc
00000027 f2fc                BTRSC    STATUS, Z
00000028 c7d5                LGOTO    0x2a; main.o:_00004_DS_=0x2a
00000029 fc10                ADDAR    0x6f, ToReg
0000002a                     main.o:_00004_DS_:
0000002a e3fc                BCR      STATUS, C
0000002b e0fc                BCR      STATUS, BK0
0000002c ec10                RRR      0x6f, ToReg
0000002d ec11                RRR      0x6e, ToReg
0000002e e3fc                BCR      STATUS, C
0000002f ec10                RRR      0x6f, ToReg
00000030 ec11                RRR      0x6e, ToReg
00000031 e3fc                BCR      STATUS, C
00000032 ec10                RRR      0x6f, ToReg
00000033 ec11                RRR      0x6e, ToReg
00000034 def9                MOVIA    0x6
00000035 fb90                SUBAR    0x6f, ToAcc
00000036 f6fc                BTRSS    STATUS, Z
00000037 c7c5                LGOTO    0x3a; main.o:_00568_DS_=0x3a
00000038 deec                MOVIA    0x13
00000039 fb91                SUBAR    0x6e, ToAcc
0000003a                     main.o:_00568_DS_:
0000003a f3fc                BTRSC    STATUS, C
0000003b c7c1                LGOTO    0x3e; main.o:_00406_DS_=0x3e
0000003c e4fc                BSR      STATUS, BK0
0000003d fd4d                CLRR     0x32
0000003e                     main.o:_00406_DS_:
0000003e def9                MOVIA    0x6
0000003f e0fc                BCR      STATUS, BK0
00000040 fb90                SUBAR    0x6f, ToAcc
00000041 f6fc                BTRSS    STATUS, Z
00000042 c7ba                LGOTO    0x45; main.o:_00569_DS_=0x45
00000043 dee3                MOVIA    0x1c
00000044 fb91                SUBAR    0x6e, ToAcc
00000045                     main.o:_00569_DS_:
00000045 f3fc                BTRSC    STATUS, C
00000046 c7b4                LGOTO    0x4b; main.o:_00440_DS_=0x4b
00000047 e4fc                BSR      STATUS, BK0
00000048 fecd                MOVR     0x32, ToAcc
00000049 f2fc                BTRSC    STATUS, Z
0000004a c7a9                LGOTO    0x56; main.o:_00441_DS_=0x56
0000004b                     main.o:_00440_DS_:
0000004b dee3                MOVIA    0x1c
0000004c e0fc                BCR      STATUS, BK0
0000004d ff11                MOVAR    0x6e
0000004e def9                MOVIA    0x6
0000004f ff10                MOVAR    0x6f
00000050 de9b                MOVIA    0x64
00000051 e4fc                BSR      STATUS, BK0
00000052 ff57                MOVAR    0x28
00000053 defe                MOVIA    0x1
00000054 ff4d                MOVAR    0x32
00000055 c67d                LGOTO    0x182; main.o:_00442_DS_=0x182
00000056                     main.o:_00441_DS_:
00000056 defa                MOVIA    0x5
00000057 e0fc                BCR      STATUS, BK0
00000058 fb90                SUBAR    0x6f, ToAcc
00000059 f6fc                BTRSS    STATUS, Z
0000005a c7a2                LGOTO    0x5d; main.o:_00570_DS_=0x5d
0000005b de17                MOVIA    0xe8
0000005c fb91                SUBAR    0x6e, ToAcc
0000005d                     main.o:_00570_DS_:
0000005d f7fc                BTRSS    STATUS, C
0000005e c793                LGOTO    0x6c; main.o:_00438_DS_=0x6c
0000005f deca                MOVIA    0x35
00000060 ff39                MOVAR    0x46
00000061 de18                MOVIA    0xe7
00000062 ff38                MOVAR    0x47
00000063 defa                MOVIA    0x5
00000064 d21c                LCALL    0x5e3; _getbatGe=0x5e3
00000065 e0fc                BCR      STATUS, BK0
00000066 ff49                MOVAR    0x36
00000067 dea5                MOVIA    0x5a
00000068 fcc9                ADDAR    0x36, ToAcc
00000069 e4fc                BSR      STATUS, BK0
0000006a ff57                MOVAR    0x28
0000006b c67d                LGOTO    0x182; main.o:_00442_DS_=0x182
0000006c                     main.o:_00438_DS_:
0000006c defa                MOVIA    0x5
0000006d e0fc                BCR      STATUS, BK0
0000006e fb90                SUBAR    0x6f, ToAcc
0000006f f6fc                BTRSS    STATUS, Z
00000070 c78c                LGOTO    0x73; main.o:_00571_DS_=0x73
00000071 de34                MOVIA    0xcb
00000072 fb91                SUBAR    0x6e, ToAcc
00000073                     main.o:_00571_DS_:
00000073 f7fc                BTRSS    STATUS, C
00000074 c77d                LGOTO    0x82; main.o:_00435_DS_=0x82
00000075 dee2                MOVIA    0x1d
00000076 ff39                MOVAR    0x46
00000077 de35                MOVIA    0xca
00000078 ff38                MOVAR    0x47
00000079 defa                MOVIA    0x5
0000007a d21c                LCALL    0x5e3; _getbatGe=0x5e3
0000007b e0fc                BCR      STATUS, BK0
0000007c ff49                MOVAR    0x36
0000007d deaf                MOVIA    0x50
0000007e fcc9                ADDAR    0x36, ToAcc
0000007f e4fc                BSR      STATUS, BK0
00000080 ff57                MOVAR    0x28
00000081 c67d                LGOTO    0x182; main.o:_00442_DS_=0x182
00000082                     main.o:_00435_DS_:
00000082 defa                MOVIA    0x5
00000083 e0fc                BCR      STATUS, BK0
00000084 fb90                SUBAR    0x6f, ToAcc
00000085 f6fc                BTRSS    STATUS, Z
00000086 c776                LGOTO    0x89; main.o:_00572_DS_=0x89
00000087 de4b                MOVIA    0xb4
00000088 fb91                SUBAR    0x6e, ToAcc
00000089                     main.o:_00572_DS_:
00000089 f7fc                BTRSS    STATUS, C
0000008a c767                LGOTO    0x98; main.o:_00432_DS_=0x98
0000008b dee8                MOVIA    0x17
0000008c ff39                MOVAR    0x46
0000008d de4c                MOVIA    0xb3
0000008e ff38                MOVAR    0x47
0000008f defa                MOVIA    0x5
00000090 d21c                LCALL    0x5e3; _getbatGe=0x5e3
00000091 e0fc                BCR      STATUS, BK0
00000092 ff49                MOVAR    0x36
00000093 deb9                MOVIA    0x46
00000094 fcc9                ADDAR    0x36, ToAcc
00000095 e4fc                BSR      STATUS, BK0
00000096 ff57                MOVAR    0x28
00000097 c67d                LGOTO    0x182; main.o:_00442_DS_=0x182
00000098                     main.o:_00432_DS_:
00000098 defa                MOVIA    0x5
00000099 e0fc                BCR      STATUS, BK0
0000009a fb90                SUBAR    0x6f, ToAcc
0000009b f6fc                BTRSS    STATUS, Z
0000009c c760                LGOTO    0x9f; main.o:_00573_DS_=0x9f
0000009d de5d                MOVIA    0xa2
0000009e fb91                SUBAR    0x6e, ToAcc
0000009f                     main.o:_00573_DS_:
0000009f f7fc                BTRSS    STATUS, C
000000a0 c751                LGOTO    0xae; main.o:_00429_DS_=0xae
000000a1 deed                MOVIA    0x12
000000a2 ff39                MOVAR    0x46
000000a3 de5e                MOVIA    0xa1
000000a4 ff38                MOVAR    0x47
000000a5 defa                MOVIA    0x5
000000a6 d21c                LCALL    0x5e3; _getbatGe=0x5e3
000000a7 e0fc                BCR      STATUS, BK0
000000a8 ff49                MOVAR    0x36
000000a9 dec3                MOVIA    0x3c
000000aa fcc9                ADDAR    0x36, ToAcc
000000ab e4fc                BSR      STATUS, BK0
000000ac ff57                MOVAR    0x28
000000ad c67d                LGOTO    0x182; main.o:_00442_DS_=0x182
000000ae                     main.o:_00429_DS_:
000000ae defa                MOVIA    0x5
000000af e0fc                BCR      STATUS, BK0
000000b0 fb90                SUBAR    0x6f, ToAcc
000000b1 f6fc                BTRSS    STATUS, Z
000000b2 c74a                LGOTO    0xb5; main.o:_00574_DS_=0xb5
000000b3 de70                MOVIA    0x8f
000000b4 fb91                SUBAR    0x6e, ToAcc
000000b5                     main.o:_00574_DS_:
000000b5 f7fc                BTRSS    STATUS, C
000000b6 c73b                LGOTO    0xc4; main.o:_00426_DS_=0xc4
000000b7 deec                MOVIA    0x13
000000b8 ff39                MOVAR    0x46
000000b9 de71                MOVIA    0x8e
000000ba ff38                MOVAR    0x47
000000bb defa                MOVIA    0x5
000000bc d21c                LCALL    0x5e3; _getbatGe=0x5e3
000000bd e0fc                BCR      STATUS, BK0
000000be ff49                MOVAR    0x36
000000bf decd                MOVIA    0x32
000000c0 fcc9                ADDAR    0x36, ToAcc
000000c1 e4fc                BSR      STATUS, BK0
000000c2 ff57                MOVAR    0x28
000000c3 c67d                LGOTO    0x182; main.o:_00442_DS_=0x182
000000c4                     main.o:_00426_DS_:
000000c4 defa                MOVIA    0x5
000000c5 e0fc                BCR      STATUS, BK0
000000c6 fb90                SUBAR    0x6f, ToAcc
000000c7 f6fc                BTRSS    STATUS, Z
000000c8 c734                LGOTO    0xcb; main.o:_00575_DS_=0xcb
000000c9 de7b                MOVIA    0x84
000000ca fb91                SUBAR    0x6e, ToAcc
000000cb                     main.o:_00575_DS_:
000000cb f7fc                BTRSS    STATUS, C
000000cc c725                LGOTO    0xda; main.o:_00423_DS_=0xda
000000cd def4                MOVIA    0xb
000000ce ff39                MOVAR    0x46
000000cf de7c                MOVIA    0x83
000000d0 ff38                MOVAR    0x47
000000d1 defa                MOVIA    0x5
000000d2 d21c                LCALL    0x5e3; _getbatGe=0x5e3
000000d3 e0fc                BCR      STATUS, BK0
000000d4 ff49                MOVAR    0x36
000000d5 ded7                MOVIA    0x28
000000d6 fcc9                ADDAR    0x36, ToAcc
000000d7 e4fc                BSR      STATUS, BK0
000000d8 ff57                MOVAR    0x28
000000d9 c67d                LGOTO    0x182; main.o:_00442_DS_=0x182
000000da                     main.o:_00423_DS_:
000000da defa                MOVIA    0x5
000000db e0fc                BCR      STATUS, BK0
000000dc fb90                SUBAR    0x6f, ToAcc
000000dd f6fc                BTRSS    STATUS, Z
000000de c71e                LGOTO    0xe1; main.o:_00576_DS_=0xe1
000000df de83                MOVIA    0x7c
000000e0 fb91                SUBAR    0x6e, ToAcc
000000e1                     main.o:_00576_DS_:
000000e1 f7fc                BTRSS    STATUS, C
000000e2 c70f                LGOTO    0xf0; main.o:_00420_DS_=0xf0
000000e3 def7                MOVIA    0x8
000000e4 ff39                MOVAR    0x46
000000e5 de84                MOVIA    0x7b
000000e6 ff38                MOVAR    0x47
000000e7 defa                MOVIA    0x5
000000e8 d21c                LCALL    0x5e3; _getbatGe=0x5e3
000000e9 e0fc                BCR      STATUS, BK0
000000ea ff49                MOVAR    0x36
000000eb dee1                MOVIA    0x1e
000000ec fcc9                ADDAR    0x36, ToAcc
000000ed e4fc                BSR      STATUS, BK0
000000ee ff57                MOVAR    0x28
000000ef c67d                LGOTO    0x182; main.o:_00442_DS_=0x182
000000f0                     main.o:_00420_DS_:
000000f0 defa                MOVIA    0x5
000000f1 e0fc                BCR      STATUS, BK0
000000f2 fb90                SUBAR    0x6f, ToAcc
000000f3 f6fc                BTRSS    STATUS, Z
000000f4 c708                LGOTO    0xf7; main.o:_00577_DS_=0xf7
000000f5 de8e                MOVIA    0x71
000000f6 fb91                SUBAR    0x6e, ToAcc
000000f7                     main.o:_00577_DS_:
000000f7 f7fc                BTRSS    STATUS, C
000000f8 c6f9                LGOTO    0x106; main.o:_00417_DS_=0x106
000000f9 def4                MOVIA    0xb
000000fa ff39                MOVAR    0x46
000000fb de8f                MOVIA    0x70
000000fc ff38                MOVAR    0x47
000000fd defa                MOVIA    0x5
000000fe d21c                LCALL    0x5e3; _getbatGe=0x5e3
000000ff e0fc                BCR      STATUS, BK0
00000100 ff49                MOVAR    0x36
00000101 deeb                MOVIA    0x14
00000102 fcc9                ADDAR    0x36, ToAcc
00000103 e4fc                BSR      STATUS, BK0
00000104 ff57                MOVAR    0x28
00000105 c67d                LGOTO    0x182; main.o:_00442_DS_=0x182
00000106                     main.o:_00417_DS_:
00000106 defa                MOVIA    0x5
00000107 e0fc                BCR      STATUS, BK0
00000108 fb90                SUBAR    0x6f, ToAcc
00000109 f6fc                BTRSS    STATUS, Z
0000010a c6f2                LGOTO    0x10d; main.o:_00578_DS_=0x10d
0000010b dea4                MOVIA    0x5b
0000010c fb91                SUBAR    0x6e, ToAcc
0000010d                     main.o:_00578_DS_:
0000010d f7fc                BTRSS    STATUS, C
0000010e c6e3                LGOTO    0x11c; main.o:_00414_DS_=0x11c
0000010f dee9                MOVIA    0x16
00000110 ff39                MOVAR    0x46
00000111 dea5                MOVIA    0x5a
00000112 ff38                MOVAR    0x47
00000113 defa                MOVIA    0x5
00000114 d21c                LCALL    0x5e3; _getbatGe=0x5e3
00000115 e0fc                BCR      STATUS, BK0
00000116 ff49                MOVAR    0x36
00000117 def5                MOVIA    0xa
00000118 fcc9                ADDAR    0x36, ToAcc
00000119 e4fc                BSR      STATUS, BK0
0000011a ff57                MOVAR    0x28
0000011b c67d                LGOTO    0x182; main.o:_00442_DS_=0x182
0000011c                     main.o:_00414_DS_:
0000011c defa                MOVIA    0x5
0000011d e0fc                BCR      STATUS, BK0
0000011e fb90                SUBAR    0x6f, ToAcc
0000011f f6fc                BTRSS    STATUS, Z
00000120 c6dc                LGOTO    0x123; main.o:_00579_DS_=0x123
00000121 defa                MOVIA    0x5
00000122 fb91                SUBAR    0x6e, ToAcc
00000123                     main.o:_00579_DS_:
00000123 f7fc                BTRSS    STATUS, C
00000124 c6b0                LGOTO    0x14f; main.o:_00411_DS_=0x14f
00000125 de03                MOVIA    0xfc
00000126 e0fc                BCR      STATUS, BK0
00000127 fc91                ADDAR    0x6e, ToAcc
00000128 ff49                MOVAR    0x36
00000129 de05                MOVIA    0xfa
0000012a ff48                MOVAR    0x37
0000012b fe90                MOVR     0x6f, ToAcc
0000012c f3fc                BTRSC    STATUS, C
0000012d fa90                INCR     0x6f, ToAcc
0000012e f2fc                BTRSC    STATUS, Z
0000012f c6ce                LGOTO    0x131; main.o:_00005_DS_=0x131
00000130 fc48                ADDAR    0x37, ToReg
00000131                     main.o:_00005_DS_:
00000131 e0fc                BCR      STATUS, BK0
00000132 fec9                MOVR     0x36, ToAcc
00000133 ff3a                MOVAR    0x45
00000134 fec8                MOVR     0x37, ToAcc
00000135 ff39                MOVAR    0x46
00000136 def5                MOVIA    0xa
00000137 ff38                MOVAR    0x47
00000138 deff                MOVIA    0x0
00000139 d2c3                LCALL    0x53c; __mulint=0x53c
0000013a e0fc                BCR      STATUS, BK0
0000013b ff48                MOVAR    0x37
0000013c feb8                MOVR     0x47, ToAcc
0000013d ff49                MOVAR    0x36
0000013e de53                MOVIA    0xac
0000013f ff3a                MOVAR    0x45
00000140 deff                MOVIA    0x0
00000141 ff39                MOVAR    0x46
00000142 fec9                MOVR     0x36, ToAcc
00000143 ff38                MOVAR    0x47
00000144 fec8                MOVR     0x37, ToAcc
00000145 d38e                LCALL    0x471; __divuint=0x471
00000146 e0fc                BCR      STATUS, BK0
00000147 ff48                MOVAR    0x37
00000148 feb8                MOVR     0x47, ToAcc
00000149 ff49                MOVAR    0x36
0000014a e4fc                BSR      STATUS, BK0
0000014b ff57                MOVAR    0x28
0000014c defa                MOVIA    0x5
0000014d fc57                ADDAR    0x28, ToReg
0000014e c67d                LGOTO    0x182; main.o:_00442_DS_=0x182
0000014f                     main.o:_00411_DS_:
0000014f defb                MOVIA    0x4
00000150 e0fc                BCR      STATUS, BK0
00000151 fb90                SUBAR    0x6f, ToAcc
00000152 f6fc                BTRSS    STATUS, Z
00000153 c6a9                LGOTO    0x156; main.o:_00580_DS_=0x156
00000154 de57                MOVIA    0xa8
00000155 fb91                SUBAR    0x6e, ToAcc
00000156                     main.o:_00580_DS_:
00000156 f7fc                BTRSS    STATUS, C
00000157 c67f                LGOTO    0x180; main.o:_00408_DS_=0x180
00000158 dea6                MOVIA    0x59
00000159 e0fc                BCR      STATUS, BK0
0000015a fc91                ADDAR    0x6e, ToAcc
0000015b ff49                MOVAR    0x36
0000015c de04                MOVIA    0xfb
0000015d ff48                MOVAR    0x37
0000015e fe90                MOVR     0x6f, ToAcc
0000015f f3fc                BTRSC    STATUS, C
00000160 fa90                INCR     0x6f, ToAcc
00000161 f2fc                BTRSC    STATUS, Z
00000162 c69b                LGOTO    0x164; main.o:_00006_DS_=0x164
00000163 fc48                ADDAR    0x37, ToReg
00000164                     main.o:_00006_DS_:
00000164 e0fc                BCR      STATUS, BK0
00000165 fec9                MOVR     0x36, ToAcc
00000166 ff3a                MOVAR    0x45
00000167 fec8                MOVR     0x37, ToAcc
00000168 ff39                MOVAR    0x46
00000169 def5                MOVIA    0xa
0000016a ff38                MOVAR    0x47
0000016b deff                MOVIA    0x0
0000016c d2c3                LCALL    0x53c; __mulint=0x53c
0000016d e0fc                BCR      STATUS, BK0
0000016e ff48                MOVAR    0x37
0000016f feb8                MOVR     0x47, ToAcc
00000170 ff49                MOVAR    0x36
00000171 de45                MOVIA    0xba
00000172 ff3a                MOVAR    0x45
00000173 deff                MOVIA    0x0
00000174 ff39                MOVAR    0x46
00000175 fec9                MOVR     0x36, ToAcc
00000176 ff38                MOVAR    0x47
00000177 fec8                MOVR     0x37, ToAcc
00000178 d38e                LCALL    0x471; __divuint=0x471
00000179 e0fc                BCR      STATUS, BK0
0000017a ff48                MOVAR    0x37
0000017b feb8                MOVR     0x47, ToAcc
0000017c ff49                MOVAR    0x36
0000017d e4fc                BSR      STATUS, BK0
0000017e ff57                MOVAR    0x28
0000017f c67d                LGOTO    0x182; main.o:_00442_DS_=0x182
00000180                     main.o:_00408_DS_:
00000180 e4fc                BSR      STATUS, BK0
00000181 fd57                CLRR     0x28
00000182                     main.o:_00442_DS_:
00000182 e4fc                BSR      STATUS, BK0
00000183 fed6                MOVR     0x29, ToAcc
00000184 f6fc                BTRSS    STATUS, Z
00000185 c677                LGOTO    0x188; main.o:_00445_DS_=0x188
00000186 fed7                MOVR     0x28, ToAcc
00000187 ff56                MOVAR    0x29
00000188                     main.o:_00445_DS_:
00000188 e4fc                BSR      STATUS, BK0
00000189 fed9                MOVR     0x26, ToAcc
0000018a f6fc                BTRSS    STATUS, Z
0000018b c654                LGOTO    0x1ab; main.o:_00455_DS_=0x1ab
0000018c fed6                MOVR     0x29, ToAcc
0000018d fbd7                SUBAR    0x28, ToAcc
0000018e f3fc                BTRSC    STATUS, C
0000018f c657                LGOTO    0x1a8; main.o:_00451_DS_=0x1a8
00000190 fed6                MOVR     0x29, ToAcc
00000191 f2fc                BTRSC    STATUS, Z
00000192 c657                LGOTO    0x1a8; main.o:_00451_DS_=0x1a8
00000193 e0fc                BCR      STATUS, BK0
00000194 fa0d                INCR     0x72, ToReg
00000195 f2fc                BTRSC    STATUS, Z
00000196 fa0c                INCR     0x73, ToReg
00000197 defc                MOVIA    0x3
00000198 fb8c                SUBAR    0x73, ToAcc
00000199 f6fc                BTRSS    STATUS, Z
0000019a c662                LGOTO    0x19d; main.o:_00582_DS_=0x19d
0000019b de16                MOVIA    0xe9
0000019c fb8d                SUBAR    0x72, ToAcc
0000019d                     main.o:_00582_DS_:
0000019d f7fc                BTRSS    STATUS, C
0000019e c654                LGOTO    0x1ab; main.o:_00455_DS_=0x1ab
0000019f e0fc                BCR      STATUS, BK0
000001a0 fd0d                CLRR     0x72
000001a1 fd0c                CLRR     0x73
000001a2 e4fc                BSR      STATUS, BK0
000001a3 e856                DECRSZ   0x29, ToReg
000001a4 c654                LGOTO    0x1ab; main.o:_00455_DS_=0x1ab
000001a5 defe                MOVIA    0x1
000001a6 ff56                MOVAR    0x29
000001a7 c654                LGOTO    0x1ab; main.o:_00455_DS_=0x1ab
000001a8                     main.o:_00451_DS_:
000001a8 e0fc                BCR      STATUS, BK0
000001a9 fd0d                CLRR     0x72
000001aa fd0c                CLRR     0x73
000001ab                     main.o:_00455_DS_:
000001ab e4fc                BSR      STATUS, BK0
000001ac fed7                MOVR     0x28, ToAcc
000001ad fbd6                SUBAR    0x29, ToAcc
000001ae f3fc                BTRSC    STATUS, C
000001af c637                LGOTO    0x1c8; main.o:_00461_DS_=0x1c8
000001b0 e0fc                BCR      STATUS, BK0
000001b1 fa0f                INCR     0x70, ToReg
000001b2 f2fc                BTRSC    STATUS, Z
000001b3 fa0e                INCR     0x71, ToReg
000001b4 defc                MOVIA    0x3
000001b5 fb8e                SUBAR    0x71, ToAcc
000001b6 f6fc                BTRSS    STATUS, Z
000001b7 c645                LGOTO    0x1ba; main.o:_00584_DS_=0x1ba
000001b8 de16                MOVIA    0xe9
000001b9 fb8f                SUBAR    0x70, ToAcc
000001ba                     main.o:_00584_DS_:
000001ba f7fc                BTRSS    STATUS, C
000001bb c634                LGOTO    0x1cb; main.o:_00462_DS_=0x1cb
000001bc e0fc                BCR      STATUS, BK0
000001bd fd0f                CLRR     0x70
000001be fd0e                CLRR     0x71
000001bf e4fc                BSR      STATUS, BK0
000001c0 fa56                INCR     0x29, ToReg
000001c1 de9b                MOVIA    0x64
000001c2 fbd6                SUBAR    0x29, ToAcc
000001c3 f7fc                BTRSS    STATUS, C
000001c4 c634                LGOTO    0x1cb; main.o:_00462_DS_=0x1cb
000001c5 de9c                MOVIA    0x63
000001c6 ff56                MOVAR    0x29
000001c7 c634                LGOTO    0x1cb; main.o:_00462_DS_=0x1cb
000001c8                     main.o:_00461_DS_:
000001c8 e0fc                BCR      STATUS, BK0
000001c9 fd0f                CLRR     0x70
000001ca fd0e                CLRR     0x71
000001cb                     main.o:_00462_DS_:
000001cb e4fc                BSR      STATUS, BK0
000001cc fed7                MOVR     0x28, ToAcc
000001cd f6fc                BTRSS    STATUS, Z
000001ce c614                LGOTO    0x1eb; main.o:_00472_DS_=0x1eb
000001cf fa50                INCR     0x2f, ToReg
000001d0 de36                MOVIA    0xc9
000001d1 fbd0                SUBAR    0x2f, ToAcc
000001d2 f7fc                BTRSS    STATUS, C
000001d3 c60b                LGOTO    0x1f4; main.o:_00473_DS_=0x1f4
000001d4 de37                MOVIA    0xc8
000001d5 ff50                MOVAR    0x2f
000001d6 fd56                CLRR     0x29
000001d7 fecf                MOVR     0x30, ToAcc
000001d8 f6fc                BTRSS    STATUS, Z
000001d9 c60b                LGOTO    0x1f4; main.o:_00473_DS_=0x1f4
000001da d034                LCALL    0x7cb; _powerOff=0x7cb
000001db defe                MOVIA    0x1
000001dc e0fc                BCR      STATUS, BK0
000001dd ff02                MOVAR    0x7d
000001de def4                MOVIA    0xb
000001df ff06                MOVAR    0x79
000001e0 def3                MOVIA    0xc
000001e1 ff05                MOVAR    0x7a
000001e2 defe                MOVIA    0x1
000001e3 e4fc                BSR      STATUS, BK0
000001e4 ff4f                MOVAR    0x30
000001e5 de0b                MOVIA    0xf4
000001e6 e0fc                BCR      STATUS, BK0
000001e7 ff13                MOVAR    0x6c
000001e8 defe                MOVIA    0x1
000001e9 ff12                MOVAR    0x6d
000001ea c60b                LGOTO    0x1f4; main.o:_00473_DS_=0x1f4
000001eb                     main.o:_00472_DS_:
000001eb e4fc                BSR      STATUS, BK0
000001ec fed0                MOVR     0x2f, ToAcc
000001ed f2fc                BTRSC    STATUS, Z
000001ee c60d                LGOTO    0x1f2; main.o:_00470_DS_=0x1f2
000001ef e850                DECRSZ   0x2f, ToReg
000001f0 c60d                LGOTO    0x1f2; main.o:_00470_DS_=0x1f2
000001f1 fd4f                CLRR     0x30
000001f2                     main.o:_00470_DS_:
000001f2 e4fc                BSR      STATUS, BK0
000001f3 fd50                CLRR     0x2f
000001f4                     main.o:_00473_DS_:
000001f4 e4fc                BSR      STATUS, BK0
000001f5 fecf                MOVR     0x30, ToAcc
000001f6 f2fc                BTRSC    STATUS, Z
000001f7 c601                LGOTO    0x1fe; main.o:_00477_DS_=0x1fe
000001f8 def4                MOVIA    0xb
000001f9 e0fc                BCR      STATUS, BK0
000001fa ff06                MOVAR    0x79
000001fb def3                MOVIA    0xc
000001fc ff05                MOVAR    0x7a
000001fd c5eb                LGOTO    0x214; main.o:_00479_DS_=0x214
000001fe                     main.o:_00477_DS_:
000001fe e4fc                BSR      STATUS, BK0
000001ff fd4e                CLRR     0x31
00000200 de9b                MOVIA    0x64
00000201 fbd6                SUBAR    0x29, ToAcc
00000202 f7fc                BTRSS    STATUS, C
00000203 c5f9                LGOTO    0x206; main.o:_00475_DS_=0x206
00000204 de9c                MOVIA    0x63
00000205 ff56                MOVAR    0x29
00000206                     main.o:_00475_DS_:
00000206 def5                MOVIA    0xa
00000207 ff38                MOVAR    0x47
00000208 e4fc                BSR      STATUS, BK0
00000209 fed6                MOVR     0x29, ToAcc
0000020a d197                LCALL    0x668; __divuchar=0x668
0000020b e0fc                BCR      STATUS, BK0
0000020c ff06                MOVAR    0x79
0000020d def5                MOVIA    0xa
0000020e ff38                MOVAR    0x47
0000020f e4fc                BSR      STATUS, BK0
00000210 fed6                MOVR     0x29, ToAcc
00000211 d146                LCALL    0x6b9; __moduchar=0x6b9
00000212 e0fc                BCR      STATUS, BK0
00000213 ff05                MOVAR    0x7a
00000214                     main.o:_00479_DS_:
00000214 ffef                RET
00000215                     _main:
00000215 d0de                LCALL    0x721; _initSys=0x721
00000216 d041                LCALL    0x7be; _initAD=0x7be
00000217 de37                MOVIA    0xc8
00000218 e4fc                BSR      STATUS, BK0
00000219 ff5b                MOVAR    0x24
0000021a                     main.o:_00159_DS_:
0000021a fffd                CLRWDT
0000021b e0fc                BCR      STATUS, BK0
0000021c fe82                MOVR     0x7d, ToAcc
0000021d f2fc                BTRSC    STATUS, Z
0000021e c5c5                LGOTO    0x23a; main.o:_00130_DS_=0x23a
0000021f dee5                MOVIA    0x1a
00000220 e4fc                BSR      STATUS, BK0
00000221 fbd1                SUBAR    0x2e, ToAcc
00000222 f7fc                BTRSS    STATUS, C
00000223 c5cf                LGOTO    0x230; main.o:_00124_DS_=0x230
00000224 de9b                MOVIA    0x64
00000225 d01b                LCALL    0x7e4; _delay_us=0x7e4
00000226 de9b                MOVIA    0x64
00000227 d01b                LCALL    0x7e4; _delay_us=0x7e4
00000228 e4fc                BSR      STATUS, BK0
00000229 fecf                MOVR     0x30, ToAcc
0000022a f2fc                BTRSC    STATUS, Z
0000022b c5d1                LGOTO    0x22e; main.o:_00121_DS_=0x22e
0000022c d4be                LCALL    0x341; _refresh=0x341
0000022d c5cd                LGOTO    0x232; main.o:_00125_DS_=0x232
0000022e                     main.o:_00121_DS_:
0000022e d24e                LCALL    0x5b1; _refreshBat=0x5b1
0000022f c5cd                LGOTO    0x232; main.o:_00125_DS_=0x232
00000230                     main.o:_00124_DS_:
00000230 d4be                LCALL    0x341; _refresh=0x341
00000231 d24e                LCALL    0x5b1; _refreshBat=0x5b1
00000232                     main.o:_00125_DS_:
00000232 ffea                IOSTR    IOSTA
00000233 e0fc                BCR      STATUS, BK0
00000234 ff5f                MOVAR    0x20
00000235 e15f                BCR      0x20, 0x5
00000236 fedf                MOVR     0x20, ToAcc
00000237 fffa                IOST     IOSTA
00000238 e17a                BCR      PORTA, PA5
00000239 c528                LGOTO    0x2d7; main.o:_00131_DS_=0x2d7
0000023a                     main.o:_00130_DS_:
0000023a e4fc                BSR      STATUS, BK0
0000023b fedb                MOVR     0x24, ToAcc
0000023c f2fc                BTRSC    STATUS, Z
0000023d c53f                LGOTO    0x2c0; main.o:_00127_DS_=0x2c0
0000023e e579                BSR      PORTB, PB5
0000023f f579                BTRSS    PORTB, PB5
00000240 e1f9                BCR      PORTB, PB4
00000241 f179                BTRSC    PORTB, PB5
00000242 e5f9                BSR      PORTB, PB4
00000243 f1f9                BTRSC    PORTB, PB4
00000244 c5b8                LGOTO    0x247; main.o:_00010_DS_=0x247
00000245 e0fc                BCR      STATUS, BK0
00000246 e27a                BCR      PORTA, PA3
00000247                     main.o:_00010_DS_:
00000247 f5f9                BTRSS    PORTB, PB4
00000248 c5b4                LGOTO    0x24b; main.o:_00011_DS_=0x24b
00000249 e0fc                BCR      STATUS, BK0
0000024a e67a                BSR      PORTA, PA3
0000024b                     main.o:_00011_DS_:
0000024b e0fc                BCR      STATUS, BK0
0000024c f67a                BTRSS    PORTA, PA3
0000024d e1fa                BCR      PORTA, PA4
0000024e f27a                BTRSC    PORTA, PA3
0000024f e5fa                BSR      PORTA, PA4
00000250 de53                MOVIA    0xac
00000251 ff39                MOVAR    0x46
00000252 def8                MOVIA    0x7
00000253 ff38                MOVAR    0x47
00000254 de7f                MOVIA    0x80
00000255 d06e                LCALL    0x791; __gptrget=0x791
00000256 e0fc                BCR      STATUS, BK0
00000257 ff5f                MOVAR    0x20
00000258 d0c0                LCALL    0x73f; _ind_light_disp=0x73f
00000259 e0fc                BCR      STATUS, BK0
0000025a e1fa                BCR      PORTA, PA4
0000025b de9b                MOVIA    0x64
0000025c d01b                LCALL    0x7e4; _delay_us=0x7e4
0000025d e579                BSR      PORTB, PB5
0000025e f579                BTRSS    PORTB, PB5
0000025f e1f9                BCR      PORTB, PB4
00000260 f179                BTRSC    PORTB, PB5
00000261 e5f9                BSR      PORTB, PB4
00000262 f1f9                BTRSC    PORTB, PB4
00000263 c599                LGOTO    0x266; main.o:_00012_DS_=0x266
00000264 e0fc                BCR      STATUS, BK0
00000265 e27a                BCR      PORTA, PA3
00000266                     main.o:_00012_DS_:
00000266 f5f9                BTRSS    PORTB, PB4
00000267 c595                LGOTO    0x26a; main.o:_00013_DS_=0x26a
00000268 e0fc                BCR      STATUS, BK0
00000269 e67a                BSR      PORTA, PA3
0000026a                     main.o:_00013_DS_:
0000026a e0fc                BCR      STATUS, BK0
0000026b f67a                BTRSS    PORTA, PA3
0000026c e1fa                BCR      PORTA, PA4
0000026d f27a                BTRSC    PORTA, PA3
0000026e e5fa                BSR      PORTA, PA4
0000026f de53                MOVIA    0xac
00000270 ff39                MOVAR    0x46
00000271 def8                MOVIA    0x7
00000272 ff38                MOVAR    0x47
00000273 de7f                MOVIA    0x80
00000274 d06e                LCALL    0x791; __gptrget=0x791
00000275 e0fc                BCR      STATUS, BK0
00000276 ff5f                MOVAR    0x20
00000277 d0c0                LCALL    0x73f; _ind_light_disp=0x73f
00000278 e0fc                BCR      STATUS, BK0
00000279 e27a                BCR      PORTA, PA3
0000027a de9b                MOVIA    0x64
0000027b d01b                LCALL    0x7e4; _delay_us=0x7e4
0000027c e579                BSR      PORTB, PB5
0000027d f579                BTRSS    PORTB, PB5
0000027e e1f9                BCR      PORTB, PB4
0000027f f179                BTRSC    PORTB, PB5
00000280 e5f9                BSR      PORTB, PB4
00000281 f1f9                BTRSC    PORTB, PB4
00000282 c57a                LGOTO    0x285; main.o:_00014_DS_=0x285
00000283 e0fc                BCR      STATUS, BK0
00000284 e27a                BCR      PORTA, PA3
00000285                     main.o:_00014_DS_:
00000285 f5f9                BTRSS    PORTB, PB4
00000286 c576                LGOTO    0x289; main.o:_00015_DS_=0x289
00000287 e0fc                BCR      STATUS, BK0
00000288 e67a                BSR      PORTA, PA3
00000289                     main.o:_00015_DS_:
00000289 e0fc                BCR      STATUS, BK0
0000028a f67a                BTRSS    PORTA, PA3
0000028b e1fa                BCR      PORTA, PA4
0000028c f27a                BTRSC    PORTA, PA3
0000028d e5fa                BSR      PORTA, PA4
0000028e de53                MOVIA    0xac
0000028f ff39                MOVAR    0x46
00000290 def8                MOVIA    0x7
00000291 ff38                MOVAR    0x47
00000292 de7f                MOVIA    0x80
00000293 d06e                LCALL    0x791; __gptrget=0x791
00000294 e0fc                BCR      STATUS, BK0
00000295 ff5f                MOVAR    0x20
00000296 d0c0                LCALL    0x73f; _ind_light_disp=0x73f
00000297 e1f9                BCR      PORTB, PB4
00000298 de9b                MOVIA    0x64
00000299 d01b                LCALL    0x7e4; _delay_us=0x7e4
0000029a e579                BSR      PORTB, PB5
0000029b f579                BTRSS    PORTB, PB5
0000029c e1f9                BCR      PORTB, PB4
0000029d f179                BTRSC    PORTB, PB5
0000029e e5f9                BSR      PORTB, PB4
0000029f f1f9                BTRSC    PORTB, PB4
000002a0 c55c                LGOTO    0x2a3; main.o:_00016_DS_=0x2a3
000002a1 e0fc                BCR      STATUS, BK0
000002a2 e27a                BCR      PORTA, PA3
000002a3                     main.o:_00016_DS_:
000002a3 f5f9                BTRSS    PORTB, PB4
000002a4 c558                LGOTO    0x2a7; main.o:_00017_DS_=0x2a7
000002a5 e0fc                BCR      STATUS, BK0
000002a6 e67a                BSR      PORTA, PA3
000002a7                     main.o:_00017_DS_:
000002a7 e0fc                BCR      STATUS, BK0
000002a8 f67a                BTRSS    PORTA, PA3
000002a9 e1fa                BCR      PORTA, PA4
000002aa f27a                BTRSC    PORTA, PA3
000002ab e5fa                BSR      PORTA, PA4
000002ac de53                MOVIA    0xac
000002ad ff39                MOVAR    0x46
000002ae def8                MOVIA    0x7
000002af ff38                MOVAR    0x47
000002b0 de7f                MOVIA    0x80
000002b1 d06e                LCALL    0x791; __gptrget=0x791
000002b2 e0fc                BCR      STATUS, BK0
000002b3 ff5f                MOVAR    0x20
000002b4 d0c0                LCALL    0x73f; _ind_light_disp=0x73f
000002b5 e179                BCR      PORTB, PB5
000002b6 de9b                MOVIA    0x64
000002b7 d01b                LCALL    0x7e4; _delay_us=0x7e4
000002b8 ffea                IOSTR    IOSTA
000002b9 e0fc                BCR      STATUS, BK0
000002ba ff5f                MOVAR    0x20
000002bb e15f                BCR      0x20, 0x5
000002bc fedf                MOVR     0x20, ToAcc
000002bd fffa                IOST     IOSTA
000002be e17a                BCR      PORTA, PA5
000002bf c528                LGOTO    0x2d7; main.o:_00131_DS_=0x2d7
000002c0                     main.o:_00127_DS_:
000002c0 ffea                IOSTR    IOSTA
000002c1 e0fc                BCR      STATUS, BK0
000002c2 ff5f                MOVAR    0x20
000002c3 e55f                BSR      0x20, 0x5
000002c4 fedf                MOVR     0x20, ToAcc
000002c5 fffa                IOST     IOSTA
000002c6 e579                BSR      PORTB, PB5
000002c7 f579                BTRSS    PORTB, PB5
000002c8 e1f9                BCR      PORTB, PB4
000002c9 f179                BTRSC    PORTB, PB5
000002ca e5f9                BSR      PORTB, PB4
000002cb f1f9                BTRSC    PORTB, PB4
000002cc c531                LGOTO    0x2ce; main.o:_00018_DS_=0x2ce
000002cd e27a                BCR      PORTA, PA3
000002ce                     main.o:_00018_DS_:
000002ce f5f9                BTRSS    PORTB, PB4
000002cf c52d                LGOTO    0x2d2; main.o:_00019_DS_=0x2d2
000002d0 e0fc                BCR      STATUS, BK0
000002d1 e67a                BSR      PORTA, PA3
000002d2                     main.o:_00019_DS_:
000002d2 e0fc                BCR      STATUS, BK0
000002d3 f67a                BTRSS    PORTA, PA3
000002d4 e1fa                BCR      PORTA, PA4
000002d5 f27a                BTRSC    PORTA, PA3
000002d6 e5fa                BSR      PORTA, PA4
000002d7                     main.o:_00131_DS_:
000002d7 e0fc                BCR      STATUS, BK0
000002d8 fe8b                MOVR     0x74, ToAcc
000002d9 f2fc                BTRSC    STATUS, Z
000002da c508                LGOTO    0x2f7; main.o:_00133_DS_=0x2f7
000002db fe8b                MOVR     0x74, ToAcc
000002dc ff5f                MOVAR    0x20
000002dd fd5e                CLRR     0x21
000002de de55                MOVIA    0xaa
000002df fc5f                ADDAR    0x20, ToReg
000002e0 f7fc                BTRSS    STATUS, C
000002e1 c51c                LGOTO    0x2e3; main.o:_00020_DS_=0x2e3
000002e2 fa5e                INCR     0x21, ToReg
000002e3                     main.o:_00020_DS_:
000002e3 e4fc                BSR      STATUS, BK0
000002e4 fed5                MOVR     0x2a, ToAcc
000002e5 e0fc                BCR      STATUS, BK0
000002e6 ff5d                MOVAR    0x22
000002e7 fede                MOVR     0x21, ToAcc
000002e8 da7f                ADDIA    0x80
000002e9 ff5c                MOVAR    0x23
000002ea deff                MOVIA    0x0
000002eb da7f                ADDIA    0x80
000002ec fbdc                SUBAR    0x23, ToAcc
000002ed f6fc                BTRSS    STATUS, Z
000002ee c50e                LGOTO    0x2f1; main.o:_00227_DS_=0x2f1
000002ef fedd                MOVR     0x22, ToAcc
000002f0 fbdf                SUBAR    0x20, ToAcc
000002f1                     main.o:_00227_DS_:
000002f1 f3fc                BTRSC    STATUS, C
000002f2 c508                LGOTO    0x2f7; main.o:_00133_DS_=0x2f7
000002f3 e4fc                BSR      STATUS, BK0
000002f4 f955                DECR     0x2a, ToReg
000002f5 fed5                MOVR     0x2a, ToAcc
000002f6 ffbc                SFUN     PWM1DUTY
000002f7                     main.o:_00133_DS_:
000002f7 e0fc                BCR      STATUS, BK0
000002f8 fe8a                MOVR     0x75, ToAcc
000002f9 f2fc                BTRSC    STATUS, Z
000002fa c5e5                LGOTO    0x21a; main.o:_00159_DS_=0x21a
000002fb fd0a                CLRR     0x75
000002fc d16e                LCALL    0x691; _chrgCtr=0x691
000002fd e0fc                BCR      STATUS, BK0
000002fe f388                BTRSC    0x77, 0x0
000002ff c4fd                LGOTO    0x302; main.o:_00138_DS_=0x302
00000300 d7f6                LCALL    0x9; _checkBatAD=0x9
00000301 c4fc                LGOTO    0x303; main.o:_00139_DS_=0x303
00000302                     main.o:_00138_DS_:
00000302 d3da                LCALL    0x425; _checkOutA=0x425
00000303                     main.o:_00139_DS_:
00000303 e4fc                BSR      STATUS, BK0
00000304 fed9                MOVR     0x26, ToAcc
00000305 f6fc                BTRSS    STATUS, Z
00000306 c4e8                LGOTO    0x317; main.o:_00143_DS_=0x317
00000307 fed7                MOVR     0x28, ToAcc
00000308 f6fc                BTRSS    STATUS, Z
00000309 c4e8                LGOTO    0x317; main.o:_00143_DS_=0x317
0000030a e0fc                BCR      STATUS, BK0
0000030b fe8b                MOVR     0x74, ToAcc
0000030c f2fc                BTRSC    STATUS, Z
0000030d c4e8                LGOTO    0x317; main.o:_00143_DS_=0x317
0000030e e4fc                BSR      STATUS, BK0
0000030f fa54                INCR     0x2b, ToReg
00000310 de04                MOVIA    0xfb
00000311 fbd4                SUBAR    0x2b, ToAcc
00000312 f7fc                BTRSS    STATUS, C
00000313 c4e6                LGOTO    0x319; main.o:_00144_DS_=0x319
00000314 fd54                CLRR     0x2b
00000315 d034                LCALL    0x7cb; _powerOff=0x7cb
00000316 c4e6                LGOTO    0x319; main.o:_00144_DS_=0x319
00000317                     main.o:_00143_DS_:
00000317 e4fc                BSR      STATUS, BK0
00000318 fd54                CLRR     0x2b
00000319                     main.o:_00144_DS_:
00000319 e0fc                BCR      STATUS, BK0
0000031a fe8b                MOVR     0x74, ToAcc
0000031b f6fc                BTRSS    STATUS, Z
0000031c c4ca                LGOTO    0x335; main.o:_00150_DS_=0x335
0000031d e4fc                BSR      STATUS, BK0
0000031e fede                MOVR     0x21, ToAcc
0000031f f6fc                BTRSS    STATUS, Z
00000320 c4ca                LGOTO    0x335; main.o:_00150_DS_=0x335
00000321 e0fc                BCR      STATUS, BK0
00000322 fe81                MOVR     0x7e, ToAcc
00000323 f6fc                BTRSS    STATUS, Z
00000324 c4ca                LGOTO    0x335; main.o:_00150_DS_=0x335
00000325 f37a                BTRSC    PORTA, PA1
00000326 c4ca                LGOTO    0x335; main.o:_00150_DS_=0x335
00000327 e4fc                BSR      STATUS, BK0
00000328 fedb                MOVR     0x24, ToAcc
00000329 f6fc                BTRSS    STATUS, Z
0000032a c4ca                LGOTO    0x335; main.o:_00150_DS_=0x335
0000032b e0fc                BCR      STATUS, BK0
0000032c fe82                MOVR     0x7d, ToAcc
0000032d f6fc                BTRSS    STATUS, Z
0000032e c4ca                LGOTO    0x335; main.o:_00150_DS_=0x335
0000032f e4fc                BSR      STATUS, BK0
00000330 fa58                INCR     0x27, ToReg
00000331 deea                MOVIA    0x15
00000332 fbd8                SUBAR    0x27, ToAcc
00000333 f3fc                BTRSC    STATUS, C
00000334 d287                LCALL    0x578; _gotoSleep=0x578
00000335                     main.o:_00150_DS_:
00000335 defc                MOVIA    0x3
00000336 e0fc                BCR      STATUS, BK0
00000337 fb94                SUBAR    0x6b, ToAcc
00000338 f6fc                BTRSS    STATUS, Z
00000339 c4c3                LGOTO    0x33c; main.o:_00230_DS_=0x33c
0000033a de7b                MOVIA    0x84
0000033b fb95                SUBAR    0x6a, ToAcc
0000033c                     main.o:_00230_DS_:
0000033c f7fc                BTRSS    STATUS, C
0000033d c5e5                LGOTO    0x21a; main.o:_00159_DS_=0x21a
0000033e d034                LCALL    0x7cb; _powerOff=0x7cb
0000033f c5e5                LGOTO    0x21a; main.o:_00159_DS_=0x21a
00000340 ffef                RET
00000341                     _refresh:
00000341 e0fc                BCR      STATUS, BK0
00000342 e5fa                BSR      PORTA, PA4
00000343 e67a                BSR      PORTA, PA3
00000344 e5f9                BSR      PORTB, PB4
00000345 e579                BSR      PORTB, PB5
00000346 e4fc                BSR      STATUS, BK0
00000347 fed9                MOVR     0x26, ToAcc
00000348 f2fc                BTRSC    STATUS, Z
00000349 c46b                LGOTO    0x394; main.o:_00361_DS_=0x394
0000034a fed7                MOVR     0x28, ToAcc
0000034b db9b                XORIA    0x64
0000034c f6fc                BTRSS    STATUS, Z
0000034d c492                LGOTO    0x36d; main.o:_00357_DS_=0x36d
0000034e fed6                MOVR     0x29, ToAcc
0000034f db9c                XORIA    0x63
00000350 f6fc                BTRSS    STATUS, Z
00000351 c492                LGOTO    0x36d; main.o:_00357_DS_=0x36d
00000352 de5b                MOVIA    0xa4
00000353 ff39                MOVAR    0x46
00000354 def8                MOVIA    0x7
00000355 ff38                MOVAR    0x47
00000356 de7f                MOVIA    0x80
00000357 d06e                LCALL    0x791; __gptrget=0x791
00000358 e0fc                BCR      STATUS, BK0
00000359 ff53                MOVAR    0x2c
0000035a d0c0                LCALL    0x73f; _ind_light_disp=0x73f
0000035b e1f9                BCR      PORTB, PB4
0000035c de9b                MOVIA    0x64
0000035d d01b                LCALL    0x7e4; _delay_us=0x7e4
0000035e e5f9                BSR      PORTB, PB4
0000035f de5b                MOVIA    0xa4
00000360 ff39                MOVAR    0x46
00000361 def8                MOVIA    0x7
00000362 ff38                MOVAR    0x47
00000363 de7f                MOVIA    0x80
00000364 d06e                LCALL    0x791; __gptrget=0x791
00000365 e0fc                BCR      STATUS, BK0
00000366 ff53                MOVAR    0x2c
00000367 d0c0                LCALL    0x73f; _ind_light_disp=0x73f
00000368 e179                BCR      PORTB, PB5
00000369 de9b                MOVIA    0x64
0000036a d01b                LCALL    0x7e4; _delay_us=0x7e4
0000036b e579                BSR      PORTB, PB5
0000036c c445                LGOTO    0x3ba; main.o:_00363_DS_=0x3ba
0000036d                     main.o:_00357_DS_:
0000036d e0fc                BCR      STATUS, BK0
0000036e fe84                MOVR     0x7b, ToAcc
0000036f da27                ADDIA    0xd8
00000370 ff53                MOVAR    0x2c
00000371 def8                MOVIA    0x7
00000372 f3fc                BTRSC    STATUS, C
00000373 dafe                ADDIA    0x1
00000374 ff52                MOVAR    0x2d
00000375 fed3                MOVR     0x2c, ToAcc
00000376 ff39                MOVAR    0x46
00000377 fed2                MOVR     0x2d, ToAcc
00000378 ff38                MOVAR    0x47
00000379 de7f                MOVIA    0x80
0000037a d06e                LCALL    0x791; __gptrget=0x791
0000037b d0c0                LCALL    0x73f; _ind_light_disp=0x73f
0000037c e1f9                BCR      PORTB, PB4
0000037d de9b                MOVIA    0x64
0000037e d01b                LCALL    0x7e4; _delay_us=0x7e4
0000037f e5f9                BSR      PORTB, PB4
00000380 e0fc                BCR      STATUS, BK0
00000381 fe83                MOVR     0x7c, ToAcc
00000382 da27                ADDIA    0xd8
00000383 ff53                MOVAR    0x2c
00000384 def8                MOVIA    0x7
00000385 f3fc                BTRSC    STATUS, C
00000386 dafe                ADDIA    0x1
00000387 ff52                MOVAR    0x2d
00000388 fed3                MOVR     0x2c, ToAcc
00000389 ff39                MOVAR    0x46
0000038a fed2                MOVR     0x2d, ToAcc
0000038b ff38                MOVAR    0x47
0000038c de7f                MOVIA    0x80
0000038d d06e                LCALL    0x791; __gptrget=0x791
0000038e d0c0                LCALL    0x73f; _ind_light_disp=0x73f
0000038f e179                BCR      PORTB, PB5
00000390 de9b                MOVIA    0x64
00000391 d01b                LCALL    0x7e4; _delay_us=0x7e4
00000392 e579                BSR      PORTB, PB5
00000393 c445                LGOTO    0x3ba; main.o:_00363_DS_=0x3ba
00000394                     main.o:_00361_DS_:
00000394 e0fc                BCR      STATUS, BK0
00000395 fe84                MOVR     0x7b, ToAcc
00000396 da5b                ADDIA    0xa4
00000397 ff53                MOVAR    0x2c
00000398 def8                MOVIA    0x7
00000399 f3fc                BTRSC    STATUS, C
0000039a dafe                ADDIA    0x1
0000039b ff52                MOVAR    0x2d
0000039c fed3                MOVR     0x2c, ToAcc
0000039d ff39                MOVAR    0x46
0000039e fed2                MOVR     0x2d, ToAcc
0000039f ff38                MOVAR    0x47
000003a0 de7f                MOVIA    0x80
000003a1 d06e                LCALL    0x791; __gptrget=0x791
000003a2 d0c0                LCALL    0x73f; _ind_light_disp=0x73f
000003a3 e1f9                BCR      PORTB, PB4
000003a4 de9b                MOVIA    0x64
000003a5 d01b                LCALL    0x7e4; _delay_us=0x7e4
000003a6 e5f9                BSR      PORTB, PB4
000003a7 e0fc                BCR      STATUS, BK0
000003a8 fe83                MOVR     0x7c, ToAcc
000003a9 da5b                ADDIA    0xa4
000003aa ff53                MOVAR    0x2c
000003ab def8                MOVIA    0x7
000003ac f3fc                BTRSC    STATUS, C
000003ad dafe                ADDIA    0x1
000003ae ff52                MOVAR    0x2d
000003af fed3                MOVR     0x2c, ToAcc
000003b0 ff39                MOVAR    0x46
000003b1 fed2                MOVR     0x2d, ToAcc
000003b2 ff38                MOVAR    0x47
000003b3 de7f                MOVIA    0x80
000003b4 d06e                LCALL    0x791; __gptrget=0x791
000003b5 d0c0                LCALL    0x73f; _ind_light_disp=0x73f
000003b6 e179                BCR      PORTB, PB5
000003b7 de9b                MOVIA    0x64
000003b8 d01b                LCALL    0x7e4; _delay_us=0x7e4
000003b9 e579                BSR      PORTB, PB5
000003ba                     main.o:_00363_DS_:
000003ba ffef                RET
000003bb                     _keyCtr:
000003bb f8f9                COMR     PORTB, ToAcc
000003bc e0fc                BCR      STATUS, BK0
000003bd ff59                MOVAR    0x26
000003be defb                MOVIA    0x4
000003bf ef59                ANDAR    0x26, ToReg
000003c0 fed9                MOVR     0x26, ToAcc
000003c1 d1c0                LCALL    0x63f; _keyRead=0x63f
000003c2 e0fc                BCR      STATUS, BK0
000003c3 ff59                MOVAR    0x26
000003c4 fed9                MOVR     0x26, ToAcc
000003c5 f2fc                BTRSC    STATUS, Z
000003c6 c42d                LGOTO    0x3d2; main.o:_00274_DS_=0x3d2
000003c7 e4fc                BSR      STATUS, BK0
000003c8 fd52                CLRR     0x2d
000003c9 de0b                MOVIA    0xf4
000003ca e0fc                BCR      STATUS, BK0
000003cb ff13                MOVAR    0x6c
000003cc defe                MOVIA    0x1
000003cd ff12                MOVAR    0x6d
000003ce ff02                MOVAR    0x7d
000003cf fd0b                CLRR     0x74
000003d0 fd04                CLRR     0x7b
000003d1 fd03                CLRR     0x7c
000003d2                     main.o:_00274_DS_:
000003d2 e0fc                BCR      STATUS, BK0
000003d3 f8fa                COMR     PORTA, ToAcc
000003d4 ff59                MOVAR    0x26
000003d5 debf                MOVIA    0x40
000003d6 ef59                ANDAR    0x26, ToReg
000003d7 fed9                MOVR     0x26, ToAcc
000003d8 d088                LCALL    0x777; _keyRead2=0x777
000003d9 e0fc                BCR      STATUS, BK0
000003da ff59                MOVAR    0x26
000003db fe82                MOVR     0x7d, ToAcc
000003dc f2fc                BTRSC    STATUS, Z
000003dd c3db                LGOTO    0x424; main.o:_00294_DS_=0x424
000003de e4fc                BSR      STATUS, BK0
000003df fecf                MOVR     0x30, ToAcc
000003e0 f6fc                BTRSS    STATUS, Z
000003e1 c3db                LGOTO    0x424; main.o:_00294_DS_=0x424
000003e2 e0fc                BCR      STATUS, BK0
000003e3 fed9                MOVR     0x26, ToAcc
000003e4 f2fc                BTRSC    STATUS, Z
000003e5 c3dd                LGOTO    0x422; main.o:_00289_DS_=0x422
000003e6 e4fc                BSR      STATUS, BK0
000003e7 fd52                CLRR     0x2d
000003e8 e0fc                BCR      STATUS, BK0
000003e9 fe8b                MOVR     0x74, ToAcc
000003ea f6fc                BTRSS    STATUS, Z
000003eb c40a                LGOTO    0x3f5; main.o:_00276_DS_=0x3f5
000003ec defe                MOVIA    0x1
000003ed ff0b                MOVAR    0x74
000003ee de23                MOVIA    0xdc
000003ef e4fc                BSR      STATUS, BK0
000003f0 ff55                MOVAR    0x2a
000003f1 ffbc                SFUN     PWM1DUTY
000003f2 defe                MOVIA    0x1
000003f3 e0fc                BCR      STATUS, BK0
000003f4 ff00                MOVAR    0x7f
000003f5                     main.o:_00276_DS_:
000003f5 e0fc                BCR      STATUS, BK0
000003f6 fe80                MOVR     0x7f, ToAcc
000003f7 f6fc                BTRSS    STATUS, Z
000003f8 c3eb                LGOTO    0x414; main.o:_00287_DS_=0x414
000003f9 fed9                MOVR     0x26, ToAcc
000003fa dbfe                XORIA    0x1
000003fb f6fc                BTRSS    STATUS, Z
000003fc c3fa                LGOTO    0x405; main.o:_00284_DS_=0x405
000003fd fa0b                INCR     0x74, ToReg
000003fe de9b                MOVIA    0x64
000003ff fb8b                SUBAR    0x74, ToAcc
00000400 f7fc                BTRSS    STATUS, C
00000401 c3eb                LGOTO    0x414; main.o:_00287_DS_=0x414
00000402 defe                MOVIA    0x1
00000403 ff0b                MOVAR    0x74
00000404 c3eb                LGOTO    0x414; main.o:_00287_DS_=0x414
00000405                     main.o:_00284_DS_:
00000405 e4fc                BSR      STATUS, BK0
00000406 fa5f                INCR     0x20, ToReg
00000407 defa                MOVIA    0x5
00000408 fbdf                SUBAR    0x20, ToAcc
00000409 f7fc                BTRSS    STATUS, C
0000040a c3eb                LGOTO    0x414; main.o:_00287_DS_=0x414
0000040b fd5f                CLRR     0x20
0000040c e0fc                BCR      STATUS, BK0
0000040d fa0b                INCR     0x74, ToReg
0000040e de9b                MOVIA    0x64
0000040f fb8b                SUBAR    0x74, ToAcc
00000410 f7fc                BTRSS    STATUS, C
00000411 c3eb                LGOTO    0x414; main.o:_00287_DS_=0x414
00000412 defe                MOVIA    0x1
00000413 ff0b                MOVAR    0x74
00000414                     main.o:_00287_DS_:
00000414 def5                MOVIA    0xa
00000415 ff38                MOVAR    0x47
00000416 e0fc                BCR      STATUS, BK0
00000417 fe8b                MOVR     0x74, ToAcc
00000418 d197                LCALL    0x668; __divuchar=0x668
00000419 e0fc                BCR      STATUS, BK0
0000041a ff04                MOVAR    0x7b
0000041b def5                MOVIA    0xa
0000041c ff38                MOVAR    0x47
0000041d fe8b                MOVR     0x74, ToAcc
0000041e d146                LCALL    0x6b9; __moduchar=0x6b9
0000041f e0fc                BCR      STATUS, BK0
00000420 ff03                MOVAR    0x7c
00000421 c3db                LGOTO    0x424; main.o:_00294_DS_=0x424
00000422                     main.o:_00289_DS_:
00000422 e0fc                BCR      STATUS, BK0
00000423 fd00                CLRR     0x7f
00000424                     main.o:_00294_DS_:
00000424 ffef                RET
00000425                     _checkOutA:
00000425 e4fc                BSR      STATUS, BK0
00000426 fd5c                CLRR     0x23
00000427 e0fc                BCR      STATUS, BK0
00000428 fd11                CLRR     0x6e
00000429 fd10                CLRR     0x6f
0000042a def7                MOVIA    0x8
0000042b d122                LCALL    0x6dd; _F_AIN2_Convert=0x6dd
0000042c e0fc                BCR      STATUS, BK0
0000042d ea90                SWAPR    0x6f, ToAcc
0000042e dd0f                ANDIA    0xf0
0000042f ff10                MOVAR    0x6f
00000430 ea91                SWAPR    0x6e, ToAcc
00000431 ff11                MOVAR    0x6e
00000432 ddf0                ANDIA    0xf
00000433 ee10                IORAR    0x6f, ToReg
00000434 ed11                XORAR    0x6e, ToReg
00000435 de0f                MOVIA    0xf0
00000436 e4fc                BSR      STATUS, BK0
00000437 ef5c                ANDAR    0x23, ToReg
00000438 fedc                MOVR     0x23, ToAcc
00000439 e0fc                BCR      STATUS, BK0
0000043a ff4b                MOVAR    0x34
0000043b deff                MOVIA    0x0
0000043c ff4a                MOVAR    0x35
0000043d fecb                MOVR     0x34, ToAcc
0000043e fc11                ADDAR    0x6e, ToReg
0000043f feca                MOVR     0x35, ToAcc
00000440 f3fc                BTRSC    STATUS, C
00000441 faca                INCR     0x35, ToAcc
00000442 f2fc                BTRSC    STATUS, Z
00000443 c3ba                LGOTO    0x445; main.o:_00007_DS_=0x445
00000444 fc10                ADDAR    0x6f, ToReg
00000445                     main.o:_00007_DS_:
00000445 e3fc                BCR      STATUS, C
00000446 e0fc                BCR      STATUS, BK0
00000447 ec10                RRR      0x6f, ToReg
00000448 ec11                RRR      0x6e, ToReg
00000449 e3fc                BCR      STATUS, C
0000044a ec10                RRR      0x6f, ToReg
0000044b ec11                RRR      0x6e, ToReg
0000044c e3fc                BCR      STATUS, C
0000044d ec10                RRR      0x6f, ToReg
0000044e ec11                RRR      0x6e, ToReg
0000044f deff                MOVIA    0x0
00000450 fb90                SUBAR    0x6f, ToAcc
00000451 f6fc                BTRSS    STATUS, Z
00000452 c3aa                LGOTO    0x455; main.o:_00400_DS_=0x455
00000453 de36                MOVIA    0xc9
00000454 fb91                SUBAR    0x6e, ToAcc
00000455                     main.o:_00400_DS_:
00000455 f7fc                BTRSS    STATUS, C
00000456 c393                LGOTO    0x46c; main.o:_00387_DS_=0x46c
00000457 e4fc                BSR      STATUS, BK0
00000458 fa53                INCR     0x2c, ToReg
00000459 de04                MOVIA    0xfb
0000045a fbd3                SUBAR    0x2c, ToAcc
0000045b f7fc                BTRSS    STATUS, C
0000045c c38f                LGOTO    0x470; main.o:_00389_DS_=0x470
0000045d de05                MOVIA    0xfa
0000045e ff53                MOVAR    0x2c
0000045f d034                LCALL    0x7cb; _powerOff=0x7cb
00000460 de0b                MOVIA    0xf4
00000461 e0fc                BCR      STATUS, BK0
00000462 ff13                MOVAR    0x6c
00000463 defe                MOVIA    0x1
00000464 ff12                MOVAR    0x6d
00000465 def5                MOVIA    0xa
00000466 ff04                MOVAR    0x7b
00000467 defe                MOVIA    0x1
00000468 ff03                MOVAR    0x7c
00000469 e4fc                BSR      STATUS, BK0
0000046a ff52                MOVAR    0x2d
0000046b c38f                LGOTO    0x470; main.o:_00389_DS_=0x470
0000046c                     main.o:_00387_DS_:
0000046c e4fc                BSR      STATUS, BK0
0000046d fed3                MOVR     0x2c, ToAcc
0000046e f6fc                BTRSS    STATUS, Z
0000046f f953                DECR     0x2c, ToReg
00000470                     main.o:_00389_DS_:
00000470 ffef                RET
00000471                     __divuint:
00000471 e0fc                BCR      STATUS, BK0
00000472 ff2b                MOVAR    0x54
00000473 feb8                MOVR     0x47, ToAcc
00000474 ff2c                MOVAR    0x53
00000475 feb9                MOVR     0x46, ToAcc
00000476 ff29                MOVAR    0x56
00000477 feba                MOVR     0x45, ToAcc
00000478 ff2a                MOVAR    0x55
00000479 fd28                CLRR     0x57
0000047a fd27                CLRR     0x58
0000047b defe                MOVIA    0x1
0000047c ff26                MOVAR    0x59
0000047d fd25                CLRR     0x5a
0000047e feaa                MOVR     0x55, ToAcc
0000047f eea9                IORAR    0x56, ToAcc
00000480 f6fc                BTRSS    STATUS, Z
00000481 c37a                LGOTO    0x485; _divuint.o:_00107_DS_=0x485
00000482 de00                MOVIA    0xff
00000483 ff38                MOVAR    0x47
00000484 c345                LGOTO    0x4ba; _divuint.o:_00115_DS_=0x4ba
00000485                     _divuint.o:_00107_DS_:
00000485 e0fc                BCR      STATUS, BK0
00000486 f029                BTRSC    0x56, 0x7
00000487 c370                LGOTO    0x48f; _divuint.o:_00112_DS_=0x48f
00000488 e3fc                BCR      STATUS, C
00000489 eb2a                RLR      0x55, ToReg
0000048a eb29                RLR      0x56, ToReg
0000048b e3fc                BCR      STATUS, C
0000048c eb26                RLR      0x59, ToReg
0000048d eb25                RLR      0x5a, ToReg
0000048e c37a                LGOTO    0x485; _divuint.o:_00107_DS_=0x485
0000048f                     _divuint.o:_00112_DS_:
0000048f e0fc                BCR      STATUS, BK0
00000490 fea6                MOVR     0x59, ToAcc
00000491 eea5                IORAR    0x5a, ToAcc
00000492 f2fc                BTRSC    STATUS, Z
00000493 c349                LGOTO    0x4b6; _divuint.o:_00114_DS_=0x4b6
00000494 fea9                MOVR     0x56, ToAcc
00000495 fbab                SUBAR    0x54, ToAcc
00000496 f6fc                BTRSS    STATUS, Z
00000497 c365                LGOTO    0x49a; _divuint.o:_00135_DS_=0x49a
00000498 feaa                MOVR     0x55, ToAcc
00000499 fbac                SUBAR    0x53, ToAcc
0000049a                     _divuint.o:_00135_DS_:
0000049a f7fc                BTRSS    STATUS, C
0000049b c351                LGOTO    0x4ae; _divuint.o:_00002_DS_=0x4ae
0000049c e0fc                BCR      STATUS, BK0
0000049d fea6                MOVR     0x59, ToAcc
0000049e fc28                ADDAR    0x57, ToReg
0000049f fea5                MOVR     0x5a, ToAcc
000004a0 f3fc                BTRSC    STATUS, C
000004a1 faa5                INCR     0x5a, ToAcc
000004a2 f2fc                BTRSC    STATUS, Z
000004a3 c35a                LGOTO    0x4a5; _divuint.o:_00001_DS_=0x4a5
000004a4 fc27                ADDAR    0x58, ToReg
000004a5                     _divuint.o:_00001_DS_:
000004a5 e0fc                BCR      STATUS, BK0
000004a6 feaa                MOVR     0x55, ToAcc
000004a7 fb2c                SUBAR    0x53, ToReg
000004a8 fea9                MOVR     0x56, ToAcc
000004a9 f7fc                BTRSS    STATUS, C
000004aa faa9                INCR     0x56, ToAcc
000004ab f2fc                BTRSC    STATUS, Z
000004ac c351                LGOTO    0x4ae; _divuint.o:_00002_DS_=0x4ae
000004ad fb2b                SUBAR    0x54, ToReg
000004ae                     _divuint.o:_00002_DS_:
000004ae e3fc                BCR      STATUS, C
000004af e0fc                BCR      STATUS, BK0
000004b0 ec29                RRR      0x56, ToReg
000004b1 ec2a                RRR      0x55, ToReg
000004b2 e3fc                BCR      STATUS, C
000004b3 ec25                RRR      0x5a, ToReg
000004b4 ec26                RRR      0x59, ToReg
000004b5 c370                LGOTO    0x48f; _divuint.o:_00112_DS_=0x48f
000004b6                     _divuint.o:_00114_DS_:
000004b6 e0fc                BCR      STATUS, BK0
000004b7 fea8                MOVR     0x57, ToAcc
000004b8 ff38                MOVAR    0x47
000004b9 fea7                MOVR     0x58, ToAcc
000004ba                     _divuint.o:_00115_DS_:
000004ba ffef                RET
000004bb                     _workCtr:
000004bb e4fc                BSR      STATUS, BK0
000004bc fedb                MOVR     0x24, ToAcc
000004bd f2fc                BTRSC    STATUS, Z
000004be c339                LGOTO    0x4c6; main.o:_00266_DS_=0x4c6
000004bf f95b                DECR     0x24, ToReg
000004c0 de0b                MOVIA    0xf4
000004c1 e0fc                BCR      STATUS, BK0
000004c2 ff13                MOVAR    0x6c
000004c3 defe                MOVIA    0x1
000004c4 ff12                MOVAR    0x6d
000004c5 c302                LGOTO    0x4fd; main.o:_00268_DS_=0x4fd
000004c6                     main.o:_00266_DS_:
000004c6 e0fc                BCR      STATUS, BK0
000004c7 fe8b                MOVR     0x74, ToAcc
000004c8 f2fc                BTRSC    STATUS, Z
000004c9 c31e                LGOTO    0x4e1; main.o:_00263_DS_=0x4e1
000004ca defe                MOVIA    0x1
000004cb ef8b                ANDAR    0x74, ToAcc
000004cc ff5a                MOVAR    0x25
000004cd dbfe                XORIA    0x1
000004ce f6fc                BTRSS    STATUS, Z
000004cf c32b                LGOTO    0x4d4; main.o:_00252_DS_=0x4d4
000004d0 fd66                CLRR     TMRH
000004d1 de01                MOVIA    0xfe
000004d2 ffbf                SFUN     TMR1
000004d3 c328                LGOTO    0x4d7; main.o:_00253_DS_=0x4d7
000004d4                     main.o:_00252_DS_:
000004d4 fd66                CLRR     TMRH
000004d5 de00                MOVIA    0xff
000004d6 ffbf                SFUN     TMR1
000004d7                     main.o:_00253_DS_:
000004d7 e3fc                BCR      STATUS, C
000004d8 e0fc                BCR      STATUS, BK0
000004d9 ec8b                RRR      0x74, ToAcc
000004da ff5a                MOVAR    0x25
000004db de4b                MOVIA    0xb4
000004dc fc5a                ADDAR    0x25, ToReg
000004dd feda                MOVR     0x25, ToAcc
000004de ffbc                SFUN     PWM1DUTY
000004df d04e                LCALL    0x7b1; _pwm1Init=0x7b1
000004e0 c302                LGOTO    0x4fd; main.o:_00268_DS_=0x4fd
000004e1                     main.o:_00263_DS_:
000004e1 d7fc                LCALL    0x3; _pwm1Stop=0x3
000004e2 e0fc                BCR      STATUS, BK0
000004e3 fe93                MOVR     0x6c, ToAcc
000004e4 ee92                IORAR    0x6d, ToAcc
000004e5 f2fc                BTRSC    STATUS, Z
000004e6 c311                LGOTO    0x4ee; main.o:_00255_DS_=0x4ee
000004e7 de00                MOVIA    0xff
000004e8 fc13                ADDAR    0x6c, ToReg
000004e9 f7fc                BTRSS    STATUS, C
000004ea f912                DECR     0x6d, ToReg
000004eb defe                MOVIA    0x1
000004ec ff02                MOVAR    0x7d
000004ed c30f                LGOTO    0x4f0; main.o:_00256_DS_=0x4f0
000004ee                     main.o:_00255_DS_:
000004ee e0fc                BCR      STATUS, BK0
000004ef fd02                CLRR     0x7d
000004f0                     main.o:_00256_DS_:
000004f0 e4fc                BSR      STATUS, BK0
000004f1 fed2                MOVR     0x2d, ToAcc
000004f2 f6fc                BTRSS    STATUS, Z
000004f3 c308                LGOTO    0x4f7; main.o:_00259_DS_=0x4f7
000004f4 fecf                MOVR     0x30, ToAcc
000004f5 f2fc                BTRSC    STATUS, Z
000004f6 c302                LGOTO    0x4fd; main.o:_00268_DS_=0x4fd
000004f7                     main.o:_00259_DS_:
000004f7 e4fc                BSR      STATUS, BK0
000004f8 fa51                INCR     0x2e, ToReg
000004f9 decc                MOVIA    0x33
000004fa fbd1                SUBAR    0x2e, ToAcc
000004fb f3fc                BTRSC    STATUS, C
000004fc fd51                CLRR     0x2e
000004fd                     main.o:_00268_DS_:
000004fd ffef                RET
000004fe                     _isr:
000004fe ff3d                MOVAR    0x42
000004ff eafc                SWAPR    STATUS, ToAcc
00000500 fd7c                CLRR     STATUS
00000501 ff3e                MOVAR    0x41
00000502 fef5                MOVR     PCHBUF, ToAcc
00000503 fd75                CLRR     PCHBUF
00000504 ff3f                MOVAR    0x40
00000505 fefb                MOVR     FSR, ToAcc
00000506 e0fc                BCR      STATUS, BK0
00000507 ff18                MOVAR    0x67
00000508 feb8                MOVR     0x47, ToAcc
00000509 ff17                MOVAR    0x68
0000050a feb9                MOVR     0x46, ToAcc
0000050b ff16                MOVAR    0x69
0000050c f7f0                BTRSS    INTF, T0IF
0000050d c2d7                LGOTO    0x528; main.o:_00113_DS_=0x528
0000050e dec8                MOVIA    0x37
0000050f fc7e                ADDAR    TMR0, ToReg
00000510 fa09                INCR     0x76, ToReg
00000511 de9b                MOVIA    0x64
00000512 fb89                SUBAR    0x76, ToAcc
00000513 f7fc                BTRSS    STATUS, C
00000514 c2d7                LGOTO    0x528; main.o:_00113_DS_=0x528
00000515 defe                MOVIA    0x1
00000516 ff0a                MOVAR    0x75
00000517 fd09                CLRR     0x76
00000518 fa08                INCR     0x77, ToReg
00000519 de9b                MOVIA    0x64
0000051a fb88                SUBAR    0x77, ToAcc
0000051b f7fc                BTRSS    STATUS, C
0000051c c2d7                LGOTO    0x528; main.o:_00113_DS_=0x528
0000051d fd08                CLRR     0x77
0000051e fe8b                MOVR     0x74, ToAcc
0000051f f2fc                BTRSC    STATUS, Z
00000520 c2da                LGOTO    0x525; main.o:_00106_DS_=0x525
00000521 fa15                INCR     0x6a, ToReg
00000522 f2fc                BTRSC    STATUS, Z
00000523 fa14                INCR     0x6b, ToReg
00000524 c2d7                LGOTO    0x528; main.o:_00113_DS_=0x528
00000525                     main.o:_00106_DS_:
00000525 e0fc                BCR      STATUS, BK0
00000526 fd15                CLRR     0x6a
00000527 fd14                CLRR     0x6b
00000528                     main.o:_00113_DS_:
00000528 f770                BTRSS    INTF, PABIF
00000529 c2d3                LGOTO    0x52c; main.o:_00115_DS_=0x52c
0000052a de02                MOVIA    0xfd
0000052b ff70                MOVAR    INTF
0000052c                     main.o:_00115_DS_:
0000052c fd70                CLRR     INTF
0000052d e0fc                BCR      STATUS, BK0
0000052e fe96                MOVR     0x69, ToAcc
0000052f ff39                MOVAR    0x46
00000530 fe97                MOVR     0x68, ToAcc
00000531 ff38                MOVAR    0x47
00000532 fe98                MOVR     0x67, ToAcc
00000533 ff7b                MOVAR    FSR
00000534 febf                MOVR     0x40, ToAcc
00000535 ff75                MOVAR    PCHBUF
00000536 fd7c                CLRR     STATUS
00000537 eabe                SWAPR    0x41, ToAcc
00000538 ff7c                MOVAR    STATUS
00000539 ea3d                SWAPR    0x42, ToReg
0000053a eabd                SWAPR    0x42, ToAcc
0000053b                     main.o:END_OF_INTERRUPT:
0000053b ffee                RETIE
0000053c                     __mulint:
0000053c e0fc                BCR      STATUS, BK0
0000053d ff20                MOVAR    0x5f
0000053e feb8                MOVR     0x47, ToAcc
0000053f ff21                MOVAR    0x5e
00000540 feb9                MOVR     0x46, ToAcc
00000541 ff1e                MOVAR    0x61
00000542 feba                MOVR     0x45, ToAcc
00000543 ff1f                MOVAR    0x60
00000544 fd1d                CLRR     0x62
00000545 fd1c                CLRR     0x63
00000546 def7                MOVIA    0x8
00000547 ff1b                MOVAR    0x64
00000548                     _mulint.o:_00119_DS_:
00000548 e0fc                BCR      STATUS, BK0
00000549 f7a1                BTRSS    0x5e, 0x0
0000054a c2ac                LGOTO    0x553; _mulint.o:_00001_DS_=0x553
0000054b fe9f                MOVR     0x60, ToAcc
0000054c fc1d                ADDAR    0x62, ToReg
0000054d fe9e                MOVR     0x61, ToAcc
0000054e f3fc                BTRSC    STATUS, C
0000054f fa9e                INCR     0x61, ToAcc
00000550 f2fc                BTRSC    STATUS, Z
00000551 c2ac                LGOTO    0x553; _mulint.o:_00001_DS_=0x553
00000552 fc1c                ADDAR    0x63, ToReg
00000553                     _mulint.o:_00001_DS_:
00000553 e0fc                BCR      STATUS, BK0
00000554 f7a0                BTRSS    0x5f, 0x0
00000555 c29e                LGOTO    0x561; _mulint.o:_00002_DS_=0x561
00000556 fe9f                MOVR     0x60, ToAcc
00000557 fd1a                CLRR     0x65
00000558 deff                MOVIA    0x0
00000559 fc1d                ADDAR    0x62, ToReg
0000055a fe9f                MOVR     0x60, ToAcc
0000055b ff19                MOVAR    0x66
0000055c f3fc                BTRSC    STATUS, C
0000055d fa99                INCR     0x66, ToAcc
0000055e f2fc                BTRSC    STATUS, Z
0000055f c29e                LGOTO    0x561; _mulint.o:_00002_DS_=0x561
00000560 fc1c                ADDAR    0x63, ToReg
00000561                     _mulint.o:_00002_DS_:
00000561 e0fc                BCR      STATUS, BK0
00000562 fea1                MOVR     0x5e, ToAcc
00000563 ff1a                MOVAR    0x65
00000564 fea0                MOVR     0x5f, ToAcc
00000565 ff19                MOVAR    0x66
00000566 e3fc                BCR      STATUS, C
00000567 ec99                RRR      0x66, ToAcc
00000568 ff20                MOVAR    0x5f
00000569 ec9a                RRR      0x65, ToAcc
0000056a ff21                MOVAR    0x5e
0000056b e3fc                BCR      STATUS, C
0000056c eb1f                RLR      0x60, ToReg
0000056d eb1e                RLR      0x61, ToReg
0000056e f99b                DECR     0x64, ToAcc
0000056f ff1a                MOVAR    0x65
00000570 ff1b                MOVAR    0x64
00000571 fe9a                MOVR     0x65, ToAcc
00000572 f6fc                BTRSS    STATUS, Z
00000573 c2b7                LGOTO    0x548; _mulint.o:_00119_DS_=0x548
00000574 fe9d                MOVR     0x62, ToAcc
00000575 ff38                MOVAR    0x47
00000576 fe9c                MOVR     0x63, ToAcc
00000577 ffef                RET
00000578                     _gotoSleep:
00000578 e4fc                BSR      STATUS, BK0
00000579 fd51                CLRR     0x2e
0000057a fd4e                CLRR     0x31
0000057b fd52                CLRR     0x2d
0000057c e0fc                BCR      STATUS, BK0
0000057d fd15                CLRR     0x6a
0000057e fd14                CLRR     0x6b
0000057f e579                BSR      PORTB, PB5
00000580 f579                BTRSS    PORTB, PB5
00000581 e1f9                BCR      PORTB, PB4
00000582 f179                BTRSC    PORTB, PB5
00000583 e5f9                BSR      PORTB, PB4
00000584 f1f9                BTRSC    PORTB, PB4
00000585 c278                LGOTO    0x587; main.o:_00008_DS_=0x587
00000586 e27a                BCR      PORTA, PA3
00000587                     main.o:_00008_DS_:
00000587 f5f9                BTRSS    PORTB, PB4
00000588 c274                LGOTO    0x58b; main.o:_00009_DS_=0x58b
00000589 e0fc                BCR      STATUS, BK0
0000058a e67a                BSR      PORTA, PA3
0000058b                     main.o:_00009_DS_:
0000058b e0fc                BCR      STATUS, BK0
0000058c f67a                BTRSS    PORTA, PA3
0000058d e1fa                BCR      PORTA, PA4
0000058e f27a                BTRSC    PORTA, PA3
0000058f e5fa                BSR      PORTA, PA4
00000590 ffea                IOSTR    IOSTA
00000591 ff4f                MOVAR    0x30
00000592 e54f                BSR      0x30, 0x5
00000593 fecf                MOVR     0x30, ToAcc
00000594 fffa                IOST     IOSTA
00000595 e4fc                BSR      STATUS, BK0
00000596 fd58                CLRR     0x27
00000597 e0fc                BCR      STATUS, BK0
00000598 fd0b                CLRR     0x74
00000599 fd02                CLRR     0x7d
0000059a fd13                CLRR     0x6c
0000059b fd12                CLRR     0x6d
0000059c d7fc                LCALL    0x3; _pwm1Stop=0x3
0000059d defd                MOVIA    0x2
0000059e ff6a                MOVAR    AWUCON
0000059f defb                MOVIA    0x4
000005a0 ff76                MOVAR    BWUCON
000005a1 defd                MOVIA    0x2
000005a2 ff71                MOVAR    INTE
000005a3 dee7                MOVIA    0x18
000005a4 ff77                MOVAR    PCON
000005a5 fd70                CLRR     INTF
000005a6 fffd                CLRWDT
000005a7 fffb                ENI
000005a8 fffe                SLEEP
000005a9 fd6a                CLRR     AWUCON
000005aa fd76                CLRR     BWUCON
000005ab defe                MOVIA    0x1
000005ac ff71                MOVAR    INTE
000005ad fd70                CLRR     INTF
000005ae de47                MOVIA    0xb8
000005af ff77                MOVAR    PCON
000005b0 ffef                RET
000005b1                     _refreshBat:
000005b1 e0fc                BCR      STATUS, BK0
000005b2 e5fa                BSR      PORTA, PA4
000005b3 e67a                BSR      PORTA, PA3
000005b4 e5f9                BSR      PORTB, PB4
000005b5 e579                BSR      PORTB, PB5
000005b6 fe86                MOVR     0x79, ToAcc
000005b7 da5b                ADDIA    0xa4
000005b8 ff51                MOVAR    0x2e
000005b9 def8                MOVIA    0x7
000005ba f3fc                BTRSC    STATUS, C
000005bb dafe                ADDIA    0x1
000005bc ff50                MOVAR    0x2f
000005bd fed1                MOVR     0x2e, ToAcc
000005be ff39                MOVAR    0x46
000005bf fed0                MOVR     0x2f, ToAcc
000005c0 ff38                MOVAR    0x47
000005c1 de7f                MOVIA    0x80
000005c2 d06e                LCALL    0x791; __gptrget=0x791
000005c3 d0c0                LCALL    0x73f; _ind_light_disp=0x73f
000005c4 e0fc                BCR      STATUS, BK0
000005c5 e5fa                BSR      PORTA, PA4
000005c6 e27a                BCR      PORTA, PA3
000005c7 de9b                MOVIA    0x64
000005c8 d01b                LCALL    0x7e4; _delay_us=0x7e4
000005c9 e0fc                BCR      STATUS, BK0
000005ca e5fa                BSR      PORTA, PA4
000005cb e67a                BSR      PORTA, PA3
000005cc fe85                MOVR     0x7a, ToAcc
000005cd da5b                ADDIA    0xa4
000005ce ff51                MOVAR    0x2e
000005cf def8                MOVIA    0x7
000005d0 f3fc                BTRSC    STATUS, C
000005d1 dafe                ADDIA    0x1
000005d2 ff50                MOVAR    0x2f
000005d3 fed1                MOVR     0x2e, ToAcc
000005d4 ff39                MOVAR    0x46
000005d5 fed0                MOVR     0x2f, ToAcc
000005d6 ff38                MOVAR    0x47
000005d7 de7f                MOVIA    0x80
000005d8 d06e                LCALL    0x791; __gptrget=0x791
000005d9 d0c0                LCALL    0x73f; _ind_light_disp=0x73f
000005da e0fc                BCR      STATUS, BK0
000005db e1fa                BCR      PORTA, PA4
000005dc e67a                BSR      PORTA, PA3
000005dd de9b                MOVIA    0x64
000005de d01b                LCALL    0x7e4; _delay_us=0x7e4
000005df e0fc                BCR      STATUS, BK0
000005e0 e5fa                BSR      PORTA, PA4
000005e1 e67a                BSR      PORTA, PA3
000005e2 ffef                RET
000005e3                     _getbatGe:
000005e3 e0fc                BCR      STATUS, BK0
000005e4 ff4d                MOVAR    0x32
000005e5 feb8                MOVR     0x47, ToAcc
000005e6 ff4e                MOVAR    0x31
000005e7 feb9                MOVR     0x46, ToAcc
000005e8 ff4c                MOVAR    0x33
000005e9 fece                MOVR     0x31, ToAcc
000005ea fb91                SUBAR    0x6e, ToAcc
000005eb ff4e                MOVAR    0x31
000005ec fecd                MOVR     0x32, ToAcc
000005ed f7fc                BTRSS    STATUS, C
000005ee facd                INCR     0x32, ToAcc
000005ef fb90                SUBAR    0x6f, ToAcc
000005f0 ff4d                MOVAR    0x32
000005f1 fece                MOVR     0x31, ToAcc
000005f2 ff3a                MOVAR    0x45
000005f3 fecd                MOVR     0x32, ToAcc
000005f4 ff39                MOVAR    0x46
000005f5 def5                MOVIA    0xa
000005f6 ff38                MOVAR    0x47
000005f7 deff                MOVIA    0x0
000005f8 d2c3                LCALL    0x53c; __mulint=0x53c
000005f9 e0fc                BCR      STATUS, BK0
000005fa ff4d                MOVAR    0x32
000005fb feb8                MOVR     0x47, ToAcc
000005fc ff4e                MOVAR    0x31
000005fd fecc                MOVR     0x33, ToAcc
000005fe ff3a                MOVAR    0x45
000005ff deff                MOVIA    0x0
00000600 ff39                MOVAR    0x46
00000601 fece                MOVR     0x31, ToAcc
00000602 ff38                MOVAR    0x47
00000603 fecd                MOVR     0x32, ToAcc
00000604 d38e                LCALL    0x471; __divuint=0x471
00000605 e0fc                BCR      STATUS, BK0
00000606 ff4d                MOVAR    0x32
00000607 feb8                MOVR     0x47, ToAcc
00000608 ff4e                MOVAR    0x31
00000609 ff4c                MOVAR    0x33
0000060a def5                MOVIA    0xa
0000060b fbcc                SUBAR    0x33, ToAcc
0000060c f7fc                BTRSS    STATUS, C
0000060d c1ef                LGOTO    0x610; main.o:_00377_DS_=0x610
0000060e def6                MOVIA    0x9
0000060f ff4c                MOVAR    0x33
00000610                     main.o:_00377_DS_:
00000610 e0fc                BCR      STATUS, BK0
00000611 fecc                MOVR     0x33, ToAcc
00000612 ffef                RET
00000613                     ___cinit_load__:
00000613 e0fc                BCR      STATUS, BK0
00000614 fd0b                CLRR     0x74
00000615 fd0a                CLRR     0x75
00000616 fd09                CLRR     0x76
00000617 fd08                CLRR     0x77
00000618 fd15                CLRR     0x6a
00000619 fd14                CLRR     0x6b
0000061a fd07                CLRR     0x78
0000061b fd06                CLRR     0x79
0000061c fd05                CLRR     0x7a
0000061d fd04                CLRR     0x7b
0000061e fd03                CLRR     0x7c
0000061f fd13                CLRR     0x6c
00000620 fd12                CLRR     0x6d
00000621 fd02                CLRR     0x7d
00000622 fd01                CLRR     0x7e
00000623 fd00                CLRR     0x7f
00000624 fd11                CLRR     0x6e
00000625 fd10                CLRR     0x6f
00000626 fd0f                CLRR     0x70
00000627 fd0e                CLRR     0x71
00000628 fd0d                CLRR     0x72
00000629 fd0c                CLRR     0x73
0000062a e4fc                BSR      STATUS, BK0
0000062b fd5f                CLRR     0x20
0000062c fd5e                CLRR     0x21
0000062d fd5d                CLRR     0x22
0000062e fd5c                CLRR     0x23
0000062f fd5b                CLRR     0x24
00000630 fd5a                CLRR     0x25
00000631 fd59                CLRR     0x26
00000632 fd58                CLRR     0x27
00000633 fd57                CLRR     0x28
00000634 fd56                CLRR     0x29
00000635 fd55                CLRR     0x2a
00000636 fd54                CLRR     0x2b
00000637 fd53                CLRR     0x2c
00000638 fd52                CLRR     0x2d
00000639 fd51                CLRR     0x2e
0000063a fd50                CLRR     0x2f
0000063b fd4f                CLRR     0x30
0000063c fd4e                CLRR     0x31
0000063d fd4d                CLRR     0x32
0000063e ffef                RET
0000063f                     _keyRead:
0000063f e0fc                BCR      STATUS, BK0
00000640 ff58                MOVAR    0x27
00000641 fed8                MOVR     0x27, ToAcc
00000642 f2fc                BTRSC    STATUS, Z
00000643 c1ac                LGOTO    0x653; main.o:_00309_DS_=0x653
00000644 e4fc                BSR      STATUS, BK0
00000645 fa5e                INCR     0x21, ToReg
00000646 def5                MOVIA    0xa
00000647 fbde                SUBAR    0x21, ToAcc
00000648 f7fc                BTRSS    STATUS, C
00000649 c199                LGOTO    0x666; main.o:_00310_DS_=0x666
0000064a def5                MOVIA    0xa
0000064b ff5e                MOVAR    0x21
0000064c fedd                MOVR     0x22, ToAcc
0000064d f6fc                BTRSS    STATUS, Z
0000064e c199                LGOTO    0x666; main.o:_00310_DS_=0x666
0000064f defe                MOVIA    0x1
00000650 ff5d                MOVAR    0x22
00000651 defd                MOVIA    0x2
00000652 c198                LGOTO    0x667; main.o:_00311_DS_=0x667
00000653                     main.o:_00309_DS_:
00000653 de9b                MOVIA    0x64
00000654 e4fc                BSR      STATUS, BK0
00000655 fbde                SUBAR    0x21, ToAcc
00000656 f7fc                BTRSS    STATUS, C
00000657 c1a3                LGOTO    0x65c; main.o:_00306_DS_=0x65c
00000658 fd5e                CLRR     0x21
00000659 fd5d                CLRR     0x22
0000065a deff                MOVIA    0x0
0000065b c198                LGOTO    0x667; main.o:_00311_DS_=0x667
0000065c                     main.o:_00306_DS_:
0000065c defb                MOVIA    0x4
0000065d e4fc                BSR      STATUS, BK0
0000065e fbde                SUBAR    0x21, ToAcc
0000065f f7fc                BTRSS    STATUS, C
00000660 c19b                LGOTO    0x664; main.o:_00307_DS_=0x664
00000661 fd5e                CLRR     0x21
00000662 defe                MOVIA    0x1
00000663 c198                LGOTO    0x667; main.o:_00311_DS_=0x667
00000664                     main.o:_00307_DS_:
00000664 e4fc                BSR      STATUS, BK0
00000665 fd5e                CLRR     0x21
00000666                     main.o:_00310_DS_:
00000666 deff                MOVIA    0x0
00000667                     main.o:_00311_DS_:
00000667 ffef                RET
00000668                     __divuchar:
00000668 e0fc                BCR      STATUS, BK0
00000669 ff30                MOVAR    0x4f
0000066a feb8                MOVR     0x47, ToAcc
0000066b ff2f                MOVAR    0x50
0000066c fd2e                CLRR     0x51
0000066d defe                MOVIA    0x1
0000066e ff2d                MOVAR    0x52
0000066f feaf                MOVR     0x50, ToAcc
00000670 f6fc                BTRSS    STATUS, Z
00000671 c18b                LGOTO    0x674; _divuchar.o:_00107_DS_=0x674
00000672 de00                MOVIA    0xff
00000673 c16f                LGOTO    0x690; _divuchar.o:_00115_DS_=0x690
00000674                     _divuchar.o:_00107_DS_:
00000674 e0fc                BCR      STATUS, BK0
00000675 f02f                BTRSC    0x50, 0x7
00000676 c183                LGOTO    0x67c; _divuchar.o:_00112_DS_=0x67c
00000677 e3fc                BCR      STATUS, C
00000678 eb2f                RLR      0x50, ToReg
00000679 e3fc                BCR      STATUS, C
0000067a eb2d                RLR      0x52, ToReg
0000067b c18b                LGOTO    0x674; _divuchar.o:_00107_DS_=0x674
0000067c                     _divuchar.o:_00112_DS_:
0000067c e0fc                BCR      STATUS, BK0
0000067d fead                MOVR     0x52, ToAcc
0000067e f2fc                BTRSC    STATUS, Z
0000067f c171                LGOTO    0x68e; _divuchar.o:_00114_DS_=0x68e
00000680 feaf                MOVR     0x50, ToAcc
00000681 fbb0                SUBAR    0x4f, ToAcc
00000682 f7fc                BTRSS    STATUS, C
00000683 c177                LGOTO    0x688; _divuchar.o:_00111_DS_=0x688
00000684 fead                MOVR     0x52, ToAcc
00000685 fc2e                ADDAR    0x51, ToReg
00000686 feaf                MOVR     0x50, ToAcc
00000687 fb30                SUBAR    0x4f, ToReg
00000688                     _divuchar.o:_00111_DS_:
00000688 e3fc                BCR      STATUS, C
00000689 e0fc                BCR      STATUS, BK0
0000068a ec2f                RRR      0x50, ToReg
0000068b e3fc                BCR      STATUS, C
0000068c ec2d                RRR      0x52, ToReg
0000068d c183                LGOTO    0x67c; _divuchar.o:_00112_DS_=0x67c
0000068e                     _divuchar.o:_00114_DS_:
0000068e e0fc                BCR      STATUS, BK0
0000068f feae                MOVR     0x51, ToAcc
00000690                     _divuchar.o:_00115_DS_:
00000690 ffef                RET
00000691                     _chrgCtr:
00000691 e0fc                BCR      STATUS, BK0
00000692 f77a                BTRSS    PORTA, PA1
00000693 c14b                LGOTO    0x6b4; main.o:_00244_DS_=0x6b4
00000694 e4fc                BSR      STATUS, BK0
00000695 fd4f                CLRR     0x30
00000696 defe                MOVIA    0x1
00000697 ff59                MOVAR    0x26
00000698 e0fc                BCR      STATUS, BK0
00000699 ff02                MOVAR    0x7d
0000069a fd13                CLRR     0x6c
0000069b fd12                CLRR     0x6d
0000069c e4fc                BSR      STATUS, BK0
0000069d fd5b                CLRR     0x24
0000069e e0fc                BCR      STATUS, BK0
0000069f fd0b                CLRR     0x74
000006a0 d7fc                LCALL    0x3; _pwm1Stop=0x3
000006a1 e4fc                BSR      STATUS, BK0
000006a2 fa5f                INCR     0x20, ToReg
000006a3 decd                MOVIA    0x32
000006a4 fbdf                SUBAR    0x20, ToAcc
000006a5 f7fc                BTRSS    STATUS, C
000006a6 c147                LGOTO    0x6b8; main.o:_00246_DS_=0x6b8
000006a7 fd5f                CLRR     0x20
000006a8 fa5a                INCR     0x25, ToReg
000006a9 def3                MOVIA    0xc
000006aa fbda                SUBAR    0x25, ToAcc
000006ab f3fc                BTRSC    STATUS, C
000006ac fd5a                CLRR     0x25
000006ad feda                MOVR     0x25, ToAcc
000006ae e0fc                BCR      STATUS, BK0
000006af ff5b                MOVAR    0x24
000006b0 ff03                MOVAR    0x7c
000006b1 fedb                MOVR     0x24, ToAcc
000006b2 ff04                MOVAR    0x7b
000006b3 c147                LGOTO    0x6b8; main.o:_00246_DS_=0x6b8
000006b4                     main.o:_00244_DS_:
000006b4 e4fc                BSR      STATUS, BK0
000006b5 fd59                CLRR     0x26
000006b6 d444                LCALL    0x3bb; _keyCtr=0x3bb
000006b7 d344                LCALL    0x4bb; _workCtr=0x4bb
000006b8                     main.o:_00246_DS_:
000006b8 ffef                RET
000006b9                     __moduchar:
000006b9 e0fc                BCR      STATUS, BK0
000006ba ff24                MOVAR    0x5b
000006bb feb8                MOVR     0x47, ToAcc
000006bc ff23                MOVAR    0x5c
000006bd f6fc                BTRSS    STATUS, Z
000006be c13e                LGOTO    0x6c1; _moduchar.o:_00119_DS_=0x6c1
000006bf de00                MOVIA    0xff
000006c0 c123                LGOTO    0x6dc; _moduchar.o:_00115_DS_=0x6dc
000006c1                     _moduchar.o:_00119_DS_:
000006c1 defe                MOVIA    0x1
000006c2 e0fc                BCR      STATUS, BK0
000006c3 ff22                MOVAR    0x5d
000006c4                     _moduchar.o:_00107_DS_:
000006c4 e0fc                BCR      STATUS, BK0
000006c5 f023                BTRSC    0x5c, 0x7
000006c6 c134                LGOTO    0x6cb; _moduchar.o:_00112_DS_=0x6cb
000006c7 e3fc                BCR      STATUS, C
000006c8 eb23                RLR      0x5c, ToReg
000006c9 fa22                INCR     0x5d, ToReg
000006ca c13b                LGOTO    0x6c4; _moduchar.o:_00107_DS_=0x6c4
000006cb                     _moduchar.o:_00112_DS_:
000006cb e0fc                BCR      STATUS, BK0
000006cc fea2                MOVR     0x5d, ToAcc
000006cd f2fc                BTRSC    STATUS, Z
000006ce c125                LGOTO    0x6da; _moduchar.o:_00114_DS_=0x6da
000006cf fea3                MOVR     0x5c, ToAcc
000006d0 fba4                SUBAR    0x5b, ToAcc
000006d1 f7fc                BTRSS    STATUS, C
000006d2 c12a                LGOTO    0x6d5; _moduchar.o:_00111_DS_=0x6d5
000006d3 fea3                MOVR     0x5c, ToAcc
000006d4 fb24                SUBAR    0x5b, ToReg
000006d5                     _moduchar.o:_00111_DS_:
000006d5 e3fc                BCR      STATUS, C
000006d6 e0fc                BCR      STATUS, BK0
000006d7 ec23                RRR      0x5c, ToReg
000006d8 f922                DECR     0x5d, ToReg
000006d9 c134                LGOTO    0x6cb; _moduchar.o:_00112_DS_=0x6cb
000006da                     _moduchar.o:_00114_DS_:
000006da e0fc                BCR      STATUS, BK0
000006db fea4                MOVR     0x5b, ToAcc
000006dc                     _moduchar.o:_00115_DS_:
000006dc ffef                RET
000006dd                     _F_AIN2_Convert:
000006dd e0fc                BCR      STATUS, BK0
000006de ff42                MOVAR    0x3d
000006df de6d                MOVIA    0x92
000006e0 ff6f                MOVAR    ADMD
000006e1 defe                MOVIA    0x1
000006e2 ff41                MOVAR    0x3e
000006e3                     main.o:_00600_DS_:
000006e3 e0fc                BCR      STATUS, BK0
000006e4 fec1                MOVR     0x3e, ToAcc
000006e5 fbc2                SUBAR    0x3d, ToAcc
000006e6 f7fc                BTRSS    STATUS, C
000006e7 c101                LGOTO    0x6fe; main.o:_00602_DS_=0x6fe
000006e8 e4ef                BSR      ADMD, START
000006e9 d00a                LCALL    0x7f5; _F_wait_eoc=0x7f5
000006ea def0                MOVIA    0xf
000006eb efee                ANDAR    ADR, ToAcc
000006ec e4fc                BSR      STATUS, BK0
000006ed fc5c                ADDAR    0x23, ToReg
000006ee feed                MOVR     ADD, ToAcc
000006ef e0fc                BCR      STATUS, BK0
000006f0 ff40                MOVAR    0x3f
000006f1 deff                MOVIA    0x0
000006f2 ff37                MOVAR    0x48
000006f3 fec0                MOVR     0x3f, ToAcc
000006f4 fc11                ADDAR    0x6e, ToReg
000006f5 feb7                MOVR     0x48, ToAcc
000006f6 f3fc                BTRSC    STATUS, C
000006f7 fab7                INCR     0x48, ToAcc
000006f8 f2fc                BTRSC    STATUS, Z
000006f9 c104                LGOTO    0x6fb; main.o:_00002_DS_=0x6fb
000006fa fc10                ADDAR    0x6f, ToReg
000006fb                     main.o:_00002_DS_:
000006fb e0fc                BCR      STATUS, BK0
000006fc fa41                INCR     0x3e, ToReg
000006fd c11c                LGOTO    0x6e3; main.o:_00600_DS_=0x6e3
000006fe                     main.o:_00602_DS_:
000006fe ffef                RET
000006ff                     _F_AIN0_Convert:
000006ff e0fc                BCR      STATUS, BK0
00000700 ff46                MOVAR    0x39
00000701 de69                MOVIA    0x96
00000702 ff6f                MOVAR    ADMD
00000703 defe                MOVIA    0x1
00000704 ff45                MOVAR    0x3a
00000705                     main.o:_00591_DS_:
00000705 e0fc                BCR      STATUS, BK0
00000706 fec5                MOVR     0x3a, ToAcc
00000707 fbc6                SUBAR    0x39, ToAcc
00000708 f7fc                BTRSS    STATUS, C
00000709 c0df                LGOTO    0x720; main.o:_00593_DS_=0x720
0000070a e4ef                BSR      ADMD, START
0000070b d00a                LCALL    0x7f5; _F_wait_eoc=0x7f5
0000070c def0                MOVIA    0xf
0000070d efee                ANDAR    ADR, ToAcc
0000070e e4fc                BSR      STATUS, BK0
0000070f fc5c                ADDAR    0x23, ToReg
00000710 feed                MOVR     ADD, ToAcc
00000711 e0fc                BCR      STATUS, BK0
00000712 ff44                MOVAR    0x3b
00000713 deff                MOVIA    0x0
00000714 ff43                MOVAR    0x3c
00000715 fec4                MOVR     0x3b, ToAcc
00000716 fc11                ADDAR    0x6e, ToReg
00000717 fec3                MOVR     0x3c, ToAcc
00000718 f3fc                BTRSC    STATUS, C
00000719 fac3                INCR     0x3c, ToAcc
0000071a f2fc                BTRSC    STATUS, Z
0000071b c0e2                LGOTO    0x71d; main.o:_00003_DS_=0x71d
0000071c fc10                ADDAR    0x6f, ToReg
0000071d                     main.o:_00003_DS_:
0000071d e0fc                BCR      STATUS, BK0
0000071e fa45                INCR     0x3a, ToReg
0000071f c0fa                LGOTO    0x705; main.o:_00591_DS_=0x705
00000720                     main.o:_00593_DS_:
00000720 ffef                RET
00000721                     _initSys:
00000721 ffec                DISI
00000722 deb9                MOVIA    0x46
00000723 fffa                IOST     IOSTA
00000724 def9                MOVIA    0x6
00000725 fff9                IOST     IOSTB
00000726 fd79                CLRR     PORTB
00000727 e0fc                BCR      STATUS, BK0
00000728 fd7a                CLRR     PORTA
00000729 de40                MOVIA    0xbf
0000072a fff6                IOST     APHCON
0000072b de04                MOVIA    0xfb
0000072c ff73                MOVAR    BPHCON
0000072d de00                MOVIA    0xff
0000072e ff74                MOVAR    ABPLCON
0000072f defe                MOVIA    0x1
00000730 ff71                MOVAR    INTE
00000731 fdff                CLRA
00000732 fff0                IOST     PCON1
00000733 dec8                MOVIA    0x37
00000734 ff7e                MOVAR    TMR0
00000735 defe                MOVIA    0x1
00000736 fffc                T0MD
00000737 fff0                IOST     PCON1
00000738 de67                MOVIA    0x98
00000739 ff77                MOVAR    PCON
0000073a defe                MOVIA    0x1
0000073b fff0                IOST     PCON1
0000073c fffb                ENI
0000073d fd07                CLRR     0x78
0000073e ffef                RET
0000073f                     _ind_light_disp:
0000073f e0fc                BCR      STATUS, BK0
00000740 ff55                MOVAR    0x2a
00000741 fd54                CLRR     0x2b
00000742                     main.o:_00351_DS_:
00000742 e0fc                BCR      STATUS, BK0
00000743 e07a                BCR      PORTA, PA7
00000744 d011                LCALL    0x7ee; _Delay10Us=0x7ee
00000745 e0fc                BCR      STATUS, BK0
00000746 f455                BTRSS    0x2a, 0x7
00000747 c0b4                LGOTO    0x74b; main.o:_00348_DS_=0x74b
00000748 e7fa                BSR      PORTA, PA0
00000749 d011                LCALL    0x7ee; _Delay10Us=0x7ee
0000074a c0b1                LGOTO    0x74e; main.o:_00349_DS_=0x74e
0000074b                     main.o:_00348_DS_:
0000074b e0fc                BCR      STATUS, BK0
0000074c e3fa                BCR      PORTA, PA0
0000074d d011                LCALL    0x7ee; _Delay10Us=0x7ee
0000074e                     main.o:_00349_DS_:
0000074e e0fc                BCR      STATUS, BK0
0000074f e47a                BSR      PORTA, PA7
00000750 d011                LCALL    0x7ee; _Delay10Us=0x7ee
00000751 e3fc                BCR      STATUS, C
00000752 e0fc                BCR      STATUS, BK0
00000753 eb55                RLR      0x2a, ToReg
00000754 fa54                INCR     0x2b, ToReg
00000755 def7                MOVIA    0x8
00000756 fbd4                SUBAR    0x2b, ToAcc
00000757 f7fc                BTRSS    STATUS, C
00000758 c0bd                LGOTO    0x742; main.o:_00351_DS_=0x742
00000759 e07a                BCR      PORTA, PA7
0000075a e3fa                BCR      PORTA, PA0
0000075b ffef                RET
0000075c                     _delay:
0000075c e0fc                BCR      STATUS, BK0
0000075d ff35                MOVAR    0x4a
0000075e feb8                MOVR     0x47, ToAcc
0000075f ff36                MOVAR    0x49
00000760 defe                MOVIA    0x1
00000761 ff34                MOVAR    0x4b
00000762 fd33                CLRR     0x4c
00000763                     main.o:_00614_DS_:
00000763 e0fc                BCR      STATUS, BK0
00000764 feb5                MOVR     0x4a, ToAcc
00000765 da7f                ADDIA    0x80
00000766 ff32                MOVAR    0x4d
00000767 feb3                MOVR     0x4c, ToAcc
00000768 da7f                ADDIA    0x80
00000769 fbb2                SUBAR    0x4d, ToAcc
0000076a f6fc                BTRSS    STATUS, Z
0000076b c091                LGOTO    0x76e; main.o:_00625_DS_=0x76e
0000076c feb4                MOVR     0x4b, ToAcc
0000076d fbb6                SUBAR    0x49, ToAcc
0000076e                     main.o:_00625_DS_:
0000076e f7fc                BTRSS    STATUS, C
0000076f c089                LGOTO    0x776; main.o:_00616_DS_=0x776
00000770 e0fc                BCR      STATUS, BK0
00000771 fa34                INCR     0x4b, ToReg
00000772 f6fc                BTRSS    STATUS, Z
00000773 c08a                LGOTO    0x775; main.o:_00001_DS_=0x775
00000774 fa33                INCR     0x4c, ToReg
00000775                     main.o:_00001_DS_:
00000775 c09c                LGOTO    0x763; main.o:_00614_DS_=0x763
00000776                     main.o:_00616_DS_:
00000776 ffef                RET
00000777                     _keyRead2:
00000777 e0fc                BCR      STATUS, BK0
00000778 ff57                MOVAR    0x28
00000779 fed7                MOVR     0x28, ToAcc
0000077a f2fc                BTRSC    STATUS, Z
0000077b c07a                LGOTO    0x785; main.o:_00321_DS_=0x785
0000077c fa01                INCR     0x7e, ToReg
0000077d deeb                MOVIA    0x14
0000077e fb81                SUBAR    0x7e, ToAcc
0000077f f7fc                BTRSS    STATUS, C
00000780 c070                LGOTO    0x78f; main.o:_00322_DS_=0x78f
00000781 deeb                MOVIA    0x14
00000782 ff01                MOVAR    0x7e
00000783 defd                MOVIA    0x2
00000784 c06f                LGOTO    0x790; main.o:_00323_DS_=0x790
00000785                     main.o:_00321_DS_:
00000785 defb                MOVIA    0x4
00000786 e0fc                BCR      STATUS, BK0
00000787 fb81                SUBAR    0x7e, ToAcc
00000788 f7fc                BTRSS    STATUS, C
00000789 c072                LGOTO    0x78d; main.o:_00319_DS_=0x78d
0000078a fd01                CLRR     0x7e
0000078b defe                MOVIA    0x1
0000078c c06f                LGOTO    0x790; main.o:_00323_DS_=0x790
0000078d                     main.o:_00319_DS_:
0000078d e0fc                BCR      STATUS, BK0
0000078e fd01                CLRR     0x7e
0000078f                     main.o:_00322_DS_:
0000078f deff                MOVIA    0x0
00000790                     main.o:_00323_DS_:
00000790 ffef                RET
00000791                     __gptrget:
00000791 dbff                XORIA    0x0
00000792 f2fc                BTRSC    STATUS, Z
00000793 c067                LGOTO    0x798; _gptrget1.o:__dataptrget1=0x798
00000794 db7f                XORIA    0x80
00000795 f2fc                BTRSC    STATUS, Z
00000796 c060                LGOTO    0x79f; __codeptrget1=0x79f
00000797 dfff                RETIA    0x0
00000798                     _gptrget1.o:__dataptrget1:
00000798 feb9                MOVR     0x46, ToAcc
00000799 ff7b                MOVAR    FSR
0000079a e0fc                BCR      STATUS, BK0
0000079b f039                BTRSC    0x46, 0x7
0000079c e4fc                BSR      STATUS, BK0
0000079d feff                MOVR     INDF, ToAcc
0000079e ffef                RET
0000079f                     __codeptrget1:
0000079f feb8                MOVR     0x47, ToAcc
000007a0 ffb8                SFUN     TBHP
000007a1 feb9                MOVR     0x46, ToAcc
000007a2 fdee                TABLEA
000007a3 ffef                RET
000007a4                     main.o:_table:
000007a4 dfc0                RETIA    0x3f
000007a5 dff9                RETIA    0x6
000007a6 dfa4                RETIA    0x5b
000007a7 dfb0                RETIA    0x4f
000007a8 df99                RETIA    0x66
000007a9 df92                RETIA    0x6d
000007aa df82                RETIA    0x7d
000007ab dff8                RETIA    0x7
000007ac df80                RETIA    0x7f
000007ad df90                RETIA    0x6f
000007ae df86                RETIA    0x79
000007af dfc7                RETIA    0x38
000007b0 dfa3                RETIA    0x5c
000007b1                     _pwm1Init:
000007b1 ff9e                SFUNR    T1CR1
000007b2 e0fc                BCR      STATUS, BK0
000007b3 ff56                MOVAR    0x29
000007b4 f056                BTRSC    0x29, 0x7
000007b5 c042                LGOTO    0x7bd; main.o:_00338_DS_=0x7bd
000007b6 fd66                CLRR     TMRH
000007b7 de00                MOVIA    0xff
000007b8 ffbf                SFUN     TMR1
000007b9 fdff                CLRA
000007ba ffbd                SFUN     T1CR2
000007bb de7c                MOVIA    0x83
000007bc ffbe                SFUN     T1CR1
000007bd                     main.o:_00338_DS_:
000007bd ffef                RET
000007be                     _initAD:
000007be de7b                MOVIA    0x84
000007bf ff6f                MOVAR    ADMD
000007c0 fd6c                CLRR     ADVREFH
000007c1 deef                MOVIA    0x10
000007c2 ff6e                MOVAR    ADR
000007c3 defc                MOVIA    0x3
000007c4 ff6b                MOVAR    ADCR
000007c5 e5ef                BSR      ADMD, GCHS
000007c6 de9b                MOVIA    0x64
000007c7 ff38                MOVAR    0x47
000007c8 deff                MOVIA    0x0
000007c9 d0a3                LCALL    0x75c; _delay=0x75c
000007ca ffef                RET
000007cb                     _powerOff:
000007cb e0fc                BCR      STATUS, BK0
000007cc fd15                CLRR     0x6a
000007cd fd14                CLRR     0x6b
000007ce fd0b                CLRR     0x74
000007cf fd04                CLRR     0x7b
000007d0 fd03                CLRR     0x7c
000007d1 fd02                CLRR     0x7d
000007d2 fd13                CLRR     0x6c
000007d3 fd12                CLRR     0x6d
000007d4 e4fc                BSR      STATUS, BK0
000007d5 fd5b                CLRR     0x24
000007d6 d7fc                LCALL    0x3; _pwm1Stop=0x3
000007d7 ffef                RET
000007d8                     main.o:_table2:
000007d8 dfff                RETIA    0x0
000007d9 dffe                RETIA    0x1
000007da dffc                RETIA    0x3
000007db dff8                RETIA    0x7
000007dc dff0                RETIA    0xf
000007dd dfe0                RETIA    0x1f
000007de dfc0                RETIA    0x3f
000007df dfc1                RETIA    0x3e
000007e0 dfc3                RETIA    0x3c
000007e1 dfc7                RETIA    0x38
000007e2 dfcf                RETIA    0x30
000007e3 dfdf                RETIA    0x20
000007e4                     _delay_us:
000007e4 e0fc                BCR      STATUS, BK0
000007e5 ff31                MOVAR    0x4e
000007e6                     main.o:_00630_DS_:
000007e6 e0fc                BCR      STATUS, BK0
000007e7 feb1                MOVR     0x4e, ToAcc
000007e8 f2fc                BTRSC    STATUS, Z
000007e9 c012                LGOTO    0x7ed; main.o:_00633_DS_=0x7ed
000007ea f931                DECR     0x4e, ToReg
000007eb ffff                NOP
000007ec c019                LGOTO    0x7e6; main.o:_00630_DS_=0x7e6
000007ed                     main.o:_00633_DS_:
000007ed ffef                RET
000007ee                     _Delay10Us:
000007ee ffff                NOP
000007ef ffff                NOP
000007f0 ffff                NOP
000007f1 ffff                NOP
000007f2 ffff                NOP
000007f3 ffff                NOP
000007f4 ffef                RET
000007f5                     _F_wait_eoc:
000007f5 f56f                BTRSS    ADMD, EOC
000007f6 c00a                LGOTO    0x7f5; _F_wait_eoc=0x7f5
000007f7 ffef                RET

