00000000 c7fe                 LGOTO 0x1; __nyc_ny8_startup=0x1
00000001                      __nyc_ny8_startup:
00000001 d529                 LCALL 0x2d6; ___cinit_load__=0x2d6
00000002 c7b7                 LGOTO 0x48; _main=0x48
00000003                      main.o:_00199_DS_:
00000003 f56f                 BTRSS 0x10, 0x5
00000004 c7fc                 LGOTO 0x3; main.o:_00199_DS_=0x3
00000005 ffef                 RET
00000008 c7f6                 LGOTO 0x9; main.o:__sdcc_interrupt=0x9
00000009                      main.o:__sdcc_interrupt:
00000009 ff3d                 MOVAR 0x42
0000000a eafc                 SWAPR 0x3, 0x0
0000000b fd7c                 CLRR 0x3
0000000c ff3e                 MOVAR 0x41
0000000d fef5                 MOVR 0xa, 0x0
0000000e fd75                 CLRR 0xa
0000000f ff3f                 MOVAR 0x40
00000010 fefb                 MOVR 0x4, 0x0
00000011 e0fc                 BCR 0x3, 0x6
00000012 ff4e                 MOVAR 0x31
00000013 feb8                 MOVR 0x47, 0x0
00000014 ff4d                 MOVAR 0x32
00000015 feb9                 MOVR 0x46, 0x0
00000016 ff4c                 MOVAR 0x33
00000017 f7f0                 BTRSS 0xf, 0x0
00000018 c7cb                 LGOTO 0x34; main.o:_00113_DS_=0x34
00000019 dec8                 MOVIA 0x37
0000001a fc7e                 ADDAR 0x1, 0x1
0000001b fa4a                 INCR 0x35, 0x1
0000001c de9b                 MOVIA 0x64
0000001d fbca                 SUBAR 0x35, 0x0
0000001e f7fc                 BTRSS 0x3, 0x0
0000001f c7cb                 LGOTO 0x34; main.o:_00113_DS_=0x34
00000020 defe                 MOVIA 0x1
00000021 ff4b                 MOVAR 0x34
00000022 fd4a                 CLRR 0x35
00000023                      ___cinit_size__:
00000023 fa41                 INCR 0x3e, 0x1
00000024 de9b                 MOVIA 0x64
00000025 fbc1                 SUBAR 0x3e, 0x0
00000026 f7fc                 BTRSS 0x3, 0x0
00000027 c7cb                 LGOTO 0x34; main.o:_00113_DS_=0x34
00000028 fd41                 CLRR 0x3e
00000029 fec9                 MOVR 0x36, 0x0
0000002a dbfe                 XORIA 0x1
0000002b f6fc                 BTRSS 0x3, 0x2
0000002c c7cb                 LGOTO 0x34; main.o:_00113_DS_=0x34
0000002d fec7                 MOVR 0x38, 0x0
0000002e dbfa                 XORIA 0x5
0000002f f6fc                 BTRSS 0x3, 0x2
00000030 c7cb                 LGOTO 0x34; main.o:_00113_DS_=0x34
00000031 fa43                 INCR 0x3c, 0x1
00000032 f2fc                 BTRSC 0x3, 0x2
00000033 fa42                 INCR 0x3d, 0x1
00000034                      main.o:_00113_DS_:
00000034 f770                 BTRSS 0xf, 0x1
00000035 c7c7                 LGOTO 0x38; main.o:_00115_DS_=0x38
00000036 de02                 MOVIA 0xfd
00000037 ff70                 MOVAR 0xf
00000038                      main.o:_00115_DS_:
00000038 fd70                 CLRR 0xf
00000039 e0fc                 BCR 0x3, 0x6
0000003a fecc                 MOVR 0x33, 0x0
0000003b ff39                 MOVAR 0x46
0000003c fecd                 MOVR 0x32, 0x0
0000003d ff38                 MOVAR 0x47
0000003e fece                 MOVR 0x31, 0x0
0000003f ff7b                 MOVAR 0x4
00000040 febf                 MOVR 0x40, 0x0
00000041 ff75                 MOVAR 0xa
00000042 fd7c                 CLRR 0x3
00000043 eabe                 SWAPR 0x41, 0x0
00000044 ff7c                 MOVAR 0x3
00000045 ea3d                 SWAPR 0x42, 0x1
00000046 eabd                 SWAPR 0x42, 0x0
00000047                      main.o:END_OF_INTERRUPT:
00000047 ffee                 RETIE
00000048                      _main:
00000048 d548                 LCALL 0x2b7; _initSys=0x2b7
00000049 d581                 LCALL 0x27e; _initAD=0x27e
0000004a de9b                 MOVIA 0x64
0000004b e0fc                 BCR 0x3, 0x6
0000004c ff36                 MOVAR 0x49
0000004d                      main.o:_00150_DS_:
0000004d fffd                 CLRWDT
0000004e e0fc                 BCR 0x3, 0x6
0000004f fecb                 MOVR 0x34, 0x0
00000050 f2fc                 BTRSC 0x3, 0x2
00000051 c7b2                 LGOTO 0x4d; main.o:_00150_DS_=0x4d
00000052 fd4b                 CLRR 0x34
00000053 d752                 LCALL 0xad; _checkBatAD=0xad
00000054 d5f2                 LCALL 0x20d; _chrgCtr=0x20d
00000055 e0fc                 BCR 0x3, 0x6
00000056 feb6                 MOVR 0x49, 0x0
00000057 f2fc                 BTRSC 0x3, 0x2
00000058 c79b                 LGOTO 0x64; main.o:_00128_DS_=0x64
00000059 decc                 MOVIA 0x33
0000005a fbb6                 SUBAR 0x49, 0x0
0000005b f7fc                 BTRSS 0x3, 0x0
0000005c c7a0                 LGOTO 0x5f; main.o:_00123_DS_=0x5f
0000005d d569                 LCALL 0x296; _ledRed=0x296
0000005e c79f                 LGOTO 0x60; main.o:_00124_DS_=0x60
0000005f                      main.o:_00123_DS_:
0000005f d56d                 LCALL 0x292; _ledBlue=0x292
00000060                      main.o:_00124_DS_:
00000060 e0fc                 BCR 0x3, 0x6
00000061 e836                 DECRSZ 0x49, 0x1
00000062 c79b                 LGOTO 0x64; main.o:_00128_DS_=0x64
00000063 d571                 LCALL 0x28e; _ledOFF=0x28e
00000064                      main.o:_00128_DS_:
00000064 e0fc                 BCR 0x3, 0x6
00000065 fec9                 MOVR 0x36, 0x0
00000066 f6fc                 BTRSS 0x3, 0x2
00000067 c771                 LGOTO 0x8e; main.o:_00140_DS_=0x8e
00000068 fef9                 MOVR 0x6, 0x0
00000069 ff5c                 MOVAR 0x23
0000006a fd5b                 CLRR 0x24
0000006b f8dc                 COMR 0x23, 0x0
0000006c ff5c                 MOVAR 0x23
0000006d f8db                 COMR 0x24, 0x0
0000006e ff5b                 MOVAR 0x24
0000006f f75c                 BTRSS 0x23, 0x1
00000070 c77d                 LGOTO 0x82; main.o:_00136_DS_=0x82
00000071 f57a                 BTRSS 0x5, 0x5
00000072 c77d                 LGOTO 0x82; main.o:_00136_DS_=0x82
00000073 def5                 MOVIA 0xa
00000074 fbc4                 SUBAR 0x3b, 0x0
00000075 f3fc                 BTRSC 0x3, 0x0
00000076 c784                 LGOTO 0x7b; main.o:_00130_DS_=0x7b
00000077 e5fa                 BSR 0x5, 0x4
00000078 e279                 BCR 0x6, 0x3
00000079 d56d                 LCALL 0x292; _ledBlue=0x292
0000007a c771                 LGOTO 0x8e; main.o:_00140_DS_=0x8e
0000007b                      main.o:_00130_DS_:
0000007b d569                 LCALL 0x296; _ledRed=0x296
0000007c de17                 MOVIA 0xe8
0000007d e0fc                 BCR 0x3, 0x6
0000007e ff35                 MOVAR 0x4a
0000007f defc                 MOVIA 0x3
00000080 ff34                 MOVAR 0x4b
00000081 c771                 LGOTO 0x8e; main.o:_00140_DS_=0x8e
00000082                      main.o:_00136_DS_:
00000082 e0fc                 BCR 0x3, 0x6
00000083 e1fa                 BCR 0x5, 0x4
00000084 e679                 BSR 0x6, 0x3
00000085 feb6                 MOVR 0x49, 0x0
00000086 f6fc                 BTRSS 0x3, 0x2
00000087 c773                 LGOTO 0x8c; main.o:_00133_DS_=0x8c
00000088 feb5                 MOVR 0x4a, 0x0
00000089 eeb4                 IORAR 0x4b, 0x0
0000008a f2fc                 BTRSC 0x3, 0x2
0000008b d571                 LCALL 0x28e; _ledOFF=0x28e
0000008c                      main.o:_00133_DS_:
0000008c e0fc                 BCR 0x3, 0x6
0000008d fd40                 CLRR 0x3f
0000008e                      main.o:_00140_DS_:
0000008e e0fc                 BCR 0x3, 0x6
0000008f feb5                 MOVR 0x4a, 0x0
00000090 eeb4                 IORAR 0x4b, 0x0
00000091 f2fc                 BTRSC 0x3, 0x2
00000092 c764                 LGOTO 0x9b; main.o:_00142_DS_=0x9b
00000093 de00                 MOVIA 0xff
00000094 fc35                 ADDAR 0x4a, 0x1
00000095 f7fc                 BTRSS 0x3, 0x0
00000096 f934                 DECR 0x4b, 0x1
00000097 d569                 LCALL 0x296; _ledRed=0x296
00000098 e0fc                 BCR 0x3, 0x6
00000099 e1fa                 BCR 0x5, 0x4
0000009a e679                 BSR 0x6, 0x3
0000009b                      main.o:_00142_DS_:
0000009b e0fc                 BCR 0x3, 0x6
0000009c fec9                 MOVR 0x36, 0x0
0000009d f6fc                 BTRSS 0x3, 0x2
0000009e c7b2                 LGOTO 0x4d; main.o:_00150_DS_=0x4d
0000009f f779                 BTRSS 0x6, 0x1
000000a0 c7b2                 LGOTO 0x4d; main.o:_00150_DS_=0x4d
000000a1 feb5                 MOVR 0x4a, 0x0
000000a2 eeb4                 IORAR 0x4b, 0x0
000000a3 f6fc                 BTRSS 0x3, 0x2
000000a4 c7b2                 LGOTO 0x4d; main.o:_00150_DS_=0x4d
000000a5 fa37                 INCR 0x48, 0x1
000000a6 de9a                 MOVIA 0x65
000000a7 fbb7                 SUBAR 0x48, 0x0
000000a8 f7fc                 BTRSS 0x3, 0x0
000000a9 c7b2                 LGOTO 0x4d; main.o:_00150_DS_=0x4d
000000aa d565                 LCALL 0x29a; _gotoSleep=0x29a
000000ab c7b2                 LGOTO 0x4d; main.o:_00150_DS_=0x4d
000000ac ffef                 RET
000000ad                      _checkBatAD:
000000ad ffea                 IOSTR 0x5
000000ae e0fc                 BCR 0x3, 0x6
000000af ff50                 MOVAR 0x2f
000000b0 e350                 BCR 0x2f, 0x1
000000b1 fed0                 MOVR 0x2f, 0x0
000000b2 fffa                 IOST 0x5
000000b3 e37a                 BCR 0x5, 0x1
000000b4 de9b                 MOVIA 0x64
000000b5 d5c3                 LCALL 0x23c; _delay=0x23c
000000b6 e0fc                 BCR 0x3, 0x6
000000b7 fd5d                 CLRR 0x22
000000b8 fd5f                 CLRR 0x20
000000b9 fd5e                 CLRR 0x21
000000ba def7                 MOVIA 0x8
000000bb d5a8                 LCALL 0x257; _F_AIN2_Convert=0x257
000000bc e0fc                 BCR 0x3, 0x6
000000bd eade                 SWAPR 0x21, 0x0
000000be dd0f                 ANDIA 0xf0
000000bf ff5e                 MOVAR 0x21
000000c0 eadf                 SWAPR 0x20, 0x0
000000c1 ff5f                 MOVAR 0x20
000000c2 ddf0                 ANDIA 0xf
000000c3 ee5e                 IORAR 0x21, 0x1
000000c4 ed5f                 XORAR 0x20, 0x1
000000c5 de0f                 MOVIA 0xf0
000000c6 ef5d                 ANDAR 0x22, 0x1
000000c7 fedd                 MOVR 0x22, 0x0
000000c8 ff50                 MOVAR 0x2f
000000c9 deff                 MOVIA 0x0
000000ca ff4f                 MOVAR 0x30
000000cb fed0                 MOVR 0x2f, 0x0
000000cc fc5f                 ADDAR 0x20, 0x1
000000cd fecf                 MOVR 0x30, 0x0
000000ce f3fc                 BTRSC 0x3, 0x0
000000cf facf                 INCR 0x30, 0x0
000000d0 f2fc                 BTRSC 0x3, 0x2
000000d1 c72c                 LGOTO 0xd3; main.o:_00001_DS_=0xd3
000000d2 fc5e                 ADDAR 0x21, 0x1
000000d3                      main.o:_00001_DS_:
000000d3 e3fc                 BCR 0x3, 0x0
000000d4 e0fc                 BCR 0x3, 0x6
000000d5 ec5e                 RRR 0x21, 0x1
000000d6 ec5f                 RRR 0x20, 0x1
000000d7 e3fc                 BCR 0x3, 0x0
000000d8 ec5e                 RRR 0x21, 0x1
000000d9 ec5f                 RRR 0x20, 0x1
000000da e3fc                 BCR 0x3, 0x0
000000db ec5e                 RRR 0x21, 0x1
000000dc ec5f                 RRR 0x20, 0x1
000000dd defc                 MOVIA 0x3
000000de fbde                 SUBAR 0x21, 0x0
000000df f6fc                 BTRSS 0x3, 0x2
000000e0 c71c                 LGOTO 0xe3; main.o:_00397_DS_=0xe3
000000e1 dede                 MOVIA 0x21
000000e2 fbdf                 SUBAR 0x20, 0x0
000000e3                      main.o:_00397_DS_:
000000e3 f7fc                 BTRSS 0x3, 0x0
000000e4 c717                 LGOTO 0xe8; main.o:_00242_DS_=0xe8
000000e5 e0fc                 BCR 0x3, 0x6
000000e6 fd44                 CLRR 0x3b
000000e7 c6fe                 LGOTO 0x101; main.o:_00243_DS_=0x101
000000e8                      main.o:_00242_DS_:
000000e8 defd                 MOVIA 0x2
000000e9 e0fc                 BCR 0x3, 0x6
000000ea fbde                 SUBAR 0x21, 0x0
000000eb f6fc                 BTRSS 0x3, 0x2
000000ec c710                 LGOTO 0xef; main.o:_00398_DS_=0xef
000000ed ded9                 MOVIA 0x26
000000ee fbdf                 SUBAR 0x20, 0x0
000000ef                      main.o:_00398_DS_:
000000ef f3fc                 BTRSC 0x3, 0x0
000000f0 c700                 LGOTO 0xff; main.o:_00239_DS_=0xff
000000f1 e0fc                 BCR 0x3, 0x6
000000f2 fa44                 INCR 0x3b, 0x1
000000f3 def5                 MOVIA 0xa
000000f4 fbc4                 SUBAR 0x3b, 0x0
000000f5 f7fc                 BTRSS 0x3, 0x0
000000f6 c5f3                 LGOTO 0x20c; main.o:_00305_DS_=0x20c
000000f7 def5                 MOVIA 0xa
000000f8 ff44                 MOVAR 0x3b
000000f9 fd47                 CLRR 0x38
000000fa ded9                 MOVIA 0x26
000000fb ff5f                 MOVAR 0x20
000000fc defd                 MOVIA 0x2
000000fd ff5e                 MOVAR 0x21
000000fe c6fe                 LGOTO 0x101; main.o:_00243_DS_=0x101
000000ff                      main.o:_00239_DS_:
000000ff e0fc                 BCR 0x3, 0x6
00000100 fd44                 CLRR 0x3b
00000101                      main.o:_00243_DS_:
00000101 de25                 MOVIA 0xda
00000102 e0fc                 BCR 0x3, 0x6
00000103 fc5f                 ADDAR 0x20, 0x1
00000104 de02                 MOVIA 0xfd
00000105 f3fc                 BTRSC 0x3, 0x0
00000106 de01                 MOVIA 0xfe
00000107 fc5e                 ADDAR 0x21, 0x1
00000108 defe                 MOVIA 0x1
00000109 fbde                 SUBAR 0x21, 0x0
0000010a f6fc                 BTRSS 0x3, 0x2
0000010b c6f1                 LGOTO 0x10e; main.o:_00400_DS_=0x10e
0000010c dea1                 MOVIA 0x5e
0000010d fbdf                 SUBAR 0x20, 0x0
0000010e                      main.o:_00400_DS_:
0000010e f7fc                 BTRSS 0x3, 0x0
0000010f c6eb                 LGOTO 0x114; main.o:_00303_DS_=0x114
00000110 def9                 MOVIA 0x6
00000111 e0fc                 BCR 0x3, 0x6
00000112 ff47                 MOVAR 0x38
00000113 c5f3                 LGOTO 0x20c; main.o:_00305_DS_=0x20c
00000114                      main.o:_00303_DS_:
00000114 defe                 MOVIA 0x1
00000115 e0fc                 BCR 0x3, 0x6
00000116 fbde                 SUBAR 0x21, 0x0
00000117 f6fc                 BTRSS 0x3, 0x2
00000118 c6e4                 LGOTO 0x11b; main.o:_00401_DS_=0x11b
00000119 debe                 MOVIA 0x41
0000011a fbdf                 SUBAR 0x20, 0x0
0000011b                      main.o:_00401_DS_:
0000011b f7fc                 BTRSS 0x3, 0x0
0000011c c6a1                 LGOTO 0x15e; main.o:_00300_DS_=0x15e
0000011d def9                 MOVIA 0x6
0000011e e0fc                 BCR 0x3, 0x6
0000011f fbc7                 SUBAR 0x38, 0x0
00000120 f3fc                 BTRSC 0x3, 0x0
00000121 c6d0                 LGOTO 0x12f; main.o:_00250_DS_=0x12f
00000122 fd46                 CLRR 0x39
00000123 defe                 MOVIA 0x1
00000124 fbde                 SUBAR 0x21, 0x0
00000125 f6fc                 BTRSS 0x3, 0x2
00000126 c6d6                 LGOTO 0x129; main.o:_00403_DS_=0x129
00000127 deb9                 MOVIA 0x46
00000128 fbdf                 SUBAR 0x20, 0x0
00000129                      main.o:_00403_DS_:
00000129 f7fc                 BTRSS 0x3, 0x0
0000012a c6bf                 LGOTO 0x140; main.o:_00251_DS_=0x140
0000012b defa                 MOVIA 0x5
0000012c e0fc                 BCR 0x3, 0x6
0000012d ff47                 MOVAR 0x38
0000012e c6bf                 LGOTO 0x140; main.o:_00251_DS_=0x140
0000012f                      main.o:_00250_DS_:
0000012f e0fc                 BCR 0x3, 0x6
00000130 fec3                 MOVR 0x3c, 0x0
00000131 eec2                 IORAR 0x3d, 0x0
00000132 f6fc                 BTRSS 0x3, 0x2
00000133 c6bf                 LGOTO 0x140; main.o:_00251_DS_=0x140
00000134 defe                 MOVIA 0x1
00000135 fbde                 SUBAR 0x21, 0x0
00000136 f6fc                 BTRSS 0x3, 0x2
00000137 c6c5                 LGOTO 0x13a; main.o:_00404_DS_=0x13a
00000138 deab                 MOVIA 0x54
00000139 fbdf                 SUBAR 0x20, 0x0
0000013a                      main.o:_00404_DS_:
0000013a f3fc                 BTRSC 0x3, 0x0
0000013b c6bf                 LGOTO 0x140; main.o:_00251_DS_=0x140
0000013c defa                 MOVIA 0x5
0000013d e0fc                 BCR 0x3, 0x6
0000013e ff47                 MOVAR 0x38
0000013f fd46                 CLRR 0x39
00000140                      main.o:_00251_DS_:
00000140 e0fc                 BCR 0x3, 0x6
00000141 fec3                 MOVR 0x3c, 0x0
00000142 eec2                 IORAR 0x3d, 0x0
00000143 f2fc                 BTRSC 0x3, 0x2
00000144 c5f3                 LGOTO 0x20c; main.o:_00305_DS_=0x20c
00000145 defe                 MOVIA 0x1
00000146 fbde                 SUBAR 0x21, 0x0
00000147 f6fc                 BTRSS 0x3, 0x2
00000148 c6b4                 LGOTO 0x14b; main.o:_00405_DS_=0x14b
00000149 deaa                 MOVIA 0x55
0000014a fbdf                 SUBAR 0x20, 0x0
0000014b                      main.o:_00405_DS_:
0000014b f7fc                 BTRSS 0x3, 0x0
0000014c c5f3                 LGOTO 0x20c; main.o:_00305_DS_=0x20c
0000014d defd                 MOVIA 0x2
0000014e e0fc                 BCR 0x3, 0x6
0000014f fbc2                 SUBAR 0x3d, 0x0
00000150 f6fc                 BTRSS 0x3, 0x2
00000151 c6ab                 LGOTO 0x154; main.o:_00406_DS_=0x154
00000152 dea6                 MOVIA 0x59
00000153 fbc3                 SUBAR 0x3c, 0x0
00000154                      main.o:_00406_DS_:
00000154 f7fc                 BTRSS 0x3, 0x0
00000155 c5f3                 LGOTO 0x20c; main.o:_00305_DS_=0x20c
00000156 dea7                 MOVIA 0x58
00000157 e0fc                 BCR 0x3, 0x6
00000158 ff43                 MOVAR 0x3c
00000159 defd                 MOVIA 0x2
0000015a ff42                 MOVAR 0x3d
0000015b def9                 MOVIA 0x6
0000015c ff47                 MOVAR 0x38
0000015d c5f3                 LGOTO 0x20c; main.o:_00305_DS_=0x20c
0000015e                      main.o:_00300_DS_:
0000015e defe                 MOVIA 0x1
0000015f e0fc                 BCR 0x3, 0x6
00000160 fbde                 SUBAR 0x21, 0x0
00000161 f6fc                 BTRSS 0x3, 0x2
00000162 c69a                 LGOTO 0x165; main.o:_00407_DS_=0x165
00000163 defa                 MOVIA 0x5
00000164 fbdf                 SUBAR 0x20, 0x0
00000165                      main.o:_00407_DS_:
00000165 f7fc                 BTRSS 0x3, 0x0
00000166 c670                 LGOTO 0x18f; main.o:_00297_DS_=0x18f
00000167 e0fc                 BCR 0x3, 0x6
00000168 fec7                 MOVR 0x38, 0x0
00000169 dbfc                 XORIA 0x3
0000016a f6fc                 BTRSS 0x3, 0x2
0000016b c688                 LGOTO 0x177; main.o:_00259_DS_=0x177
0000016c defe                 MOVIA 0x1
0000016d fbde                 SUBAR 0x21, 0x0
0000016e f6fc                 BTRSS 0x3, 0x2
0000016f c68d                 LGOTO 0x172; main.o:_00408_DS_=0x172
00000170 def5                 MOVIA 0xa
00000171 fbdf                 SUBAR 0x20, 0x0
00000172                      main.o:_00408_DS_:
00000172 f7fc                 BTRSS 0x3, 0x0
00000173 c688                 LGOTO 0x177; main.o:_00259_DS_=0x177
00000174 defb                 MOVIA 0x4
00000175 e0fc                 BCR 0x3, 0x6
00000176 ff47                 MOVAR 0x38
00000177                      main.o:_00259_DS_:
00000177 defa                 MOVIA 0x5
00000178 e0fc                 BCR 0x3, 0x6
00000179 fbc7                 SUBAR 0x38, 0x0
0000017a f7fc                 BTRSS 0x3, 0x0
0000017b c677                 LGOTO 0x188; main.o:_00263_DS_=0x188
0000017c defe                 MOVIA 0x1
0000017d fbde                 SUBAR 0x21, 0x0
0000017e f6fc                 BTRSS 0x3, 0x2
0000017f c67d                 LGOTO 0x182; main.o:_00410_DS_=0x182
00000180 debf                 MOVIA 0x40
00000181 fbdf                 SUBAR 0x20, 0x0
00000182                      main.o:_00410_DS_:
00000182 f3fc                 BTRSC 0x3, 0x0
00000183 c674                 LGOTO 0x18b; main.o:_00264_DS_=0x18b
00000184 defb                 MOVIA 0x4
00000185 e0fc                 BCR 0x3, 0x6
00000186 ff47                 MOVAR 0x38
00000187 c674                 LGOTO 0x18b; main.o:_00264_DS_=0x18b
00000188                      main.o:_00263_DS_:
00000188 defb                 MOVIA 0x4
00000189 e0fc                 BCR 0x3, 0x6
0000018a ff47                 MOVAR 0x38
0000018b                      main.o:_00264_DS_:
0000018b e0fc                 BCR 0x3, 0x6
0000018c fd43                 CLRR 0x3c
0000018d fd42                 CLRR 0x3d
0000018e c5f3                 LGOTO 0x20c; main.o:_00305_DS_=0x20c
0000018f                      main.o:_00297_DS_:
0000018f deff                 MOVIA 0x0
00000190 e0fc                 BCR 0x3, 0x6
00000191 fbde                 SUBAR 0x21, 0x0
00000192 f6fc                 BTRSS 0x3, 0x2
00000193 c669                 LGOTO 0x196; main.o:_00411_DS_=0x196
00000194 de36                 MOVIA 0xc9
00000195 fbdf                 SUBAR 0x20, 0x0
00000196                      main.o:_00411_DS_:
00000196 f7fc                 BTRSS 0x3, 0x0
00000197 c63f                 LGOTO 0x1c0; main.o:_00294_DS_=0x1c0
00000198 e0fc                 BCR 0x3, 0x6
00000199 fec7                 MOVR 0x38, 0x0
0000019a dbfd                 XORIA 0x2
0000019b f6fc                 BTRSS 0x3, 0x2
0000019c c657                 LGOTO 0x1a8; main.o:_00268_DS_=0x1a8
0000019d deff                 MOVIA 0x0
0000019e fbde                 SUBAR 0x21, 0x0
0000019f f6fc                 BTRSS 0x3, 0x2
000001a0 c65c                 LGOTO 0x1a3; main.o:_00412_DS_=0x1a3
000001a1 de2c                 MOVIA 0xd3
000001a2 fbdf                 SUBAR 0x20, 0x0
000001a3                      main.o:_00412_DS_:
000001a3 f7fc                 BTRSS 0x3, 0x0
000001a4 c657                 LGOTO 0x1a8; main.o:_00268_DS_=0x1a8
000001a5 defc                 MOVIA 0x3
000001a6 e0fc                 BCR 0x3, 0x6
000001a7 ff47                 MOVAR 0x38
000001a8                      main.o:_00268_DS_:
000001a8 defb                 MOVIA 0x4
000001a9 e0fc                 BCR 0x3, 0x6
000001aa fbc7                 SUBAR 0x38, 0x0
000001ab f7fc                 BTRSS 0x3, 0x0
000001ac c646                 LGOTO 0x1b9; main.o:_00272_DS_=0x1b9
000001ad defe                 MOVIA 0x1
000001ae fbde                 SUBAR 0x21, 0x0
000001af f6fc                 BTRSS 0x3, 0x2
000001b0 c64c                 LGOTO 0x1b3; main.o:_00414_DS_=0x1b3
000001b1 defb                 MOVIA 0x4
000001b2 fbdf                 SUBAR 0x20, 0x0
000001b3                      main.o:_00414_DS_:
000001b3 f3fc                 BTRSC 0x3, 0x0
000001b4 c643                 LGOTO 0x1bc; main.o:_00273_DS_=0x1bc
000001b5 defc                 MOVIA 0x3
000001b6 e0fc                 BCR 0x3, 0x6
000001b7 ff47                 MOVAR 0x38
000001b8 c643                 LGOTO 0x1bc; main.o:_00273_DS_=0x1bc
000001b9                      main.o:_00272_DS_:
000001b9 defc                 MOVIA 0x3
000001ba e0fc                 BCR 0x3, 0x6
000001bb ff47                 MOVAR 0x38
000001bc                      main.o:_00273_DS_:
000001bc e0fc                 BCR 0x3, 0x6
000001bd fd43                 CLRR 0x3c
000001be fd42                 CLRR 0x3d
000001bf c5f3                 LGOTO 0x20c; main.o:_00305_DS_=0x20c
000001c0                      main.o:_00294_DS_:
000001c0 deff                 MOVIA 0x0
000001c1 e0fc                 BCR 0x3, 0x6
000001c2 fbde                 SUBAR 0x21, 0x0
000001c3 f6fc                 BTRSS 0x3, 0x2
000001c4 c638                 LGOTO 0x1c7; main.o:_00415_DS_=0x1c7
000001c5 de9a                 MOVIA 0x65
000001c6 fbdf                 SUBAR 0x20, 0x0
000001c7                      main.o:_00415_DS_:
000001c7 f7fc                 BTRSS 0x3, 0x0
000001c8 c60e                 LGOTO 0x1f1; main.o:_00291_DS_=0x1f1
000001c9 e0fc                 BCR 0x3, 0x6
000001ca fec7                 MOVR 0x38, 0x0
000001cb dbfe                 XORIA 0x1
000001cc f6fc                 BTRSS 0x3, 0x2
000001cd c626                 LGOTO 0x1d9; main.o:_00277_DS_=0x1d9
000001ce deff                 MOVIA 0x0
000001cf fbde                 SUBAR 0x21, 0x0
000001d0 f6fc                 BTRSS 0x3, 0x2
000001d1 c62b                 LGOTO 0x1d4; main.o:_00416_DS_=0x1d4
000001d2 de90                 MOVIA 0x6f
000001d3 fbdf                 SUBAR 0x20, 0x0
000001d4                      main.o:_00416_DS_:
000001d4 f7fc                 BTRSS 0x3, 0x0
000001d5 c626                 LGOTO 0x1d9; main.o:_00277_DS_=0x1d9
000001d6 defd                 MOVIA 0x2
000001d7 e0fc                 BCR 0x3, 0x6
000001d8 ff47                 MOVAR 0x38
000001d9                      main.o:_00277_DS_:
000001d9 defc                 MOVIA 0x3
000001da e0fc                 BCR 0x3, 0x6
000001db fbc7                 SUBAR 0x38, 0x0
000001dc f7fc                 BTRSS 0x3, 0x0
000001dd c615                 LGOTO 0x1ea; main.o:_00281_DS_=0x1ea
000001de deff                 MOVIA 0x0
000001df fbde                 SUBAR 0x21, 0x0
000001e0 f6fc                 BTRSS 0x3, 0x2
000001e1 c61b                 LGOTO 0x1e4; main.o:_00418_DS_=0x1e4
000001e2 de41                 MOVIA 0xbe
000001e3 fbdf                 SUBAR 0x20, 0x0
000001e4                      main.o:_00418_DS_:
000001e4 f3fc                 BTRSC 0x3, 0x0
000001e5 c612                 LGOTO 0x1ed; main.o:_00282_DS_=0x1ed
000001e6 defd                 MOVIA 0x2
000001e7 e0fc                 BCR 0x3, 0x6
000001e8 ff47                 MOVAR 0x38
000001e9 c612                 LGOTO 0x1ed; main.o:_00282_DS_=0x1ed
000001ea                      main.o:_00281_DS_:
000001ea defd                 MOVIA 0x2
000001eb e0fc                 BCR 0x3, 0x6
000001ec ff47                 MOVAR 0x38
000001ed                      main.o:_00282_DS_:
000001ed e0fc                 BCR 0x3, 0x6
000001ee fd43                 CLRR 0x3c
000001ef fd42                 CLRR 0x3d
000001f0 c5f3                 LGOTO 0x20c; main.o:_00305_DS_=0x20c
000001f1                      main.o:_00291_DS_:
000001f1 e0fc                 BCR 0x3, 0x6
000001f2 fedf                 MOVR 0x20, 0x0
000001f3 eede                 IORAR 0x21, 0x0
000001f4 f2fc                 BTRSC 0x3, 0x2
000001f5 c5f3                 LGOTO 0x20c; main.o:_00305_DS_=0x20c
000001f6 defd                 MOVIA 0x2
000001f7 fbc7                 SUBAR 0x38, 0x0
000001f8 f7fc                 BTRSS 0x3, 0x0
000001f9 c5f9                 LGOTO 0x206; main.o:_00286_DS_=0x206
000001fa deff                 MOVIA 0x0
000001fb fbde                 SUBAR 0x21, 0x0
000001fc f6fc                 BTRSS 0x3, 0x2
000001fd c5ff                 LGOTO 0x200; main.o:_00420_DS_=0x200
000001fe dea5                 MOVIA 0x5a
000001ff fbdf                 SUBAR 0x20, 0x0
00000200                      main.o:_00420_DS_:
00000200 f3fc                 BTRSC 0x3, 0x0
00000201 c5f6                 LGOTO 0x209; main.o:_00287_DS_=0x209
00000202 defe                 MOVIA 0x1
00000203 e0fc                 BCR 0x3, 0x6
00000204 ff47                 MOVAR 0x38
00000205 c5f6                 LGOTO 0x209; main.o:_00287_DS_=0x209
00000206                      main.o:_00286_DS_:
00000206 defe                 MOVIA 0x1
00000207 e0fc                 BCR 0x3, 0x6
00000208 ff47                 MOVAR 0x38
00000209                      main.o:_00287_DS_:
00000209 e0fc                 BCR 0x3, 0x6
0000020a fd43                 CLRR 0x3c
0000020b fd42                 CLRR 0x3d
0000020c                      main.o:_00305_DS_:
0000020c ffef                 RET
0000020d                      _chrgCtr:
0000020d f6f9                 BTRSS 0x6, 0x2
0000020e c5cb                 LGOTO 0x234; main.o:_00229_DS_=0x234
0000020f defe                 MOVIA 0x1
00000210 e0fc                 BCR 0x3, 0x6
00000211 ff49                 MOVAR 0x36
00000212 fd48                 CLRR 0x37
00000213 e1fa                 BCR 0x5, 0x4
00000214 def9                 MOVIA 0x6
00000215 fbc7                 SUBAR 0x38, 0x0
00000216 f7fc                 BTRSS 0x3, 0x0
00000217 c5d5                 LGOTO 0x22a; main.o:_00226_DS_=0x22a
00000218 def9                 MOVIA 0x6
00000219 ff45                 MOVAR 0x3a
0000021a d56d                 LCALL 0x292; _ledBlue=0x292
0000021b e0fc                 BCR 0x3, 0x6
0000021c fec7                 MOVR 0x38, 0x0
0000021d dbf9                 XORIA 0x6
0000021e f6fc                 BTRSS 0x3, 0x2
0000021f c5c4                 LGOTO 0x23b; main.o:_00231_DS_=0x23b
00000220 fa46                 INCR 0x39, 0x1
00000221 de9b                 MOVIA 0x64
00000222 fbc6                 SUBAR 0x39, 0x0
00000223 f7fc                 BTRSS 0x3, 0x0
00000224 c5c4                 LGOTO 0x23b; main.o:_00231_DS_=0x23b
00000225 de9b                 MOVIA 0x64
00000226 ff46                 MOVAR 0x39
00000227 d574                 LCALL 0x28b; _pwm1Stop=0x28b
00000228 e679                 BSR 0x6, 0x3
00000229 c5c4                 LGOTO 0x23b; main.o:_00231_DS_=0x23b
0000022a                      main.o:_00226_DS_:
0000022a ffe9                 IOSTR 0x6
0000022b e0fc                 BCR 0x3, 0x6
0000022c ff51                 MOVAR 0x2e
0000022d e251                 BCR 0x2e, 0x3
0000022e fed1                 MOVR 0x2e, 0x0
0000022f fff9                 IOST 0x6
00000230 e279                 BCR 0x6, 0x3
00000231 fd46                 CLRR 0x39
00000232 d569                 LCALL 0x296; _ledRed=0x296
00000233 c5c4                 LGOTO 0x23b; main.o:_00231_DS_=0x23b
00000234                      main.o:_00229_DS_:
00000234 e0fc                 BCR 0x3, 0x6
00000235 fd45                 CLRR 0x3a
00000236 d574                 LCALL 0x28b; _pwm1Stop=0x28b
00000237 e0fc                 BCR 0x3, 0x6
00000238 fd49                 CLRR 0x36
00000239 fd43                 CLRR 0x3c
0000023a fd42                 CLRR 0x3d
0000023b                      main.o:_00231_DS_:
0000023b ffef                 RET
0000023c                      _delay:
0000023c e0fc                 BCR 0x3, 0x6
0000023d ff56                 MOVAR 0x29
0000023e defe                 MOVIA 0x1
0000023f ff55                 MOVAR 0x2a
00000240 fd54                 CLRR 0x2b
00000241                      main.o:_00206_DS_:
00000241 e0fc                 BCR 0x3, 0x6
00000242 fed6                 MOVR 0x29, 0x0
00000243 ff53                 MOVAR 0x2c
00000244 deff                 MOVIA 0x0
00000245 da7f                 ADDIA 0x80
00000246 ff52                 MOVAR 0x2d
00000247 fed4                 MOVR 0x2b, 0x0
00000248 da7f                 ADDIA 0x80
00000249 fbd2                 SUBAR 0x2d, 0x0
0000024a f6fc                 BTRSS 0x3, 0x2
0000024b c5b1                 LGOTO 0x24e; main.o:_00217_DS_=0x24e
0000024c fed5                 MOVR 0x2a, 0x0
0000024d fbd3                 SUBAR 0x2c, 0x0
0000024e                      main.o:_00217_DS_:
0000024e f7fc                 BTRSS 0x3, 0x0
0000024f c5a9                 LGOTO 0x256; main.o:_00208_DS_=0x256
00000250 e0fc                 BCR 0x3, 0x6
00000251 fa55                 INCR 0x2a, 0x1
00000252 f6fc                 BTRSS 0x3, 0x2
00000253 c5aa                 LGOTO 0x255; main.o:_00002_DS_=0x255
00000254 fa54                 INCR 0x2b, 0x1
00000255                      main.o:_00002_DS_:
00000255 c5be                 LGOTO 0x241; main.o:_00206_DS_=0x241
00000256                      main.o:_00208_DS_:
00000256 ffef                 RET
00000257                      _F_AIN2_Convert:
00000257 e0fc                 BCR 0x3, 0x6
00000258 ff5a                 MOVAR 0x25
00000259 fd5d                 CLRR 0x22
0000025a fd5f                 CLRR 0x20
0000025b fd5e                 CLRR 0x21
0000025c de6d                 MOVIA 0x92
0000025d ff6f                 MOVAR 0x10
0000025e de37                 MOVIA 0xc8
0000025f d5c3                 LCALL 0x23c; _delay=0x23c
00000260 defe                 MOVIA 0x1
00000261 e0fc                 BCR 0x3, 0x6
00000262 ff59                 MOVAR 0x26
00000263                      main.o:_00192_DS_:
00000263 e0fc                 BCR 0x3, 0x6
00000264 fed9                 MOVR 0x26, 0x0
00000265 fbda                 SUBAR 0x25, 0x0
00000266 f7fc                 BTRSS 0x3, 0x0
00000267 c582                 LGOTO 0x27d; main.o:_00194_DS_=0x27d
00000268 e4ef                 BSR 0x10, 0x6
00000269 d7fc                 LCALL 0x3; main.o:_00199_DS_=0x3
0000026a def0                 MOVIA 0xf
0000026b efee                 ANDAR 0x11, 0x0
0000026c e0fc                 BCR 0x3, 0x6
0000026d fc5d                 ADDAR 0x22, 0x1
0000026e feed                 MOVR 0x12, 0x0
0000026f ff58                 MOVAR 0x27
00000270 deff                 MOVIA 0x0
00000271 ff57                 MOVAR 0x28
00000272 fed8                 MOVR 0x27, 0x0
00000273 fc5f                 ADDAR 0x20, 0x1
00000274 fed7                 MOVR 0x28, 0x0
00000275 f3fc                 BTRSC 0x3, 0x0
00000276 fad7                 INCR 0x28, 0x0
00000277 f2fc                 BTRSC 0x3, 0x2
00000278 c585                 LGOTO 0x27a; main.o:_00003_DS_=0x27a
00000279 fc5e                 ADDAR 0x21, 0x1
0000027a                      main.o:_00003_DS_:
0000027a e0fc                 BCR 0x3, 0x6
0000027b fa59                 INCR 0x26, 0x1
0000027c c59c                 LGOTO 0x263; main.o:_00192_DS_=0x263
0000027d                      main.o:_00194_DS_:
0000027d ffef                 RET
0000027e                      _initAD:
0000027e de7d                 MOVIA 0x82
0000027f ff6f                 MOVAR 0x10
00000280 fd6c                 CLRR 0x13
00000281 deef                 MOVIA 0x10
00000282 ff6e                 MOVAR 0x11
00000283 defc                 MOVIA 0x3
00000284 ff6b                 MOVAR 0x14
00000285 defb                 MOVIA 0x4
00000286 ff69                 MOVAR 0x16
00000287 e5ef                 BSR 0x10, 0x4
00000288 de9b                 MOVIA 0x64
00000289 d5c3                 LCALL 0x23c; _delay=0x23c
0000028a ffef                 RET
0000028b                      _pwm1Stop:
0000028b fdff                 CLRA
0000028c ffbe                 SFUN 0x1
0000028d ffef                 RET
0000028e                      _ledOFF:
0000028e e7f9                 BSR 0x6, 0x0
0000028f e0fc                 BCR 0x3, 0x6
00000290 e7fa                 BSR 0x5, 0x0
00000291 ffef                 RET
00000292                      _ledBlue:
00000292 e3f9                 BCR 0x6, 0x0
00000293 e0fc                 BCR 0x3, 0x6
00000294 e7fa                 BSR 0x5, 0x0
00000295 ffef                 RET
00000296                      _ledRed:
00000296 e0fc                 BCR 0x3, 0x6
00000297 e3fa                 BCR 0x5, 0x0
00000298 e7f9                 BSR 0x6, 0x0
00000299 ffef                 RET
0000029a                      _gotoSleep:
0000029a e0fc                 BCR 0x3, 0x6
0000029b fd37                 CLRR 0x48
0000029c d574                 LCALL 0x28b; _pwm1Stop=0x28b
0000029d ded1                 MOVIA 0x2e
0000029e fffa                 IOST 0x5
0000029f def9                 MOVIA 0x6
000002a0 fff9                 IOST 0x6
000002a1 defe                 MOVIA 0x1
000002a2 ff79                 MOVAR 0x6
000002a3 e0fc                 BCR 0x3, 0x6
000002a4 ff7a                 MOVAR 0x5
000002a5 fd6a                 CLRR 0x15
000002a6 def9                 MOVIA 0x6
000002a7 ff76                 MOVAR 0x9
000002a8 defd                 MOVIA 0x2
000002a9 ff71                 MOVAR 0xe
000002aa dee7                 MOVIA 0x18
000002ab ff77                 MOVAR 0x8
000002ac fd70                 CLRR 0xf
000002ad fffd                 CLRWDT
000002ae fffb                 ENI
000002af fffe                 SLEEP
000002b0 fd6a                 CLRR 0x15
000002b1 defe                 MOVIA 0x1
000002b2 ff71                 MOVAR 0xe
000002b3 fd70                 CLRR 0xf
000002b4 de47                 MOVIA 0xb8
000002b5 ff77                 MOVAR 0x8
000002b6 ffef                 RET
000002b7                      _initSys:
000002b7 ffec                 DISI
000002b8 ded1                 MOVIA 0x2e
000002b9 fffa                 IOST 0x5
000002ba def9                 MOVIA 0x6
000002bb fff9                 IOST 0x6
000002bc defe                 MOVIA 0x1
000002bd ff79                 MOVAR 0x6
000002be e0fc                 BCR 0x3, 0x6
000002bf ff7a                 MOVAR 0x5
000002c0 de00                 MOVIA 0xff
000002c1 fff6                 IOST 0x9
000002c2 de02                 MOVIA 0xfd
000002c3 ff73                 MOVAR 0xc
000002c4 de00                 MOVIA 0xff
000002c5 ff74                 MOVAR 0xb
000002c6 defe                 MOVIA 0x1
000002c7 ff71                 MOVAR 0xe
000002c8 fdff                 CLRA
000002c9 fff0                 IOST 0xf
000002ca dec8                 MOVIA 0x37
000002cb ff7e                 MOVAR 0x1
000002cc fdff                 CLRA
000002cd fffc                 T0MD
000002ce defe                 MOVIA 0x1
000002cf fff0                 IOST 0xf
000002d0 de67                 MOVIA 0x98
000002d1 ff77                 MOVAR 0x8
000002d2 defe                 MOVIA 0x1
000002d3 fff0                 IOST 0xf
000002d4 fffb                 ENI
000002d5 ffef                 RET
000002d6                      ___cinit_load__:
