00000000 c7fe                 LGOTO 0x1; crt0.o:initial_ram_cinit=0x1
00000001                      crt0.o:initial_ram_cinit:
00000001 d366                 LCALL 0x499; ___cinit_load__=0x499
00000002 c7cb                 LGOTO 0x34; _main=0x34
00000003                      main.o:_00494_DS_:
00000003 f56f                 BTRSS 0x10, 0x5
00000004 c7fc                 LGOTO 0x3; main.o:_00494_DS_=0x3
00000005 ffef                 RET
00000008 c7f6                 LGOTO 0x9; main.o:__sdcc_interrupt=0x9
00000009                      main.o:__sdcc_interrupt:
00000009 ff3d                 MOVAR 0x42
0000000a eafc                 SWAPR 0x3, 0x0
0000000b fd7c                 CLRR 0x3
0000000c ff3e                 MOVAR 0x41
0000000d fef5                 MOVR 0xa, 0x0
0000000e fd75                 CLRR 0xa
0000000f ff3f                 MOVAR 0x40
00000010 fefb                 MOVR 0x4, 0x0
00000011 ff19                 MOVAR 0x66
00000012 feba                 MOVR 0x45, 0x0
00000013 ff18                 MOVAR 0x67
00000014 febb                 MOVR 0x44, 0x0
00000015                      ___cinit_size__:
00000015 ff17                 MOVAR 0x68
00000016 f7f0                 BTRSS 0xf, 0x0
00000017 c7de                 LGOTO 0x21; main.o:_00108_DS_=0x21
00000018 dec8                 MOVIA 0x37
00000019 fc7e                 ADDAR 0x1, 0x1
0000001a fa15                 INCR 0x6a, 0x1
0000001b de9b                 MOVIA 0x64
0000001c fb95                 SUBAR 0x6a, 0x0
0000001d f7fc                 BTRSS 0x3, 0x0
0000001e c7de                 LGOTO 0x21; main.o:_00108_DS_=0x21
0000001f e796                 BSR 0x69, 0x0
00000020 fd15                 CLRR 0x6a
00000021                      main.o:_00108_DS_:
00000021 f770                 BTRSS 0xf, 0x1
00000022 c7da                 LGOTO 0x25; main.o:_00110_DS_=0x25
00000023 de02                 MOVIA 0xfd
00000024 ff70                 MOVAR 0xf
00000025                      main.o:_00110_DS_:
00000025 fd70                 CLRR 0xf
00000026 fe97                 MOVR 0x68, 0x0
00000027 ff3b                 MOVAR 0x44
00000028 fe98                 MOVR 0x67, 0x0
00000029 ff3a                 MOVAR 0x45
0000002a fe99                 MOVR 0x66, 0x0
0000002b ff7b                 MOVAR 0x4
0000002c febf                 MOVR 0x40, 0x0
0000002d ff75                 MOVAR 0xa
0000002e fd7c                 CLRR 0x3
0000002f eabe                 SWAPR 0x41, 0x0
00000030 ff7c                 MOVAR 0x3
00000031 ea3d                 SWAPR 0x42, 0x1
00000032 eabd                 SWAPR 0x42, 0x0
00000033                      main.o:END_OF_INTERRUPT:
00000033 ffee                 RETIE
00000034                      _main:
00000034 d3f3                 LCALL 0x40c; _initSys=0x40c
00000035 d6d0                 LCALL 0x12f; _initAD=0x12f
00000036                      main.o:_00130_DS_:
00000036 fffd                 CLRWDT
00000037 d71a                 LCALL 0xe5; _modeLedShow=0xe5
00000038 f796                 BTRSS 0x69, 0x0
00000039 c7c9                 LGOTO 0x36; main.o:_00130_DS_=0x36
0000003a e396                 BCR 0x69, 0x0
0000003b d4a7                 LCALL 0x358; _chrgCtr=0x358
0000003c f216                 BTRSC 0x69, 0x3
0000003d c7c9                 LGOTO 0x36; main.o:_00130_DS_=0x36
0000003e d5f8                 LCALL 0x207; _ADKeyCtr=0x207
0000003f f296                 BTRSC 0x69, 0x2
00000040 c7af                 LGOTO 0x50; main.o:_00125_DS_=0x50
00000041 fe94                 MOVR 0x6b, 0x0
00000042 f2fc                 BTRSC 0x3, 0x2
00000043 c7b9                 LGOTO 0x46; main.o:_00122_DS_=0x46
00000044 d505                 LCALL 0x2fa; _workCtr=0x2fa
00000045 c7c9                 LGOTO 0x36; main.o:_00130_DS_=0x36
00000046                      main.o:_00122_DS_:
00000046 defe                 MOVIA 0x1
00000047 ffbe                 SFUN 0x1
00000048 e3f9                 BCR 0x6, 0x0
00000049 e2f9                 BCR 0x6, 0x2
0000004a fd0f                 CLRR 0x70
0000004b e296                 BCR 0x69, 0x2
0000004c e1f9                 BCR 0x6, 0x4
0000004d e179                 BCR 0x6, 0x5
0000004e e3fa                 BCR 0x5, 0x0
0000004f c7c9                 LGOTO 0x36; main.o:_00130_DS_=0x36
00000050                      main.o:_00125_DS_:
00000050 d54a                 LCALL 0x2b5; _startCtr=0x2b5
00000051 c7c9                 LGOTO 0x36; main.o:_00130_DS_=0x36
00000052 ffef                 RET
00000053                      _F_AIN4_Convert:
00000053 ff2e                 MOVAR 0x51
00000054 fd54                 CLRR 0x2b
00000055 fd56                 CLRR 0x29
00000056 fd55                 CLRR 0x2a
00000057 de6b                 MOVIA 0x94
00000058 ff6f                 MOVAR 0x10
00000059 de37                 MOVIA 0xc8
0000005a d724                 LCALL 0xdb; _delay=0xdb
0000005b defe                 MOVIA 0x1
0000005c ff2d                 MOVAR 0x52
0000005d                      main.o:_00537_DS_:
0000005d fead                 MOVR 0x52, 0x0
0000005e fbae                 SUBAR 0x51, 0x0
0000005f f7fc                 BTRSS 0x3, 0x0
00000060 c78b                 LGOTO 0x74; main.o:_00539_DS_=0x74
00000061 e4ef                 BSR 0x10, 0x6
00000062 d7fc                 LCALL 0x3; main.o:_00494_DS_=0x3
00000063 def0                 MOVIA 0xf
00000064 efee                 ANDAR 0x11, 0x0
00000065 fc54                 ADDAR 0x2b, 0x1
00000066 feed                 MOVR 0x12, 0x0
00000067 ff2c                 MOVAR 0x53
00000068 deff                 MOVIA 0x0
00000069 ff2b                 MOVAR 0x54
0000006a feac                 MOVR 0x53, 0x0
0000006b fc56                 ADDAR 0x29, 0x1
0000006c feab                 MOVR 0x54, 0x0
0000006d f3fc                 BTRSC 0x3, 0x0
0000006e faab                 INCR 0x54, 0x0
0000006f f2fc                 BTRSC 0x3, 0x2
00000070 c78d                 LGOTO 0x72; main.o:_00001_DS_=0x72
00000071 fc55                 ADDAR 0x2a, 0x1
00000072                      main.o:_00001_DS_:
00000072 fa2d                 INCR 0x52, 0x1
00000073 c7a2                 LGOTO 0x5d; main.o:_00537_DS_=0x5d
00000074                      main.o:_00539_DS_:
00000074 ffef                 RET
00000075                      _F_AIN3_Convert:
00000075 ff32                 MOVAR 0x4d
00000076 fd57                 CLRR 0x28
00000077 fd59                 CLRR 0x26
00000078 fd58                 CLRR 0x27
00000079 de6c                 MOVIA 0x93
0000007a ff6f                 MOVAR 0x10
0000007b de37                 MOVIA 0xc8
0000007c d724                 LCALL 0xdb; _delay=0xdb
0000007d defe                 MOVIA 0x1
0000007e ff31                 MOVAR 0x4e
0000007f                      main.o:_00528_DS_:
0000007f feb1                 MOVR 0x4e, 0x0
00000080 fbb2                 SUBAR 0x4d, 0x0
00000081 f7fc                 BTRSS 0x3, 0x0
00000082 c769                 LGOTO 0x96; main.o:_00530_DS_=0x96
00000083 e4ef                 BSR 0x10, 0x6
00000084 d7fc                 LCALL 0x3; main.o:_00494_DS_=0x3
00000085 def0                 MOVIA 0xf
00000086 efee                 ANDAR 0x11, 0x0
00000087 fc57                 ADDAR 0x28, 0x1
00000088 feed                 MOVR 0x12, 0x0
00000089 ff30                 MOVAR 0x4f
0000008a deff                 MOVIA 0x0
0000008b ff2f                 MOVAR 0x50
0000008c feb0                 MOVR 0x4f, 0x0
0000008d fc59                 ADDAR 0x26, 0x1
0000008e feaf                 MOVR 0x50, 0x0
0000008f f3fc                 BTRSC 0x3, 0x0
00000090 faaf                 INCR 0x50, 0x0
00000091 f2fc                 BTRSC 0x3, 0x2
00000092 c76b                 LGOTO 0x94; main.o:_00002_DS_=0x94
00000093 fc58                 ADDAR 0x27, 0x1
00000094                      main.o:_00002_DS_:
00000094 fa31                 INCR 0x4e, 0x1
00000095 c780                 LGOTO 0x7f; main.o:_00528_DS_=0x7f
00000096                      main.o:_00530_DS_:
00000096 ffef                 RET
00000097                      _F_AIN1_Convert:
00000097 ff36                 MOVAR 0x49
00000098 fd5a                 CLRR 0x25
00000099 fd5c                 CLRR 0x23
0000009a fd5b                 CLRR 0x24
0000009b de6e                 MOVIA 0x91
0000009c ff6f                 MOVAR 0x10
0000009d de37                 MOVIA 0xc8
0000009e d724                 LCALL 0xdb; _delay=0xdb
0000009f defe                 MOVIA 0x1
000000a0 ff35                 MOVAR 0x4a
000000a1                      main.o:_00519_DS_:
000000a1 feb5                 MOVR 0x4a, 0x0
000000a2 fbb6                 SUBAR 0x49, 0x0
000000a3 f7fc                 BTRSS 0x3, 0x0
000000a4 c747                 LGOTO 0xb8; main.o:_00521_DS_=0xb8
000000a5 e4ef                 BSR 0x10, 0x6
000000a6 d7fc                 LCALL 0x3; main.o:_00494_DS_=0x3
000000a7 def0                 MOVIA 0xf
000000a8 efee                 ANDAR 0x11, 0x0
000000a9 fc5a                 ADDAR 0x25, 0x1
000000aa feed                 MOVR 0x12, 0x0
000000ab ff34                 MOVAR 0x4b
000000ac deff                 MOVIA 0x0
000000ad ff33                 MOVAR 0x4c
000000ae feb4                 MOVR 0x4b, 0x0
000000af fc5c                 ADDAR 0x23, 0x1
000000b0 feb3                 MOVR 0x4c, 0x0
000000b1 f3fc                 BTRSC 0x3, 0x0
000000b2 fab3                 INCR 0x4c, 0x0
000000b3 f2fc                 BTRSC 0x3, 0x2
000000b4 c749                 LGOTO 0xb6; main.o:_00003_DS_=0xb6
000000b5 fc5b                 ADDAR 0x24, 0x1
000000b6                      main.o:_00003_DS_:
000000b6 fa35                 INCR 0x4a, 0x1
000000b7 c75e                 LGOTO 0xa1; main.o:_00519_DS_=0xa1
000000b8                      main.o:_00521_DS_:
000000b8 ffef                 RET
000000b9                      _F_VDD_Convert:
000000b9 ff40                 MOVAR 0x3f
000000ba fd5d                 CLRR 0x22
000000bb fd5f                 CLRR 0x20
000000bc fd5e                 CLRR 0x21
000000bd de64                 MOVIA 0x9b
000000be ff6f                 MOVAR 0x10
000000bf de37                 MOVIA 0xc8
000000c0 d724                 LCALL 0xdb; _delay=0xdb
000000c1 defe                 MOVIA 0x1
000000c2 ff39                 MOVAR 0x46
000000c3                      main.o:_00510_DS_:
000000c3 feb9                 MOVR 0x46, 0x0
000000c4 fbc0                 SUBAR 0x3f, 0x0
000000c5 f7fc                 BTRSS 0x3, 0x0
000000c6 c725                 LGOTO 0xda; main.o:_00512_DS_=0xda
000000c7 e4ef                 BSR 0x10, 0x6
000000c8 d7fc                 LCALL 0x3; main.o:_00494_DS_=0x3
000000c9 def0                 MOVIA 0xf
000000ca efee                 ANDAR 0x11, 0x0
000000cb fc5d                 ADDAR 0x22, 0x1
000000cc feed                 MOVR 0x12, 0x0
000000cd ff38                 MOVAR 0x47
000000ce deff                 MOVIA 0x0
000000cf ff37                 MOVAR 0x48
000000d0 feb8                 MOVR 0x47, 0x0
000000d1 fc5f                 ADDAR 0x20, 0x1
000000d2 feb7                 MOVR 0x48, 0x0
000000d3 f3fc                 BTRSC 0x3, 0x0
000000d4 fab7                 INCR 0x48, 0x0
000000d5 f2fc                 BTRSC 0x3, 0x2
000000d6 c727                 LGOTO 0xd8; main.o:_00004_DS_=0xd8
000000d7 fc5e                 ADDAR 0x21, 0x1
000000d8                      main.o:_00004_DS_:
000000d8 fa39                 INCR 0x46, 0x1
000000d9 c73c                 LGOTO 0xc3; main.o:_00510_DS_=0xc3
000000da                      main.o:_00512_DS_:
000000da ffef                 RET
000000db                      _delay:
000000db ff42                 MOVAR 0x3d
000000dc fd41                 CLRR 0x3e
000000dd                      main.o:_00501_DS_:
000000dd fec2                 MOVR 0x3d, 0x0
000000de fbc1                 SUBAR 0x3e, 0x0
000000df f3fc                 BTRSC 0x3, 0x0
000000e0 c71b                 LGOTO 0xe4; main.o:_00503_DS_=0xe4
000000e1 ffff                 NOP
000000e2 fa41                 INCR 0x3e, 0x1
000000e3 c722                 LGOTO 0xdd; main.o:_00501_DS_=0xdd
000000e4                      main.o:_00503_DS_:
000000e4 ffef                 RET
000000e5                      _modeLedShow:
000000e5 d404                 LCALL 0x3fb; _LedInput=0x3fb
000000e6 defa                 MOVIA 0x5
000000e7 fb94                 SUBAR 0x6b, 0x0
000000e8 f3fc                 BTRSC 0x3, 0x0
000000e9 c6ff                 LGOTO 0x100; main.o:_00462_DS_=0x100
000000ea deff                 MOVIA 0x0
000000eb ff75                 MOVAR 0xa
000000ec fe94                 MOVR 0x6b, 0x0
000000ed da0e                 ADDIA 0xf1
000000ee f3fc                 BTRSC 0x3, 0x0
000000ef fa75                 INCR 0xa, 0x1
000000f0 ff7d                 MOVAR 0x2
000000f1                      main.o:_00485_DS_:
000000f1 c709                 LGOTO 0xf6; main.o:_00457_DS_=0xf6
000000f2 c701                 LGOTO 0xfe; main.o:_00461_DS_=0xfe
000000f3 c703                 LGOTO 0xfc; main.o:_00460_DS_=0xfc
000000f4 c705                 LGOTO 0xfa; main.o:_00459_DS_=0xfa
000000f5 c707                 LGOTO 0xf8; main.o:_00458_DS_=0xf8
000000f6                      main.o:_00457_DS_:
000000f6 d404                 LCALL 0x3fb; _LedInput=0x3fb
000000f7 c6fe                 LGOTO 0x101; main.o:_00463_DS_=0x101
000000f8                      main.o:_00458_DS_:
000000f8 d414                 LCALL 0x3eb; _LEDMODE4=0x3eb
000000f9 c6fe                 LGOTO 0x101; main.o:_00463_DS_=0x101
000000fa                      main.o:_00459_DS_:
000000fa d424                 LCALL 0x3db; _LEDMODE3=0x3db
000000fb c6fe                 LGOTO 0x101; main.o:_00463_DS_=0x101
000000fc                      main.o:_00460_DS_:
000000fc d434                 LCALL 0x3cb; _LEDMODE2=0x3cb
000000fd c6fe                 LGOTO 0x101; main.o:_00463_DS_=0x101
000000fe                      main.o:_00461_DS_:
000000fe d444                 LCALL 0x3bb; _LEDMODE1=0x3bb
000000ff c6fe                 LGOTO 0x101; main.o:_00463_DS_=0x101
00000100                      main.o:_00462_DS_:
00000100 d404                 LCALL 0x3fb; _LedInput=0x3fb
00000101                      main.o:_00463_DS_:
00000101 defc                 MOVIA 0x3
00000102 fb91                 SUBAR 0x6e, 0x0
00000103 f3fc                 BTRSC 0x3, 0x0
00000104 c6ea                 LGOTO 0x115; main.o:_00467_DS_=0x115
00000105 defe                 MOVIA 0x1
00000106 ff75                 MOVAR 0xa
00000107 fe91                 MOVR 0x6e, 0x0
00000108 daf3                 ADDIA 0xc
00000109 f3fc                 BTRSC 0x3, 0x0
0000010a fa75                 INCR 0xa, 0x1
0000010b ff7d                 MOVAR 0x2
0000010c                      main.o:_00487_DS_:
0000010c c6f0                 LGOTO 0x10f; main.o:_00464_DS_=0x10f
0000010d c6ee                 LGOTO 0x111; main.o:_00465_DS_=0x111
0000010e c6ec                 LGOTO 0x113; main.o:_00466_DS_=0x113
0000010f                      main.o:_00464_DS_:
0000010f d404                 LCALL 0x3fb; _LedInput=0x3fb
00000110 c6ea                 LGOTO 0x115; main.o:_00467_DS_=0x115
00000111                      main.o:_00465_DS_:
00000111 d464                 LCALL 0x39b; _BATLOW=0x39b
00000112 c6ea                 LGOTO 0x115; main.o:_00467_DS_=0x115
00000113                      main.o:_00466_DS_:
00000113 d464                 LCALL 0x39b; _BATLOW=0x39b
00000114 d454                 LCALL 0x3ab; _BATHIGHT=0x3ab
00000115                      main.o:_00467_DS_:
00000115 defb                 MOVIA 0x4
00000116 fb92                 SUBAR 0x6d, 0x0
00000117 f3fc                 BTRSC 0x3, 0x0
00000118 c6d1                 LGOTO 0x12e; main.o:_00473_DS_=0x12e
00000119 defe                 MOVIA 0x1
0000011a ff75                 MOVAR 0xa
0000011b fe92                 MOVR 0x6d, 0x0
0000011c dadf                 ADDIA 0x20
0000011d f3fc                 BTRSC 0x3, 0x0
0000011e fa75                 INCR 0xa, 0x1
0000011f ff7d                 MOVAR 0x2
00000120                      main.o:_00489_DS_:
00000120 c6db                 LGOTO 0x124; main.o:_00468_DS_=0x124
00000121 c6d9                 LGOTO 0x126; main.o:_00469_DS_=0x126
00000122 c6d7                 LGOTO 0x128; main.o:_00470_DS_=0x128
00000123 c6d4                 LGOTO 0x12b; main.o:_00471_DS_=0x12b
00000124                      main.o:_00468_DS_:
00000124 d404                 LCALL 0x3fb; _LedInput=0x3fb
00000125 c6d1                 LGOTO 0x12e; main.o:_00473_DS_=0x12e
00000126                      main.o:_00469_DS_:
00000126 d494                 LCALL 0x36b; _POWERLOW=0x36b
00000127 c6d1                 LGOTO 0x12e; main.o:_00473_DS_=0x12e
00000128                      main.o:_00470_DS_:
00000128 d494                 LCALL 0x36b; _POWERLOW=0x36b
00000129 d484                 LCALL 0x37b; _POWERMID=0x37b
0000012a c6d1                 LGOTO 0x12e; main.o:_00473_DS_=0x12e
0000012b                      main.o:_00471_DS_:
0000012b d494                 LCALL 0x36b; _POWERLOW=0x36b
0000012c d484                 LCALL 0x37b; _POWERMID=0x37b
0000012d d474                 LCALL 0x38b; _POWERHIGHT=0x38b
0000012e                      main.o:_00473_DS_:
0000012e ffef                 RET
0000012f                      _initAD:
0000012f de7b                 MOVIA 0x84
00000130 ff6f                 MOVAR 0x10
00000131 defd                 MOVIA 0x2
00000132 ff6c                 MOVAR 0x13
00000133 deef                 MOVIA 0x10
00000134 ff6e                 MOVAR 0x11
00000135 defc                 MOVIA 0x3
00000136 ff6b                 MOVAR 0x14
00000137 e5ef                 BSR 0x10, 0x4
00000138 de9b                 MOVIA 0x64
00000139 d724                 LCALL 0xdb; _delay=0xdb
0000013a ffef                 RET
0000013b                      _keyRead:
0000013b ff43                 MOVAR 0x3c
0000013c fec3                 MOVR 0x3c, 0x0
0000013d f2fc                 BTRSC 0x3, 0x2
0000013e c6b2                 LGOTO 0x14d; main.o:_00446_DS_=0x14d
0000013f fec3                 MOVR 0x3c, 0x0
00000140 ff13                 MOVAR 0x6c
00000141 fa53                 INCR 0x2c, 0x1
00000142 de37                 MOVIA 0xc8
00000143 fbd3                 SUBAR 0x2c, 0x0
00000144 f7fc                 BTRSS 0x3, 0x0
00000145 c6a1                 LGOTO 0x15e; main.o:_00447_DS_=0x15e
00000146 de37                 MOVIA 0xc8
00000147 ff53                 MOVAR 0x2c
00000148 f316                 BTRSC 0x69, 0x1
00000149 c6a1                 LGOTO 0x15e; main.o:_00447_DS_=0x15e
0000014a e716                 BSR 0x69, 0x1
0000014b defd                 MOVIA 0x2
0000014c c6a0                 LGOTO 0x15f; main.o:_00448_DS_=0x15f
0000014d                      main.o:_00446_DS_:
0000014d de37                 MOVIA 0xc8
0000014e fbd3                 SUBAR 0x2c, 0x0
0000014f f7fc                 BTRSS 0x3, 0x0
00000150 c6aa                 LGOTO 0x155; main.o:_00443_DS_=0x155
00000151 fd53                 CLRR 0x2c
00000152 e316                 BCR 0x69, 0x1
00000153 deff                 MOVIA 0x0
00000154 c6a0                 LGOTO 0x15f; main.o:_00448_DS_=0x15f
00000155                      main.o:_00443_DS_:
00000155 def7                 MOVIA 0x8
00000156 fbd3                 SUBAR 0x2c, 0x0
00000157 f7fc                 BTRSS 0x3, 0x0
00000158 c6a3                 LGOTO 0x15c; main.o:_00444_DS_=0x15c
00000159 fd53                 CLRR 0x2c
0000015a defe                 MOVIA 0x1
0000015b c6a0                 LGOTO 0x15f; main.o:_00448_DS_=0x15f
0000015c                      main.o:_00444_DS_:
0000015c fd53                 CLRR 0x2c
0000015d fd13                 CLRR 0x6c
0000015e                      main.o:_00447_DS_:
0000015e deff                 MOVIA 0x0
0000015f                      main.o:_00448_DS_:
0000015f ffef                 RET
00000160                      _checkHotAD:
00000160 fd54                 CLRR 0x2b
00000161 fd56                 CLRR 0x29
00000162 fd55                 CLRR 0x2a
00000163 def7                 MOVIA 0x8
00000164 d7ac                 LCALL 0x53; _F_AIN4_Convert=0x53
00000165 ead5                 SWAPR 0x2a, 0x0
00000166 dd0f                 ANDIA 0xf0
00000167 ff55                 MOVAR 0x2a
00000168 ead6                 SWAPR 0x29, 0x0
00000169 ff56                 MOVAR 0x29
0000016a ddf0                 ANDIA 0xf
0000016b ee55                 IORAR 0x2a, 0x1
0000016c ed56                 XORAR 0x29, 0x1
0000016d de0f                 MOVIA 0xf0
0000016e ef54                 ANDAR 0x2b, 0x1
0000016f fed4                 MOVR 0x2b, 0x0
00000170 ff45                 MOVAR 0x3a
00000171 deff                 MOVIA 0x0
00000172 ff44                 MOVAR 0x3b
00000173 fec5                 MOVR 0x3a, 0x0
00000174 fc56                 ADDAR 0x29, 0x1
00000175 fec4                 MOVR 0x3b, 0x0
00000176 f3fc                 BTRSC 0x3, 0x0
00000177 fac4                 INCR 0x3b, 0x0
00000178 f2fc                 BTRSC 0x3, 0x2
00000179 c684                 LGOTO 0x17b; main.o:_00005_DS_=0x17b
0000017a fc55                 ADDAR 0x2a, 0x1
0000017b                      main.o:_00005_DS_:
0000017b e3fc                 BCR 0x3, 0x0
0000017c ec55                 RRR 0x2a, 0x1
0000017d ec56                 RRR 0x29, 0x1
0000017e e3fc                 BCR 0x3, 0x0
0000017f ec55                 RRR 0x2a, 0x1
00000180 ec56                 RRR 0x29, 0x1
00000181 e3fc                 BCR 0x3, 0x0
00000182 ec55                 RRR 0x2a, 0x1
00000183 ec56                 RRR 0x29, 0x1
00000184 ffef                 RET
00000185                      _checkTouchAD:
00000185 fd57                 CLRR 0x28
00000186 fd59                 CLRR 0x26
00000187 fd58                 CLRR 0x27
00000188 def7                 MOVIA 0x8
00000189 d78a                 LCALL 0x75; _F_AIN3_Convert=0x75
0000018a ead8                 SWAPR 0x27, 0x0
0000018b dd0f                 ANDIA 0xf0
0000018c ff58                 MOVAR 0x27
0000018d ead9                 SWAPR 0x26, 0x0
0000018e ff59                 MOVAR 0x26
0000018f ddf0                 ANDIA 0xf
00000190 ee58                 IORAR 0x27, 0x1
00000191 ed59                 XORAR 0x26, 0x1
00000192 de0f                 MOVIA 0xf0
00000193 ef57                 ANDAR 0x28, 0x1
00000194 fed7                 MOVR 0x28, 0x0
00000195 ff47                 MOVAR 0x38
00000196 deff                 MOVIA 0x0
00000197 ff46                 MOVAR 0x39
00000198 fec7                 MOVR 0x38, 0x0
00000199 fc59                 ADDAR 0x26, 0x1
0000019a fec6                 MOVR 0x39, 0x0
0000019b f3fc                 BTRSC 0x3, 0x0
0000019c fac6                 INCR 0x39, 0x0
0000019d f2fc                 BTRSC 0x3, 0x2
0000019e c65f                 LGOTO 0x1a0; main.o:_00006_DS_=0x1a0
0000019f fc58                 ADDAR 0x27, 0x1
000001a0                      main.o:_00006_DS_:
000001a0 e3fc                 BCR 0x3, 0x0
000001a1 ec58                 RRR 0x27, 0x1
000001a2 ec59                 RRR 0x26, 0x1
000001a3 e3fc                 BCR 0x3, 0x0
000001a4 ec58                 RRR 0x27, 0x1
000001a5 ec59                 RRR 0x26, 0x1
000001a6 e3fc                 BCR 0x3, 0x0
000001a7 ec58                 RRR 0x27, 0x1
000001a8 ec59                 RRR 0x26, 0x1
000001a9 ffef                 RET
000001aa                      _checkKeyAD:
000001aa ffea                 IOSTR 0x5
000001ab ff49                 MOVAR 0x36
000001ac e749                 BSR 0x36, 0x1
000001ad fec9                 MOVR 0x36, 0x0
000001ae fffa                 IOST 0x5
000001af fd5a                 CLRR 0x25
000001b0 fd5c                 CLRR 0x23
000001b1 fd5b                 CLRR 0x24
000001b2 def7                 MOVIA 0x8
000001b3 d768                 LCALL 0x97; _F_AIN1_Convert=0x97
000001b4 eadb                 SWAPR 0x24, 0x0
000001b5 dd0f                 ANDIA 0xf0
000001b6 ff5b                 MOVAR 0x24
000001b7 eadc                 SWAPR 0x23, 0x0
000001b8 ff5c                 MOVAR 0x23
000001b9 ddf0                 ANDIA 0xf
000001ba ee5b                 IORAR 0x24, 0x1
000001bb ed5c                 XORAR 0x23, 0x1
000001bc de0f                 MOVIA 0xf0
000001bd ef5a                 ANDAR 0x25, 0x1
000001be feda                 MOVR 0x25, 0x0
000001bf ff49                 MOVAR 0x36
000001c0 deff                 MOVIA 0x0
000001c1 ff48                 MOVAR 0x37
000001c2 fec9                 MOVR 0x36, 0x0
000001c3 fc5c                 ADDAR 0x23, 0x1
000001c4 fec8                 MOVR 0x37, 0x0
000001c5 f3fc                 BTRSC 0x3, 0x0
000001c6 fac8                 INCR 0x37, 0x0
000001c7 f2fc                 BTRSC 0x3, 0x2
000001c8 c635                 LGOTO 0x1ca; main.o:_00007_DS_=0x1ca
000001c9 fc5b                 ADDAR 0x24, 0x1
000001ca                      main.o:_00007_DS_:
000001ca e3fc                 BCR 0x3, 0x0
000001cb ec5b                 RRR 0x24, 0x1
000001cc ec5c                 RRR 0x23, 0x1
000001cd e3fc                 BCR 0x3, 0x0
000001ce ec5b                 RRR 0x24, 0x1
000001cf ec5c                 RRR 0x23, 0x1
000001d0 e3fc                 BCR 0x3, 0x0
000001d1 ec5b                 RRR 0x24, 0x1
000001d2 ec5c                 RRR 0x23, 0x1
000001d3 ffef                 RET
000001d4                      _checkBAT:
000001d4 fd5d                 CLRR 0x22
000001d5 fd5f                 CLRR 0x20
000001d6 fd5e                 CLRR 0x21
000001d7 def7                 MOVIA 0x8
000001d8 d746                 LCALL 0xb9; _F_VDD_Convert=0xb9
000001d9 eade                 SWAPR 0x21, 0x0
000001da dd0f                 ANDIA 0xf0
000001db ff5e                 MOVAR 0x21
000001dc eadf                 SWAPR 0x20, 0x0
000001dd ff5f                 MOVAR 0x20
000001de ddf0                 ANDIA 0xf
000001df ee5e                 IORAR 0x21, 0x1
000001e0 ed5f                 XORAR 0x20, 0x1
000001e1 de0f                 MOVIA 0xf0
000001e2 ef5d                 ANDAR 0x22, 0x1
000001e3 fedd                 MOVR 0x22, 0x0
000001e4 ff4b                 MOVAR 0x34
000001e5 deff                 MOVIA 0x0
000001e6 ff4a                 MOVAR 0x35
000001e7 fecb                 MOVR 0x34, 0x0
000001e8 fc5f                 ADDAR 0x20, 0x1
000001e9 feca                 MOVR 0x35, 0x0
000001ea f3fc                 BTRSC 0x3, 0x0
000001eb faca                 INCR 0x35, 0x0
000001ec f2fc                 BTRSC 0x3, 0x2
000001ed c610                 LGOTO 0x1ef; main.o:_00008_DS_=0x1ef
000001ee fc5e                 ADDAR 0x21, 0x1
000001ef                      main.o:_00008_DS_:
000001ef e3fc                 BCR 0x3, 0x0
000001f0 ec5e                 RRR 0x21, 0x1
000001f1 ec5f                 RRR 0x20, 0x1
000001f2 e3fc                 BCR 0x3, 0x0
000001f3 ec5e                 RRR 0x21, 0x1
000001f4 ec5f                 RRR 0x20, 0x1
000001f5 e3fc                 BCR 0x3, 0x0
000001f6 ec5e                 RRR 0x21, 0x1
000001f7 ec5f                 RRR 0x20, 0x1
000001f8 ffef                 RET
000001f9                      _PWM1Start:
000001f9 ff9e                 SFUNR 0x1
000001fa ff4c                 MOVAR 0x33
000001fb f04c                 BTRSC 0x33, 0x7
000001fc c5f9                 LGOTO 0x206; main.o:_00408_DS_=0x206
000001fd fd66                 CLRR 0x19
000001fe de9b                 MOVIA 0x64
000001ff ffbf                 SFUN 0x0
00000200 debd                 MOVIA 0x42
00000201 ffbc                 SFUN 0x3
00000202 defb                 MOVIA 0x4
00000203 ffbd                 SFUN 0x2
00000204 de7c                 MOVIA 0x83
00000205 ffbe                 SFUN 0x1
00000206                      main.o:_00408_DS_:
00000206 ffef                 RET
00000207                      _ADKeyCtr:
00000207 fa0e                 INCR 0x71, 0x1
00000208 dee0                 MOVIA 0x1f
00000209 fb8e                 SUBAR 0x71, 0x0
0000020a f7fc                 BTRSS 0x3, 0x0
0000020b c5f1                 LGOTO 0x20e; main.o:_00275_DS_=0x20e
0000020c fd0e                 CLRR 0x71
0000020d d62b                 LCALL 0x1d4; _checkBAT=0x1d4
0000020e                      main.o:_00275_DS_:
0000020e fe94                 MOVR 0x6b, 0x0
0000020f f2fc                 BTRSC 0x3, 0x2
00000210 c5d0                 LGOTO 0x22f; main.o:_00285_DS_=0x22f
00000211 f296                 BTRSC 0x69, 0x2
00000212 c5d0                 LGOTO 0x22f; main.o:_00285_DS_=0x22f
00000213 defc                 MOVIA 0x3
00000214 fbde                 SUBAR 0x21, 0x0
00000215 f6fc                 BTRSS 0x3, 0x2
00000216 c5e6                 LGOTO 0x219; main.o:_00395_DS_=0x219
00000217 de65                 MOVIA 0x9a
00000218 fbdf                 SUBAR 0x20, 0x0
00000219                      main.o:_00395_DS_:
00000219 f7fc                 BTRSS 0x3, 0x0
0000021a c5e1                 LGOTO 0x21e; main.o:_00282_DS_=0x21e
0000021b defd                 MOVIA 0x2
0000021c ff11                 MOVAR 0x6e
0000021d c5d0                 LGOTO 0x22f; main.o:_00285_DS_=0x22f
0000021e                      main.o:_00282_DS_:
0000021e fe91                 MOVR 0x6e, 0x0
0000021f dbfd                 XORIA 0x2
00000220 f6fc                 BTRSS 0x3, 0x2
00000221 c5d2                 LGOTO 0x22d; main.o:_00279_DS_=0x22d
00000222 defc                 MOVIA 0x3
00000223 fbde                 SUBAR 0x21, 0x0
00000224 f6fc                 BTRSS 0x3, 0x2
00000225 c5d7                 LGOTO 0x228; main.o:_00396_DS_=0x228
00000226 de71                 MOVIA 0x8e
00000227 fbdf                 SUBAR 0x20, 0x0
00000228                      main.o:_00396_DS_:
00000228 f3fc                 BTRSC 0x3, 0x0
00000229 c5d0                 LGOTO 0x22f; main.o:_00285_DS_=0x22f
0000022a defe                 MOVIA 0x1
0000022b ff11                 MOVAR 0x6e
0000022c c5d0                 LGOTO 0x22f; main.o:_00285_DS_=0x22f
0000022d                      main.o:_00279_DS_:
0000022d defe                 MOVIA 0x1
0000022e ff11                 MOVAR 0x6e
0000022f                      main.o:_00285_DS_:
0000022f fe94                 MOVR 0x6b, 0x0
00000230 f6fc                 BTRSS 0x3, 0x2
00000231 c5c6                 LGOTO 0x239; main.o:_00288_DS_=0x239
00000232 f296                 BTRSC 0x69, 0x2
00000233 c5c6                 LGOTO 0x239; main.o:_00288_DS_=0x239
00000234 fd12                 CLRR 0x6d
00000235 fd11                 CLRR 0x6e
00000236 e1f9                 BCR 0x6, 0x4
00000237 e179                 BCR 0x6, 0x5
00000238 e3fa                 BCR 0x5, 0x0
00000239                      main.o:_00288_DS_:
00000239 def4                 MOVIA 0xb
0000023a fb8e                 SUBAR 0x71, 0x0
0000023b f7fc                 BTRSS 0x3, 0x0
0000023c c5be                 LGOTO 0x241; main.o:_00291_DS_=0x241
0000023d dee6                 MOVIA 0x19
0000023e fb8e                 SUBAR 0x71, 0x0
0000023f f7fc                 BTRSS 0x3, 0x0
00000240 d655                 LCALL 0x1aa; _checkKeyAD=0x1aa
00000241                      main.o:_00291_DS_:
00000241 fedf                 MOVR 0x20, 0x0
00000242 ff3c                 MOVAR 0x43
00000243 fede                 MOVR 0x21, 0x0
00000244 ff3b                 MOVAR 0x44
00000245 defc                 MOVIA 0x3
00000246 ff3a                 MOVAR 0x45
00000247 deff                 MOVIA 0x0
00000248 d39a                 LCALL 0x465; __mulint=0x465
00000249 ff4d                 MOVAR 0x32
0000024a feba                 MOVR 0x45, 0x0
0000024b ff4e                 MOVAR 0x31
0000024c fecd                 MOVR 0x32, 0x0
0000024d fbdb                 SUBAR 0x24, 0x0
0000024e f6fc                 BTRSS 0x3, 0x2
0000024f c5ad                 LGOTO 0x252; main.o:_00399_DS_=0x252
00000250 fece                 MOVR 0x31, 0x0
00000251 fbdc                 SUBAR 0x23, 0x0
00000252                      main.o:_00399_DS_:
00000252 f3fc                 BTRSC 0x3, 0x0
00000253 c58a                 LGOTO 0x275; main.o:_00297_DS_=0x275
00000254 fedb                 MOVR 0x24, 0x0
00000255 fbde                 SUBAR 0x21, 0x0
00000256 f6fc                 BTRSS 0x3, 0x2
00000257 c5a5                 LGOTO 0x25a; main.o:_00400_DS_=0x25a
00000258 fedc                 MOVR 0x23, 0x0
00000259 fbdf                 SUBAR 0x20, 0x0
0000025a                      main.o:_00400_DS_:
0000025a f3fc                 BTRSC 0x3, 0x0
0000025b c58a                 LGOTO 0x275; main.o:_00297_DS_=0x275
0000025c fedf                 MOVR 0x20, 0x0
0000025d ff3c                 MOVAR 0x43
0000025e fede                 MOVR 0x21, 0x0
0000025f ff3b                 MOVAR 0x44
00000260 defd                 MOVIA 0x2
00000261 ff3a                 MOVAR 0x45
00000262 deff                 MOVIA 0x0
00000263 d39a                 LCALL 0x465; __mulint=0x465
00000264 ff4d                 MOVAR 0x32
00000265 feba                 MOVR 0x45, 0x0
00000266 ff4e                 MOVAR 0x31
00000267 fedb                 MOVR 0x24, 0x0
00000268 fbcd                 SUBAR 0x32, 0x0
00000269 f6fc                 BTRSS 0x3, 0x2
0000026a c592                 LGOTO 0x26d; main.o:_00401_DS_=0x26d
0000026b fedc                 MOVR 0x23, 0x0
0000026c fbce                 SUBAR 0x31, 0x0
0000026d                      main.o:_00401_DS_:
0000026d f3fc                 BTRSC 0x3, 0x0
0000026e c58d                 LGOTO 0x272; main.o:_00294_DS_=0x272
0000026f defe                 MOVIA 0x1
00000270 ff4e                 MOVAR 0x31
00000271 c589                 LGOTO 0x276; main.o:_00298_DS_=0x276
00000272                      main.o:_00294_DS_:
00000272 defd                 MOVIA 0x2
00000273 ff4e                 MOVAR 0x31
00000274 c589                 LGOTO 0x276; main.o:_00298_DS_=0x276
00000275                      main.o:_00297_DS_:
00000275 fd4e                 CLRR 0x31
00000276                      main.o:_00298_DS_:
00000276 fece                 MOVR 0x31, 0x0
00000277 d6c4                 LCALL 0x13b; _keyRead=0x13b
00000278 ff4e                 MOVAR 0x31
00000279 dbfe                 XORIA 0x1
0000027a f6fc                 BTRSS 0x3, 0x2
0000027b c562                 LGOTO 0x29d; main.o:_00321_DS_=0x29d
0000027c fe93                 MOVR 0x6c, 0x0
0000027d dbfe                 XORIA 0x1
0000027e f6fc                 BTRSS 0x3, 0x2
0000027f c56d                 LGOTO 0x292; main.o:_00309_DS_=0x292
00000280 fe94                 MOVR 0x6b, 0x0
00000281 f6fc                 BTRSS 0x3, 0x2
00000282 c577                 LGOTO 0x288; main.o:_00301_DS_=0x288
00000283 d404                 LCALL 0x3fb; _LedInput=0x3fb
00000284 fd14                 CLRR 0x6b
00000285 fd12                 CLRR 0x6d
00000286 fd11                 CLRR 0x6e
00000287 e696                 BSR 0x69, 0x2
00000288                      main.o:_00301_DS_:
00000288 fa14                 INCR 0x6b, 0x1
00000289 defa                 MOVIA 0x5
0000028a fb94                 SUBAR 0x6b, 0x0
0000028b f7fc                 BTRSS 0x3, 0x0
0000028c c570                 LGOTO 0x28f; main.o:_00303_DS_=0x28f
0000028d defe                 MOVIA 0x1
0000028e ff14                 MOVAR 0x6b
0000028f                      main.o:_00303_DS_:
0000028f defe                 MOVIA 0x1
00000290 ff12                 MOVAR 0x6d
00000291 c54b                 LGOTO 0x2b4; main.o:_00323_DS_=0x2b4
00000292                      main.o:_00309_DS_:
00000292 fe94                 MOVR 0x6b, 0x0
00000293 f2fc                 BTRSC 0x3, 0x2
00000294 c54b                 LGOTO 0x2b4; main.o:_00323_DS_=0x2b4
00000295 fa12                 INCR 0x6d, 0x1
00000296 defb                 MOVIA 0x4
00000297 fb92                 SUBAR 0x6d, 0x0
00000298 f7fc                 BTRSS 0x3, 0x0
00000299 c54b                 LGOTO 0x2b4; main.o:_00323_DS_=0x2b4
0000029a defe                 MOVIA 0x1
0000029b ff12                 MOVAR 0x6d
0000029c c54b                 LGOTO 0x2b4; main.o:_00323_DS_=0x2b4
0000029d                      main.o:_00321_DS_:
0000029d fece                 MOVR 0x31, 0x0
0000029e dbfd                 XORIA 0x2
0000029f f6fc                 BTRSS 0x3, 0x2
000002a0 c54b                 LGOTO 0x2b4; main.o:_00323_DS_=0x2b4
000002a1 fe93                 MOVR 0x6c, 0x0
000002a2 dbfe                 XORIA 0x1
000002a3 f6fc                 BTRSS 0x3, 0x2
000002a4 c555                 LGOTO 0x2aa; main.o:_00316_DS_=0x2aa
000002a5 fd14                 CLRR 0x6b
000002a6 fd12                 CLRR 0x6d
000002a7 e296                 BCR 0x69, 0x2
000002a8 fd11                 CLRR 0x6e
000002a9 c54b                 LGOTO 0x2b4; main.o:_00323_DS_=0x2b4
000002aa                      main.o:_00316_DS_:
000002aa fe94                 MOVR 0x6b, 0x0
000002ab f2fc                 BTRSC 0x3, 0x2
000002ac c54b                 LGOTO 0x2b4; main.o:_00323_DS_=0x2b4
000002ad fa12                 INCR 0x6d, 0x1
000002ae defb                 MOVIA 0x4
000002af fb92                 SUBAR 0x6d, 0x0
000002b0 f7fc                 BTRSS 0x3, 0x0
000002b1 c54b                 LGOTO 0x2b4; main.o:_00323_DS_=0x2b4
000002b2 defe                 MOVIA 0x1
000002b3 ff12                 MOVAR 0x6d
000002b4                      main.o:_00323_DS_:
000002b4 ffef                 RET
000002b5                      _startCtr:
000002b5 fa10                 INCR 0x6f, 0x1
000002b6 deea                 MOVIA 0x15
000002b7 fb90                 SUBAR 0x6f, 0x0
000002b8 f7fc                 BTRSS 0x3, 0x0
000002b9 c506                 LGOTO 0x2f9; main.o:_00269_DS_=0x2f9
000002ba fd10                 CLRR 0x6f
000002bb defa                 MOVIA 0x5
000002bc fb8f                 SUBAR 0x70, 0x0
000002bd f3fc                 BTRSC 0x3, 0x0
000002be c53a                 LGOTO 0x2c5; main.o:_00263_DS_=0x2c5
000002bf fe8f                 MOVR 0x70, 0x0
000002c0 d8fa                 SUBIA 0x5
000002c1 ff14                 MOVAR 0x6b
000002c2 fd11                 CLRR 0x6e
000002c3 fd12                 CLRR 0x6d
000002c4 c512                 LGOTO 0x2ed; main.o:_00264_DS_=0x2ed
000002c5                      main.o:_00263_DS_:
000002c5 fe8f                 MOVR 0x70, 0x0
000002c6 dbfa                 XORIA 0x5
000002c7 f6fc                 BTRSS 0x3, 0x2
000002c8 c531                 LGOTO 0x2ce; main.o:_00260_DS_=0x2ce
000002c9 fd14                 CLRR 0x6b
000002ca fd11                 CLRR 0x6e
000002cb defc                 MOVIA 0x3
000002cc ff12                 MOVAR 0x6d
000002cd c512                 LGOTO 0x2ed; main.o:_00264_DS_=0x2ed
000002ce                      main.o:_00260_DS_:
000002ce fe8f                 MOVR 0x70, 0x0
000002cf dbf9                 XORIA 0x6
000002d0 f6fc                 BTRSS 0x3, 0x2
000002d1 c528                 LGOTO 0x2d7; main.o:_00257_DS_=0x2d7
000002d2 fd14                 CLRR 0x6b
000002d3 fd12                 CLRR 0x6d
000002d4 defd                 MOVIA 0x2
000002d5 ff11                 MOVAR 0x6e
000002d6 c512                 LGOTO 0x2ed; main.o:_00264_DS_=0x2ed
000002d7                      main.o:_00257_DS_:
000002d7 fe8f                 MOVR 0x70, 0x0
000002d8 dbf8                 XORIA 0x7
000002d9 f6fc                 BTRSS 0x3, 0x2
000002da c51f                 LGOTO 0x2e0; main.o:_00254_DS_=0x2e0
000002db fd14                 CLRR 0x6b
000002dc fd11                 CLRR 0x6e
000002dd fd12                 CLRR 0x6d
000002de e7fa                 BSR 0x5, 0x0
000002df c512                 LGOTO 0x2ed; main.o:_00264_DS_=0x2ed
000002e0                      main.o:_00254_DS_:
000002e0 fe8f                 MOVR 0x70, 0x0
000002e1 dbf7                 XORIA 0x8
000002e2 f6fc                 BTRSS 0x3, 0x2
000002e3 c518                 LGOTO 0x2e7; main.o:_00251_DS_=0x2e7
000002e4 e3fa                 BCR 0x5, 0x0
000002e5 e5f9                 BSR 0x6, 0x4
000002e6 c512                 LGOTO 0x2ed; main.o:_00264_DS_=0x2ed
000002e7                      main.o:_00251_DS_:
000002e7 fe8f                 MOVR 0x70, 0x0
000002e8 dbf6                 XORIA 0x9
000002e9 f6fc                 BTRSS 0x3, 0x2
000002ea c512                 LGOTO 0x2ed; main.o:_00264_DS_=0x2ed
000002eb e1f9                 BCR 0x6, 0x4
000002ec e579                 BSR 0x6, 0x5
000002ed                      main.o:_00264_DS_:
000002ed fa0f                 INCR 0x70, 0x1
000002ee def5                 MOVIA 0xa
000002ef fb8f                 SUBAR 0x70, 0x0
000002f0 f7fc                 BTRSS 0x3, 0x0
000002f1 c506                 LGOTO 0x2f9; main.o:_00269_DS_=0x2f9
000002f2 e179                 BCR 0x6, 0x5
000002f3 fd0f                 CLRR 0x70
000002f4 e296                 BCR 0x69, 0x2
000002f5 defe                 MOVIA 0x1
000002f6 ff14                 MOVAR 0x6b
000002f7 ff12                 MOVAR 0x6d
000002f8 fd10                 CLRR 0x6f
000002f9                      main.o:_00269_DS_:
000002f9 ffef                 RET
000002fa                      _workCtr:
000002fa defa                 MOVIA 0x5
000002fb fb8e                 SUBAR 0x71, 0x0
000002fc f7fc                 BTRSS 0x3, 0x0
000002fd d67a                 LCALL 0x185; _checkTouchAD=0x185
000002fe defc                 MOVIA 0x3
000002ff fbd8                 SUBAR 0x27, 0x0
00000300 f6fc                 BTRSS 0x3, 0x2
00000301 c4fb                 LGOTO 0x304; main.o:_00240_DS_=0x304
00000302 de17                 MOVIA 0xe8
00000303 fbd9                 SUBAR 0x26, 0x0
00000304                      main.o:_00240_DS_:
00000304 f3fc                 BTRSC 0x3, 0x0
00000305 c4f5                 LGOTO 0x30a; main.o:_00197_DS_=0x30a
00000306 defe                 MOVIA 0x1
00000307 ffbe                 SFUN 0x1
00000308 e2f9                 BCR 0x6, 0x2
00000309 c4cb                 LGOTO 0x334; main.o:_00198_DS_=0x334
0000030a                      main.o:_00197_DS_:
0000030a d606                 LCALL 0x1f9; _PWM1Start=0x1f9
0000030b fe94                 MOVR 0x6b, 0x0
0000030c dbfd                 XORIA 0x2
0000030d f6fc                 BTRSS 0x3, 0x2
0000030e c4cb                 LGOTO 0x334; main.o:_00198_DS_=0x334
0000030f dee2                 MOVIA 0x1d
00000310 fb8e                 SUBAR 0x71, 0x0
00000311 f3fc                 BTRSC 0x3, 0x0
00000312 d69f                 LCALL 0x160; _checkHotAD=0x160
00000313 fedf                 MOVR 0x20, 0x0
00000314 ff3c                 MOVAR 0x43
00000315 fede                 MOVR 0x21, 0x0
00000316 ff3b                 MOVAR 0x44
00000317 defb                 MOVIA 0x4
00000318 ff3a                 MOVAR 0x45
00000319 deff                 MOVIA 0x0
0000031a d39a                 LCALL 0x465; __mulint=0x465
0000031b ff4f                 MOVAR 0x30
0000031c feba                 MOVR 0x45, 0x0
0000031d ff50                 MOVAR 0x2f
0000031e defc                 MOVIA 0x3
0000031f ff3c                 MOVAR 0x43
00000320 deff                 MOVIA 0x0
00000321 ff3b                 MOVAR 0x44
00000322 fed0                 MOVR 0x2f, 0x0
00000323 ff3a                 MOVAR 0x45
00000324 fecf                 MOVR 0x30, 0x0
00000325 d3d9                 LCALL 0x426; __divuint=0x426
00000326 ff4f                 MOVAR 0x30
00000327 feba                 MOVR 0x45, 0x0
00000328 ff50                 MOVAR 0x2f
00000329 fed8                 MOVR 0x27, 0x0
0000032a fbcf                 SUBAR 0x30, 0x0
0000032b f6fc                 BTRSS 0x3, 0x2
0000032c c4d0                 LGOTO 0x32f; main.o:_00242_DS_=0x32f
0000032d fed9                 MOVR 0x26, 0x0
0000032e fbd0                 SUBAR 0x2f, 0x0
0000032f                      main.o:_00242_DS_:
0000032f f3fc                 BTRSC 0x3, 0x0
00000330 c4cc                 LGOTO 0x333; main.o:_00192_DS_=0x333
00000331 e2f9                 BCR 0x6, 0x2
00000332 c4cb                 LGOTO 0x334; main.o:_00198_DS_=0x334
00000333                      main.o:_00192_DS_:
00000333 e6f9                 BSR 0x6, 0x2
00000334                      main.o:_00198_DS_:
00000334 defc                 MOVIA 0x3
00000335 fbd8                 SUBAR 0x27, 0x0
00000336 f6fc                 BTRSS 0x3, 0x2
00000337 c4c5                 LGOTO 0x33a; main.o:_00243_DS_=0x33a
00000338 de16                 MOVIA 0xe9
00000339 fbd9                 SUBAR 0x26, 0x0
0000033a                      main.o:_00243_DS_:
0000033a f7fc                 BTRSS 0x3, 0x0
0000033b c4ab                 LGOTO 0x354; main.o:_00208_DS_=0x354
0000033c fe94                 MOVR 0x6b, 0x0
0000033d dbfe                 XORIA 0x1
0000033e f6fc                 BTRSS 0x3, 0x2
0000033f c4bb                 LGOTO 0x344; main.o:_00205_DS_=0x344
00000340 e579                 BSR 0x6, 0x5
00000341 e1f9                 BCR 0x6, 0x4
00000342 e3fa                 BCR 0x5, 0x0
00000343 c4a8                 LGOTO 0x357; main.o:_00210_DS_=0x357
00000344                      main.o:_00205_DS_:
00000344 fe94                 MOVR 0x6b, 0x0
00000345 dbfd                 XORIA 0x2
00000346 f6fc                 BTRSS 0x3, 0x2
00000347 c4b3                 LGOTO 0x34c; main.o:_00202_DS_=0x34c
00000348 e179                 BCR 0x6, 0x5
00000349 e5f9                 BSR 0x6, 0x4
0000034a e3fa                 BCR 0x5, 0x0
0000034b c4a8                 LGOTO 0x357; main.o:_00210_DS_=0x357
0000034c                      main.o:_00202_DS_:
0000034c defc                 MOVIA 0x3
0000034d fb94                 SUBAR 0x6b, 0x0
0000034e f7fc                 BTRSS 0x3, 0x0
0000034f c4a8                 LGOTO 0x357; main.o:_00210_DS_=0x357
00000350 e179                 BCR 0x6, 0x5
00000351 e7fa                 BSR 0x5, 0x0
00000352 e1f9                 BCR 0x6, 0x4
00000353 c4a8                 LGOTO 0x357; main.o:_00210_DS_=0x357
00000354                      main.o:_00208_DS_:
00000354 e179                 BCR 0x6, 0x5
00000355 e3fa                 BCR 0x5, 0x0
00000356 e1f9                 BCR 0x6, 0x4
00000357                      main.o:_00210_DS_:
00000357 ffef                 RET
00000358                      _chrgCtr:
00000358 f57a                 BTRSS 0x5, 0x5
00000359 c4a3                 LGOTO 0x35c; main.o:_00180_DS_=0x35c
0000035a e216                 BCR 0x69, 0x3
0000035b c495                 LGOTO 0x36a; main.o:_00182_DS_=0x36a
0000035c                      main.o:_00180_DS_:
0000035c e616                 BSR 0x69, 0x3
0000035d fd14                 CLRR 0x6b
0000035e fd12                 CLRR 0x6d
0000035f fa10                 INCR 0x6f, 0x1
00000360 decc                 MOVIA 0x33
00000361 fb90                 SUBAR 0x6f, 0x0
00000362 f7fc                 BTRSS 0x3, 0x0
00000363 c495                 LGOTO 0x36a; main.o:_00182_DS_=0x36a
00000364 fd10                 CLRR 0x6f
00000365 fa11                 INCR 0x6e, 0x1
00000366 defc                 MOVIA 0x3
00000367 fb91                 SUBAR 0x6e, 0x0
00000368 f3fc                 BTRSC 0x3, 0x0
00000369 fd11                 CLRR 0x6e
0000036a                      main.o:_00182_DS_:
0000036a ffef                 RET
0000036b                      _POWERLOW:
0000036b ffea                 IOSTR 0x5
0000036c ff51                 MOVAR 0x2e
0000036d e0d1                 BCR 0x2e, 0x6
0000036e fed1                 MOVR 0x2e, 0x0
0000036f fffa                 IOST 0x5
00000370 ffe9                 IOSTR 0x6
00000371 ff51                 MOVAR 0x2e
00000372 e3d1                 BCR 0x2e, 0x0
00000373 fed1                 MOVR 0x2e, 0x0
00000374 fff9                 IOST 0x6
00000375 e4fa                 BSR 0x5, 0x6
00000376 e3f9                 BCR 0x6, 0x0
00000377 de9b                 MOVIA 0x64
00000378 d724                 LCALL 0xdb; _delay=0xdb
00000379 d404                 LCALL 0x3fb; _LedInput=0x3fb
0000037a ffef                 RET
0000037b                      _POWERMID:
0000037b ffea                 IOSTR 0x5
0000037c ff51                 MOVAR 0x2e
0000037d e051                 BCR 0x2e, 0x7
0000037e fed1                 MOVR 0x2e, 0x0
0000037f fffa                 IOST 0x5
00000380 ffe9                 IOSTR 0x6
00000381 ff51                 MOVAR 0x2e
00000382 e3d1                 BCR 0x2e, 0x0
00000383 fed1                 MOVR 0x2e, 0x0
00000384 fff9                 IOST 0x6
00000385 e47a                 BSR 0x5, 0x7
00000386 e3f9                 BCR 0x6, 0x0
00000387 de9b                 MOVIA 0x64
00000388 d724                 LCALL 0xdb; _delay=0xdb
00000389 d404                 LCALL 0x3fb; _LedInput=0x3fb
0000038a ffef                 RET
0000038b                      _POWERHIGHT:
0000038b ffe9                 IOSTR 0x6
0000038c ff51                 MOVAR 0x2e
0000038d e351                 BCR 0x2e, 0x1
0000038e fed1                 MOVR 0x2e, 0x0
0000038f fff9                 IOST 0x6
00000390 ffe9                 IOSTR 0x6
00000391 ff51                 MOVAR 0x2e
00000392 e3d1                 BCR 0x2e, 0x0
00000393 fed1                 MOVR 0x2e, 0x0
00000394 fff9                 IOST 0x6
00000395 e779                 BSR 0x6, 0x1
00000396 e3f9                 BCR 0x6, 0x0
00000397 de9b                 MOVIA 0x64
00000398 d724                 LCALL 0xdb; _delay=0xdb
00000399 d404                 LCALL 0x3fb; _LedInput=0x3fb
0000039a ffef                 RET
0000039b                      _BATLOW:
0000039b ffea                 IOSTR 0x5
0000039c ff51                 MOVAR 0x2e
0000039d e0d1                 BCR 0x2e, 0x6
0000039e fed1                 MOVR 0x2e, 0x0
0000039f fffa                 IOST 0x5
000003a0 ffea                 IOSTR 0x5
000003a1 ff51                 MOVAR 0x2e
000003a2 e2d1                 BCR 0x2e, 0x2
000003a3 fed1                 MOVR 0x2e, 0x0
000003a4 fffa                 IOST 0x5
000003a5 e4fa                 BSR 0x5, 0x6
000003a6 e2fa                 BCR 0x5, 0x2
000003a7 de9b                 MOVIA 0x64
000003a8 d724                 LCALL 0xdb; _delay=0xdb
000003a9 d404                 LCALL 0x3fb; _LedInput=0x3fb
000003aa ffef                 RET
000003ab                      _BATHIGHT:
000003ab ffea                 IOSTR 0x5
000003ac ff51                 MOVAR 0x2e
000003ad e051                 BCR 0x2e, 0x7
000003ae fed1                 MOVR 0x2e, 0x0
000003af fffa                 IOST 0x5
000003b0 ffea                 IOSTR 0x5
000003b1 ff51                 MOVAR 0x2e
000003b2 e2d1                 BCR 0x2e, 0x2
000003b3 fed1                 MOVR 0x2e, 0x0
000003b4 fffa                 IOST 0x5
000003b5 e47a                 BSR 0x5, 0x7
000003b6 e2fa                 BCR 0x5, 0x2
000003b7 de9b                 MOVIA 0x64
000003b8 d724                 LCALL 0xdb; _delay=0xdb
000003b9 d404                 LCALL 0x3fb; _LedInput=0x3fb
000003ba ffef                 RET
000003bb                      _LEDMODE1:
000003bb ffe9                 IOSTR 0x6
000003bc ff51                 MOVAR 0x2e
000003bd e351                 BCR 0x2e, 0x1
000003be fed1                 MOVR 0x2e, 0x0
000003bf fff9                 IOST 0x6
000003c0 ffea                 IOSTR 0x5
000003c1 ff51                 MOVAR 0x2e
000003c2 e2d1                 BCR 0x2e, 0x2
000003c3 fed1                 MOVR 0x2e, 0x0
000003c4 fffa                 IOST 0x5
000003c5 e779                 BSR 0x6, 0x1
000003c6 e2fa                 BCR 0x5, 0x2
000003c7 de9b                 MOVIA 0x64
000003c8 d724                 LCALL 0xdb; _delay=0xdb
000003c9 d404                 LCALL 0x3fb; _LedInput=0x3fb
000003ca ffef                 RET
000003cb                      _LEDMODE2:
000003cb ffe9                 IOSTR 0x6
000003cc ff51                 MOVAR 0x2e
000003cd e3d1                 BCR 0x2e, 0x0
000003ce fed1                 MOVR 0x2e, 0x0
000003cf fff9                 IOST 0x6
000003d0 ffea                 IOSTR 0x5
000003d1 ff51                 MOVAR 0x2e
000003d2 e0d1                 BCR 0x2e, 0x6
000003d3 fed1                 MOVR 0x2e, 0x0
000003d4 fffa                 IOST 0x5
000003d5 e7f9                 BSR 0x6, 0x0
000003d6 e0fa                 BCR 0x5, 0x6
000003d7 de9b                 MOVIA 0x64
000003d8 d724                 LCALL 0xdb; _delay=0xdb
000003d9 d404                 LCALL 0x3fb; _LedInput=0x3fb
000003da ffef                 RET
000003db                      _LEDMODE3:
000003db ffe9                 IOSTR 0x6
000003dc ff51                 MOVAR 0x2e
000003dd e3d1                 BCR 0x2e, 0x0
000003de fed1                 MOVR 0x2e, 0x0
000003df fff9                 IOST 0x6
000003e0 ffea                 IOSTR 0x5
000003e1 ff51                 MOVAR 0x2e
000003e2 e051                 BCR 0x2e, 0x7
000003e3 fed1                 MOVR 0x2e, 0x0
000003e4 fffa                 IOST 0x5
000003e5 e7f9                 BSR 0x6, 0x0
000003e6 e07a                 BCR 0x5, 0x7
000003e7 de9b                 MOVIA 0x64
000003e8 d724                 LCALL 0xdb; _delay=0xdb
000003e9 d404                 LCALL 0x3fb; _LedInput=0x3fb
000003ea ffef                 RET
000003eb                      _LEDMODE4:
000003eb ffea                 IOSTR 0x5
000003ec ff51                 MOVAR 0x2e
000003ed e2d1                 BCR 0x2e, 0x2
000003ee fed1                 MOVR 0x2e, 0x0
000003ef fffa                 IOST 0x5
000003f0 ffe9                 IOSTR 0x6
000003f1 ff51                 MOVAR 0x2e
000003f2 e351                 BCR 0x2e, 0x1
000003f3 fed1                 MOVR 0x2e, 0x0
000003f4 fff9                 IOST 0x6
000003f5 e6fa                 BSR 0x5, 0x2
000003f6 e379                 BCR 0x6, 0x1
000003f7 de9b                 MOVIA 0x64
000003f8 d724                 LCALL 0xdb; _delay=0xdb
000003f9 d404                 LCALL 0x3fb; _LedInput=0x3fb
000003fa ffef                 RET
000003fb                      _LedInput:
000003fb dec4                 MOVIA 0x3b
000003fc ef7a                 ANDAR 0x5, 0x1
000003fd de03                 MOVIA 0xfc
000003fe ef79                 ANDAR 0x6, 0x1
000003ff ffea                 IOSTR 0x5
00000400 ff52                 MOVAR 0x2d
00000401 de3b                 MOVIA 0xc4
00000402 ee52                 IORAR 0x2d, 0x1
00000403 fed2                 MOVR 0x2d, 0x0
00000404 fffa                 IOST 0x5
00000405 ffe9                 IOSTR 0x6
00000406 ff52                 MOVAR 0x2d
00000407 defc                 MOVIA 0x3
00000408 ee52                 IORAR 0x2d, 0x1
00000409 fed2                 MOVR 0x2d, 0x0
0000040a fff9                 IOST 0x6
0000040b ffef                 RET
0000040c                      _initSys:
0000040c ffec                 DISI
0000040d dec5                 MOVIA 0x3a
0000040e fffa                 IOST 0x5
0000040f fdff                 CLRA
00000410 fff9                 IOST 0x6
00000411 fd79                 CLRR 0x6
00000412 fd7a                 CLRR 0x5
00000413 de00                 MOVIA 0xff
00000414 fff6                 IOST 0x9
00000415 ff73                 MOVAR 0xc
00000416 defe                 MOVIA 0x1
00000417 ff71                 MOVAR 0xe
00000418 fdff                 CLRA
00000419 fff0                 IOST 0xf
0000041a dec8                 MOVIA 0x37
0000041b ff7e                 MOVAR 0x1
0000041c fdff                 CLRA
0000041d fffc                 T0MD
0000041e defe                 MOVIA 0x1
0000041f fff0                 IOST 0xf
00000420 de77                 MOVIA 0x88
00000421 ff77                 MOVAR 0x8
00000422 defe                 MOVIA 0x1
00000423 fff0                 IOST 0xf
00000424 fffb                 ENI
00000425 ffef                 RET
00000426                      __divuint:
00000426 ff29                 MOVAR 0x56
00000427 feba                 MOVR 0x45, 0x0
00000428 ff2a                 MOVAR 0x55
00000429 febb                 MOVR 0x44, 0x0
0000042a ff27                 MOVAR 0x58
0000042b febc                 MOVR 0x43, 0x0
0000042c ff28                 MOVAR 0x57
0000042d fd26                 CLRR 0x59
0000042e fd25                 CLRR 0x5a
0000042f defe                 MOVIA 0x1
00000430 ff24                 MOVAR 0x5b
00000431 fd23                 CLRR 0x5c
00000432 fea8                 MOVR 0x57, 0x0
00000433 eea7                 IORAR 0x58, 0x0
00000434 f6fc                 BTRSS 0x3, 0x2
00000435 c3c6                 LGOTO 0x439; _divuint.o:_00107_DS_=0x439
00000436 de00                 MOVIA 0xff
00000437 ff3a                 MOVAR 0x45
00000438 c39b                 LGOTO 0x464; _divuint.o:_00115_DS_=0x464
00000439                      _divuint.o:_00107_DS_:
00000439 f027                 BTRSC 0x58, 0x7
0000043a c3bd                 LGOTO 0x442; _divuint.o:_00112_DS_=0x442
0000043b e3fc                 BCR 0x3, 0x0
0000043c eb28                 RLR 0x57, 0x1
0000043d eb27                 RLR 0x58, 0x1
0000043e e3fc                 BCR 0x3, 0x0
0000043f eb24                 RLR 0x5b, 0x1
00000440 eb23                 RLR 0x5c, 0x1
00000441 c3c6                 LGOTO 0x439; _divuint.o:_00107_DS_=0x439
00000442                      _divuint.o:_00112_DS_:
00000442 fea4                 MOVR 0x5b, 0x0
00000443 eea3                 IORAR 0x5c, 0x0
00000444 f2fc                 BTRSC 0x3, 0x2
00000445 c39e                 LGOTO 0x461; _divuint.o:_00114_DS_=0x461
00000446 fea7                 MOVR 0x58, 0x0
00000447 fba9                 SUBAR 0x56, 0x0
00000448 f6fc                 BTRSS 0x3, 0x2
00000449 c3b3                 LGOTO 0x44c; _divuint.o:_00135_DS_=0x44c
0000044a fea8                 MOVR 0x57, 0x0
0000044b fbaa                 SUBAR 0x55, 0x0
0000044c                      _divuint.o:_00135_DS_:
0000044c f7fc                 BTRSS 0x3, 0x0
0000044d c3a5                 LGOTO 0x45a; _divuint.o:_00111_DS_=0x45a
0000044e fea4                 MOVR 0x5b, 0x0
0000044f fc26                 ADDAR 0x59, 0x1
00000450 fea3                 MOVR 0x5c, 0x0
00000451 f3fc                 BTRSC 0x3, 0x0
00000452 e9a3                 INCRSZ 0x5c, 0x0
00000453 fc25                 ADDAR 0x5a, 0x1
00000454 fea8                 MOVR 0x57, 0x0
00000455 fb2a                 SUBAR 0x55, 0x1
00000456 fea7                 MOVR 0x58, 0x0
00000457 f7fc                 BTRSS 0x3, 0x0
00000458 e9a7                 INCRSZ 0x58, 0x0
00000459 fb29                 SUBAR 0x56, 0x1
0000045a                      _divuint.o:_00111_DS_:
0000045a e3fc                 BCR 0x3, 0x0
0000045b ec27                 RRR 0x58, 0x1
0000045c ec28                 RRR 0x57, 0x1
0000045d e3fc                 BCR 0x3, 0x0
0000045e ec23                 RRR 0x5c, 0x1
0000045f ec24                 RRR 0x5b, 0x1
00000460 c3bd                 LGOTO 0x442; _divuint.o:_00112_DS_=0x442
00000461                      _divuint.o:_00114_DS_:
00000461 fea6                 MOVR 0x59, 0x0
00000462 ff3a                 MOVAR 0x45
00000463 fea5                 MOVR 0x5a, 0x0
00000464                      _divuint.o:_00115_DS_:
00000464 ffef                 RET
00000465                      __mulint:
00000465 ff21                 MOVAR 0x5e
00000466 feba                 MOVR 0x45, 0x0
00000467 ff22                 MOVAR 0x5d
00000468 febb                 MOVR 0x44, 0x0
00000469 ff1f                 MOVAR 0x60
0000046a febc                 MOVR 0x43, 0x0
0000046b ff20                 MOVAR 0x5f
0000046c fd1e                 CLRR 0x61
0000046d fd1d                 CLRR 0x62
0000046e def7                 MOVIA 0x8
0000046f ff1c                 MOVAR 0x63
00000470                      _mulint.o:_00119_DS_:
00000470 f7a2                 BTRSS 0x5d, 0x0
00000471 c387                 LGOTO 0x478; _mulint.o:_00109_DS_=0x478
00000472 fea0                 MOVR 0x5f, 0x0
00000473 fc1e                 ADDAR 0x61, 0x1
00000474 fe9f                 MOVR 0x60, 0x0
00000475 f3fc                 BTRSC 0x3, 0x0
00000476 e99f                 INCRSZ 0x60, 0x0
00000477 fc1d                 ADDAR 0x62, 0x1
00000478                      _mulint.o:_00109_DS_:
00000478 f7a1                 BTRSS 0x5e, 0x0
00000479 c37c                 LGOTO 0x483; _mulint.o:_00114_DS_=0x483
0000047a fea0                 MOVR 0x5f, 0x0
0000047b fd1b                 CLRR 0x64
0000047c deff                 MOVIA 0x0
0000047d fc1e                 ADDAR 0x61, 0x1
0000047e fea0                 MOVR 0x5f, 0x0
0000047f ff1a                 MOVAR 0x65
00000480 f3fc                 BTRSC 0x3, 0x0
00000481 e99a                 INCRSZ 0x65, 0x0
00000482 fc1d                 ADDAR 0x62, 0x1
00000483                      _mulint.o:_00114_DS_:
00000483 fea2                 MOVR 0x5d, 0x0
00000484 ff1b                 MOVAR 0x64
00000485 fea1                 MOVR 0x5e, 0x0
00000486 ff1a                 MOVAR 0x65
00000487 e3fc                 BCR 0x3, 0x0
00000488 ec9a                 RRR 0x65, 0x0
00000489 ff21                 MOVAR 0x5e
0000048a ec9b                 RRR 0x64, 0x0
0000048b ff22                 MOVAR 0x5d
0000048c e3fc                 BCR 0x3, 0x0
0000048d eb20                 RLR 0x5f, 0x1
0000048e eb1f                 RLR 0x60, 0x1
0000048f f99c                 DECR 0x63, 0x0
00000490 ff1b                 MOVAR 0x64
00000491 ff1c                 MOVAR 0x63
00000492 fe9b                 MOVR 0x64, 0x0
00000493 f6fc                 BTRSS 0x3, 0x2
00000494 c38f                 LGOTO 0x470; _mulint.o:_00119_DS_=0x470
00000495 fe9e                 MOVR 0x61, 0x0
00000496 ff3a                 MOVAR 0x45
00000497 fe9d                 MOVR 0x62, 0x0
00000498 ffef                 RET
00000499                      ___cinit_load__:
