00000000 c7fe                LGOTO    0x1; __nyc_ny8_startup=0x1
00000001                     __nyc_ny8_startup:
00000001 d2ae                LCALL    0x551; ___cinit_load__=0x551
00000002 c65c                LGOTO    0x1a3; _main=0x1a3
00000003                     _pwm1Stop:
00000003 fdff                CLRA
00000004 ffbe                SFUN     T1CR1
00000005 e279                BCR      PORTB, PB3
00000006 ffef                RET
00000008 c332                LGOTO    0x4cd; _isr=0x4cd
00000009                     _checkBatAD:
00000009 e4fc                BSR      STATUS, BK0
0000000a fd5f                CLRR     0x20
0000000b e0fc                BCR      STATUS, BK0
0000000c fd16                CLRR     0x69
0000000d fd15                CLRR     0x6a
0000000e def7                MOVIA    0x8
0000000f d152                LCALL    0x6ad; _F_AIN0_Convert=0x6ad
00000010 e0fc                BCR      STATUS, BK0
00000011 ea95                SWAPR    0x6a, ToAcc
00000012 dd0f                ANDIA    0xf0
00000013 ff15                MOVAR    0x6a
00000014 ea96                SWAPR    0x69, ToAcc
00000015 ff16                MOVAR    0x69
00000016 ddf0                ANDIA    0xf
00000017 ee15                IORAR    0x6a, ToReg
00000018 ed16                XORAR    0x69, ToReg
00000019 de0f                MOVIA    0xf0
0000001a e4fc                BSR      STATUS, BK0
0000001b ef5f                ANDAR    0x20, ToReg
0000001c fedf                MOVR     0x20, ToAcc
0000001d e0fc                BCR      STATUS, BK0
0000001e ff4d                MOVAR    0x32
0000001f ff4f                MOVAR    0x30
00000020 fd4e                CLRR     0x31
00000021 deff                MOVIA    0x0
00000022 ff4c                MOVAR    0x33
00000023 fecd                MOVR     0x32, ToAcc
00000024 fc16                ADDAR    0x69, ToReg
00000025 fecc                MOVR     0x33, ToAcc
00000026 f3fc                BTRSC    STATUS, C
00000027 facc                INCR     0x33, ToAcc
00000028 f2fc                BTRSC    STATUS, Z
00000029 c7d4                LGOTO    0x2b; main.o:_00005_DS_=0x2b
0000002a fc15                ADDAR    0x6a, ToReg
0000002b                     main.o:_00005_DS_:
0000002b e3fc                BCR      STATUS, C
0000002c e0fc                BCR      STATUS, BK0
0000002d ec15                RRR      0x6a, ToReg
0000002e ec16                RRR      0x69, ToReg
0000002f e3fc                BCR      STATUS, C
00000030 ec15                RRR      0x6a, ToReg
00000031 ec16                RRR      0x69, ToReg
00000032 e3fc                BCR      STATUS, C
00000033 ec15                RRR      0x6a, ToReg
00000034 ec16                RRR      0x69, ToReg
00000035 def9                MOVIA    0x6
00000036 fb95                SUBAR    0x6a, ToAcc
00000037 f6fc                BTRSS    STATUS, Z
00000038 c7c4                LGOTO    0x3b; main.o:_00687_DS_=0x3b
00000039 deeb                MOVIA    0x14
0000003a fb96                SUBAR    0x69, ToAcc
0000003b                     main.o:_00687_DS_:
0000003b f7fc                BTRSS    STATUS, C
0000003c c7b3                LGOTO    0x4c; main.o:_00550_DS_=0x4c
0000003d e4fc                BSR      STATUS, BK0
0000003e fa52                INCR     0x2d, ToReg
0000003f de04                MOVIA    0xfb
00000040 fbd2                SUBAR    0x2d, ToAcc
00000041 f7fc                BTRSS    STATUS, C
00000042 c7b7                LGOTO    0x48; main.o:_00533_DS_=0x48
00000043 de05                MOVIA    0xfa
00000044 ff52                MOVAR    0x2d
00000045 de9b                MOVIA    0x64
00000046 ff5a                MOVAR    0x25
00000047 c719                LGOTO    0xe6; main.o:_00551_DS_=0xe6
00000048                     main.o:_00533_DS_:
00000048 de9c                MOVIA    0x63
00000049 e4fc                BSR      STATUS, BK0
0000004a ff5a                MOVAR    0x25
0000004b c719                LGOTO    0xe6; main.o:_00551_DS_=0xe6
0000004c                     main.o:_00550_DS_:
0000004c defa                MOVIA    0x5
0000004d e0fc                BCR      STATUS, BK0
0000004e fb95                SUBAR    0x6a, ToAcc
0000004f f6fc                BTRSS    STATUS, Z
00000050 c7ac                LGOTO    0x53; main.o:_00689_DS_=0x53
00000051 de34                MOVIA    0xcb
00000052 fb96                SUBAR    0x69, ToAcc
00000053                     main.o:_00689_DS_:
00000053 f7fc                BTRSS    STATUS, C
00000054 c784                LGOTO    0x7b; main.o:_00547_DS_=0x7b
00000055 e4fc                BSR      STATUS, BK0
00000056 fd52                CLRR     0x2d
00000057 dec9                MOVIA    0x36
00000058 e0fc                BCR      STATUS, BK0
00000059 fc96                ADDAR    0x69, ToAcc
0000005a ff4f                MOVAR    0x30
0000005b de05                MOVIA    0xfa
0000005c ff4e                MOVAR    0x31
0000005d fe95                MOVR     0x6a, ToAcc
0000005e f3fc                BTRSC    STATUS, C
0000005f fa95                INCR     0x6a, ToAcc
00000060 f2fc                BTRSC    STATUS, Z
00000061 c79c                LGOTO    0x63; main.o:_00006_DS_=0x63
00000062 fc4e                ADDAR    0x31, ToReg
00000063                     main.o:_00006_DS_:
00000063 defc                MOVIA    0x3
00000064 ff3a                MOVAR    0x45
00000065 deff                MOVIA    0x0
00000066 ff39                MOVAR    0x46
00000067 e0fc                BCR      STATUS, BK0
00000068 fecf                MOVR     0x30, ToAcc
00000069 ff38                MOVAR    0x47
0000006a fece                MOVR     0x31, ToAcc
0000006b d3c4                LCALL    0x43b; __divuint=0x43b
0000006c e0fc                BCR      STATUS, BK0
0000006d ff4e                MOVAR    0x31
0000006e feb8                MOVR     0x47, ToAcc
0000006f ff4f                MOVAR    0x30
00000070 e4fc                BSR      STATUS, BK0
00000071 ff5a                MOVAR    0x25
00000072 deaf                MOVIA    0x50
00000073 fc5a                ADDAR    0x25, ToReg
00000074 de9b                MOVIA    0x64
00000075 fbda                SUBAR    0x25, ToAcc
00000076 f7fc                BTRSS    STATUS, C
00000077 c719                LGOTO    0xe6; main.o:_00551_DS_=0xe6
00000078 de9c                MOVIA    0x63
00000079 ff5a                MOVAR    0x25
0000007a c719                LGOTO    0xe6; main.o:_00551_DS_=0xe6
0000007b                     main.o:_00547_DS_:
0000007b defa                MOVIA    0x5
0000007c e0fc                BCR      STATUS, BK0
0000007d fb95                SUBAR    0x6a, ToAcc
0000007e f6fc                BTRSS    STATUS, Z
0000007f c77d                LGOTO    0x82; main.o:_00691_DS_=0x82
00000080 dec0                MOVIA    0x3f
00000081 fb96                SUBAR    0x69, ToAcc
00000082                     main.o:_00691_DS_:
00000082 f7fc                BTRSS    STATUS, C
00000083 c764                LGOTO    0x9b; main.o:_00544_DS_=0x9b
00000084 de33                MOVIA    0xcc
00000085 e0fc                BCR      STATUS, BK0
00000086 fc96                ADDAR    0x69, ToAcc
00000087 ff4f                MOVAR    0x30
00000088 de05                MOVIA    0xfa
00000089 ff4e                MOVAR    0x31
0000008a fe95                MOVR     0x6a, ToAcc
0000008b f3fc                BTRSC    STATUS, C
0000008c fa95                INCR     0x6a, ToAcc
0000008d f2fc                BTRSC    STATUS, Z
0000008e c76f                LGOTO    0x90; main.o:_00007_DS_=0x90
0000008f fc4e                ADDAR    0x31, ToReg
00000090                     main.o:_00007_DS_:
00000090 e3fc                BCR      STATUS, C
00000091 e0fc                BCR      STATUS, BK0
00000092 ecce                RRR      0x31, ToAcc
00000093 ff4c                MOVAR    0x33
00000094 eccf                RRR      0x30, ToAcc
00000095 ff4d                MOVAR    0x32
00000096 e4fc                BSR      STATUS, BK0
00000097 ff5a                MOVAR    0x25
00000098 def5                MOVIA    0xa
00000099 fc5a                ADDAR    0x25, ToReg
0000009a c719                LGOTO    0xe6; main.o:_00551_DS_=0xe6
0000009b                     main.o:_00544_DS_:
0000009b defb                MOVIA    0x4
0000009c e0fc                BCR      STATUS, BK0
0000009d fb95                SUBAR    0x6a, ToAcc
0000009e f6fc                BTRSS    STATUS, Z
0000009f c75d                LGOTO    0xa2; main.o:_00692_DS_=0xa2
000000a0 de06                MOVIA    0xf9
000000a1 fb96                SUBAR    0x69, ToAcc
000000a2                     main.o:_00692_DS_:
000000a2 f7fc                BTRSS    STATUS, C
000000a3 c73d                LGOTO    0xc2; main.o:_00541_DS_=0xc2
000000a4 de03                MOVIA    0xfc
000000a5 e0fc                BCR      STATUS, BK0
000000a6 fc96                ADDAR    0x69, ToAcc
000000a7 ff4f                MOVAR    0x30
000000a8 de05                MOVIA    0xfa
000000a9 ff4e                MOVAR    0x31
000000aa fe95                MOVR     0x6a, ToAcc
000000ab f3fc                BTRSC    STATUS, C
000000ac fa95                INCR     0x6a, ToAcc
000000ad f2fc                BTRSC    STATUS, Z
000000ae c74f                LGOTO    0xb0; main.o:_00008_DS_=0xb0
000000af fc4e                ADDAR    0x31, ToReg
000000b0                     main.o:_00008_DS_:
000000b0 def1                MOVIA    0xe
000000b1 ff3a                MOVAR    0x45
000000b2 deff                MOVIA    0x0
000000b3 ff39                MOVAR    0x46
000000b4 e0fc                BCR      STATUS, BK0
000000b5 fecf                MOVR     0x30, ToAcc
000000b6 ff38                MOVAR    0x47
000000b7 fece                MOVR     0x31, ToAcc
000000b8 d3c4                LCALL    0x43b; __divuint=0x43b
000000b9 e0fc                BCR      STATUS, BK0
000000ba ff4e                MOVAR    0x31
000000bb feb8                MOVR     0x47, ToAcc
000000bc ff4f                MOVAR    0x30
000000bd e4fc                BSR      STATUS, BK0
000000be ff5a                MOVAR    0x25
000000bf defa                MOVIA    0x5
000000c0 fc5a                ADDAR    0x25, ToReg
000000c1 c719                LGOTO    0xe6; main.o:_00551_DS_=0xe6
000000c2                     main.o:_00541_DS_:
000000c2 defb                MOVIA    0x4
000000c3 e0fc                BCR      STATUS, BK0
000000c4 fb95                SUBAR    0x6a, ToAcc
000000c5 f6fc                BTRSS    STATUS, Z
000000c6 c736                LGOTO    0xc9; main.o:_00693_DS_=0xc9
000000c7 de57                MOVIA    0xa8
000000c8 fb96                SUBAR    0x69, ToAcc
000000c9                     main.o:_00693_DS_:
000000c9 f7fc                BTRSS    STATUS, C
000000ca c71b                LGOTO    0xe4; main.o:_00538_DS_=0xe4
000000cb dea6                MOVIA    0x59
000000cc e0fc                BCR      STATUS, BK0
000000cd fc96                ADDAR    0x69, ToAcc
000000ce ff4f                MOVAR    0x30
000000cf de04                MOVIA    0xfb
000000d0 ff4e                MOVAR    0x31
000000d1 fe95                MOVR     0x6a, ToAcc
000000d2 f3fc                BTRSC    STATUS, C
000000d3 fa95                INCR     0x6a, ToAcc
000000d4 f2fc                BTRSC    STATUS, Z
000000d5 c728                LGOTO    0xd7; main.o:_00009_DS_=0xd7
000000d6 fc4e                ADDAR    0x31, ToReg
000000d7                     main.o:_00009_DS_:
000000d7 e0fc                BCR      STATUS, BK0
000000d8 eacf                SWAPR    0x30, ToAcc
000000d9 ddf0                ANDIA    0xf
000000da ff4d                MOVAR    0x32
000000db eace                SWAPR    0x31, ToAcc
000000dc ff4c                MOVAR    0x33
000000dd dd0f                ANDIA    0xf0
000000de ee4d                IORAR    0x32, ToReg
000000df ed4c                XORAR    0x33, ToReg
000000e0 fecd                MOVR     0x32, ToAcc
000000e1 e4fc                BSR      STATUS, BK0
000000e2 ff5a                MOVAR    0x25
000000e3 c719                LGOTO    0xe6; main.o:_00551_DS_=0xe6
000000e4                     main.o:_00538_DS_:
000000e4 e4fc                BSR      STATUS, BK0
000000e5 fd5a                CLRR     0x25
000000e6                     main.o:_00551_DS_:
000000e6 e4fc                BSR      STATUS, BK0
000000e7 fed9                MOVR     0x26, ToAcc
000000e8 f6fc                BTRSS    STATUS, Z
000000e9 c713                LGOTO    0xec; main.o:_00553_DS_=0xec
000000ea feda                MOVR     0x25, ToAcc
000000eb ff59                MOVAR    0x26
000000ec                     main.o:_00553_DS_:
000000ec e4fc                BSR      STATUS, BK0
000000ed fedc                MOVR     0x23, ToAcc
000000ee f6fc                BTRSS    STATUS, Z
000000ef c6f0                LGOTO    0x10f; main.o:_00563_DS_=0x10f
000000f0 fed9                MOVR     0x26, ToAcc
000000f1 fbda                SUBAR    0x25, ToAcc
000000f2 f3fc                BTRSC    STATUS, C
000000f3 c6f3                LGOTO    0x10c; main.o:_00559_DS_=0x10c
000000f4 fed9                MOVR     0x26, ToAcc
000000f5 f2fc                BTRSC    STATUS, Z
000000f6 c6f3                LGOTO    0x10c; main.o:_00559_DS_=0x10c
000000f7 e0fc                BCR      STATUS, BK0
000000f8 fa0e                INCR     0x71, ToReg
000000f9 f2fc                BTRSC    STATUS, Z
000000fa fa0d                INCR     0x72, ToReg
000000fb defc                MOVIA    0x3
000000fc fb8d                SUBAR    0x72, ToAcc
000000fd f6fc                BTRSS    STATUS, Z
000000fe c6fe                LGOTO    0x101; main.o:_00695_DS_=0x101
000000ff de16                MOVIA    0xe9
00000100 fb8e                SUBAR    0x71, ToAcc
00000101                     main.o:_00695_DS_:
00000101 f7fc                BTRSS    STATUS, C
00000102 c6f0                LGOTO    0x10f; main.o:_00563_DS_=0x10f
00000103 e0fc                BCR      STATUS, BK0
00000104 fd0e                CLRR     0x71
00000105 fd0d                CLRR     0x72
00000106 e4fc                BSR      STATUS, BK0
00000107 e859                DECRSZ   0x26, ToReg
00000108 c6f0                LGOTO    0x10f; main.o:_00563_DS_=0x10f
00000109 defe                MOVIA    0x1
0000010a ff59                MOVAR    0x26
0000010b c6f0                LGOTO    0x10f; main.o:_00563_DS_=0x10f
0000010c                     main.o:_00559_DS_:
0000010c e0fc                BCR      STATUS, BK0
0000010d fd0e                CLRR     0x71
0000010e fd0d                CLRR     0x72
0000010f                     main.o:_00563_DS_:
0000010f e4fc                BSR      STATUS, BK0
00000110 feda                MOVR     0x25, ToAcc
00000111 fbd9                SUBAR    0x26, ToAcc
00000112 f3fc                BTRSC    STATUS, C
00000113 c6d3                LGOTO    0x12c; main.o:_00569_DS_=0x12c
00000114 e0fc                BCR      STATUS, BK0
00000115 fa10                INCR     0x6f, ToReg
00000116 f2fc                BTRSC    STATUS, Z
00000117 fa0f                INCR     0x70, ToReg
00000118 defc                MOVIA    0x3
00000119 fb8f                SUBAR    0x70, ToAcc
0000011a f6fc                BTRSS    STATUS, Z
0000011b c6e1                LGOTO    0x11e; main.o:_00697_DS_=0x11e
0000011c de16                MOVIA    0xe9
0000011d fb90                SUBAR    0x6f, ToAcc
0000011e                     main.o:_00697_DS_:
0000011e f7fc                BTRSS    STATUS, C
0000011f c6d0                LGOTO    0x12f; main.o:_00570_DS_=0x12f
00000120 e0fc                BCR      STATUS, BK0
00000121 fd10                CLRR     0x6f
00000122 fd0f                CLRR     0x70
00000123 e4fc                BSR      STATUS, BK0
00000124 fa59                INCR     0x26, ToReg
00000125 de9a                MOVIA    0x65
00000126 fbd9                SUBAR    0x26, ToAcc
00000127 f7fc                BTRSS    STATUS, C
00000128 c6d0                LGOTO    0x12f; main.o:_00570_DS_=0x12f
00000129 de9b                MOVIA    0x64
0000012a ff59                MOVAR    0x26
0000012b c6d0                LGOTO    0x12f; main.o:_00570_DS_=0x12f
0000012c                     main.o:_00569_DS_:
0000012c e0fc                BCR      STATUS, BK0
0000012d fd10                CLRR     0x6f
0000012e fd0f                CLRR     0x70
0000012f                     main.o:_00570_DS_:
0000012f e4fc                BSR      STATUS, BK0
00000130 fed9                MOVR     0x26, ToAcc
00000131 f6fc                BTRSS    STATUS, Z
00000132 c6ca                LGOTO    0x135; main.o:_00572_DS_=0x135
00000133 feda                MOVR     0x25, ToAcc
00000134 ff59                MOVAR    0x26
00000135                     main.o:_00572_DS_:
00000135 e4fc                BSR      STATUS, BK0
00000136 fedc                MOVR     0x23, ToAcc
00000137 f6fc                BTRSS    STATUS, Z
00000138 c6a7                LGOTO    0x158; main.o:_00582_DS_=0x158
00000139 fed9                MOVR     0x26, ToAcc
0000013a fbda                SUBAR    0x25, ToAcc
0000013b f3fc                BTRSC    STATUS, C
0000013c c6aa                LGOTO    0x155; main.o:_00578_DS_=0x155
0000013d fed9                MOVR     0x26, ToAcc
0000013e f2fc                BTRSC    STATUS, Z
0000013f c6aa                LGOTO    0x155; main.o:_00578_DS_=0x155
00000140 e0fc                BCR      STATUS, BK0
00000141 fa0e                INCR     0x71, ToReg
00000142 f2fc                BTRSC    STATUS, Z
00000143 fa0d                INCR     0x72, ToReg
00000144 defc                MOVIA    0x3
00000145 fb8d                SUBAR    0x72, ToAcc
00000146 f6fc                BTRSS    STATUS, Z
00000147 c6b5                LGOTO    0x14a; main.o:_00700_DS_=0x14a
00000148 de16                MOVIA    0xe9
00000149 fb8e                SUBAR    0x71, ToAcc
0000014a                     main.o:_00700_DS_:
0000014a f7fc                BTRSS    STATUS, C
0000014b c6a7                LGOTO    0x158; main.o:_00582_DS_=0x158
0000014c e0fc                BCR      STATUS, BK0
0000014d fd0e                CLRR     0x71
0000014e fd0d                CLRR     0x72
0000014f e4fc                BSR      STATUS, BK0
00000150 e859                DECRSZ   0x26, ToReg
00000151 c6a7                LGOTO    0x158; main.o:_00582_DS_=0x158
00000152 defe                MOVIA    0x1
00000153 ff59                MOVAR    0x26
00000154 c6a7                LGOTO    0x158; main.o:_00582_DS_=0x158
00000155                     main.o:_00578_DS_:
00000155 e0fc                BCR      STATUS, BK0
00000156 fd0e                CLRR     0x71
00000157 fd0d                CLRR     0x72
00000158                     main.o:_00582_DS_:
00000158 e4fc                BSR      STATUS, BK0
00000159 feda                MOVR     0x25, ToAcc
0000015a fbd9                SUBAR    0x26, ToAcc
0000015b f3fc                BTRSC    STATUS, C
0000015c c68a                LGOTO    0x175; main.o:_00588_DS_=0x175
0000015d e0fc                BCR      STATUS, BK0
0000015e fa10                INCR     0x6f, ToReg
0000015f f2fc                BTRSC    STATUS, Z
00000160 fa0f                INCR     0x70, ToReg
00000161 defc                MOVIA    0x3
00000162 fb8f                SUBAR    0x70, ToAcc
00000163 f6fc                BTRSS    STATUS, Z
00000164 c698                LGOTO    0x167; main.o:_00702_DS_=0x167
00000165 de16                MOVIA    0xe9
00000166 fb90                SUBAR    0x6f, ToAcc
00000167                     main.o:_00702_DS_:
00000167 f7fc                BTRSS    STATUS, C
00000168 c687                LGOTO    0x178; main.o:_00589_DS_=0x178
00000169 e0fc                BCR      STATUS, BK0
0000016a fd10                CLRR     0x6f
0000016b fd0f                CLRR     0x70
0000016c e4fc                BSR      STATUS, BK0
0000016d fa59                INCR     0x26, ToReg
0000016e de9b                MOVIA    0x64
0000016f fbd9                SUBAR    0x26, ToAcc
00000170 f7fc                BTRSS    STATUS, C
00000171 c687                LGOTO    0x178; main.o:_00589_DS_=0x178
00000172 de9c                MOVIA    0x63
00000173 ff59                MOVAR    0x26
00000174 c687                LGOTO    0x178; main.o:_00589_DS_=0x178
00000175                     main.o:_00588_DS_:
00000175 e0fc                BCR      STATUS, BK0
00000176 fd10                CLRR     0x6f
00000177 fd0f                CLRR     0x70
00000178                     main.o:_00589_DS_:
00000178 e4fc                BSR      STATUS, BK0
00000179 feda                MOVR     0x25, ToAcc
0000017a f6fc                BTRSS    STATUS, Z
0000017b c661                LGOTO    0x19e; main.o:_00595_DS_=0x19e
0000017c fedc                MOVR     0x23, ToAcc
0000017d f6fc                BTRSS    STATUS, Z
0000017e c661                LGOTO    0x19e; main.o:_00595_DS_=0x19e
0000017f fa54                INCR     0x2b, ToReg
00000180 de36                MOVIA    0xc9
00000181 fbd4                SUBAR    0x2b, ToAcc
00000182 f7fc                BTRSS    STATUS, C
00000183 c65e                LGOTO    0x1a1; main.o:_00596_DS_=0x1a1
00000184 de37                MOVIA    0xc8
00000185 ff54                MOVAR    0x2b
00000186 fd59                CLRR     0x26
00000187 fed3                MOVR     0x2c, ToAcc
00000188 f6fc                BTRSS    STATUS, Z
00000189 c65e                LGOTO    0x1a1; main.o:_00596_DS_=0x1a1
0000018a d07d                LCALL    0x782; _powerOff=0x782
0000018b defe                MOVIA    0x1
0000018c e0fc                BCR      STATUS, BK0
0000018d ff03                MOVAR    0x7c
0000018e def4                MOVIA    0xb
0000018f ff05                MOVAR    0x7a
00000190 def3                MOVIA    0xc
00000191 ff04                MOVAR    0x7b
00000192 defe                MOVIA    0x1
00000193 e4fc                BSR      STATUS, BK0
00000194 ff53                MOVAR    0x2c
00000195 de0b                MOVIA    0xf4
00000196 e0fc                BCR      STATUS, BK0
00000197 ff18                MOVAR    0x67
00000198 defe                MOVIA    0x1
00000199 ff17                MOVAR    0x68
0000019a fd0a                CLRR     0x75
0000019b e4fc                BSR      STATUS, BK0
0000019c fd50                CLRR     0x2f
0000019d c65e                LGOTO    0x1a1; main.o:_00596_DS_=0x1a1
0000019e                     main.o:_00595_DS_:
0000019e e4fc                BSR      STATUS, BK0
0000019f fd54                CLRR     0x2b
000001a0 fd53                CLRR     0x2c
000001a1                     main.o:_00596_DS_:
000001a1 d23f                LCALL    0x5c0; _setShowNum=0x5c0
000001a2 ffef                RET
000001a3                     _main:
000001a3 d114                LCALL    0x6eb; _initSys=0x6eb
000001a4 d08a                LCALL    0x775; _initAD=0x775
000001a5 de37                MOVIA    0xc8
000001a6 e4fc                BSR      STATUS, BK0
000001a7 ff5d                MOVAR    0x22
000001a8                     main.o:_00159_DS_:
000001a8 fffd                CLRWDT
000001a9 e0fc                BCR      STATUS, BK0
000001aa fe83                MOVR     0x7c, ToAcc
000001ab f2fc                BTRSC    STATUS, Z
000001ac c63d                LGOTO    0x1c2; main.o:_00129_DS_=0x1c2
000001ad dee5                MOVIA    0x1a
000001ae e4fc                BSR      STATUS, BK0
000001af fbd5                SUBAR    0x2a, ToAcc
000001b0 f7fc                BTRSS    STATUS, C
000001b1 c63f                LGOTO    0x1c0; main.o:_00123_DS_=0x1c0
000001b2 deff                MOVIA    0x0
000001b3 d130                LCALL    0x6cf; _ind_light_disp=0x6cf
000001b4 ffea                IOSTR    IOSTA
000001b5 e0fc                BCR      STATUS, BK0
000001b6 ff5f                MOVAR    0x20
000001b7 e15f                BCR      0x20, 0x5
000001b8 fedf                MOVR     0x20, ToAcc
000001b9 fffa                IOST     IOSTA
000001ba e17a                BCR      PORTA, PA5
000001bb f57a                BTRSS    PORTA, PA5
000001bc e07a                BCR      PORTA, PA7
000001bd f17a                BTRSC    PORTA, PA5
000001be e47a                BSR      PORTA, PA7
000001bf c5f6                LGOTO    0x209; main.o:_00130_DS_=0x209
000001c0                     main.o:_00123_DS_:
000001c0 d2ed                LCALL    0x512; _refresh=0x512
000001c1 c5f6                LGOTO    0x209; main.o:_00130_DS_=0x209
000001c2                     main.o:_00129_DS_:
000001c2 e4fc                BSR      STATUS, BK0
000001c3 fedd                MOVR     0x22, ToAcc
000001c4 f2fc                BTRSC    STATUS, Z
000001c5 c603                LGOTO    0x1fc; main.o:_00126_DS_=0x1fc
000001c6 e0fc                BCR      STATUS, BK0
000001c7 e57a                BSR      PORTA, PA5
000001c8 f57a                BTRSS    PORTA, PA5
000001c9 e07a                BCR      PORTA, PA7
000001ca f17a                BTRSC    PORTA, PA5
000001cb e47a                BSR      PORTA, PA7
000001cc ffea                IOSTR    IOSTA
000001cd ff5f                MOVAR    0x20
000001ce e55f                BSR      0x20, 0x5
000001cf fedf                MOVR     0x20, ToAcc
000001d0 fffa                IOST     IOSTA
000001d1 dea9                MOVIA    0x56
000001d2 ff39                MOVAR    0x46
000001d3 def8                MOVIA    0x7
000001d4 ff38                MOVAR    0x47
000001d5 de7f                MOVIA    0x80
000001d6 d0c4                LCALL    0x73b; __gptrget=0x73b
000001d7 e0fc                BCR      STATUS, BK0
000001d8 ff5f                MOVAR    0x20
000001d9 d130                LCALL    0x6cf; _ind_light_disp=0x6cf
000001da e0fc                BCR      STATUS, BK0
000001db e07a                BCR      PORTA, PA7
000001dc de9b                MOVIA    0x64
000001dd d072                LCALL    0x78d; _delay_us=0x78d
000001de e0fc                BCR      STATUS, BK0
000001df e57a                BSR      PORTA, PA5
000001e0 f57a                BTRSS    PORTA, PA5
000001e1 e07a                BCR      PORTA, PA7
000001e2 f17a                BTRSC    PORTA, PA5
000001e3 e47a                BSR      PORTA, PA7
000001e4 ffea                IOSTR    IOSTA
000001e5 ff5f                MOVAR    0x20
000001e6 e55f                BSR      0x20, 0x5
000001e7 fedf                MOVR     0x20, ToAcc
000001e8 fffa                IOST     IOSTA
000001e9 dea9                MOVIA    0x56
000001ea ff39                MOVAR    0x46
000001eb def8                MOVIA    0x7
000001ec ff38                MOVAR    0x47
000001ed de7f                MOVIA    0x80
000001ee d0c4                LCALL    0x73b; __gptrget=0x73b
000001ef e0fc                BCR      STATUS, BK0
000001f0 ff5f                MOVAR    0x20
000001f1 d130                LCALL    0x6cf; _ind_light_disp=0x6cf
000001f2 ffea                IOSTR    IOSTA
000001f3 e0fc                BCR      STATUS, BK0
000001f4 ff5f                MOVAR    0x20
000001f5 e15f                BCR      0x20, 0x5
000001f6 fedf                MOVR     0x20, ToAcc
000001f7 fffa                IOST     IOSTA
000001f8 e17a                BCR      PORTA, PA5
000001f9 de9b                MOVIA    0x64
000001fa d072                LCALL    0x78d; _delay_us=0x78d
000001fb c5f6                LGOTO    0x209; main.o:_00130_DS_=0x209
000001fc                     main.o:_00126_DS_:
000001fc deff                MOVIA    0x0
000001fd d130                LCALL    0x6cf; _ind_light_disp=0x6cf
000001fe ffea                IOSTR    IOSTA
000001ff e0fc                BCR      STATUS, BK0
00000200 ff5f                MOVAR    0x20
00000201 e15f                BCR      0x20, 0x5
00000202 fedf                MOVR     0x20, ToAcc
00000203 fffa                IOST     IOSTA
00000204 e17a                BCR      PORTA, PA5
00000205 f57a                BTRSS    PORTA, PA5
00000206 e07a                BCR      PORTA, PA7
00000207 f17a                BTRSC    PORTA, PA5
00000208 e47a                BSR      PORTA, PA7
00000209                     main.o:_00130_DS_:
00000209 e0fc                BCR      STATUS, BK0
0000020a fe89                MOVR     0x76, ToAcc
0000020b f2fc                BTRSC    STATUS, Z
0000020c c657                LGOTO    0x1a8; main.o:_00159_DS_=0x1a8
0000020d fd09                CLRR     0x76
0000020e e4fc                BSR      STATUS, BK0
0000020f fecf                MOVR     0x30, ToAcc
00000210 f2fc                BTRSC    STATUS, Z
00000211 c5e9                LGOTO    0x216; main.o:_00134_DS_=0x216
00000212 f94f                DECR     0x30, ToReg
00000213 e0fc                BCR      STATUS, BK0
00000214 e77a                BSR      PORTA, PA1
00000215 c5e7                LGOTO    0x218; main.o:_00135_DS_=0x218
00000216                     main.o:_00134_DS_:
00000216 e0fc                BCR      STATUS, BK0
00000217 e37a                BCR      PORTA, PA1
00000218                     main.o:_00135_DS_:
00000218 defa                MOVIA    0x5
00000219 e4fc                BSR      STATUS, BK0
0000021a fbcd                SUBAR    0x32, ToAcc
0000021b f7fc                BTRSS    STATUS, C
0000021c d7f6                LCALL    0x9; _checkBatAD=0x9
0000021d d37a                LCALL    0x485; _checkOutA=0x485
0000021e d59b                LCALL    0x264; _chrgCtr=0x264
0000021f e4fc                BSR      STATUS, BK0
00000220 fedc                MOVR     0x23, ToAcc
00000221 f6fc                BTRSS    STATUS, Z
00000222 c5cc                LGOTO    0x233; main.o:_00141_DS_=0x233
00000223 feda                MOVR     0x25, ToAcc
00000224 f6fc                BTRSS    STATUS, Z
00000225 c5cc                LGOTO    0x233; main.o:_00141_DS_=0x233
00000226 e0fc                BCR      STATUS, BK0
00000227 fe8a                MOVR     0x75, ToAcc
00000228 f2fc                BTRSC    STATUS, Z
00000229 c5cc                LGOTO    0x233; main.o:_00141_DS_=0x233
0000022a e4fc                BSR      STATUS, BK0
0000022b fa58                INCR     0x27, ToReg
0000022c de04                MOVIA    0xfb
0000022d fbd8                SUBAR    0x27, ToAcc
0000022e f7fc                BTRSS    STATUS, C
0000022f c5ca                LGOTO    0x235; main.o:_00142_DS_=0x235
00000230 fd58                CLRR     0x27
00000231 d07d                LCALL    0x782; _powerOff=0x782
00000232 c5ca                LGOTO    0x235; main.o:_00142_DS_=0x235
00000233                     main.o:_00141_DS_:
00000233 e4fc                BSR      STATUS, BK0
00000234 fd58                CLRR     0x27
00000235                     main.o:_00142_DS_:
00000235 e0fc                BCR      STATUS, BK0
00000236 fe8a                MOVR     0x75, ToAcc
00000237 f6fc                BTRSS    STATUS, Z
00000238 c5a7                LGOTO    0x258; main.o:_00148_DS_=0x258
00000239 fe81                MOVR     0x7e, ToAcc
0000023a f6fc                BTRSS    STATUS, Z
0000023b c5a7                LGOTO    0x258; main.o:_00148_DS_=0x258
0000023c fe82                MOVR     0x7d, ToAcc
0000023d f6fc                BTRSS    STATUS, Z
0000023e c5a7                LGOTO    0x258; main.o:_00148_DS_=0x258
0000023f f0fa                BTRSC    PORTA, PA6
00000240 c5a7                LGOTO    0x258; main.o:_00148_DS_=0x258
00000241 e4fc                BSR      STATUS, BK0
00000242 fedd                MOVR     0x22, ToAcc
00000243 f6fc                BTRSS    STATUS, Z
00000244 c5a7                LGOTO    0x258; main.o:_00148_DS_=0x258
00000245 e0fc                BCR      STATUS, BK0
00000246 fe83                MOVR     0x7c, ToAcc
00000247 f6fc                BTRSS    STATUS, Z
00000248 c5a7                LGOTO    0x258; main.o:_00148_DS_=0x258
00000249 e4fc                BSR      STATUS, BK0
0000024a fedc                MOVR     0x23, ToAcc
0000024b f6fc                BTRSS    STATUS, Z
0000024c c5a7                LGOTO    0x258; main.o:_00148_DS_=0x258
0000024d e0fc                BCR      STATUS, BK0
0000024e fe98                MOVR     0x67, ToAcc
0000024f ee97                IORAR    0x68, ToAcc
00000250 f6fc                BTRSS    STATUS, Z
00000251 c5a7                LGOTO    0x258; main.o:_00148_DS_=0x258
00000252 e4fc                BSR      STATUS, BK0
00000253 fa5b                INCR     0x24, ToReg
00000254 deea                MOVIA    0x15
00000255 fbdb                SUBAR    0x24, ToAcc
00000256 f3fc                BTRSC    STATUS, C
00000257 d20e                LCALL    0x5f1; _gotoSleep=0x5f1
00000258                     main.o:_00148_DS_:
00000258 defc                MOVIA    0x3
00000259 e0fc                BCR      STATUS, BK0
0000025a fb99                SUBAR    0x66, ToAcc
0000025b f6fc                BTRSS    STATUS, Z
0000025c c5a0                LGOTO    0x25f; main.o:_00230_DS_=0x25f
0000025d de7b                MOVIA    0x84
0000025e fb9a                SUBAR    0x65, ToAcc
0000025f                     main.o:_00230_DS_:
0000025f f7fc                BTRSS    STATUS, C
00000260 c657                LGOTO    0x1a8; main.o:_00159_DS_=0x1a8
00000261 d07d                LCALL    0x782; _powerOff=0x782
00000262 c657                LGOTO    0x1a8; main.o:_00159_DS_=0x1a8
00000263 ffef                RET
00000264                     _chrgCtr:
00000264 e0fc                BCR      STATUS, BK0
00000265 f4fa                BTRSS    PORTA, PA6
00000266 c4f7                LGOTO    0x308; main.o:_00272_DS_=0x308
00000267 e4fc                BSR      STATUS, BK0
00000268 fd53                CLRR     0x2c
00000269 defe                MOVIA    0x1
0000026a ff5c                MOVAR    0x23
0000026b e0fc                BCR      STATUS, BK0
0000026c ff03                MOVAR    0x7c
0000026d fd18                CLRR     0x67
0000026e fd17                CLRR     0x68
0000026f e4fc                BSR      STATUS, BK0
00000270 fd5d                CLRR     0x22
00000271 e0fc                BCR      STATUS, BK0
00000272 fd0a                CLRR     0x75
00000273 d061                LCALL    0x79e; _pwmStop=0x79e
00000274 de9c                MOVIA    0x63
00000275 e4fc                BSR      STATUS, BK0
00000276 fbd9                SUBAR    0x26, ToAcc
00000277 f3fc                BTRSC    STATUS, C
00000278 c585                LGOTO    0x27a; main.o:_00013_DS_=0x27a
00000279 fd4e                CLRR     0x31
0000027a                     main.o:_00013_DS_:
0000027a e4fc                BSR      STATUS, BK0
0000027b fece                MOVR     0x31, ToAcc
0000027c f6fc                BTRSS    STATUS, Z
0000027d c579                LGOTO    0x286; main.o:_00264_DS_=0x286
0000027e de9c                MOVIA    0x63
0000027f fbd9                SUBAR    0x26, ToAcc
00000280 f7fc                BTRSS    STATUS, C
00000281 c571                LGOTO    0x28e; main.o:_00265_DS_=0x28e
00000282 feda                MOVR     0x25, ToAcc
00000283 db9b                XORIA    0x64
00000284 f6fc                BTRSS    STATUS, Z
00000285 c571                LGOTO    0x28e; main.o:_00265_DS_=0x28e
00000286                     main.o:_00264_DS_:
00000286 defe                MOVIA    0x1
00000287 e4fc                BSR      STATUS, BK0
00000288 ff4e                MOVAR    0x31
00000289 e0fc                BCR      STATUS, BK0
0000028a e7fa                BSR      PORTA, PA0
0000028b e37a                BCR      PORTA, PA1
0000028c d7fc                LCALL    0x3; _pwm1Stop=0x3
0000028d c4e9                LGOTO    0x316; main.o:_00274_DS_=0x316
0000028e                     main.o:_00265_DS_:
0000028e def9                MOVIA    0x6
0000028f e4fc                BSR      STATUS, BK0
00000290 fbcd                SUBAR    0x32, ToAcc
00000291 f7fc                BTRSS    STATUS, C
00000292 c4e9                LGOTO    0x316; main.o:_00274_DS_=0x316
00000293 deff                MOVIA    0x0
00000294 e0fc                BCR      STATUS, BK0
00000295 fb91                SUBAR    0x6e, ToAcc
00000296 f6fc                BTRSS    STATUS, Z
00000297 c565                LGOTO    0x29a; main.o:_00327_DS_=0x29a
00000298 debd                MOVIA    0x42
00000299 fb92                SUBAR    0x6d, ToAcc
0000029a                     main.o:_00327_DS_:
0000029a f3fc                BTRSC    STATUS, C
0000029b c554                LGOTO    0x2ab; main.o:_00242_DS_=0x2ab
0000029c e4fc                BSR      STATUS, BK0
0000029d fecc                MOVR     0x33, ToAcc
0000029e e0fc                BCR      STATUS, BK0
0000029f ff5e                MOVAR    0x21
000002a0 deff                MOVIA    0x0
000002a1 fb91                SUBAR    0x6e, ToAcc
000002a2 f6fc                BTRSS    STATUS, Z
000002a3 c559                LGOTO    0x2a6; main.o:_00328_DS_=0x2a6
000002a4 fede                MOVR     0x21, ToAcc
000002a5 fb92                SUBAR    0x6d, ToAcc
000002a6                     main.o:_00328_DS_:
000002a6 f7fc                BTRSS    STATUS, C
000002a7 c554                LGOTO    0x2ab; main.o:_00242_DS_=0x2ab
000002a8 e4fc                BSR      STATUS, BK0
000002a9 fd49                CLRR     0x36
000002aa fd4a                CLRR     0x35
000002ab                     main.o:_00242_DS_:
000002ab deff                MOVIA    0x0
000002ac e0fc                BCR      STATUS, BK0
000002ad fb91                SUBAR    0x6e, ToAcc
000002ae f6fc                BTRSS    STATUS, Z
000002af c54d                LGOTO    0x2b2; main.o:_00329_DS_=0x2b2
000002b0 debd                MOVIA    0x42
000002b1 fb92                SUBAR    0x6d, ToAcc
000002b2                     main.o:_00329_DS_:
000002b2 f7fc                BTRSS    STATUS, C
000002b3 c53a                LGOTO    0x2c5; main.o:_00252_DS_=0x2c5
000002b4 e4fc                BSR      STATUS, BK0
000002b5 fa49                INCR     0x36, ToReg
000002b6 fec9                MOVR     0x36, ToAcc
000002b7 fbc7                SUBAR    0x38, ToAcc
000002b8 f3fc                BTRSC    STATUS, C
000002b9 c53d                LGOTO    0x2c2; main.o:_00245_DS_=0x2c2
000002ba defe                MOVIA    0x1
000002bb ff48                MOVAR    0x37
000002bc f94b                DECR     0x34, ToReg
000002bd fd49                CLRR     0x36
000002be dec1                MOVIA    0x3e
000002bf ff4c                MOVAR    0x33
000002c0 de05                MOVIA    0xfa
000002c1 ff47                MOVAR    0x38
000002c2                     main.o:_00245_DS_:
000002c2 e4fc                BSR      STATUS, BK0
000002c3 fd4a                CLRR     0x35
000002c4 c520                LGOTO    0x2df; main.o:_00253_DS_=0x2df
000002c5                     main.o:_00252_DS_:
000002c5 e4fc                BSR      STATUS, BK0
000002c6 fecc                MOVR     0x33, ToAcc
000002c7 e0fc                BCR      STATUS, BK0
000002c8 ff5e                MOVAR    0x21
000002c9 deff                MOVIA    0x0
000002ca fb91                SUBAR    0x6e, ToAcc
000002cb f6fc                BTRSS    STATUS, Z
000002cc c530                LGOTO    0x2cf; main.o:_00331_DS_=0x2cf
000002cd fede                MOVR     0x21, ToAcc
000002ce fb92                SUBAR    0x6d, ToAcc
000002cf                     main.o:_00331_DS_:
000002cf f7fc                BTRSS    STATUS, C
000002d0 c52a                LGOTO    0x2d5; main.o:_00248_DS_=0x2d5
000002d1 e4fc                BSR      STATUS, BK0
000002d2 fec8                MOVR     0x37, ToAcc
000002d3 f6fc                BTRSS    STATUS, Z
000002d4 c520                LGOTO    0x2df; main.o:_00253_DS_=0x2df
000002d5                     main.o:_00248_DS_:
000002d5 e4fc                BSR      STATUS, BK0
000002d6 fa4a                INCR     0x35, ToReg
000002d7 feca                MOVR     0x35, ToAcc
000002d8 fbc7                SUBAR    0x38, ToAcc
000002d9 f3fc                BTRSC    STATUS, C
000002da c522                LGOTO    0x2dd; main.o:_00247_DS_=0x2dd
000002db fa4b                INCR     0x34, ToReg
000002dc fd4a                CLRR     0x35
000002dd                     main.o:_00247_DS_:
000002dd e4fc                BSR      STATUS, BK0
000002de fd49                CLRR     0x36
000002df                     main.o:_00253_DS_:
000002df def5                MOVIA    0xa
000002e0 e4fc                BSR      STATUS, BK0
000002e1 fbcb                SUBAR    0x34, ToAcc
000002e2 f3fc                BTRSC    STATUS, C
000002e3 c519                LGOTO    0x2e6; main.o:_00255_DS_=0x2e6
000002e4 def5                MOVIA    0xa
000002e5 ff4b                MOVAR    0x34
000002e6                     main.o:_00255_DS_:
000002e6 dedb                MOVIA    0x24
000002e7 e4fc                BSR      STATUS, BK0
000002e8 fbcb                SUBAR    0x34, ToAcc
000002e9 f7fc                BTRSS    STATUS, C
000002ea c512                LGOTO    0x2ed; main.o:_00257_DS_=0x2ed
000002eb dedc                MOVIA    0x23
000002ec ff4b                MOVAR    0x34
000002ed                     main.o:_00257_DS_:
000002ed dee6                MOVIA    0x19
000002ee e4fc                BSR      STATUS, BK0
000002ef fbd9                SUBAR    0x26, ToAcc
000002f0 f3fc                BTRSC    STATUS, C
000002f1 c4fc                LGOTO    0x303; main.o:_00261_DS_=0x303
000002f2 e0fc                BCR      STATUS, BK0
000002f3 fa0c                INCR     0x73, ToReg
000002f4 f2fc                BTRSC    STATUS, Z
000002f5 fa0b                INCR     0x74, ToReg
000002f6 def8                MOVIA    0x7
000002f7 fb8b                SUBAR    0x74, ToAcc
000002f8 f6fc                BTRSS    STATUS, Z
000002f9 c503                LGOTO    0x2fc; main.o:_00336_DS_=0x2fc
000002fa de2e                MOVIA    0xd1
000002fb fb8c                SUBAR    0x73, ToAcc
000002fc                     main.o:_00336_DS_:
000002fc f7fc                BTRSS    STATUS, C
000002fd c4fc                LGOTO    0x303; main.o:_00261_DS_=0x303
000002fe e0fc                BCR      STATUS, BK0
000002ff fd0c                CLRR     0x73
00000300 fd0b                CLRR     0x74
00000301 e4fc                BSR      STATUS, BK0
00000302 fa4b                INCR     0x34, ToReg
00000303                     main.o:_00261_DS_:
00000303 e4fc                BSR      STATUS, BK0
00000304 fecb                MOVR     0x34, ToAcc
00000305 ffbc                SFUN     PWM1DUTY
00000306 d0a4                LCALL    0x75b; _pwm1Init=0x75b
00000307 c4e9                LGOTO    0x316; main.o:_00274_DS_=0x316
00000308                     main.o:_00272_DS_:
00000308 e4fc                BSR      STATUS, BK0
00000309 fd48                CLRR     0x37
0000030a deeb                MOVIA    0x14
0000030b ff47                MOVAR    0x38
0000030c dec1                MOVIA    0x3e
0000030d ff4c                MOVAR    0x33
0000030e fd4b                CLRR     0x34
0000030f d7fc                LCALL    0x3; _pwm1Stop=0x3
00000310 e4fc                BSR      STATUS, BK0
00000311 fd5c                CLRR     0x23
00000312 fed3                MOVR     0x2c, ToAcc
00000313 f2fc                BTRSC    STATUS, Z
00000314 d41a                LCALL    0x3e5; _keyCtr=0x3e5
00000315 d47d                LCALL    0x382; _workCtr=0x382
00000316                     main.o:_00274_DS_:
00000316 ffef                RET
00000317                     _checkKeyAD:
00000317 e4fc                BSR      STATUS, BK0
00000318 fd5e                CLRR     0x21
00000319 e0fc                BCR      STATUS, BK0
0000031a fd14                CLRR     0x6b
0000031b fd13                CLRR     0x6c
0000031c def7                MOVIA    0x8
0000031d d196                LCALL    0x669; _F_AIN6_Convert=0x669
0000031e e0fc                BCR      STATUS, BK0
0000031f ea93                SWAPR    0x6c, ToAcc
00000320 dd0f                ANDIA    0xf0
00000321 ff13                MOVAR    0x6c
00000322 ea94                SWAPR    0x6b, ToAcc
00000323 ff14                MOVAR    0x6b
00000324 ddf0                ANDIA    0xf
00000325 ee13                IORAR    0x6c, ToReg
00000326 ed14                XORAR    0x6b, ToReg
00000327 de0f                MOVIA    0xf0
00000328 e4fc                BSR      STATUS, BK0
00000329 ef5e                ANDAR    0x21, ToReg
0000032a fede                MOVR     0x21, ToAcc
0000032b e0fc                BCR      STATUS, BK0
0000032c ff53                MOVAR    0x2c
0000032d deff                MOVIA    0x0
0000032e ff52                MOVAR    0x2d
0000032f fed3                MOVR     0x2c, ToAcc
00000330 fc14                ADDAR    0x6b, ToReg
00000331 fed2                MOVR     0x2d, ToAcc
00000332 f3fc                BTRSC    STATUS, C
00000333 fad2                INCR     0x2d, ToAcc
00000334 f2fc                BTRSC    STATUS, Z
00000335 c4c8                LGOTO    0x337; main.o:_00011_DS_=0x337
00000336 fc13                ADDAR    0x6c, ToReg
00000337                     main.o:_00011_DS_:
00000337 e3fc                BCR      STATUS, C
00000338 e0fc                BCR      STATUS, BK0
00000339 ec13                RRR      0x6c, ToReg
0000033a ec14                RRR      0x6b, ToReg
0000033b e3fc                BCR      STATUS, C
0000033c ec13                RRR      0x6c, ToReg
0000033d ec14                RRR      0x6b, ToReg
0000033e e3fc                BCR      STATUS, C
0000033f ec13                RRR      0x6c, ToReg
00000340 ec14                RRR      0x6b, ToReg
00000341 defe                MOVIA    0x1
00000342 fb93                SUBAR    0x6c, ToAcc
00000343 f6fc                BTRSS    STATUS, Z
00000344 c4b8                LGOTO    0x347; main.o:_00499_DS_=0x347
00000345 de6e                MOVIA    0x91
00000346 fb94                SUBAR    0x6b, ToAcc
00000347                     main.o:_00499_DS_:
00000347 f7fc                BTRSS    STATUS, C
00000348 c4a9                LGOTO    0x356; main.o:_00476_DS_=0x356
00000349 defa                MOVIA    0x5
0000034a e0fc                BCR      STATUS, BK0
0000034b fb93                SUBAR    0x6c, ToAcc
0000034c f6fc                BTRSS    STATUS, Z
0000034d c4af                LGOTO    0x350; main.o:_00500_DS_=0x350
0000034e deeb                MOVIA    0x14
0000034f fb94                SUBAR    0x6b, ToAcc
00000350                     main.o:_00500_DS_:
00000350 f3fc                BTRSC    STATUS, C
00000351 c4a9                LGOTO    0x356; main.o:_00476_DS_=0x356
00000352 defc                MOVIA    0x3
00000353 e4fc                BSR      STATUS, BK0
00000354 ff51                MOVAR    0x2e
00000355 c47e                LGOTO    0x381; main.o:_00479_DS_=0x381
00000356                     main.o:_00476_DS_:
00000356 defa                MOVIA    0x5
00000357 e0fc                BCR      STATUS, BK0
00000358 fb93                SUBAR    0x6c, ToAcc
00000359 f6fc                BTRSS    STATUS, Z
0000035a c4a2                LGOTO    0x35d; main.o:_00501_DS_=0x35d
0000035b de86                MOVIA    0x79
0000035c fb94                SUBAR    0x6b, ToAcc
0000035d                     main.o:_00501_DS_:
0000035d f7fc                BTRSS    STATUS, C
0000035e c493                LGOTO    0x36c; main.o:_00472_DS_=0x36c
0000035f def7                MOVIA    0x8
00000360 e0fc                BCR      STATUS, BK0
00000361 fb93                SUBAR    0x6c, ToAcc
00000362 f6fc                BTRSS    STATUS, Z
00000363 c499                LGOTO    0x366; main.o:_00502_DS_=0x366
00000364 de67                MOVIA    0x98
00000365 fb94                SUBAR    0x6b, ToAcc
00000366                     main.o:_00502_DS_:
00000366 f3fc                BTRSC    STATUS, C
00000367 c493                LGOTO    0x36c; main.o:_00472_DS_=0x36c
00000368 defd                MOVIA    0x2
00000369 e4fc                BSR      STATUS, BK0
0000036a ff51                MOVAR    0x2e
0000036b c47e                LGOTO    0x381; main.o:_00479_DS_=0x381
0000036c                     main.o:_00472_DS_:
0000036c def7                MOVIA    0x8
0000036d e0fc                BCR      STATUS, BK0
0000036e fb93                SUBAR    0x6c, ToAcc
0000036f f6fc                BTRSS    STATUS, Z
00000370 c48c                LGOTO    0x373; main.o:_00503_DS_=0x373
00000371 de02                MOVIA    0xfd
00000372 fb94                SUBAR    0x6b, ToAcc
00000373                     main.o:_00503_DS_:
00000373 f7fc                BTRSS    STATUS, C
00000374 c47e                LGOTO    0x381; main.o:_00479_DS_=0x381
00000375 def3                MOVIA    0xc
00000376 e0fc                BCR      STATUS, BK0
00000377 fb93                SUBAR    0x6c, ToAcc
00000378 f6fc                BTRSS    STATUS, Z
00000379 c483                LGOTO    0x37c; main.o:_00504_DS_=0x37c
0000037a de7f                MOVIA    0x80
0000037b fb94                SUBAR    0x6b, ToAcc
0000037c                     main.o:_00504_DS_:
0000037c f3fc                BTRSC    STATUS, C
0000037d c47e                LGOTO    0x381; main.o:_00479_DS_=0x381
0000037e defe                MOVIA    0x1
0000037f e4fc                BSR      STATUS, BK0
00000380 ff51                MOVAR    0x2e
00000381                     main.o:_00479_DS_:
00000381 ffef                RET
00000382                     _workCtr:
00000382 e0fc                BCR      STATUS, BK0
00000383 fe98                MOVR     0x67, ToAcc
00000384 ee97                IORAR    0x68, ToAcc
00000385 f2fc                BTRSC    STATUS, Z
00000386 c46f                LGOTO    0x390; main.o:_00012_DS_=0x390
00000387 de00                MOVIA    0xff
00000388 fc18                ADDAR    0x67, ToReg
00000389 f7fc                BTRSS    STATUS, C
0000038a f917                DECR     0x68, ToReg
0000038b fe98                MOVR     0x67, ToAcc
0000038c ee97                IORAR    0x68, ToAcc
0000038d f6fc                BTRSS    STATUS, Z
0000038e c46f                LGOTO    0x390; main.o:_00012_DS_=0x390
0000038f fd03                CLRR     0x7c
00000390                     main.o:_00012_DS_:
00000390 e4fc                BSR      STATUS, BK0
00000391 fedd                MOVR     0x22, ToAcc
00000392 f2fc                BTRSC    STATUS, Z
00000393 c464                LGOTO    0x39b; main.o:_00364_DS_=0x39b
00000394 f95d                DECR     0x22, ToReg
00000395 de0b                MOVIA    0xf4
00000396 e0fc                BCR      STATUS, BK0
00000397 ff18                MOVAR    0x67
00000398 defe                MOVIA    0x1
00000399 ff17                MOVAR    0x68
0000039a c41b                LGOTO    0x3e4; main.o:_00366_DS_=0x3e4
0000039b                     main.o:_00364_DS_:
0000039b e4fc                BSR      STATUS, BK0
0000039c fed0                MOVR     0x2f, ToAcc
0000039d f2fc                BTRSC    STATUS, Z
0000039e c42b                LGOTO    0x3d4; main.o:_00361_DS_=0x3d4
0000039f defe                MOVIA    0x1
000003a0 e0fc                BCR      STATUS, BK0
000003a1 ff03                MOVAR    0x7c
000003a2 fe8a                MOVR     0x75, ToAcc
000003a3 f2fc                BTRSC    STATUS, Z
000003a4 c450                LGOTO    0x3af; main.o:_00346_DS_=0x3af
000003a5 defc                MOVIA    0x3
000003a6 ff38                MOVAR    0x47
000003a7 fe8a                MOVR     0x75, ToAcc
000003a8 d0dd                LCALL    0x722; __mulchar=0x722
000003a9 e0fc                BCR      STATUS, BK0
000003aa ff5d                MOVAR    0x22
000003ab dec0                MOVIA    0x3f
000003ac fc5d                ADDAR    0x22, ToReg
000003ad fedd                MOVR     0x22, ToAcc
000003ae ffb3                SFUN     PWM2DUTY
000003af                     main.o:_00346_DS_:
000003af e4fc                BSR      STATUS, BK0
000003b0 fed0                MOVR     0x2f, ToAcc
000003b1 dbfe                XORIA    0x1
000003b2 f6fc                BTRSS    STATUS, Z
000003b3 c449                LGOTO    0x3b6; main.o:_00351_DS_=0x3b6
000003b4 d097                LCALL    0x768; _pwmInit=0x768
000003b5 c441                LGOTO    0x3be; main.o:_00352_DS_=0x3be
000003b6                     main.o:_00351_DS_:
000003b6 e4fc                BSR      STATUS, BK0
000003b7 fec6                MOVR     0x39, ToAcc
000003b8 fbc5                SUBAR    0x3a, ToAcc
000003b9 f3fc                BTRSC    STATUS, C
000003ba c442                LGOTO    0x3bd; main.o:_00348_DS_=0x3bd
000003bb d097                LCALL    0x768; _pwmInit=0x768
000003bc c441                LGOTO    0x3be; main.o:_00352_DS_=0x3be
000003bd                     main.o:_00348_DS_:
000003bd d061                LCALL    0x79e; _pwmStop=0x79e
000003be                     main.o:_00352_DS_:
000003be def5                MOVIA    0xa
000003bf ff38                MOVAR    0x47
000003c0 e4fc                BSR      STATUS, BK0
000003c1 fed0                MOVR     0x2f, ToAcc
000003c2 d0dd                LCALL    0x722; __mulchar=0x722
000003c3 d8a5                SUBIA    0x5a
000003c4 e4fc                BSR      STATUS, BK0
000003c5 ff46                MOVAR    0x39
000003c6 e3fc                BCR      STATUS, C
000003c7 ebc6                RLR      0x39, ToAcc
000003c8 e0fc                BCR      STATUS, BK0
000003c9 ff5d                MOVAR    0x22
000003ca e4fc                BSR      STATUS, BK0
000003cb fa45                INCR     0x3a, ToReg
000003cc e0fc                BCR      STATUS, BK0
000003cd fedd                MOVR     0x22, ToAcc
000003ce e4fc                BSR      STATUS, BK0
000003cf fbc5                SUBAR    0x3a, ToAcc
000003d0 f7fc                BTRSS    STATUS, C
000003d1 c41b                LGOTO    0x3e4; main.o:_00366_DS_=0x3e4
000003d2 fd45                CLRR     0x3a
000003d3 c41b                LGOTO    0x3e4; main.o:_00366_DS_=0x3e4
000003d4                     main.o:_00361_DS_:
000003d4 e0fc                BCR      STATUS, BK0
000003d5 fd03                CLRR     0x7c
000003d6 d061                LCALL    0x79e; _pwmStop=0x79e
000003d7 e4fc                BSR      STATUS, BK0
000003d8 fed6                MOVR     0x29, ToAcc
000003d9 f6fc                BTRSS    STATUS, Z
000003da c421                LGOTO    0x3de; main.o:_00357_DS_=0x3de
000003db fed3                MOVR     0x2c, ToAcc
000003dc f2fc                BTRSC    STATUS, Z
000003dd c41b                LGOTO    0x3e4; main.o:_00366_DS_=0x3e4
000003de                     main.o:_00357_DS_:
000003de e4fc                BSR      STATUS, BK0
000003df fa55                INCR     0x2a, ToReg
000003e0 decc                MOVIA    0x33
000003e1 fbd5                SUBAR    0x2a, ToAcc
000003e2 f3fc                BTRSC    STATUS, C
000003e3 fd55                CLRR     0x2a
000003e4                     main.o:_00366_DS_:
000003e4 ffef                RET
000003e5                     _keyCtr:
000003e5 f8f9                COMR     PORTB, ToAcc
000003e6 e0fc                BCR      STATUS, BK0
000003e7 ff5c                MOVAR    0x23
000003e8 defd                MOVIA    0x2
000003e9 ef5c                ANDAR    0x23, ToReg
000003ea fedc                MOVR     0x23, ToAcc
000003eb d275                LCALL    0x58a; _keyRead=0x58a
000003ec e0fc                BCR      STATUS, BK0
000003ed ff5c                MOVAR    0x23
000003ee e4fc                BSR      STATUS, BK0
000003ef fed1                MOVR     0x2e, ToAcc
000003f0 dbfe                XORIA    0x1
000003f1 f6fc                BTRSS    STATUS, Z
000003f2 c3f5                LGOTO    0x40a; main.o:_00394_DS_=0x40a
000003f3 e0fc                BCR      STATUS, BK0
000003f4 fedc                MOVR     0x23, ToAcc
000003f5 dbfd                XORIA    0x2
000003f6 f6fc                BTRSS    STATUS, Z
000003f7 c3c5                LGOTO    0x43a; main.o:_00396_DS_=0x43a
000003f8 dee1                MOVIA    0x1e
000003f9 e4fc                BSR      STATUS, BK0
000003fa ff4f                MOVAR    0x30
000003fb fed0                MOVR     0x2f, ToAcc
000003fc f2fc                BTRSC    STATUS, Z
000003fd c3fc                LGOTO    0x403; main.o:_00372_DS_=0x403
000003fe fd50                CLRR     0x2f
000003ff e0fc                BCR      STATUS, BK0
00000400 fd0a                CLRR     0x75
00000401 d07d                LCALL    0x782; _powerOff=0x782
00000402 c3c5                LGOTO    0x43a; main.o:_00396_DS_=0x43a
00000403                     main.o:_00372_DS_:
00000403 defe                MOVIA    0x1
00000404 e4fc                BSR      STATUS, BK0
00000405 ff50                MOVAR    0x2f
00000406 e0fc                BCR      STATUS, BK0
00000407 ff0a                MOVAR    0x75
00000408 d23f                LCALL    0x5c0; _setShowNum=0x5c0
00000409 c3c5                LGOTO    0x43a; main.o:_00396_DS_=0x43a
0000040a                     main.o:_00394_DS_:
0000040a e4fc                BSR      STATUS, BK0
0000040b fed1                MOVR     0x2e, ToAcc
0000040c dbfd                XORIA    0x2
0000040d f6fc                BTRSS    STATUS, Z
0000040e c3dd                LGOTO    0x422; main.o:_00391_DS_=0x422
0000040f e0fc                BCR      STATUS, BK0
00000410 fedc                MOVR     0x23, ToAcc
00000411 dbfe                XORIA    0x1
00000412 f6fc                BTRSS    STATUS, Z
00000413 c3c5                LGOTO    0x43a; main.o:_00396_DS_=0x43a
00000414 e4fc                BSR      STATUS, BK0
00000415 fed0                MOVR     0x2f, ToAcc
00000416 f2fc                BTRSC    STATUS, Z
00000417 c3c5                LGOTO    0x43a; main.o:_00396_DS_=0x43a
00000418 deeb                MOVIA    0x14
00000419 ff4f                MOVAR    0x30
0000041a fa50                INCR     0x2f, ToReg
0000041b def8                MOVIA    0x7
0000041c fbd0                SUBAR    0x2f, ToAcc
0000041d f7fc                BTRSS    STATUS, C
0000041e c3c5                LGOTO    0x43a; main.o:_00396_DS_=0x43a
0000041f defe                MOVIA    0x1
00000420 ff50                MOVAR    0x2f
00000421 c3c5                LGOTO    0x43a; main.o:_00396_DS_=0x43a
00000422                     main.o:_00391_DS_:
00000422 e4fc                BSR      STATUS, BK0
00000423 fed1                MOVR     0x2e, ToAcc
00000424 dbfc                XORIA    0x3
00000425 f6fc                BTRSS    STATUS, Z
00000426 c3c5                LGOTO    0x43a; main.o:_00396_DS_=0x43a
00000427 e0fc                BCR      STATUS, BK0
00000428 fedc                MOVR     0x23, ToAcc
00000429 dbfe                XORIA    0x1
0000042a f6fc                BTRSS    STATUS, Z
0000042b c3c5                LGOTO    0x43a; main.o:_00396_DS_=0x43a
0000042c fe8a                MOVR     0x75, ToAcc
0000042d f2fc                BTRSC    STATUS, Z
0000042e c3c5                LGOTO    0x43a; main.o:_00396_DS_=0x43a
0000042f deeb                MOVIA    0x14
00000430 e4fc                BSR      STATUS, BK0
00000431 ff4f                MOVAR    0x30
00000432 e0fc                BCR      STATUS, BK0
00000433 fa0a                INCR     0x75, ToReg
00000434 def2                MOVIA    0xd
00000435 fb8a                SUBAR    0x75, ToAcc
00000436 f7fc                BTRSS    STATUS, C
00000437 c3c5                LGOTO    0x43a; main.o:_00396_DS_=0x43a
00000438 defe                MOVIA    0x1
00000439 ff0a                MOVAR    0x75
0000043a                     main.o:_00396_DS_:
0000043a ffef                RET
0000043b                     __divuint:
0000043b e0fc                BCR      STATUS, BK0
0000043c ff27                MOVAR    0x58
0000043d feb8                MOVR     0x47, ToAcc
0000043e ff28                MOVAR    0x57
0000043f feb9                MOVR     0x46, ToAcc
00000440 ff25                MOVAR    0x5a
00000441 feba                MOVR     0x45, ToAcc
00000442 ff26                MOVAR    0x59
00000443 fd24                CLRR     0x5b
00000444 fd23                CLRR     0x5c
00000445 defe                MOVIA    0x1
00000446 ff22                MOVAR    0x5d
00000447 fd21                CLRR     0x5e
00000448 fea6                MOVR     0x59, ToAcc
00000449 eea5                IORAR    0x5a, ToAcc
0000044a f6fc                BTRSS    STATUS, Z
0000044b c3b0                LGOTO    0x44f; _divuint.o:_00107_DS_=0x44f
0000044c de00                MOVIA    0xff
0000044d ff38                MOVAR    0x47
0000044e c37b                LGOTO    0x484; _divuint.o:_00115_DS_=0x484
0000044f                     _divuint.o:_00107_DS_:
0000044f e0fc                BCR      STATUS, BK0
00000450 f025                BTRSC    0x5a, 0x7
00000451 c3a6                LGOTO    0x459; _divuint.o:_00112_DS_=0x459
00000452 e3fc                BCR      STATUS, C
00000453 eb26                RLR      0x59, ToReg
00000454 eb25                RLR      0x5a, ToReg
00000455 e3fc                BCR      STATUS, C
00000456 eb22                RLR      0x5d, ToReg
00000457 eb21                RLR      0x5e, ToReg
00000458 c3b0                LGOTO    0x44f; _divuint.o:_00107_DS_=0x44f
00000459                     _divuint.o:_00112_DS_:
00000459 e0fc                BCR      STATUS, BK0
0000045a fea2                MOVR     0x5d, ToAcc
0000045b eea1                IORAR    0x5e, ToAcc
0000045c f2fc                BTRSC    STATUS, Z
0000045d c37f                LGOTO    0x480; _divuint.o:_00114_DS_=0x480
0000045e fea5                MOVR     0x5a, ToAcc
0000045f fba7                SUBAR    0x58, ToAcc
00000460 f6fc                BTRSS    STATUS, Z
00000461 c39b                LGOTO    0x464; _divuint.o:_00135_DS_=0x464
00000462 fea6                MOVR     0x59, ToAcc
00000463 fba8                SUBAR    0x57, ToAcc
00000464                     _divuint.o:_00135_DS_:
00000464 f7fc                BTRSS    STATUS, C
00000465 c387                LGOTO    0x478; _divuint.o:_00002_DS_=0x478
00000466 e0fc                BCR      STATUS, BK0
00000467 fea2                MOVR     0x5d, ToAcc
00000468 fc24                ADDAR    0x5b, ToReg
00000469 fea1                MOVR     0x5e, ToAcc
0000046a f3fc                BTRSC    STATUS, C
0000046b faa1                INCR     0x5e, ToAcc
0000046c f2fc                BTRSC    STATUS, Z
0000046d c390                LGOTO    0x46f; _divuint.o:_00001_DS_=0x46f
0000046e fc23                ADDAR    0x5c, ToReg
0000046f                     _divuint.o:_00001_DS_:
0000046f e0fc                BCR      STATUS, BK0
00000470 fea6                MOVR     0x59, ToAcc
00000471 fb28                SUBAR    0x57, ToReg
00000472 fea5                MOVR     0x5a, ToAcc
00000473 f7fc                BTRSS    STATUS, C
00000474 faa5                INCR     0x5a, ToAcc
00000475 f2fc                BTRSC    STATUS, Z
00000476 c387                LGOTO    0x478; _divuint.o:_00002_DS_=0x478
00000477 fb27                SUBAR    0x58, ToReg
00000478                     _divuint.o:_00002_DS_:
00000478 e3fc                BCR      STATUS, C
00000479 e0fc                BCR      STATUS, BK0
0000047a ec25                RRR      0x5a, ToReg
0000047b ec26                RRR      0x59, ToReg
0000047c e3fc                BCR      STATUS, C
0000047d ec21                RRR      0x5e, ToReg
0000047e ec22                RRR      0x5d, ToReg
0000047f c3a6                LGOTO    0x459; _divuint.o:_00112_DS_=0x459
00000480                     _divuint.o:_00114_DS_:
00000480 e0fc                BCR      STATUS, BK0
00000481 fea4                MOVR     0x5b, ToAcc
00000482 ff38                MOVAR    0x47
00000483 fea3                MOVR     0x5c, ToAcc
00000484                     _divuint.o:_00115_DS_:
00000484 ffef                RET
00000485                     _checkOutA:
00000485 e4fc                BSR      STATUS, BK0
00000486 fd5f                CLRR     0x20
00000487 e0fc                BCR      STATUS, BK0
00000488 fd12                CLRR     0x6d
00000489 fd11                CLRR     0x6e
0000048a def7                MOVIA    0x8
0000048b d174                LCALL    0x68b; _F_AIN2_Convert=0x68b
0000048c e0fc                BCR      STATUS, BK0
0000048d ea91                SWAPR    0x6e, ToAcc
0000048e dd0f                ANDIA    0xf0
0000048f ff11                MOVAR    0x6e
00000490 ea92                SWAPR    0x6d, ToAcc
00000491 ff12                MOVAR    0x6d
00000492 ddf0                ANDIA    0xf
00000493 ee11                IORAR    0x6e, ToReg
00000494 ed12                XORAR    0x6d, ToReg
00000495 de0f                MOVIA    0xf0
00000496 e4fc                BSR      STATUS, BK0
00000497 ef5f                ANDAR    0x20, ToReg
00000498 fedf                MOVR     0x20, ToAcc
00000499 e0fc                BCR      STATUS, BK0
0000049a ff51                MOVAR    0x2e
0000049b deff                MOVIA    0x0
0000049c ff50                MOVAR    0x2f
0000049d fed1                MOVR     0x2e, ToAcc
0000049e fc12                ADDAR    0x6d, ToReg
0000049f fed0                MOVR     0x2f, ToAcc
000004a0 f3fc                BTRSC    STATUS, C
000004a1 fad0                INCR     0x2f, ToAcc
000004a2 f2fc                BTRSC    STATUS, Z
000004a3 c35a                LGOTO    0x4a5; main.o:_00010_DS_=0x4a5
000004a4 fc11                ADDAR    0x6e, ToReg
000004a5                     main.o:_00010_DS_:
000004a5 e3fc                BCR      STATUS, C
000004a6 e0fc                BCR      STATUS, BK0
000004a7 ec11                RRR      0x6e, ToReg
000004a8 ec12                RRR      0x6d, ToReg
000004a9 e3fc                BCR      STATUS, C
000004aa ec11                RRR      0x6e, ToReg
000004ab ec12                RRR      0x6d, ToReg
000004ac e3fc                BCR      STATUS, C
000004ad ec11                RRR      0x6e, ToReg
000004ae ec12                RRR      0x6d, ToReg
000004af deff                MOVIA    0x0
000004b0 fb91                SUBAR    0x6e, ToAcc
000004b1 f6fc                BTRSS    STATUS, Z
000004b2 c34a                LGOTO    0x4b5; main.o:_00527_DS_=0x4b5
000004b3 de36                MOVIA    0xc9
000004b4 fb92                SUBAR    0x6d, ToAcc
000004b5                     main.o:_00527_DS_:
000004b5 f7fc                BTRSS    STATUS, C
000004b6 c337                LGOTO    0x4c8; main.o:_00514_DS_=0x4c8
000004b7 e4fc                BSR      STATUS, BK0
000004b8 fa57                INCR     0x28, ToReg
000004b9 de04                MOVIA    0xfb
000004ba fbd7                SUBAR    0x28, ToAcc
000004bb f7fc                BTRSS    STATUS, C
000004bc c333                LGOTO    0x4cc; main.o:_00516_DS_=0x4cc
000004bd de05                MOVIA    0xfa
000004be ff57                MOVAR    0x28
000004bf d07d                LCALL    0x782; _powerOff=0x782
000004c0 de0b                MOVIA    0xf4
000004c1 e0fc                BCR      STATUS, BK0
000004c2 ff18                MOVAR    0x67
000004c3 defe                MOVIA    0x1
000004c4 ff17                MOVAR    0x68
000004c5 e4fc                BSR      STATUS, BK0
000004c6 ff56                MOVAR    0x29
000004c7 c333                LGOTO    0x4cc; main.o:_00516_DS_=0x4cc
000004c8                     main.o:_00514_DS_:
000004c8 e4fc                BSR      STATUS, BK0
000004c9 fed7                MOVR     0x28, ToAcc
000004ca f6fc                BTRSS    STATUS, Z
000004cb f957                DECR     0x28, ToReg
000004cc                     main.o:_00516_DS_:
000004cc ffef                RET
000004cd                     _isr:
000004cd ff3d                MOVAR    0x42
000004ce eafc                SWAPR    STATUS, ToAcc
000004cf fd7c                CLRR     STATUS
000004d0 ff3e                MOVAR    0x41
000004d1 fef5                MOVR     PCHBUF, ToAcc
000004d2 fd75                CLRR     PCHBUF
000004d3 ff3f                MOVAR    0x40
000004d4 fefb                MOVR     FSR, ToAcc
000004d5 e0fc                BCR      STATUS, BK0
000004d6 ff1d                MOVAR    0x62
000004d7 feb8                MOVR     0x47, ToAcc
000004d8 ff1c                MOVAR    0x63
000004d9 feb9                MOVR     0x46, ToAcc
000004da ff1b                MOVAR    0x64
000004db f7f0                BTRSS    INTF, T0IF
000004dc c301                LGOTO    0x4fe; main.o:_00115_DS_=0x4fe
000004dd dec8                MOVIA    0x37
000004de fc7e                ADDAR    TMR0, ToReg
000004df fa08                INCR     0x77, ToReg
000004e0 de82                MOVIA    0x7d
000004e1 fb88                SUBAR    0x77, ToAcc
000004e2 f7fc                BTRSS    STATUS, C
000004e3 c301                LGOTO    0x4fe; main.o:_00115_DS_=0x4fe
000004e4 defe                MOVIA    0x1
000004e5 ff09                MOVAR    0x76
000004e6 fd08                CLRR     0x77
000004e7 e4fc                BSR      STATUS, BK0
000004e8 fa4d                INCR     0x32, ToReg
000004e9 deea                MOVIA    0x15
000004ea fbcd                SUBAR    0x32, ToAcc
000004eb f3fc                BTRSC    STATUS, C
000004ec fd4d                CLRR     0x32
000004ed e0fc                BCR      STATUS, BK0
000004ee fa07                INCR     0x78, ToReg
000004ef de9b                MOVIA    0x64
000004f0 fb87                SUBAR    0x78, ToAcc
000004f1 f7fc                BTRSS    STATUS, C
000004f2 c301                LGOTO    0x4fe; main.o:_00115_DS_=0x4fe
000004f3 fd07                CLRR     0x78
000004f4 fe8a                MOVR     0x75, ToAcc
000004f5 f2fc                BTRSC    STATUS, Z
000004f6 c304                LGOTO    0x4fb; main.o:_00108_DS_=0x4fb
000004f7 fa1a                INCR     0x65, ToReg
000004f8 f2fc                BTRSC    STATUS, Z
000004f9 fa19                INCR     0x66, ToReg
000004fa c301                LGOTO    0x4fe; main.o:_00115_DS_=0x4fe
000004fb                     main.o:_00108_DS_:
000004fb e0fc                BCR      STATUS, BK0
000004fc fd1a                CLRR     0x65
000004fd fd19                CLRR     0x66
000004fe                     main.o:_00115_DS_:
000004fe f770                BTRSS    INTF, PABIF
000004ff c2fd                LGOTO    0x502; main.o:_00117_DS_=0x502
00000500 de02                MOVIA    0xfd
00000501 ff70                MOVAR    INTF
00000502                     main.o:_00117_DS_:
00000502 fd70                CLRR     INTF
00000503 e0fc                BCR      STATUS, BK0
00000504 fe9b                MOVR     0x64, ToAcc
00000505 ff39                MOVAR    0x46
00000506 fe9c                MOVR     0x63, ToAcc
00000507 ff38                MOVAR    0x47
00000508 fe9d                MOVR     0x62, ToAcc
00000509 ff7b                MOVAR    FSR
0000050a febf                MOVR     0x40, ToAcc
0000050b ff75                MOVAR    PCHBUF
0000050c fd7c                CLRR     STATUS
0000050d eabe                SWAPR    0x41, ToAcc
0000050e ff7c                MOVAR    STATUS
0000050f ea3d                SWAPR    0x42, ToReg
00000510 eabd                SWAPR    0x42, ToAcc
00000511                     main.o:END_OF_INTERRUPT:
00000511 ffee                RETIE
00000512                     _refresh:
00000512 e0fc                BCR      STATUS, BK0
00000513 e47a                BSR      PORTA, PA7
00000514 e57a                BSR      PORTA, PA5
00000515 ffea                IOSTR    IOSTA
00000516 ff56                MOVAR    0x29
00000517 e556                BSR      0x29, 0x5
00000518 fed6                MOVR     0x29, ToAcc
00000519 fffa                IOST     IOSTA
0000051a fe85                MOVR     0x7a, ToAcc
0000051b dab1                ADDIA    0x4e
0000051c ff56                MOVAR    0x29
0000051d def8                MOVIA    0x7
0000051e f3fc                BTRSC    STATUS, C
0000051f dafe                ADDIA    0x1
00000520 ff55                MOVAR    0x2a
00000521 fed6                MOVR     0x29, ToAcc
00000522 ff39                MOVAR    0x46
00000523 fed5                MOVR     0x2a, ToAcc
00000524 ff38                MOVAR    0x47
00000525 de7f                MOVIA    0x80
00000526 d0c4                LCALL    0x73b; __gptrget=0x73b
00000527 d130                LCALL    0x6cf; _ind_light_disp=0x6cf
00000528 e0fc                BCR      STATUS, BK0
00000529 e07a                BCR      PORTA, PA7
0000052a e57a                BSR      PORTA, PA5
0000052b de9b                MOVIA    0x64
0000052c d072                LCALL    0x78d; _delay_us=0x78d
0000052d e0fc                BCR      STATUS, BK0
0000052e e47a                BSR      PORTA, PA7
0000052f e57a                BSR      PORTA, PA5
00000530 fe84                MOVR     0x7b, ToAcc
00000531 dab1                ADDIA    0x4e
00000532 ff56                MOVAR    0x29
00000533 def8                MOVIA    0x7
00000534 f3fc                BTRSC    STATUS, C
00000535 dafe                ADDIA    0x1
00000536 ff55                MOVAR    0x2a
00000537 fed6                MOVR     0x29, ToAcc
00000538 ff39                MOVAR    0x46
00000539 fed5                MOVR     0x2a, ToAcc
0000053a ff38                MOVAR    0x47
0000053b de7f                MOVIA    0x80
0000053c d0c4                LCALL    0x73b; __gptrget=0x73b
0000053d d130                LCALL    0x6cf; _ind_light_disp=0x6cf
0000053e ffea                IOSTR    IOSTA
0000053f e0fc                BCR      STATUS, BK0
00000540 ff56                MOVAR    0x29
00000541 e156                BCR      0x29, 0x5
00000542 fed6                MOVR     0x29, ToAcc
00000543 fffa                IOST     IOSTA
00000544 e47a                BSR      PORTA, PA7
00000545 e17a                BCR      PORTA, PA5
00000546 de9b                MOVIA    0x64
00000547 d072                LCALL    0x78d; _delay_us=0x78d
00000548 e0fc                BCR      STATUS, BK0
00000549 e47a                BSR      PORTA, PA7
0000054a e57a                BSR      PORTA, PA5
0000054b ffea                IOSTR    IOSTA
0000054c ff56                MOVAR    0x29
0000054d e556                BSR      0x29, 0x5
0000054e fed6                MOVR     0x29, ToAcc
0000054f fffa                IOST     IOSTA
00000550 ffef                RET
00000551                     ___cinit_load__:
00000551 e0fc                BCR      STATUS, BK0
00000552 fd0a                CLRR     0x75
00000553 fd09                CLRR     0x76
00000554 fd08                CLRR     0x77
00000555 fd07                CLRR     0x78
00000556 fd1a                CLRR     0x65
00000557 fd19                CLRR     0x66
00000558 fd06                CLRR     0x79
00000559 fd05                CLRR     0x7a
0000055a fd04                CLRR     0x7b
0000055b fd18                CLRR     0x67
0000055c fd17                CLRR     0x68
0000055d fd03                CLRR     0x7c
0000055e fd02                CLRR     0x7d
0000055f fd01                CLRR     0x7e
00000560 fd00                CLRR     0x7f
00000561 fd16                CLRR     0x69
00000562 fd15                CLRR     0x6a
00000563 fd14                CLRR     0x6b
00000564 fd13                CLRR     0x6c
00000565 fd12                CLRR     0x6d
00000566 fd11                CLRR     0x6e
00000567 fd10                CLRR     0x6f
00000568 fd0f                CLRR     0x70
00000569 fd0e                CLRR     0x71
0000056a fd0d                CLRR     0x72
0000056b fd0c                CLRR     0x73
0000056c fd0b                CLRR     0x74
0000056d e4fc                BSR      STATUS, BK0
0000056e fd5f                CLRR     0x20
0000056f fd5e                CLRR     0x21
00000570 fd5d                CLRR     0x22
00000571 fd5c                CLRR     0x23
00000572 fd5b                CLRR     0x24
00000573 fd5a                CLRR     0x25
00000574 fd59                CLRR     0x26
00000575 fd58                CLRR     0x27
00000576 fd57                CLRR     0x28
00000577 fd56                CLRR     0x29
00000578 fd55                CLRR     0x2a
00000579 fd54                CLRR     0x2b
0000057a fd53                CLRR     0x2c
0000057b fd52                CLRR     0x2d
0000057c fd51                CLRR     0x2e
0000057d fd50                CLRR     0x2f
0000057e fd4f                CLRR     0x30
0000057f fd4e                CLRR     0x31
00000580 fd4d                CLRR     0x32
00000581 fd4c                CLRR     0x33
00000582 fd4b                CLRR     0x34
00000583 fd4a                CLRR     0x35
00000584 fd49                CLRR     0x36
00000585 fd48                CLRR     0x37
00000586 fd47                CLRR     0x38
00000587 fd46                CLRR     0x39
00000588 fd45                CLRR     0x3a
00000589 ffef                RET
0000058a                     _keyRead:
0000058a e0fc                BCR      STATUS, BK0
0000058b ff5b                MOVAR    0x24
0000058c fedb                MOVR     0x24, ToAcc
0000058d f2fc                BTRSC    STATUS, Z
0000058e c25a                LGOTO    0x5a5; main.o:_00414_DS_=0x5a5
0000058f fa01                INCR     0x7e, ToReg
00000590 d4e8                LCALL    0x317; _checkKeyAD=0x317
00000591 de69                MOVIA    0x96
00000592 e0fc                BCR      STATUS, BK0
00000593 fb81                SUBAR    0x7e, ToAcc
00000594 f7fc                BTRSS    STATUS, C
00000595 c241                LGOTO    0x5be; main.o:_00415_DS_=0x5be
00000596 de69                MOVIA    0x96
00000597 ff01                MOVAR    0x7e
00000598 e4fc                BSR      STATUS, BK0
00000599 fed1                MOVR     0x2e, ToAcc
0000059a dbfe                XORIA    0x1
0000059b f6fc                BTRSS    STATUS, Z
0000059c c241                LGOTO    0x5be; main.o:_00415_DS_=0x5be
0000059d e0fc                BCR      STATUS, BK0
0000059e fe80                MOVR     0x7f, ToAcc
0000059f f6fc                BTRSS    STATUS, Z
000005a0 c241                LGOTO    0x5be; main.o:_00415_DS_=0x5be
000005a1 defe                MOVIA    0x1
000005a2 ff00                MOVAR    0x7f
000005a3 defd                MOVIA    0x2
000005a4 c240                LGOTO    0x5bf; main.o:_00416_DS_=0x5bf
000005a5                     main.o:_00414_DS_:
000005a5 e4fc                BSR      STATUS, BK0
000005a6 fed1                MOVR     0x2e, ToAcc
000005a7 dbfe                XORIA    0x1
000005a8 f6fc                BTRSS    STATUS, Z
000005a9 c24c                LGOTO    0x5b3; main.o:_00410_DS_=0x5b3
000005aa de9b                MOVIA    0x64
000005ab e0fc                BCR      STATUS, BK0
000005ac fb81                SUBAR    0x7e, ToAcc
000005ad f7fc                BTRSS    STATUS, C
000005ae c24c                LGOTO    0x5b3; main.o:_00410_DS_=0x5b3
000005af fd01                CLRR     0x7e
000005b0 fd00                CLRR     0x7f
000005b1 deff                MOVIA    0x0
000005b2 c240                LGOTO    0x5bf; main.o:_00416_DS_=0x5bf
000005b3                     main.o:_00410_DS_:
000005b3 defb                MOVIA    0x4
000005b4 e0fc                BCR      STATUS, BK0
000005b5 fb81                SUBAR    0x7e, ToAcc
000005b6 f7fc                BTRSS    STATUS, C
000005b7 c244                LGOTO    0x5bb; main.o:_00411_DS_=0x5bb
000005b8 fd01                CLRR     0x7e
000005b9 defe                MOVIA    0x1
000005ba c240                LGOTO    0x5bf; main.o:_00416_DS_=0x5bf
000005bb                     main.o:_00411_DS_:
000005bb e0fc                BCR      STATUS, BK0
000005bc fd00                CLRR     0x7f
000005bd fd01                CLRR     0x7e
000005be                     main.o:_00415_DS_:
000005be deff                MOVIA    0x0
000005bf                     main.o:_00416_DS_:
000005bf ffef                RET
000005c0                     _setShowNum:
000005c0 e0fc                BCR      STATUS, BK0
000005c1 fe8a                MOVR     0x75, ToAcc
000005c2 f2fc                BTRSC    STATUS, Z
000005c3 c22e                LGOTO    0x5d1; main.o:_00713_DS_=0x5d1
000005c4 def5                MOVIA    0xa
000005c5 ff38                MOVAR    0x47
000005c6 fe8a                MOVR     0x75, ToAcc
000005c7 d1e3                LCALL    0x61c; __divuchar=0x61c
000005c8 e0fc                BCR      STATUS, BK0
000005c9 ff05                MOVAR    0x7a
000005ca def5                MOVIA    0xa
000005cb ff38                MOVAR    0x47
000005cc fe8a                MOVR     0x75, ToAcc
000005cd d1ba                LCALL    0x645; __moduchar=0x645
000005ce e0fc                BCR      STATUS, BK0
000005cf ff04                MOVAR    0x7b
000005d0 c20f                LGOTO    0x5f0; main.o:_00715_DS_=0x5f0
000005d1                     main.o:_00713_DS_:
000005d1 e4fc                BSR      STATUS, BK0
000005d2 fed3                MOVR     0x2c, ToAcc
000005d3 f2fc                BTRSC    STATUS, Z
000005d4 c224                LGOTO    0x5db; main.o:_00710_DS_=0x5db
000005d5 def4                MOVIA    0xb
000005d6 e0fc                BCR      STATUS, BK0
000005d7 ff05                MOVAR    0x7a
000005d8 def3                MOVIA    0xc
000005d9 ff04                MOVAR    0x7b
000005da c20f                LGOTO    0x5f0; main.o:_00715_DS_=0x5f0
000005db                     main.o:_00710_DS_:
000005db de9b                MOVIA    0x64
000005dc e4fc                BSR      STATUS, BK0
000005dd fbd9                SUBAR    0x26, ToAcc
000005de f7fc                BTRSS    STATUS, C
000005df c21d                LGOTO    0x5e2; main.o:_00708_DS_=0x5e2
000005e0 de9c                MOVIA    0x63
000005e1 ff59                MOVAR    0x26
000005e2                     main.o:_00708_DS_:
000005e2 def5                MOVIA    0xa
000005e3 ff38                MOVAR    0x47
000005e4 e4fc                BSR      STATUS, BK0
000005e5 fed9                MOVR     0x26, ToAcc
000005e6 d1e3                LCALL    0x61c; __divuchar=0x61c
000005e7 e0fc                BCR      STATUS, BK0
000005e8 ff05                MOVAR    0x7a
000005e9 def5                MOVIA    0xa
000005ea ff38                MOVAR    0x47
000005eb e4fc                BSR      STATUS, BK0
000005ec fed9                MOVR     0x26, ToAcc
000005ed d1ba                LCALL    0x645; __moduchar=0x645
000005ee e0fc                BCR      STATUS, BK0
000005ef ff04                MOVAR    0x7b
000005f0                     main.o:_00715_DS_:
000005f0 ffef                RET
000005f1                     _gotoSleep:
000005f1 e4fc                BSR      STATUS, BK0
000005f2 fd55                CLRR     0x2a
000005f3 fd56                CLRR     0x29
000005f4 e0fc                BCR      STATUS, BK0
000005f5 fd1a                CLRR     0x65
000005f6 fd19                CLRR     0x66
000005f7 e57a                BSR      PORTA, PA5
000005f8 f57a                BTRSS    PORTA, PA5
000005f9 e07a                BCR      PORTA, PA7
000005fa f17a                BTRSC    PORTA, PA5
000005fb e47a                BSR      PORTA, PA7
000005fc ffea                IOSTR    IOSTA
000005fd ff54                MOVAR    0x2b
000005fe e554                BSR      0x2b, 0x5
000005ff fed4                MOVR     0x2b, ToAcc
00000600 fffa                IOST     IOSTA
00000601 e4fc                BSR      STATUS, BK0
00000602 fd5b                CLRR     0x24
00000603 e0fc                BCR      STATUS, BK0
00000604 fd0a                CLRR     0x75
00000605 fd03                CLRR     0x7c
00000606 fd18                CLRR     0x67
00000607 fd17                CLRR     0x68
00000608 d7fc                LCALL    0x3; _pwm1Stop=0x3
00000609 debf                MOVIA    0x40
0000060a ff6a                MOVAR    AWUCON
0000060b defd                MOVIA    0x2
0000060c ff76                MOVAR    BWUCON
0000060d ff71                MOVAR    INTE
0000060e dee7                MOVIA    0x18
0000060f ff77                MOVAR    PCON
00000610 fd70                CLRR     INTF
00000611 fffd                CLRWDT
00000612 fffb                ENI
00000613 fffe                SLEEP
00000614 fd6a                CLRR     AWUCON
00000615 fd76                CLRR     BWUCON
00000616 defe                MOVIA    0x1
00000617 ff71                MOVAR    INTE
00000618 fd70                CLRR     INTF
00000619 de47                MOVIA    0xb8
0000061a ff77                MOVAR    PCON
0000061b ffef                RET
0000061c                     __divuchar:
0000061c e0fc                BCR      STATUS, BK0
0000061d ff2c                MOVAR    0x53
0000061e feb8                MOVR     0x47, ToAcc
0000061f ff2b                MOVAR    0x54
00000620 fd2a                CLRR     0x55
00000621 defe                MOVIA    0x1
00000622 ff29                MOVAR    0x56
00000623 feab                MOVR     0x54, ToAcc
00000624 f6fc                BTRSS    STATUS, Z
00000625 c1d7                LGOTO    0x628; _divuchar.o:_00107_DS_=0x628
00000626 de00                MOVIA    0xff
00000627 c1bb                LGOTO    0x644; _divuchar.o:_00115_DS_=0x644
00000628                     _divuchar.o:_00107_DS_:
00000628 e0fc                BCR      STATUS, BK0
00000629 f02b                BTRSC    0x54, 0x7
0000062a c1cf                LGOTO    0x630; _divuchar.o:_00112_DS_=0x630
0000062b e3fc                BCR      STATUS, C
0000062c eb2b                RLR      0x54, ToReg
0000062d e3fc                BCR      STATUS, C
0000062e eb29                RLR      0x56, ToReg
0000062f c1d7                LGOTO    0x628; _divuchar.o:_00107_DS_=0x628
00000630                     _divuchar.o:_00112_DS_:
00000630 e0fc                BCR      STATUS, BK0
00000631 fea9                MOVR     0x56, ToAcc
00000632 f2fc                BTRSC    STATUS, Z
00000633 c1bd                LGOTO    0x642; _divuchar.o:_00114_DS_=0x642
00000634 feab                MOVR     0x54, ToAcc
00000635 fbac                SUBAR    0x53, ToAcc
00000636 f7fc                BTRSS    STATUS, C
00000637 c1c3                LGOTO    0x63c; _divuchar.o:_00111_DS_=0x63c
00000638 fea9                MOVR     0x56, ToAcc
00000639 fc2a                ADDAR    0x55, ToReg
0000063a feab                MOVR     0x54, ToAcc
0000063b fb2c                SUBAR    0x53, ToReg
0000063c                     _divuchar.o:_00111_DS_:
0000063c e3fc                BCR      STATUS, C
0000063d e0fc                BCR      STATUS, BK0
0000063e ec2b                RRR      0x54, ToReg
0000063f e3fc                BCR      STATUS, C
00000640 ec29                RRR      0x56, ToReg
00000641 c1cf                LGOTO    0x630; _divuchar.o:_00112_DS_=0x630
00000642                     _divuchar.o:_00114_DS_:
00000642 e0fc                BCR      STATUS, BK0
00000643 feaa                MOVR     0x55, ToAcc
00000644                     _divuchar.o:_00115_DS_:
00000644 ffef                RET
00000645                     __moduchar:
00000645 e0fc                BCR      STATUS, BK0
00000646 ff20                MOVAR    0x5f
00000647 feb8                MOVR     0x47, ToAcc
00000648 ff1f                MOVAR    0x60
00000649 f6fc                BTRSS    STATUS, Z
0000064a c1b2                LGOTO    0x64d; _moduchar.o:_00119_DS_=0x64d
0000064b de00                MOVIA    0xff
0000064c c197                LGOTO    0x668; _moduchar.o:_00115_DS_=0x668
0000064d                     _moduchar.o:_00119_DS_:
0000064d defe                MOVIA    0x1
0000064e e0fc                BCR      STATUS, BK0
0000064f ff1e                MOVAR    0x61
00000650                     _moduchar.o:_00107_DS_:
00000650 e0fc                BCR      STATUS, BK0
00000651 f01f                BTRSC    0x60, 0x7
00000652 c1a8                LGOTO    0x657; _moduchar.o:_00112_DS_=0x657
00000653 e3fc                BCR      STATUS, C
00000654 eb1f                RLR      0x60, ToReg
00000655 fa1e                INCR     0x61, ToReg
00000656 c1af                LGOTO    0x650; _moduchar.o:_00107_DS_=0x650
00000657                     _moduchar.o:_00112_DS_:
00000657 e0fc                BCR      STATUS, BK0
00000658 fe9e                MOVR     0x61, ToAcc
00000659 f2fc                BTRSC    STATUS, Z
0000065a c199                LGOTO    0x666; _moduchar.o:_00114_DS_=0x666
0000065b fe9f                MOVR     0x60, ToAcc
0000065c fba0                SUBAR    0x5f, ToAcc
0000065d f7fc                BTRSS    STATUS, C
0000065e c19e                LGOTO    0x661; _moduchar.o:_00111_DS_=0x661
0000065f fe9f                MOVR     0x60, ToAcc
00000660 fb20                SUBAR    0x5f, ToReg
00000661                     _moduchar.o:_00111_DS_:
00000661 e3fc                BCR      STATUS, C
00000662 e0fc                BCR      STATUS, BK0
00000663 ec1f                RRR      0x60, ToReg
00000664 f91e                DECR     0x61, ToReg
00000665 c1a8                LGOTO    0x657; _moduchar.o:_00112_DS_=0x657
00000666                     _moduchar.o:_00114_DS_:
00000666 e0fc                BCR      STATUS, BK0
00000667 fea0                MOVR     0x5f, ToAcc
00000668                     _moduchar.o:_00115_DS_:
00000668 ffef                RET
00000669                     _F_AIN6_Convert:
00000669 e0fc                BCR      STATUS, BK0
0000066a ff43                MOVAR    0x3c
0000066b de69                MOVIA    0x96
0000066c ff6f                MOVAR    ADMD
0000066d defe                MOVIA    0x1
0000066e ff42                MOVAR    0x3d
0000066f                     main.o:_00740_DS_:
0000066f e0fc                BCR      STATUS, BK0
00000670 fec2                MOVR     0x3d, ToAcc
00000671 fbc3                SUBAR    0x3c, ToAcc
00000672 f7fc                BTRSS    STATUS, C
00000673 c175                LGOTO    0x68a; main.o:_00742_DS_=0x68a
00000674 e4ef                BSR      ADMD, START
00000675 d05d                LCALL    0x7a2; _F_wait_eoc=0x7a2
00000676 def0                MOVIA    0xf
00000677 efee                ANDAR    ADR, ToAcc
00000678 e4fc                BSR      STATUS, BK0
00000679 fc5e                ADDAR    0x21, ToReg
0000067a feed                MOVR     ADD, ToAcc
0000067b e0fc                BCR      STATUS, BK0
0000067c ff41                MOVAR    0x3e
0000067d deff                MOVIA    0x0
0000067e ff40                MOVAR    0x3f
0000067f fec1                MOVR     0x3e, ToAcc
00000680 fc14                ADDAR    0x6b, ToReg
00000681 fec0                MOVR     0x3f, ToAcc
00000682 f3fc                BTRSC    STATUS, C
00000683 fac0                INCR     0x3f, ToAcc
00000684 f2fc                BTRSC    STATUS, Z
00000685 c178                LGOTO    0x687; main.o:_00002_DS_=0x687
00000686 fc13                ADDAR    0x6c, ToReg
00000687                     main.o:_00002_DS_:
00000687 e0fc                BCR      STATUS, BK0
00000688 fa42                INCR     0x3d, ToReg
00000689 c190                LGOTO    0x66f; main.o:_00740_DS_=0x66f
0000068a                     main.o:_00742_DS_:
0000068a ffef                RET
0000068b                     _F_AIN2_Convert:
0000068b e0fc                BCR      STATUS, BK0
0000068c ff47                MOVAR    0x38
0000068d de6b                MOVIA    0x94
0000068e ff6f                MOVAR    ADMD
0000068f defe                MOVIA    0x1
00000690 ff46                MOVAR    0x39
00000691                     main.o:_00731_DS_:
00000691 e0fc                BCR      STATUS, BK0
00000692 fec6                MOVR     0x39, ToAcc
00000693 fbc7                SUBAR    0x38, ToAcc
00000694 f7fc                BTRSS    STATUS, C
00000695 c153                LGOTO    0x6ac; main.o:_00733_DS_=0x6ac
00000696 e4ef                BSR      ADMD, START
00000697 d05d                LCALL    0x7a2; _F_wait_eoc=0x7a2
00000698 def0                MOVIA    0xf
00000699 efee                ANDAR    ADR, ToAcc
0000069a e4fc                BSR      STATUS, BK0
0000069b fc5f                ADDAR    0x20, ToReg
0000069c feed                MOVR     ADD, ToAcc
0000069d e0fc                BCR      STATUS, BK0
0000069e ff45                MOVAR    0x3a
0000069f deff                MOVIA    0x0
000006a0 ff44                MOVAR    0x3b
000006a1 fec5                MOVR     0x3a, ToAcc
000006a2 fc12                ADDAR    0x6d, ToReg
000006a3 fec4                MOVR     0x3b, ToAcc
000006a4 f3fc                BTRSC    STATUS, C
000006a5 fac4                INCR     0x3b, ToAcc
000006a6 f2fc                BTRSC    STATUS, Z
000006a7 c156                LGOTO    0x6a9; main.o:_00003_DS_=0x6a9
000006a8 fc11                ADDAR    0x6e, ToReg
000006a9                     main.o:_00003_DS_:
000006a9 e0fc                BCR      STATUS, BK0
000006aa fa46                INCR     0x39, ToReg
000006ab c16e                LGOTO    0x691; main.o:_00731_DS_=0x691
000006ac                     main.o:_00733_DS_:
000006ac ffef                RET
000006ad                     _F_AIN0_Convert:
000006ad e0fc                BCR      STATUS, BK0
000006ae ff4b                MOVAR    0x34
000006af de6c                MOVIA    0x93
000006b0 ff6f                MOVAR    ADMD
000006b1 defe                MOVIA    0x1
000006b2 ff4a                MOVAR    0x35
000006b3                     main.o:_00722_DS_:
000006b3 e0fc                BCR      STATUS, BK0
000006b4 feca                MOVR     0x35, ToAcc
000006b5 fbcb                SUBAR    0x34, ToAcc
000006b6 f7fc                BTRSS    STATUS, C
000006b7 c131                LGOTO    0x6ce; main.o:_00724_DS_=0x6ce
000006b8 e4ef                BSR      ADMD, START
000006b9 d05d                LCALL    0x7a2; _F_wait_eoc=0x7a2
000006ba def0                MOVIA    0xf
000006bb efee                ANDAR    ADR, ToAcc
000006bc e4fc                BSR      STATUS, BK0
000006bd fc5f                ADDAR    0x20, ToReg
000006be feed                MOVR     ADD, ToAcc
000006bf e0fc                BCR      STATUS, BK0
000006c0 ff49                MOVAR    0x36
000006c1 deff                MOVIA    0x0
000006c2 ff48                MOVAR    0x37
000006c3 fec9                MOVR     0x36, ToAcc
000006c4 fc16                ADDAR    0x69, ToReg
000006c5 fec8                MOVR     0x37, ToAcc
000006c6 f3fc                BTRSC    STATUS, C
000006c7 fac8                INCR     0x37, ToAcc
000006c8 f2fc                BTRSC    STATUS, Z
000006c9 c134                LGOTO    0x6cb; main.o:_00004_DS_=0x6cb
000006ca fc15                ADDAR    0x6a, ToReg
000006cb                     main.o:_00004_DS_:
000006cb e0fc                BCR      STATUS, BK0
000006cc fa4a                INCR     0x35, ToReg
000006cd c14c                LGOTO    0x6b3; main.o:_00722_DS_=0x6b3
000006ce                     main.o:_00724_DS_:
000006ce ffef                RET
000006cf                     _ind_light_disp:
000006cf e0fc                BCR      STATUS, BK0
000006d0 ff58                MOVAR    0x27
000006d1 fd57                CLRR     0x28
000006d2                     main.o:_00455_DS_:
000006d2 e0fc                BCR      STATUS, BK0
000006d3 e2fa                BCR      PORTA, PA2
000006d4 d068                LCALL    0x797; _Delay10Us=0x797
000006d5 e0fc                BCR      STATUS, BK0
000006d6 f458                BTRSS    0x27, 0x7
000006d7 c124                LGOTO    0x6db; main.o:_00452_DS_=0x6db
000006d8 e7f9                BSR      PORTB, PB0
000006d9 d068                LCALL    0x797; _Delay10Us=0x797
000006da c122                LGOTO    0x6dd; main.o:_00453_DS_=0x6dd
000006db                     main.o:_00452_DS_:
000006db e3f9                BCR      PORTB, PB0
000006dc d068                LCALL    0x797; _Delay10Us=0x797
000006dd                     main.o:_00453_DS_:
000006dd e0fc                BCR      STATUS, BK0
000006de e6fa                BSR      PORTA, PA2
000006df d068                LCALL    0x797; _Delay10Us=0x797
000006e0 e3fc                BCR      STATUS, C
000006e1 e0fc                BCR      STATUS, BK0
000006e2 eb58                RLR      0x27, ToReg
000006e3 fa57                INCR     0x28, ToReg
000006e4 def7                MOVIA    0x8
000006e5 fbd7                SUBAR    0x28, ToAcc
000006e6 f7fc                BTRSS    STATUS, C
000006e7 c12d                LGOTO    0x6d2; main.o:_00455_DS_=0x6d2
000006e8 e2fa                BCR      PORTA, PA2
000006e9 e3f9                BCR      PORTB, PB0
000006ea ffef                RET
000006eb                     _initSys:
000006eb ffec                DISI
000006ec dea7                MOVIA    0x58
000006ed fffa                IOST     IOSTA
000006ee defd                MOVIA    0x2
000006ef fff9                IOST     IOSTB
000006f0 fd79                CLRR     PORTB
000006f1 e0fc                BCR      STATUS, BK0
000006f2 fd7a                CLRR     PORTA
000006f3 de00                MOVIA    0xff
000006f4 fff6                IOST     APHCON
000006f5 ff73                MOVAR    BPHCON
000006f6 ff74                MOVAR    ABPLCON
000006f7 defe                MOVIA    0x1
000006f8 ff71                MOVAR    INTE
000006f9 fdff                CLRA
000006fa fff0                IOST     PCON1
000006fb dec8                MOVIA    0x37
000006fc ff7e                MOVAR    TMR0
000006fd defe                MOVIA    0x1
000006fe fffc                T0MD
000006ff fff0                IOST     PCON1
00000700 de67                MOVIA    0x98
00000701 ff77                MOVAR    PCON
00000702 defe                MOVIA    0x1
00000703 fff0                IOST     PCON1
00000704 fffb                ENI
00000705 fd06                CLRR     0x79
00000706 ffef                RET
00000707                     _delay:
00000707 e0fc                BCR      STATUS, BK0
00000708 ff36                MOVAR    0x49
00000709 feb8                MOVR     0x47, ToAcc
0000070a ff37                MOVAR    0x48
0000070b defe                MOVIA    0x1
0000070c ff35                MOVAR    0x4a
0000070d fd34                CLRR     0x4b
0000070e                     main.o:_00754_DS_:
0000070e e0fc                BCR      STATUS, BK0
0000070f feb6                MOVR     0x49, ToAcc
00000710 da7f                ADDIA    0x80
00000711 ff33                MOVAR    0x4c
00000712 feb4                MOVR     0x4b, ToAcc
00000713 da7f                ADDIA    0x80
00000714 fbb3                SUBAR    0x4c, ToAcc
00000715 f6fc                BTRSS    STATUS, Z
00000716 c0e6                LGOTO    0x719; main.o:_00765_DS_=0x719
00000717 feb5                MOVR     0x4a, ToAcc
00000718 fbb7                SUBAR    0x48, ToAcc
00000719                     main.o:_00765_DS_:
00000719 f7fc                BTRSS    STATUS, C
0000071a c0de                LGOTO    0x721; main.o:_00756_DS_=0x721
0000071b e0fc                BCR      STATUS, BK0
0000071c fa35                INCR     0x4a, ToReg
0000071d f6fc                BTRSS    STATUS, Z
0000071e c0df                LGOTO    0x720; main.o:_00001_DS_=0x720
0000071f fa34                INCR     0x4b, ToReg
00000720                     main.o:_00001_DS_:
00000720 c0f1                LGOTO    0x70e; main.o:_00754_DS_=0x70e
00000721                     main.o:_00756_DS_:
00000721 ffef                RET
00000722                     __mulchar:
00000722 e0fc                BCR      STATUS, BK0
00000723 ff31                MOVAR    0x4e
00000724 feb8                MOVR     0x47, ToAcc
00000725 ff30                MOVAR    0x4f
00000726 fd2f                CLRR     0x50
00000727 def7                MOVIA    0x8
00000728 ff2e                MOVAR    0x51
00000729                     _mulchar.o:_00119_DS_:
00000729 e0fc                BCR      STATUS, BK0
0000072a f7b1                BTRSS    0x4e, 0x0
0000072b c0d1                LGOTO    0x72e; _mulchar.o:_00114_DS_=0x72e
0000072c feb0                MOVR     0x4f, ToAcc
0000072d fc2f                ADDAR    0x50, ToReg
0000072e                     _mulchar.o:_00114_DS_:
0000072e e3fc                BCR      STATUS, C
0000072f e0fc                BCR      STATUS, BK0
00000730 ec31                RRR      0x4e, ToReg
00000731 e3fc                BCR      STATUS, C
00000732 eb30                RLR      0x4f, ToReg
00000733 f9ae                DECR     0x51, ToAcc
00000734 ff2d                MOVAR    0x52
00000735 ff2e                MOVAR    0x51
00000736 fead                MOVR     0x52, ToAcc
00000737 f6fc                BTRSS    STATUS, Z
00000738 c0d6                LGOTO    0x729; _mulchar.o:_00119_DS_=0x729
00000739 feaf                MOVR     0x50, ToAcc
0000073a ffef                RET
0000073b                     __gptrget:
0000073b dbff                XORIA    0x0
0000073c f2fc                BTRSC    STATUS, Z
0000073d c0bd                LGOTO    0x742; _gptrget1.o:__dataptrget1=0x742
0000073e db7f                XORIA    0x80
0000073f f2fc                BTRSC    STATUS, Z
00000740 c0b6                LGOTO    0x749; __codeptrget1=0x749
00000741 dfff                RETIA    0x0
00000742                     _gptrget1.o:__dataptrget1:
00000742 feb9                MOVR     0x46, ToAcc
00000743 ff7b                MOVAR    FSR
00000744 e0fc                BCR      STATUS, BK0
00000745 f039                BTRSC    0x46, 0x7
00000746 e4fc                BSR      STATUS, BK0
00000747 feff                MOVR     INDF, ToAcc
00000748 ffef                RET
00000749                     __codeptrget1:
00000749 feb8                MOVR     0x47, ToAcc
0000074a ffb8                SFUN     TBHP
0000074b feb9                MOVR     0x46, ToAcc
0000074c fdee                TABLEA
0000074d ffef                RET
0000074e                     main.o:_table:
0000074e dfc0                RETIA    0x3f
0000074f dff9                RETIA    0x6
00000750 dfa4                RETIA    0x5b
00000751 dfb0                RETIA    0x4f
00000752 df99                RETIA    0x66
00000753 df92                RETIA    0x6d
00000754 df82                RETIA    0x7d
00000755 dff8                RETIA    0x7
00000756 df80                RETIA    0x7f
00000757 df90                RETIA    0x6f
00000758 df86                RETIA    0x79
00000759 dfc7                RETIA    0x38
0000075a dfa3                RETIA    0x5c
0000075b                     _pwm1Init:
0000075b ff9e                SFUNR    T1CR1
0000075c e0fc                BCR      STATUS, BK0
0000075d ff59                MOVAR    0x26
0000075e f059                BTRSC    0x26, 0x7
0000075f c098                LGOTO    0x767; main.o:_00442_DS_=0x767
00000760 fd66                CLRR     TMRH
00000761 dec3                MOVIA    0x3c
00000762 ffbf                SFUN     TMR1
00000763 def7                MOVIA    0x8
00000764 ffbd                SFUN     T1CR2
00000765 de7c                MOVIA    0x83
00000766 ffbe                SFUN     T1CR1
00000767                     main.o:_00442_DS_:
00000767 ffef                RET
00000768                     _pwmInit:
00000768 ff9e                SFUNR    T1CR1
00000769 e0fc                BCR      STATUS, BK0
0000076a ff5a                MOVAR    0x25
0000076b f05a                BTRSC    0x25, 0x7
0000076c c08b                LGOTO    0x774; main.o:_00431_DS_=0x774
0000076d fd66                CLRR     TMRH
0000076e de9b                MOVIA    0x64
0000076f ffb6                SFUN     TMR2
00000770 defe                MOVIA    0x1
00000771 ffb4                SFUN     T2CR2
00000772 de7c                MOVIA    0x83
00000773 ffb5                SFUN     T2CR1
00000774                     main.o:_00431_DS_:
00000774 ffef                RET
00000775                     _initAD:
00000775 de7b                MOVIA    0x84
00000776 ff6f                MOVAR    ADMD
00000777 fd6c                CLRR     ADVREFH
00000778 deef                MOVIA    0x10
00000779 ff6e                MOVAR    ADR
0000077a defc                MOVIA    0x3
0000077b ff6b                MOVAR    ADCR
0000077c e5ef                BSR      ADMD, GCHS
0000077d de9b                MOVIA    0x64
0000077e ff38                MOVAR    0x47
0000077f deff                MOVIA    0x0
00000780 d0f8                LCALL    0x707; _delay=0x707
00000781 ffef                RET
00000782                     _powerOff:
00000782 e0fc                BCR      STATUS, BK0
00000783 fd1a                CLRR     0x65
00000784 fd19                CLRR     0x66
00000785 fd0a                CLRR     0x75
00000786 fd03                CLRR     0x7c
00000787 fd18                CLRR     0x67
00000788 fd17                CLRR     0x68
00000789 e4fc                BSR      STATUS, BK0
0000078a fd5d                CLRR     0x22
0000078b d061                LCALL    0x79e; _pwmStop=0x79e
0000078c ffef                RET
0000078d                     _delay_us:
0000078d e0fc                BCR      STATUS, BK0
0000078e ff32                MOVAR    0x4d
0000078f                     main.o:_00770_DS_:
0000078f e0fc                BCR      STATUS, BK0
00000790 feb2                MOVR     0x4d, ToAcc
00000791 f2fc                BTRSC    STATUS, Z
00000792 c069                LGOTO    0x796; main.o:_00773_DS_=0x796
00000793 f932                DECR     0x4d, ToReg
00000794 ffff                NOP
00000795 c070                LGOTO    0x78f; main.o:_00770_DS_=0x78f
00000796                     main.o:_00773_DS_:
00000796 ffef                RET
00000797                     _Delay10Us:
00000797 ffff                NOP
00000798 ffff                NOP
00000799 ffff                NOP
0000079a ffff                NOP
0000079b ffff                NOP
0000079c ffff                NOP
0000079d ffef                RET
0000079e                     _pwmStop:
0000079e fdff                CLRA
0000079f ffb5                SFUN     T2CR1
000007a0 e2f9                BCR      PORTB, PB2
000007a1 ffef                RET
000007a2                     _F_wait_eoc:
000007a2 f56f                BTRSS    ADMD, EOC
000007a3 c05d                LGOTO    0x7a2; _F_wait_eoc=0x7a2
000007a4 ffef                RET

