00000000 c7fe                 LGOTO 0x1; __nyc_ny8_startup=0x1
00000001                      __nyc_ny8_startup:
00000001 d4cd                 LCALL 0x332; ___cinit_load__=0x332
00000002 c7c7                 LGOTO 0x38; _main=0x38
00000003                      main.o:_00492_DS_:
00000003 f56f                 BTRSS 0x10, 0x5
00000004 c7fc                 LGOTO 0x3; main.o:_00492_DS_=0x3
00000005 ffef                 RET
00000008 c7f6                 LGOTO 0x9; main.o:__sdcc_interrupt=0x9
00000009                      main.o:__sdcc_interrupt:
00000009 ff3d                 MOVAR 0x42
0000000a eafc                 SWAPR 0x3, 0x0
0000000b fd7c                 CLRR 0x3
0000000c ff3e                 MOVAR 0x41
0000000d fef5                 MOVR 0xa, 0x0
0000000e fd75                 CLRR 0xa
0000000f ff3f                 MOVAR 0x40
00000010 fefb                 MOVR 0x4, 0x0
00000011 e0fc                 BCR 0x3, 0x6
00000012 ff4d                 MOVAR 0x32
00000013 feba                 MOVR 0x45, 0x0
00000014 ff4c                 MOVAR 0x33
00000015 febb                 MOVR 0x44, 0x0
00000016 ff4b                 MOVAR 0x34
00000017 f7f0                 BTRSS 0xf, 0x0
00000018 c7db                 LGOTO 0x24; main.o:_00108_DS_=0x24
00000019 dec8                 MOVIA 0x37
0000001a fc7e                 ADDAR 0x1, 0x1
0000001b fa42                 INCR 0x3d, 0x1
0000001c fa42                 INCR 0x3d, 0x1
0000001d de9b                 MOVIA 0x64
0000001e fbc2                 SUBAR 0x3d, 0x0
0000001f f7fc                 BTRSS 0x3, 0x0
00000020 c7db                 LGOTO 0x24; main.o:_00108_DS_=0x24
00000021 fd42                 CLRR 0x3d
00000022 defe                 MOVIA 0x1
00000023 ff41                 MOVAR 0x3e
00000024                      main.o:_00108_DS_:
00000024 f770                 BTRSS 0xf, 0x1
00000025 c7d7                 LGOTO 0x28; main.o:_00110_DS_=0x28
00000026 de02                 MOVIA 0xfd
00000027 ff70                 MOVAR 0xf
00000028                      main.o:_00110_DS_:
00000028 fd70                 CLRR 0xf
00000029 e0fc                 BCR 0x3, 0x6
0000002a fecb                 MOVR 0x34, 0x0
0000002b ff3b                 MOVAR 0x44
0000002c fecc                 MOVR 0x33, 0x0
0000002d ff3a                 MOVAR 0x45
0000002e fecd                 MOVR 0x32, 0x0
0000002f ff7b                 MOVAR 0x4
00000030 febf                 MOVR 0x40, 0x0
00000031 ff75                 MOVAR 0xa
00000032 fd7c                 CLRR 0x3
00000033                      ___cinit_size__:
00000033 eabe                 SWAPR 0x41, 0x0
00000034 ff7c                 MOVAR 0x3
00000035 ea3d                 SWAPR 0x42, 0x1
00000036 eabd                 SWAPR 0x42, 0x0
00000037                      main.o:END_OF_INTERRUPT:
00000037 ffee                 RETIE
00000038                      _main:
00000038 ffec                 DISI
00000039 ded9                 MOVIA 0x26
0000003a fffa                 IOST 0x5
0000003b defe                 MOVIA 0x1
0000003c fff9                 IOST 0x6
0000003d defd                 MOVIA 0x2
0000003e ff79                 MOVAR 0x6
0000003f fd7a                 CLRR 0x5
00000040 de00                 MOVIA 0xff
00000041 fff6                 IOST 0x9
00000042 de01                 MOVIA 0xfe
00000043 ff73                 MOVAR 0xc
00000044 de00                 MOVIA 0xff
00000045 ff74                 MOVAR 0xb
00000046 defe                 MOVIA 0x1
00000047 ff71                 MOVAR 0xe
00000048 fdff                 CLRA
00000049 fff0                 IOST 0xf
0000004a dec8                 MOVIA 0x37
0000004b ff7e                 MOVAR 0x1
0000004c fdff                 CLRA
0000004d fffc                 T0MD
0000004e defe                 MOVIA 0x1
0000004f fff0                 IOST 0xf
00000050 de67                 MOVIA 0x98
00000051 ff77                 MOVAR 0x8
00000052 defe                 MOVIA 0x1
00000053 fff0                 IOST 0xf
00000054 fffb                 ENI
00000055 d71c                 LCALL 0xe3; _closeStatus=0xe3
00000056 d538                 LCALL 0x2c7; _initAD=0x2c7
00000057 f17a                 BTRSC 0x5, 0x5
00000058 c7a5                 LGOTO 0x5a; main.o:_00162_DS_=0x5a
00000059 d6d8                 LCALL 0x127; _gotoSleep=0x127
0000005a                      main.o:_00162_DS_:
0000005a fffd                 CLRWDT
0000005b f57a                 BTRSS 0x5, 0x5
0000005c c778                 LGOTO 0x87; main.o:_00135_DS_=0x87
0000005d e0fc                 BCR 0x3, 0x6
0000005e fec5                 MOVR 0x3a, 0x0
0000005f dbfe                 XORIA 0x1
00000060 f6fc                 BTRSS 0x3, 0x2
00000061 c787                 LGOTO 0x78; main.o:_00127_DS_=0x78
00000062 fd39                 CLRR 0x46
00000063 e779                 BSR 0x6, 0x1
00000064 e4fa                 BSR 0x5, 0x6
00000065 defe                 MOVIA 0x1
00000066 ff46                 MOVAR 0x39
00000067 e7fa                 BSR 0x5, 0x0
00000068 defb                 MOVIA 0x4
00000069 fbc7                 SUBAR 0x38, 0x0
0000006a f3fc                 BTRSC 0x3, 0x0
0000006b c789                 LGOTO 0x76; main.o:_00118_DS_=0x76
0000006c deff                 MOVIA 0x0
0000006d fbb5                 SUBAR 0x4a, 0x0
0000006e f6fc                 BTRSS 0x3, 0x2
0000006f c78d                 LGOTO 0x72; main.o:_00236_DS_=0x72
00000070 de36                 MOVIA 0xc9
00000071 fbb6                 SUBAR 0x49, 0x0
00000072                      main.o:_00236_DS_:
00000072 f7fc                 BTRSS 0x3, 0x0
00000073 c789                 LGOTO 0x76; main.o:_00118_DS_=0x76
00000074 e679                 BSR 0x6, 0x3
00000075 c767                 LGOTO 0x98; main.o:_00136_DS_=0x98
00000076                      main.o:_00118_DS_:
00000076 e279                 BCR 0x6, 0x3
00000077 c767                 LGOTO 0x98; main.o:_00136_DS_=0x98
00000078                      main.o:_00127_DS_:
00000078 e279                 BCR 0x6, 0x3
00000079 e0fa                 BCR 0x5, 0x6
0000007a e0fc                 BCR 0x3, 0x6
0000007b fec6                 MOVR 0x39, 0x0
0000007c f2fc                 BTRSC 0x3, 0x2
0000007d c767                 LGOTO 0x98; main.o:_00136_DS_=0x98
0000007e fec7                 MOVR 0x38, 0x0
0000007f f2fc                 BTRSC 0x3, 0x2
00000080 c77b                 LGOTO 0x84; main.o:_00122_DS_=0x84
00000081 e47a                 BSR 0x5, 0x7
00000082 e7fa                 BSR 0x5, 0x0
00000083 c767                 LGOTO 0x98; main.o:_00136_DS_=0x98
00000084                      main.o:_00122_DS_:
00000084 e07a                 BCR 0x5, 0x7
00000085 e3fa                 BCR 0x5, 0x0
00000086 c767                 LGOTO 0x98; main.o:_00136_DS_=0x98
00000087                      main.o:_00135_DS_:
00000087 e0fc                 BCR 0x3, 0x6
00000088 fd45                 CLRR 0x3a
00000089 defe                 MOVIA 0x1
0000008a ff2d                 MOVAR 0x52
0000008b e279                 BCR 0x6, 0x3
0000008c e0fa                 BCR 0x5, 0x6
0000008d fec6                 MOVR 0x39, 0x0
0000008e f2fc                 BTRSC 0x3, 0x2
0000008f c767                 LGOTO 0x98; main.o:_00136_DS_=0x98
00000090 fec7                 MOVR 0x38, 0x0
00000091 f2fc                 BTRSC 0x3, 0x2
00000092 c769                 LGOTO 0x96; main.o:_00130_DS_=0x96
00000093 e47a                 BSR 0x5, 0x7
00000094 e7fa                 BSR 0x5, 0x0
00000095 c767                 LGOTO 0x98; main.o:_00136_DS_=0x98
00000096                      main.o:_00130_DS_:
00000096 e07a                 BCR 0x5, 0x7
00000097 e3fa                 BCR 0x5, 0x0
00000098                      main.o:_00136_DS_:
00000098 e0fc                 BCR 0x3, 0x6
00000099 fec1                 MOVR 0x3e, 0x0
0000009a f2fc                 BTRSC 0x3, 0x2
0000009b c7a5                 LGOTO 0x5a; main.o:_00162_DS_=0x5a
0000009c fd41                 CLRR 0x3e
0000009d feca                 MOVR 0x35, 0x0
0000009e f2fc                 BTRSC 0x3, 0x2
0000009f c753                 LGOTO 0xac; main.o:_00142_DS_=0xac
000000a0 def0                 MOVIA 0xf
000000a1 fbc8                 SUBAR 0x37, 0x0
000000a2 f6fc                 BTRSS 0x3, 0x2
000000a3 c759                 LGOTO 0xa6; main.o:_00237_DS_=0xa6
000000a4 de5f                 MOVIA 0xa0
000000a5 fbc9                 SUBAR 0x36, 0x0
000000a6                      main.o:_00237_DS_:
000000a6 f3fc                 BTRSC 0x3, 0x0
000000a7 c753                 LGOTO 0xac; main.o:_00142_DS_=0xac
000000a8 e0fc                 BCR 0x3, 0x6
000000a9 fa49                 INCR 0x36, 0x1
000000aa f2fc                 BTRSC 0x3, 0x2
000000ab fa48                 INCR 0x37, 0x1
000000ac                      main.o:_00142_DS_:
000000ac defb                 MOVIA 0x4
000000ad e0fc                 BCR 0x3, 0x6
000000ae fbae                 SUBAR 0x51, 0x0
000000af f3fc                 BTRSC 0x3, 0x0
000000b0 c74c                 LGOTO 0xb3; main.o:_00147_DS_=0xb3
000000b1 d663                 LCALL 0x19c; _checkBat=0x19c
000000b2 c743                 LGOTO 0xbc; main.o:_00148_DS_=0xbc
000000b3                      main.o:_00147_DS_:
000000b3 def9                 MOVIA 0x6
000000b4 e0fc                 BCR 0x3, 0x6
000000b5 fbae                 SUBAR 0x51, 0x0
000000b6 f7fc                 BTRSS 0x3, 0x0
000000b7 c743                 LGOTO 0xbc; main.o:_00148_DS_=0xbc
000000b8 def6                 MOVIA 0x9
000000b9 fbae                 SUBAR 0x51, 0x0
000000ba f7fc                 BTRSS 0x3, 0x0
000000bb d5ba                 LCALL 0x245; _checkInV=0x245
000000bc                      main.o:_00148_DS_:
000000bc e0fc                 BCR 0x3, 0x6
000000bd fa2e                 INCR 0x51, 0x1
000000be def4                 MOVIA 0xb
000000bf fbae                 SUBAR 0x51, 0x0
000000c0 f3fc                 BTRSC 0x3, 0x0
000000c1 fd2e                 CLRR 0x51
000000c2 d52b                 LCALL 0x2d4; _chrgCtr=0x2d4
000000c3 d557                 LCALL 0x2a8; _keyCtr=0x2a8
000000c4 e0fc                 BCR 0x3, 0x6
000000c5 fec6                 MOVR 0x39, 0x0
000000c6 dbfe                 XORIA 0x1
000000c7 f2fc                 BTRSC 0x3, 0x2
000000c8 d51c                 LCALL 0x2e3; _workCtr=0x2e3
000000c9 f57a                 BTRSS 0x5, 0x5
000000ca c730                 LGOTO 0xcf; main.o:_00158_DS_=0xcf
000000cb e0fc                 BCR 0x3, 0x6
000000cc fec5                 MOVR 0x3a, 0x0
000000cd f6fc                 BTRSS 0x3, 0x2
000000ce c7a5                 LGOTO 0x5a; main.o:_00162_DS_=0x5a
000000cf                      main.o:_00158_DS_:
000000cf e0fc                 BCR 0x3, 0x6
000000d0 fec6                 MOVR 0x39, 0x0
000000d1 f6fc                 BTRSS 0x3, 0x2
000000d2 c7a5                 LGOTO 0x5a; main.o:_00162_DS_=0x5a
000000d3 fec0                 MOVR 0x3f, 0x0
000000d4 f6fc                 BTRSS 0x3, 0x2
000000d5 c7a5                 LGOTO 0x5a; main.o:_00162_DS_=0x5a
000000d6 fec3                 MOVR 0x3c, 0x0
000000d7 f6fc                 BTRSS 0x3, 0x2
000000d8 c7a5                 LGOTO 0x5a; main.o:_00162_DS_=0x5a
000000d9 d71c                 LCALL 0xe3; _closeStatus=0xe3
000000da e0fc                 BCR 0x3, 0x6
000000db fa39                 INCR 0x46, 0x1
000000dc decc                 MOVIA 0x33
000000dd fbb9                 SUBAR 0x46, 0x0
000000de f7fc                 BTRSS 0x3, 0x0
000000df c7a5                 LGOTO 0x5a; main.o:_00162_DS_=0x5a
000000e0 d6d8                 LCALL 0x127; _gotoSleep=0x127
000000e1 c7a5                 LGOTO 0x5a; main.o:_00162_DS_=0x5a
000000e2 ffef                 RET
000000e3                      _closeStatus:
000000e3 e779                 BSR 0x6, 0x1
000000e4 e279                 BCR 0x6, 0x3
000000e5 e0fa                 BCR 0x5, 0x6
000000e6 e07a                 BCR 0x5, 0x7
000000e7 e3fa                 BCR 0x5, 0x0
000000e8 ffef                 RET
000000e9                      _keyRead:
000000e9 e0fc                 BCR 0x3, 0x6
000000ea ff4e                 MOVAR 0x31
000000eb fece                 MOVR 0x31, 0x0
000000ec f2fc                 BTRSC 0x3, 0x2
000000ed c703                 LGOTO 0xfc; main.o:_00525_DS_=0xfc
000000ee fa40                 INCR 0x3f, 0x1
000000ef de37                 MOVIA 0xc8
000000f0 fbc0                 SUBAR 0x3f, 0x0
000000f1 f7fc                 BTRSS 0x3, 0x0
000000f2 c6f0                 LGOTO 0x10f; main.o:_00526_DS_=0x10f
000000f3 de37                 MOVIA 0xc8
000000f4 ff40                 MOVAR 0x3f
000000f5 feaf                 MOVR 0x50, 0x0
000000f6 f6fc                 BTRSS 0x3, 0x2
000000f7 c6f0                 LGOTO 0x10f; main.o:_00526_DS_=0x10f
000000f8 defe                 MOVIA 0x1
000000f9 ff2f                 MOVAR 0x50
000000fa defd                 MOVIA 0x2
000000fb c6ef                 LGOTO 0x110; main.o:_00527_DS_=0x110
000000fc                      main.o:_00525_DS_:
000000fc de37                 MOVIA 0xc8
000000fd e0fc                 BCR 0x3, 0x6
000000fe fbc0                 SUBAR 0x3f, 0x0
000000ff f7fc                 BTRSS 0x3, 0x0
00000100 c6fa                 LGOTO 0x105; main.o:_00522_DS_=0x105
00000101 fd40                 CLRR 0x3f
00000102 fd2f                 CLRR 0x50
00000103 deff                 MOVIA 0x0
00000104 c6ef                 LGOTO 0x110; main.o:_00527_DS_=0x110
00000105                      main.o:_00522_DS_:
00000105 def7                 MOVIA 0x8
00000106 e0fc                 BCR 0x3, 0x6
00000107 fbc0                 SUBAR 0x3f, 0x0
00000108 f7fc                 BTRSS 0x3, 0x0
00000109 c6f2                 LGOTO 0x10d; main.o:_00523_DS_=0x10d
0000010a fd40                 CLRR 0x3f
0000010b defe                 MOVIA 0x1
0000010c c6ef                 LGOTO 0x110; main.o:_00527_DS_=0x110
0000010d                      main.o:_00523_DS_:
0000010d e0fc                 BCR 0x3, 0x6
0000010e fd40                 CLRR 0x3f
0000010f                      main.o:_00526_DS_:
0000010f deff                 MOVIA 0x0
00000110                      main.o:_00527_DS_:
00000110 ffef                 RET
00000111                      _delay:
00000111 e0fc                 BCR 0x3, 0x6
00000112 ff51                 MOVAR 0x2e
00000113 feba                 MOVR 0x45, 0x0
00000114 ff52                 MOVAR 0x2d
00000115 fd50                 CLRR 0x2f
00000116 fd4f                 CLRR 0x30
00000117                      main.o:_00499_DS_:
00000117 e0fc                 BCR 0x3, 0x6
00000118 fed1                 MOVR 0x2e, 0x0
00000119 fbcf                 SUBAR 0x30, 0x0
0000011a f6fc                 BTRSS 0x3, 0x2
0000011b c6e1                 LGOTO 0x11e; main.o:_00510_DS_=0x11e
0000011c fed2                 MOVR 0x2d, 0x0
0000011d fbd0                 SUBAR 0x2f, 0x0
0000011e                      main.o:_00510_DS_:
0000011e f3fc                 BTRSC 0x3, 0x0
0000011f c6d9                 LGOTO 0x126; main.o:_00501_DS_=0x126
00000120 e0fc                 BCR 0x3, 0x6
00000121 fa50                 INCR 0x2f, 0x1
00000122 f6fc                 BTRSS 0x3, 0x2
00000123 c6da                 LGOTO 0x125; main.o:_00001_DS_=0x125
00000124 fa4f                 INCR 0x30, 0x1
00000125                      main.o:_00001_DS_:
00000125 c6e8                 LGOTO 0x117; main.o:_00499_DS_=0x117
00000126                      main.o:_00501_DS_:
00000126 ffef                 RET
00000127                      _gotoSleep:
00000127 debf                 MOVIA 0x40
00000128 e0fc                 BCR 0x3, 0x6
00000129 ff49                 MOVAR 0x36
0000012a def9                 MOVIA 0x6
0000012b ff48                 MOVAR 0x37
0000012c defe                 MOVIA 0x1
0000012d ff2d                 MOVAR 0x52
0000012e e3fa                 BCR 0x5, 0x0
0000012f fd46                 CLRR 0x39
00000130 fd45                 CLRR 0x3a
00000131 fd31                 CLRR 0x4e
00000132 fd39                 CLRR 0x46
00000133 defd                 MOVIA 0x2
00000134 ff79                 MOVAR 0x6
00000135 fd7a                 CLRR 0x5
00000136 dedf                 MOVIA 0x20
00000137 ff6a                 MOVAR 0x15
00000138 defe                 MOVIA 0x1
00000139 ff76                 MOVAR 0x9
0000013a def4                 MOVIA 0xb
0000013b ff71                 MOVAR 0xe
0000013c dee7                 MOVIA 0x18
0000013d ff77                 MOVAR 0x8
0000013e fd70                 CLRR 0xf
0000013f fffd                 CLRWDT
00000140 fffb                 ENI
00000141 fffe                 SLEEP
00000142 fd6a                 CLRR 0x15
00000143 fd76                 CLRR 0x9
00000144 defe                 MOVIA 0x1
00000145 ff71                 MOVAR 0xe
00000146 fd70                 CLRR 0xf
00000147 de47                 MOVIA 0xb8
00000148 ff77                 MOVAR 0x8
00000149 ffef                 RET
0000014a                      _F_AIN2_Convert:
0000014a e0fc                 BCR 0x3, 0x6
0000014b ff56                 MOVAR 0x29
0000014c fd32                 CLRR 0x4d
0000014d fd36                 CLRR 0x49
0000014e fd35                 CLRR 0x4a
0000014f de6d                 MOVIA 0x92
00000150 ff6f                 MOVAR 0x10
00000151 de37                 MOVIA 0xc8
00000152 ff3a                 MOVAR 0x45
00000153 deff                 MOVIA 0x0
00000154 d6ee                 LCALL 0x111; _delay=0x111
00000155 defe                 MOVIA 0x1
00000156 e0fc                 BCR 0x3, 0x6
00000157 ff55                 MOVAR 0x2a
00000158                      main.o:_00481_DS_:
00000158 e0fc                 BCR 0x3, 0x6
00000159 fed5                 MOVR 0x2a, 0x0
0000015a fbd6                 SUBAR 0x29, 0x0
0000015b f7fc                 BTRSS 0x3, 0x0
0000015c c68d                 LGOTO 0x172; main.o:_00483_DS_=0x172
0000015d e4ef                 BSR 0x10, 0x6
0000015e d7fc                 LCALL 0x3; main.o:_00492_DS_=0x3
0000015f def0                 MOVIA 0xf
00000160 efee                 ANDAR 0x11, 0x0
00000161 e0fc                 BCR 0x3, 0x6
00000162 fc32                 ADDAR 0x4d, 0x1
00000163 feed                 MOVR 0x12, 0x0
00000164 ff54                 MOVAR 0x2b
00000165 deff                 MOVIA 0x0
00000166 ff53                 MOVAR 0x2c
00000167 fed4                 MOVR 0x2b, 0x0
00000168 fc36                 ADDAR 0x49, 0x1
00000169 fed3                 MOVR 0x2c, 0x0
0000016a f3fc                 BTRSC 0x3, 0x0
0000016b fad3                 INCR 0x2c, 0x0
0000016c f2fc                 BTRSC 0x3, 0x2
0000016d c690                 LGOTO 0x16f; main.o:_00002_DS_=0x16f
0000016e fc35                 ADDAR 0x4a, 0x1
0000016f                      main.o:_00002_DS_:
0000016f e0fc                 BCR 0x3, 0x6
00000170 fa55                 INCR 0x2a, 0x1
00000171 c6a7                 LGOTO 0x158; main.o:_00481_DS_=0x158
00000172                      main.o:_00483_DS_:
00000172 ffef                 RET
00000173                      _F_AIN1_Convert:
00000173 e0fc                 BCR 0x3, 0x6
00000174 ff5a                 MOVAR 0x25
00000175 fd33                 CLRR 0x4c
00000176 fd38                 CLRR 0x47
00000177 fd37                 CLRR 0x48
00000178 de6e                 MOVIA 0x91
00000179 ff6f                 MOVAR 0x10
0000017a de37                 MOVIA 0xc8
0000017b ff3a                 MOVAR 0x45
0000017c deff                 MOVIA 0x0
0000017d d6ee                 LCALL 0x111; _delay=0x111
0000017e defe                 MOVIA 0x1
0000017f e0fc                 BCR 0x3, 0x6
00000180 ff59                 MOVAR 0x26
00000181                      main.o:_00472_DS_:
00000181 e0fc                 BCR 0x3, 0x6
00000182 fed9                 MOVR 0x26, 0x0
00000183 fbda                 SUBAR 0x25, 0x0
00000184 f7fc                 BTRSS 0x3, 0x0
00000185 c664                 LGOTO 0x19b; main.o:_00474_DS_=0x19b
00000186 e4ef                 BSR 0x10, 0x6
00000187 d7fc                 LCALL 0x3; main.o:_00492_DS_=0x3
00000188 def0                 MOVIA 0xf
00000189 efee                 ANDAR 0x11, 0x0
0000018a e0fc                 BCR 0x3, 0x6
0000018b fc33                 ADDAR 0x4c, 0x1
0000018c feed                 MOVR 0x12, 0x0
0000018d ff58                 MOVAR 0x27
0000018e deff                 MOVIA 0x0
0000018f ff57                 MOVAR 0x28
00000190 fed8                 MOVR 0x27, 0x0
00000191 fc38                 ADDAR 0x47, 0x1
00000192 fed7                 MOVR 0x28, 0x0
00000193 f3fc                 BTRSC 0x3, 0x0
00000194 fad7                 INCR 0x28, 0x0
00000195 f2fc                 BTRSC 0x3, 0x2
00000196 c667                 LGOTO 0x198; main.o:_00003_DS_=0x198
00000197 fc37                 ADDAR 0x48, 0x1
00000198                      main.o:_00003_DS_:
00000198 e0fc                 BCR 0x3, 0x6
00000199 fa59                 INCR 0x26, 0x1
0000019a c67e                 LGOTO 0x181; main.o:_00472_DS_=0x181
0000019b                      main.o:_00474_DS_:
0000019b ffef                 RET
0000019c                      _checkBat:
0000019c e0fc                 BCR 0x3, 0x6
0000019d fd32                 CLRR 0x4d
0000019e fd36                 CLRR 0x49
0000019f fd35                 CLRR 0x4a
000001a0 def7                 MOVIA 0x8
000001a1 d6b5                 LCALL 0x14a; _F_AIN2_Convert=0x14a
000001a2 e0fc                 BCR 0x3, 0x6
000001a3 eab5                 SWAPR 0x4a, 0x0
000001a4 dd0f                 ANDIA 0xf0
000001a5 ff35                 MOVAR 0x4a
000001a6 eab6                 SWAPR 0x49, 0x0
000001a7 ff36                 MOVAR 0x49
000001a8 ddf0                 ANDIA 0xf
000001a9 ee35                 IORAR 0x4a, 0x1
000001aa ed36                 XORAR 0x49, 0x1
000001ab de0f                 MOVIA 0xf0
000001ac ef32                 ANDAR 0x4d, 0x1
000001ad feb2                 MOVR 0x4d, 0x0
000001ae ff5c                 MOVAR 0x23
000001af deff                 MOVIA 0x0
000001b0 ff5b                 MOVAR 0x24
000001b1 fedc                 MOVR 0x23, 0x0
000001b2 fc36                 ADDAR 0x49, 0x1
000001b3 fedb                 MOVR 0x24, 0x0
000001b4 f3fc                 BTRSC 0x3, 0x0
000001b5 fadb                 INCR 0x24, 0x0
000001b6 f2fc                 BTRSC 0x3, 0x2
000001b7 c646                 LGOTO 0x1b9; main.o:_00004_DS_=0x1b9
000001b8 fc35                 ADDAR 0x4a, 0x1
000001b9                      main.o:_00004_DS_:
000001b9 e3fc                 BCR 0x3, 0x0
000001ba e0fc                 BCR 0x3, 0x6
000001bb ec35                 RRR 0x4a, 0x1
000001bc ec36                 RRR 0x49, 0x1
000001bd e3fc                 BCR 0x3, 0x0
000001be ec35                 RRR 0x4a, 0x1
000001bf ec36                 RRR 0x49, 0x1
000001c0 e3fc                 BCR 0x3, 0x0
000001c1 ec35                 RRR 0x4a, 0x1
000001c2 ec36                 RRR 0x49, 0x1
000001c3 feca                 MOVR 0x35, 0x0
000001c4 f2fc                 BTRSC 0x3, 0x2
000001c5 c635                 LGOTO 0x1ca; main.o:_00379_DS_=0x1ca
000001c6 fec9                 MOVR 0x36, 0x0
000001c7 ff36                 MOVAR 0x49
000001c8 fec8                 MOVR 0x37, 0x0
000001c9 ff35                 MOVAR 0x4a
000001ca                      main.o:_00379_DS_:
000001ca def6                 MOVIA 0x9
000001cb e0fc                 BCR 0x3, 0x6
000001cc fbb5                 SUBAR 0x4a, 0x0
000001cd f6fc                 BTRSS 0x3, 0x2
000001ce c62e                 LGOTO 0x1d1; main.o:_00457_DS_=0x1d1
000001cf dedd                 MOVIA 0x22
000001d0 fbb6                 SUBAR 0x49, 0x0
000001d1                      main.o:_00457_DS_:
000001d1 f3fc                 BTRSC 0x3, 0x0
000001d2 c613                 LGOTO 0x1ec; main.o:_00411_DS_=0x1ec
000001d3 e0fc                 BCR 0x3, 0x6
000001d4 fec7                 MOVR 0x38, 0x0
000001d5 dbfe                 XORIA 0x1
000001d6 f6fc                 BTRSS 0x3, 0x2
000001d7 c61c                 LGOTO 0x1e3; main.o:_00383_DS_=0x1e3
000001d8 def6                 MOVIA 0x9
000001d9 fbb5                 SUBAR 0x4a, 0x0
000001da f6fc                 BTRSS 0x3, 0x2
000001db c621                 LGOTO 0x1de; main.o:_00458_DS_=0x1de
000001dc dee5                 MOVIA 0x1a
000001dd fbb6                 SUBAR 0x49, 0x0
000001de                      main.o:_00458_DS_:
000001de f3fc                 BTRSC 0x3, 0x0
000001df c61a                 LGOTO 0x1e5; main.o:_00384_DS_=0x1e5
000001e0 e0fc                 BCR 0x3, 0x6
000001e1 fd47                 CLRR 0x38
000001e2 c61a                 LGOTO 0x1e5; main.o:_00384_DS_=0x1e5
000001e3                      main.o:_00383_DS_:
000001e3 e0fc                 BCR 0x3, 0x6
000001e4 fd47                 CLRR 0x38
000001e5                      main.o:_00384_DS_:
000001e5 e0fc                 BCR 0x3, 0x6
000001e6 fec3                 MOVR 0x3c, 0x0
000001e7 f6fc                 BTRSS 0x3, 0x2
000001e8 c5bb                 LGOTO 0x244; main.o:_00413_DS_=0x244
000001e9 defc                 MOVIA 0x3
000001ea ff43                 MOVAR 0x3c
000001eb c5bb                 LGOTO 0x244; main.o:_00413_DS_=0x244
000001ec                      main.o:_00411_DS_:
000001ec def5                 MOVIA 0xa
000001ed e0fc                 BCR 0x3, 0x6
000001ee fbb5                 SUBAR 0x4a, 0x0
000001ef f6fc                 BTRSS 0x3, 0x2
000001f0 c60c                 LGOTO 0x1f3; main.o:_00459_DS_=0x1f3
000001f1 ded0                 MOVIA 0x2f
000001f2 fbb6                 SUBAR 0x49, 0x0
000001f3                      main.o:_00459_DS_:
000001f3 f3fc                 BTRSC 0x3, 0x0
000001f4 c601                 LGOTO 0x1fe; main.o:_00408_DS_=0x1fe
000001f5 e0fc                 BCR 0x3, 0x6
000001f6 fd31                 CLRR 0x4e
000001f7 fec3                 MOVR 0x3c, 0x0
000001f8 f6fc                 BTRSS 0x3, 0x2
000001f9 c5bb                 LGOTO 0x244; main.o:_00413_DS_=0x244
000001fa defe                 MOVIA 0x1
000001fb ff47                 MOVAR 0x38
000001fc fd30                 CLRR 0x4f
000001fd c5bb                 LGOTO 0x244; main.o:_00413_DS_=0x244
000001fe                      main.o:_00408_DS_:
000001fe def3                 MOVIA 0xc
000001ff e0fc                 BCR 0x3, 0x6
00000200 fbb5                 SUBAR 0x4a, 0x0
00000201 f6fc                 BTRSS 0x3, 0x2
00000202 c5fa                 LGOTO 0x205; main.o:_00460_DS_=0x205
00000203 def7                 MOVIA 0x8
00000204 fbb6                 SUBAR 0x49, 0x0
00000205                      main.o:_00460_DS_:
00000205 f3fc                 BTRSC 0x3, 0x0
00000206 c5d1                 LGOTO 0x22e; main.o:_00405_DS_=0x22e
00000207 e0fc                 BCR 0x3, 0x6
00000208 fd31                 CLRR 0x4e
00000209 defc                 MOVIA 0x3
0000020a fbc7                 SUBAR 0x38, 0x0
0000020b f7fc                 BTRSS 0x3, 0x0
0000020c c5e6                 LGOTO 0x219; main.o:_00397_DS_=0x219
0000020d def4                 MOVIA 0xb
0000020e fbb5                 SUBAR 0x4a, 0x0
0000020f f6fc                 BTRSS 0x3, 0x2
00000210 c5ec                 LGOTO 0x213; main.o:_00462_DS_=0x213
00000211 de01                 MOVIA 0xfe
00000212 fbb6                 SUBAR 0x49, 0x0
00000213                      main.o:_00462_DS_:
00000213 f3fc                 BTRSC 0x3, 0x0
00000214 c5bb                 LGOTO 0x244; main.o:_00413_DS_=0x244
00000215 defd                 MOVIA 0x2
00000216 e0fc                 BCR 0x3, 0x6
00000217 ff47                 MOVAR 0x38
00000218 c5bb                 LGOTO 0x244; main.o:_00413_DS_=0x244
00000219                      main.o:_00397_DS_:
00000219 e0fc                 BCR 0x3, 0x6
0000021a fec7                 MOVR 0x38, 0x0
0000021b dbfe                 XORIA 0x1
0000021c f6fc                 BTRSS 0x3, 0x2
0000021d c5d5                 LGOTO 0x22a; main.o:_00394_DS_=0x22a
0000021e def5                 MOVIA 0xa
0000021f fbb5                 SUBAR 0x4a, 0x0
00000220 f6fc                 BTRSS 0x3, 0x2
00000221 c5db                 LGOTO 0x224; main.o:_00463_DS_=0x224
00000222 deb8                 MOVIA 0x47
00000223 fbb6                 SUBAR 0x49, 0x0
00000224                      main.o:_00463_DS_:
00000224 f7fc                 BTRSS 0x3, 0x0
00000225 c5bb                 LGOTO 0x244; main.o:_00413_DS_=0x244
00000226 defd                 MOVIA 0x2
00000227 e0fc                 BCR 0x3, 0x6
00000228 ff47                 MOVAR 0x38
00000229 c5bb                 LGOTO 0x244; main.o:_00413_DS_=0x244
0000022a                      main.o:_00394_DS_:
0000022a defd                 MOVIA 0x2
0000022b e0fc                 BCR 0x3, 0x6
0000022c ff47                 MOVAR 0x38
0000022d c5bb                 LGOTO 0x244; main.o:_00413_DS_=0x244
0000022e                      main.o:_00405_DS_:
0000022e e0fc                 BCR 0x3, 0x6
0000022f fd30                 CLRR 0x4f
00000230 fd31                 CLRR 0x4e
00000231 def3                 MOVIA 0xc
00000232 fbb5                 SUBAR 0x4a, 0x0
00000233 f6fc                 BTRSS 0x3, 0x2
00000234 c5c8                 LGOTO 0x237; main.o:_00464_DS_=0x237
00000235 deee                 MOVIA 0x11
00000236 fbb6                 SUBAR 0x49, 0x0
00000237                      main.o:_00464_DS_:
00000237 f7fc                 BTRSS 0x3, 0x0
00000238 c5c2                 LGOTO 0x23d; main.o:_00402_DS_=0x23d
00000239 defb                 MOVIA 0x4
0000023a e0fc                 BCR 0x3, 0x6
0000023b ff47                 MOVAR 0x38
0000023c c5bb                 LGOTO 0x244; main.o:_00413_DS_=0x244
0000023d                      main.o:_00402_DS_:
0000023d e0fc                 BCR 0x3, 0x6
0000023e fec5                 MOVR 0x3a, 0x0
0000023f dbfe                 XORIA 0x1
00000240 f2fc                 BTRSC 0x3, 0x2
00000241 c5bb                 LGOTO 0x244; main.o:_00413_DS_=0x244
00000242 defc                 MOVIA 0x3
00000243 ff47                 MOVAR 0x38
00000244                      main.o:_00413_DS_:
00000244 ffef                 RET
00000245                      _checkInV:
00000245 e0fc                 BCR 0x3, 0x6
00000246 fd33                 CLRR 0x4c
00000247 fd38                 CLRR 0x47
00000248 fd37                 CLRR 0x48
00000249 def7                 MOVIA 0x8
0000024a d68c                 LCALL 0x173; _F_AIN1_Convert=0x173
0000024b e0fc                 BCR 0x3, 0x6
0000024c eab7                 SWAPR 0x48, 0x0
0000024d dd0f                 ANDIA 0xf0
0000024e ff37                 MOVAR 0x48
0000024f eab8                 SWAPR 0x47, 0x0
00000250 ff38                 MOVAR 0x47
00000251 ddf0                 ANDIA 0xf
00000252 ee37                 IORAR 0x48, 0x1
00000253 ed38                 XORAR 0x47, 0x1
00000254 de0f                 MOVIA 0xf0
00000255 ef33                 ANDAR 0x4c, 0x1
00000256 feb3                 MOVR 0x4c, 0x0
00000257 ff5e                 MOVAR 0x21
00000258 deff                 MOVIA 0x0
00000259 ff5d                 MOVAR 0x22
0000025a fede                 MOVR 0x21, 0x0
0000025b fc38                 ADDAR 0x47, 0x1
0000025c fedd                 MOVR 0x22, 0x0
0000025d f3fc                 BTRSC 0x3, 0x0
0000025e fadd                 INCR 0x22, 0x0
0000025f f2fc                 BTRSC 0x3, 0x2
00000260 c59d                 LGOTO 0x262; main.o:_00005_DS_=0x262
00000261 fc37                 ADDAR 0x48, 0x1
00000262                      main.o:_00005_DS_:
00000262 e3fc                 BCR 0x3, 0x0
00000263 e0fc                 BCR 0x3, 0x6
00000264 ec37                 RRR 0x48, 0x1
00000265 ec38                 RRR 0x47, 0x1
00000266 e3fc                 BCR 0x3, 0x0
00000267 ec37                 RRR 0x48, 0x1
00000268 ec38                 RRR 0x47, 0x1
00000269 e3fc                 BCR 0x3, 0x0
0000026a ec37                 RRR 0x48, 0x1
0000026b ec38                 RRR 0x47, 0x1
0000026c feca                 MOVR 0x35, 0x0
0000026d f2fc                 BTRSC 0x3, 0x2
0000026e c58c                 LGOTO 0x273; main.o:_00343_DS_=0x273
0000026f deef                 MOVIA 0x10
00000270 ff38                 MOVAR 0x47
00000271 def1                 MOVIA 0xe
00000272 ff37                 MOVAR 0x48
00000273                      main.o:_00343_DS_:
00000273 e0fc                 BCR 0x3, 0x6
00000274 fd2d                 CLRR 0x52
00000275 def3                 MOVIA 0xc
00000276 fbb7                 SUBAR 0x48, 0x0
00000277 f6fc                 BTRSS 0x3, 0x2
00000278 c584                 LGOTO 0x27b; main.o:_00371_DS_=0x27b
00000279 de43                 MOVIA 0xbc
0000027a fbb8                 SUBAR 0x47, 0x0
0000027b                      main.o:_00371_DS_:
0000027b f3fc                 BTRSC 0x3, 0x0
0000027c c570                 LGOTO 0x28f; main.o:_00350_DS_=0x28f
0000027d deff                 MOVIA 0x0
0000027e e0fc                 BCR 0x3, 0x6
0000027f fbb7                 SUBAR 0x48, 0x0
00000280 f6fc                 BTRSS 0x3, 0x2
00000281 c57b                 LGOTO 0x284; main.o:_00372_DS_=0x284
00000282 de36                 MOVIA 0xc9
00000283 fbb8                 SUBAR 0x47, 0x0
00000284                      main.o:_00372_DS_:
00000284 f7fc                 BTRSS 0x3, 0x0
00000285 c574                 LGOTO 0x28b; main.o:_00345_DS_=0x28b
00000286 e0fc                 BCR 0x3, 0x6
00000287 fa34                 INCR 0x4b, 0x1
00000288 defd                 MOVIA 0x2
00000289 ff45                 MOVAR 0x3a
0000028a c563                 LGOTO 0x29c; main.o:_00351_DS_=0x29c
0000028b                      main.o:_00345_DS_:
0000028b e0fc                 BCR 0x3, 0x6
0000028c fd34                 CLRR 0x4b
0000028d fd45                 CLRR 0x3a
0000028e c563                 LGOTO 0x29c; main.o:_00351_DS_=0x29c
0000028f                      main.o:_00350_DS_:
0000028f e0fc                 BCR 0x3, 0x6
00000290 fd34                 CLRR 0x4b
00000291 def3                 MOVIA 0xc
00000292 fbb7                 SUBAR 0x48, 0x0
00000293 f6fc                 BTRSS 0x3, 0x2
00000294 c568                 LGOTO 0x297; main.o:_00373_DS_=0x297
00000295 de2e                 MOVIA 0xd1
00000296 fbb8                 SUBAR 0x47, 0x0
00000297                      main.o:_00373_DS_:
00000297 f7fc                 BTRSS 0x3, 0x0
00000298 c563                 LGOTO 0x29c; main.o:_00351_DS_=0x29c
00000299 defe                 MOVIA 0x1
0000029a e0fc                 BCR 0x3, 0x6
0000029b ff45                 MOVAR 0x3a
0000029c                      main.o:_00351_DS_:
0000029c de9b                 MOVIA 0x64
0000029d e0fc                 BCR 0x3, 0x6
0000029e fbb4                 SUBAR 0x4b, 0x0
0000029f f7fc                 BTRSS 0x3, 0x0
000002a0 c558                 LGOTO 0x2a7; main.o:_00354_DS_=0x2a7
000002a1 de9b                 MOVIA 0x64
000002a2 ff34                 MOVAR 0x4b
000002a3 fd45                 CLRR 0x3a
000002a4 fd46                 CLRR 0x39
000002a5 d71c                 LCALL 0xe3; _closeStatus=0xe3
000002a6 d6d8                 LCALL 0x127; _gotoSleep=0x127
000002a7                      main.o:_00354_DS_:
000002a7 ffef                 RET
000002a8                      _keyCtr:
000002a8 e0fc                 BCR 0x3, 0x6
000002a9 fec5                 MOVR 0x3a, 0x0
000002aa f6fc                 BTRSS 0x3, 0x2
000002ab c539                 LGOTO 0x2c6; main.o:_00337_DS_=0x2c6
000002ac f8f9                 COMR 0x6, 0x0
000002ad ff5f                 MOVAR 0x20
000002ae defe                 MOVIA 0x1
000002af ef5f                 ANDAR 0x20, 0x1
000002b0 fedf                 MOVR 0x20, 0x0
000002b1 d716                 LCALL 0xe9; _keyRead=0xe9
000002b2 e0fc                 BCR 0x3, 0x6
000002b3 ff5f                 MOVAR 0x20
000002b4 dbfd                 XORIA 0x2
000002b5 f6fc                 BTRSS 0x3, 0x2
000002b6 c539                 LGOTO 0x2c6; main.o:_00337_DS_=0x2c6
000002b7 fec6                 MOVR 0x39, 0x0
000002b8 f6fc                 BTRSS 0x3, 0x2
000002b9 c53d                 LGOTO 0x2c2; main.o:_00331_DS_=0x2c2
000002ba defe                 MOVIA 0x1
000002bb ff46                 MOVAR 0x39
000002bc fec7                 MOVR 0x38, 0x0
000002bd f6fc                 BTRSS 0x3, 0x2
000002be c539                 LGOTO 0x2c6; main.o:_00337_DS_=0x2c6
000002bf defc                 MOVIA 0x3
000002c0 ff43                 MOVAR 0x3c
000002c1 c539                 LGOTO 0x2c6; main.o:_00337_DS_=0x2c6
000002c2                      main.o:_00331_DS_:
000002c2 e0fc                 BCR 0x3, 0x6
000002c3 fd46                 CLRR 0x39
000002c4 d71c                 LCALL 0xe3; _closeStatus=0xe3
000002c5 d6d8                 LCALL 0x127; _gotoSleep=0x127
000002c6                      main.o:_00337_DS_:
000002c6 ffef                 RET
000002c7                      _initAD:
000002c7 de74                 MOVIA 0x8b
000002c8 ff6f                 MOVAR 0x10
000002c9 fd6c                 CLRR 0x13
000002ca deef                 MOVIA 0x10
000002cb ff6e                 MOVAR 0x11
000002cc defc                 MOVIA 0x3
000002cd ff6b                 MOVAR 0x14
000002ce e5ef                 BSR 0x10, 0x4
000002cf de9b                 MOVIA 0x64
000002d0 ff3a                 MOVAR 0x45
000002d1 deff                 MOVIA 0x0
000002d2 d6ee                 LCALL 0x111; _delay=0x111
000002d3 ffef                 RET
000002d4                      _chrgCtr:
000002d4 e0fc                 BCR 0x3, 0x6
000002d5 fec5                 MOVR 0x3a, 0x0
000002d6 dbfe                 XORIA 0x1
000002d7 f6fc                 BTRSS 0x3, 0x2
000002d8 c51e                 LGOTO 0x2e1; main.o:_00317_DS_=0x2e1
000002d9 defb                 MOVIA 0x4
000002da fbc7                 SUBAR 0x38, 0x0
000002db f3fc                 BTRSC 0x3, 0x0
000002dc c520                 LGOTO 0x2df; main.o:_00314_DS_=0x2df
000002dd e4fa                 BSR 0x5, 0x6
000002de c51d                 LGOTO 0x2e2; main.o:_00319_DS_=0x2e2
000002df                      main.o:_00314_DS_:
000002df e0fa                 BCR 0x5, 0x6
000002e0 c51d                 LGOTO 0x2e2; main.o:_00319_DS_=0x2e2
000002e1                      main.o:_00317_DS_:
000002e1 e0fa                 BCR 0x5, 0x6
000002e2                      main.o:_00319_DS_:
000002e2 ffef                 RET
000002e3                      _workCtr:
000002e3 e0fc                 BCR 0x3, 0x6
000002e4 fec6                 MOVR 0x39, 0x0
000002e5 dbfe                 XORIA 0x1
000002e6 f6fc                 BTRSS 0x3, 0x2
000002e7 c4d3                 LGOTO 0x32c; main.o:_00267_DS_=0x32c
000002e8 fec5                 MOVR 0x3a, 0x0
000002e9 f2fc                 BTRSC 0x3, 0x2
000002ea c510                 LGOTO 0x2ef; main.o:_00262_DS_=0x2ef
000002eb fec5                 MOVR 0x3a, 0x0
000002ec dbfd                 XORIA 0x2
000002ed f6fc                 BTRSS 0x3, 0x2
000002ee c4ef                 LGOTO 0x310; main.o:_00263_DS_=0x310
000002ef                      main.o:_00262_DS_:
000002ef e0fc                 BCR 0x3, 0x6
000002f0 fec7                 MOVR 0x38, 0x0
000002f1 dbfe                 XORIA 0x1
000002f2 f6fc                 BTRSS 0x3, 0x2
000002f3 c509                 LGOTO 0x2f6; main.o:_00254_DS_=0x2f6
000002f4 e379                 BCR 0x6, 0x1
000002f5 c4ce                 LGOTO 0x331; main.o:_00269_DS_=0x331
000002f6                      main.o:_00254_DS_:
000002f6 e0fc                 BCR 0x3, 0x6
000002f7 fec7                 MOVR 0x38, 0x0
000002f8 f6fc                 BTRSS 0x3, 0x2
000002f9 c4ce                 LGOTO 0x331; main.o:_00269_DS_=0x331
000002fa fec3                 MOVR 0x3c, 0x0
000002fb f2fc                 BTRSC 0x3, 0x2
000002fc c4ce                 LGOTO 0x331; main.o:_00269_DS_=0x331
000002fd decd                 MOVIA 0x32
000002fe fbc4                 SUBAR 0x3b, 0x0
000002ff f3fc                 BTRSC 0x3, 0x0
00000300 c4fc                 LGOTO 0x303; main.o:_00243_DS_=0x303
00000301 e779                 BSR 0x6, 0x1
00000302 c4fb                 LGOTO 0x304; main.o:_00244_DS_=0x304
00000303                      main.o:_00243_DS_:
00000303 e379                 BCR 0x6, 0x1
00000304                      main.o:_00244_DS_:
00000304 e0fc                 BCR 0x3, 0x6
00000305 fa44                 INCR 0x3b, 0x1
00000306 de9b                 MOVIA 0x64
00000307 fbc4                 SUBAR 0x3b, 0x0
00000308 f7fc                 BTRSS 0x3, 0x0
00000309 c4ce                 LGOTO 0x331; main.o:_00269_DS_=0x331
0000030a fd44                 CLRR 0x3b
0000030b e843                 DECRSZ 0x3c, 0x1
0000030c c4ce                 LGOTO 0x331; main.o:_00269_DS_=0x331
0000030d e779                 BSR 0x6, 0x1
0000030e d6d8                 LCALL 0x127; _gotoSleep=0x127
0000030f c4ce                 LGOTO 0x331; main.o:_00269_DS_=0x331
00000310                      main.o:_00263_DS_:
00000310 e07a                 BCR 0x5, 0x7
00000311 deff                 MOVIA 0x0
00000312 e0fc                 BCR 0x3, 0x6
00000313 fbb5                 SUBAR 0x4a, 0x0
00000314 f6fc                 BTRSS 0x3, 0x2
00000315 c4e7                 LGOTO 0x318; main.o:_00306_DS_=0x318
00000316 def4                 MOVIA 0xb
00000317 fbb6                 SUBAR 0x49, 0x0
00000318                      main.o:_00306_DS_:
00000318 f7fc                 BTRSS 0x3, 0x0
00000319 c4e4                 LGOTO 0x31b; main.o:_00257_DS_=0x31b
0000031a e4fa                 BSR 0x5, 0x6
0000031b                      main.o:_00257_DS_:
0000031b defb                 MOVIA 0x4
0000031c e0fc                 BCR 0x3, 0x6
0000031d fbc7                 SUBAR 0x38, 0x0
0000031e f3fc                 BTRSC 0x3, 0x0
0000031f c4d5                 LGOTO 0x32a; main.o:_00259_DS_=0x32a
00000320 deff                 MOVIA 0x0
00000321 fbb5                 SUBAR 0x4a, 0x0
00000322 f6fc                 BTRSS 0x3, 0x2
00000323 c4d9                 LGOTO 0x326; main.o:_00308_DS_=0x326
00000324 de36                 MOVIA 0xc9
00000325 fbb6                 SUBAR 0x49, 0x0
00000326                      main.o:_00308_DS_:
00000326 f7fc                 BTRSS 0x3, 0x0
00000327 c4d5                 LGOTO 0x32a; main.o:_00259_DS_=0x32a
00000328 e679                 BSR 0x6, 0x3
00000329 c4ce                 LGOTO 0x331; main.o:_00269_DS_=0x331
0000032a                      main.o:_00259_DS_:
0000032a e279                 BCR 0x6, 0x3
0000032b c4ce                 LGOTO 0x331; main.o:_00269_DS_=0x331
0000032c                      main.o:_00267_DS_:
0000032c e779                 BSR 0x6, 0x1
0000032d e279                 BCR 0x6, 0x3
0000032e e0fa                 BCR 0x5, 0x6
0000032f e07a                 BCR 0x5, 0x7
00000330 e3fa                 BCR 0x5, 0x0
00000331                      main.o:_00269_DS_:
00000331 ffef                 RET
00000332                      ___cinit_load__:
