00000000 c7fe                 LGOTO 0x1; __nyc_ny8_startup=0x1
00000001                      __nyc_ny8_startup:
00000001 d492                 LCALL 0x36d; ___cinit_load__=0x36d
00000002 c7c7                 LGOTO 0x38; _main=0x38
00000003                      main.o:_00534_DS_:
00000003 f56f                 BTRSS 0x10, 0x5
00000004 c7fc                 LGOTO 0x3; main.o:_00534_DS_=0x3
00000005 ffef                 RET
00000008 c7f6                 LGOTO 0x9; main.o:__sdcc_interrupt=0x9
00000009                      main.o:__sdcc_interrupt:
00000009 ff3d                 MOVAR 0x42
0000000a eafc                 SWAPR 0x3, 0x0
0000000b fd7c                 CLRR 0x3
0000000c ff3e                 MOVAR 0x41
0000000d fef5                 MOVR 0xa, 0x0
0000000e fd75                 CLRR 0xa
0000000f ff3f                 MOVAR 0x40
00000010 fefb                 MOVR 0x4, 0x0
00000011 e0fc                 BCR 0x3, 0x6
00000012 ff4d                 MOVAR 0x32
00000013 feba                 MOVR 0x45, 0x0
00000014 ff4c                 MOVAR 0x33
00000015 febb                 MOVR 0x44, 0x0
00000016 ff4b                 MOVAR 0x34
00000017 f7f0                 BTRSS 0xf, 0x0
00000018 c7db                 LGOTO 0x24; main.o:_00108_DS_=0x24
00000019 dec8                 MOVIA 0x37
0000001a fc7e                 ADDAR 0x1, 0x1
0000001b fa42                 INCR 0x3d, 0x1
0000001c fa42                 INCR 0x3d, 0x1
0000001d de9b                 MOVIA 0x64
0000001e fbc2                 SUBAR 0x3d, 0x0
0000001f f7fc                 BTRSS 0x3, 0x0
00000020 c7db                 LGOTO 0x24; main.o:_00108_DS_=0x24
00000021 fd42                 CLRR 0x3d
00000022 defe                 MOVIA 0x1
00000023 ff41                 MOVAR 0x3e
00000024                      main.o:_00108_DS_:
00000024 f770                 BTRSS 0xf, 0x1
00000025 c7d7                 LGOTO 0x28; main.o:_00110_DS_=0x28
00000026 de02                 MOVIA 0xfd
00000027 ff70                 MOVAR 0xf
00000028                      main.o:_00110_DS_:
00000028 fd70                 CLRR 0xf
00000029 e0fc                 BCR 0x3, 0x6
0000002a fecb                 MOVR 0x34, 0x0
0000002b ff3b                 MOVAR 0x44
0000002c fecc                 MOVR 0x33, 0x0
0000002d ff3a                 MOVAR 0x45
0000002e fecd                 MOVR 0x32, 0x0
0000002f ff7b                 MOVAR 0x4
00000030 febf                 MOVR 0x40, 0x0
00000031 ff75                 MOVAR 0xa
00000032 fd7c                 CLRR 0x3
00000033 eabe                 SWAPR 0x41, 0x0
00000034 ff7c                 MOVAR 0x3
00000035 ea3d                 SWAPR 0x42, 0x1
00000036 eabd                 SWAPR 0x42, 0x0
00000037                      main.o:END_OF_INTERRUPT:
00000037 ffee                 RETIE
00000038                      _main:
00000038 ffec                 DISI
00000039 ded9                 MOVIA 0x26
0000003a fffa                 IOST 0x5
0000003b                      ___cinit_size__:
0000003b defe                 MOVIA 0x1
0000003c fff9                 IOST 0x6
0000003d defd                 MOVIA 0x2
0000003e ff79                 MOVAR 0x6
0000003f fd7a                 CLRR 0x5
00000040 de00                 MOVIA 0xff
00000041 fff6                 IOST 0x9
00000042 de01                 MOVIA 0xfe
00000043 ff73                 MOVAR 0xc
00000044 de00                 MOVIA 0xff
00000045 ff74                 MOVAR 0xb
00000046 defe                 MOVIA 0x1
00000047 ff71                 MOVAR 0xe
00000048 fdff                 CLRA
00000049 fff0                 IOST 0xf
0000004a dec8                 MOVIA 0x37
0000004b ff7e                 MOVAR 0x1
0000004c fdff                 CLRA
0000004d fffc                 T0MD
0000004e defe                 MOVIA 0x1
0000004f fff0                 IOST 0xf
00000050 de67                 MOVIA 0x98
00000051 ff77                 MOVAR 0x8
00000052 defe                 MOVIA 0x1
00000053 fff0                 IOST 0xf
00000054 fffb                 ENI
00000055 d6f6                 LCALL 0x109; _closeStatus=0x109
00000056 d4fd                 LCALL 0x302; _initAD=0x302
00000057 f17a                 BTRSC 0x5, 0x5
00000058 c7a5                 LGOTO 0x5a; main.o:_00171_DS_=0x5a
00000059 d6b2                 LCALL 0x14d; _gotoSleep=0x14d
0000005a                      main.o:_00171_DS_:
0000005a fffd                 CLRWDT
0000005b f57a                 BTRSS 0x5, 0x5
0000005c c778                 LGOTO 0x87; main.o:_00135_DS_=0x87
0000005d e0fc                 BCR 0x3, 0x6
0000005e fec5                 MOVR 0x3a, 0x0
0000005f dbfe                 XORIA 0x1
00000060 f6fc                 BTRSS 0x3, 0x2
00000061 c787                 LGOTO 0x78; main.o:_00127_DS_=0x78
00000062 fd39                 CLRR 0x46
00000063 e779                 BSR 0x6, 0x1
00000064 e4fa                 BSR 0x5, 0x6
00000065 defe                 MOVIA 0x1
00000066 ff46                 MOVAR 0x39
00000067 e7fa                 BSR 0x5, 0x0
00000068 defb                 MOVIA 0x4
00000069 fbc7                 SUBAR 0x38, 0x0
0000006a f3fc                 BTRSC 0x3, 0x0
0000006b c789                 LGOTO 0x76; main.o:_00118_DS_=0x76
0000006c deff                 MOVIA 0x0
0000006d fbb5                 SUBAR 0x4a, 0x0
0000006e f6fc                 BTRSS 0x3, 0x2
0000006f c78d                 LGOTO 0x72; main.o:_00260_DS_=0x72
00000070 de36                 MOVIA 0xc9
00000071 fbb6                 SUBAR 0x49, 0x0
00000072                      main.o:_00260_DS_:
00000072 f7fc                 BTRSS 0x3, 0x0
00000073 c789                 LGOTO 0x76; main.o:_00118_DS_=0x76
00000074 e679                 BSR 0x6, 0x3
00000075 c767                 LGOTO 0x98; main.o:_00136_DS_=0x98
00000076                      main.o:_00118_DS_:
00000076 e279                 BCR 0x6, 0x3
00000077 c767                 LGOTO 0x98; main.o:_00136_DS_=0x98
00000078                      main.o:_00127_DS_:
00000078 e279                 BCR 0x6, 0x3
00000079 e0fa                 BCR 0x5, 0x6
0000007a e0fc                 BCR 0x3, 0x6
0000007b fec6                 MOVR 0x39, 0x0
0000007c f2fc                 BTRSC 0x3, 0x2
0000007d c767                 LGOTO 0x98; main.o:_00136_DS_=0x98
0000007e fec7                 MOVR 0x38, 0x0
0000007f f2fc                 BTRSC 0x3, 0x2
00000080 c77b                 LGOTO 0x84; main.o:_00122_DS_=0x84
00000081 e47a                 BSR 0x5, 0x7
00000082 e7fa                 BSR 0x5, 0x0
00000083 c767                 LGOTO 0x98; main.o:_00136_DS_=0x98
00000084                      main.o:_00122_DS_:
00000084 e07a                 BCR 0x5, 0x7
00000085 e3fa                 BCR 0x5, 0x0
00000086 c767                 LGOTO 0x98; main.o:_00136_DS_=0x98
00000087                      main.o:_00135_DS_:
00000087 e0fc                 BCR 0x3, 0x6
00000088 fd45                 CLRR 0x3a
00000089 defe                 MOVIA 0x1
0000008a ff2d                 MOVAR 0x52
0000008b e279                 BCR 0x6, 0x3
0000008c e0fa                 BCR 0x5, 0x6
0000008d fec6                 MOVR 0x39, 0x0
0000008e f2fc                 BTRSC 0x3, 0x2
0000008f c767                 LGOTO 0x98; main.o:_00136_DS_=0x98
00000090 fec7                 MOVR 0x38, 0x0
00000091 f2fc                 BTRSC 0x3, 0x2
00000092 c769                 LGOTO 0x96; main.o:_00130_DS_=0x96
00000093 e47a                 BSR 0x5, 0x7
00000094 e7fa                 BSR 0x5, 0x0
00000095 c767                 LGOTO 0x98; main.o:_00136_DS_=0x98
00000096                      main.o:_00130_DS_:
00000096 e07a                 BCR 0x5, 0x7
00000097 e3fa                 BCR 0x5, 0x0
00000098                      main.o:_00136_DS_:
00000098 e0fc                 BCR 0x3, 0x6
00000099 fec1                 MOVR 0x3e, 0x0
0000009a f2fc                 BTRSC 0x3, 0x2
0000009b c7a5                 LGOTO 0x5a; main.o:_00171_DS_=0x5a
0000009c fd41                 CLRR 0x3e
0000009d fa2a                 INCR 0x55, 0x1
0000009e de9b                 MOVIA 0x64
0000009f fbaa                 SUBAR 0x55, 0x0
000000a0 f7fc                 BTRSS 0x3, 0x0
000000a1 c73d                 LGOTO 0xc2; main.o:_00147_DS_=0xc2
000000a2 fd2a                 CLRR 0x55
000000a3 deff                 MOVIA 0x0
000000a4 fbb7                 SUBAR 0x48, 0x0
000000a5 f6fc                 BTRSS 0x3, 0x2
000000a6 c756                 LGOTO 0xa9; main.o:_00262_DS_=0xa9
000000a7 de36                 MOVIA 0xc9
000000a8 fbb8                 SUBAR 0x47, 0x0
000000a9                      main.o:_00262_DS_:
000000a9 f7fc                 BTRSS 0x3, 0x0
000000aa c73f                 LGOTO 0xc0; main.o:_00142_DS_=0xc0
000000ab de37                 MOVIA 0xc8
000000ac e0fc                 BCR 0x3, 0x6
000000ad fbab                 SUBAR 0x54, 0x0
000000ae f3fc                 BTRSC 0x3, 0x0
000000af c73f                 LGOTO 0xc0; main.o:_00142_DS_=0xc0
000000b0 de37                 MOVIA 0xc8
000000b1 fbac                 SUBAR 0x53, 0x0
000000b2 f3fc                 BTRSC 0x3, 0x0
000000b3 c73f                 LGOTO 0xc0; main.o:_00142_DS_=0xc0
000000b4 fa29                 INCR 0x56, 0x1
000000b5 def9                 MOVIA 0x6
000000b6 fba9                 SUBAR 0x56, 0x0
000000b7 f7fc                 BTRSS 0x3, 0x0
000000b8 c73d                 LGOTO 0xc2; main.o:_00147_DS_=0xc2
000000b9 defa                 MOVIA 0x5
000000ba ff29                 MOVAR 0x56
000000bb fd45                 CLRR 0x3a
000000bc fd46                 CLRR 0x39
000000bd d6f6                 LCALL 0x109; _closeStatus=0x109
000000be d6b2                 LCALL 0x14d; _gotoSleep=0x14d
000000bf c73d                 LGOTO 0xc2; main.o:_00147_DS_=0xc2
000000c0                      main.o:_00142_DS_:
000000c0 e0fc                 BCR 0x3, 0x6
000000c1 fd29                 CLRR 0x56
000000c2                      main.o:_00147_DS_:
000000c2 e0fc                 BCR 0x3, 0x6
000000c3 feca                 MOVR 0x35, 0x0
000000c4 f2fc                 BTRSC 0x3, 0x2
000000c5 c72d                 LGOTO 0xd2; main.o:_00151_DS_=0xd2
000000c6 def0                 MOVIA 0xf
000000c7 fbc8                 SUBAR 0x37, 0x0
000000c8 f6fc                 BTRSS 0x3, 0x2
000000c9 c733                 LGOTO 0xcc; main.o:_00266_DS_=0xcc
000000ca de5f                 MOVIA 0xa0
000000cb fbc9                 SUBAR 0x36, 0x0
000000cc                      main.o:_00266_DS_:
000000cc f3fc                 BTRSC 0x3, 0x0
000000cd c72d                 LGOTO 0xd2; main.o:_00151_DS_=0xd2
000000ce e0fc                 BCR 0x3, 0x6
000000cf fa49                 INCR 0x36, 0x1
000000d0 f2fc                 BTRSC 0x3, 0x2
000000d1 fa48                 INCR 0x37, 0x1
000000d2                      main.o:_00151_DS_:
000000d2 defb                 MOVIA 0x4
000000d3 e0fc                 BCR 0x3, 0x6
000000d4 fbae                 SUBAR 0x51, 0x0
000000d5 f3fc                 BTRSC 0x3, 0x0
000000d6 c726                 LGOTO 0xd9; main.o:_00156_DS_=0xd9
000000d7 d63d                 LCALL 0x1c2; _checkBat=0x1c2
000000d8 c71d                 LGOTO 0xe2; main.o:_00157_DS_=0xe2
000000d9                      main.o:_00156_DS_:
000000d9 def9                 MOVIA 0x6
000000da e0fc                 BCR 0x3, 0x6
000000db fbae                 SUBAR 0x51, 0x0
000000dc f7fc                 BTRSS 0x3, 0x0
000000dd c71d                 LGOTO 0xe2; main.o:_00157_DS_=0xe2
000000de def6                 MOVIA 0x9
000000df fbae                 SUBAR 0x51, 0x0
000000e0 f7fc                 BTRSS 0x3, 0x0
000000e1 d594                 LCALL 0x26b; _checkInV=0x26b
000000e2                      main.o:_00157_DS_:
000000e2 e0fc                 BCR 0x3, 0x6
000000e3 fa2e                 INCR 0x51, 0x1
000000e4 def4                 MOVIA 0xb
000000e5 fbae                 SUBAR 0x51, 0x0
000000e6 f3fc                 BTRSC 0x3, 0x0
000000e7 fd2e                 CLRR 0x51
000000e8 d4f0                 LCALL 0x30f; _chrgCtr=0x30f
000000e9 d521                 LCALL 0x2de; _keyCtr=0x2de
000000ea e0fc                 BCR 0x3, 0x6
000000eb fec6                 MOVR 0x39, 0x0
000000ec dbfe                 XORIA 0x1
000000ed f2fc                 BTRSC 0x3, 0x2
000000ee d4e1                 LCALL 0x31e; _workCtr=0x31e
000000ef f57a                 BTRSS 0x5, 0x5
000000f0 c70a                 LGOTO 0xf5; main.o:_00167_DS_=0xf5
000000f1 e0fc                 BCR 0x3, 0x6
000000f2 fec5                 MOVR 0x3a, 0x0
000000f3 f6fc                 BTRSS 0x3, 0x2
000000f4 c7a5                 LGOTO 0x5a; main.o:_00171_DS_=0x5a
000000f5                      main.o:_00167_DS_:
000000f5 e0fc                 BCR 0x3, 0x6
000000f6 fec6                 MOVR 0x39, 0x0
000000f7 f6fc                 BTRSS 0x3, 0x2
000000f8 c7a5                 LGOTO 0x5a; main.o:_00171_DS_=0x5a
000000f9 fec0                 MOVR 0x3f, 0x0
000000fa f6fc                 BTRSS 0x3, 0x2
000000fb c7a5                 LGOTO 0x5a; main.o:_00171_DS_=0x5a
000000fc fec3                 MOVR 0x3c, 0x0
000000fd f6fc                 BTRSS 0x3, 0x2
000000fe c7a5                 LGOTO 0x5a; main.o:_00171_DS_=0x5a
000000ff d6f6                 LCALL 0x109; _closeStatus=0x109
00000100 e0fc                 BCR 0x3, 0x6
00000101 fa39                 INCR 0x46, 0x1
00000102 decc                 MOVIA 0x33
00000103 fbb9                 SUBAR 0x46, 0x0
00000104 f7fc                 BTRSS 0x3, 0x0
00000105 c7a5                 LGOTO 0x5a; main.o:_00171_DS_=0x5a
00000106 d6b2                 LCALL 0x14d; _gotoSleep=0x14d
00000107 c7a5                 LGOTO 0x5a; main.o:_00171_DS_=0x5a
00000108 ffef                 RET
00000109                      _closeStatus:
00000109 e779                 BSR 0x6, 0x1
0000010a e279                 BCR 0x6, 0x3
0000010b e0fa                 BCR 0x5, 0x6
0000010c e07a                 BCR 0x5, 0x7
0000010d e3fa                 BCR 0x5, 0x0
0000010e ffef                 RET
0000010f                      _keyRead:
0000010f e0fc                 BCR 0x3, 0x6
00000110 ff4e                 MOVAR 0x31
00000111 fece                 MOVR 0x31, 0x0
00000112 f2fc                 BTRSC 0x3, 0x2
00000113 c6dd                 LGOTO 0x122; main.o:_00567_DS_=0x122
00000114 fa40                 INCR 0x3f, 0x1
00000115 de37                 MOVIA 0xc8
00000116 fbc0                 SUBAR 0x3f, 0x0
00000117 f7fc                 BTRSS 0x3, 0x0
00000118 c6ca                 LGOTO 0x135; main.o:_00568_DS_=0x135
00000119 de37                 MOVIA 0xc8
0000011a ff40                 MOVAR 0x3f
0000011b feaf                 MOVR 0x50, 0x0
0000011c f6fc                 BTRSS 0x3, 0x2
0000011d c6ca                 LGOTO 0x135; main.o:_00568_DS_=0x135
0000011e defe                 MOVIA 0x1
0000011f ff2f                 MOVAR 0x50
00000120 defd                 MOVIA 0x2
00000121 c6c9                 LGOTO 0x136; main.o:_00569_DS_=0x136
00000122                      main.o:_00567_DS_:
00000122 de37                 MOVIA 0xc8
00000123 e0fc                 BCR 0x3, 0x6
00000124 fbc0                 SUBAR 0x3f, 0x0
00000125 f7fc                 BTRSS 0x3, 0x0
00000126 c6d4                 LGOTO 0x12b; main.o:_00564_DS_=0x12b
00000127 fd40                 CLRR 0x3f
00000128 fd2f                 CLRR 0x50
00000129 deff                 MOVIA 0x0
0000012a c6c9                 LGOTO 0x136; main.o:_00569_DS_=0x136
0000012b                      main.o:_00564_DS_:
0000012b def7                 MOVIA 0x8
0000012c e0fc                 BCR 0x3, 0x6
0000012d fbc0                 SUBAR 0x3f, 0x0
0000012e f7fc                 BTRSS 0x3, 0x0
0000012f c6cc                 LGOTO 0x133; main.o:_00565_DS_=0x133
00000130 fd40                 CLRR 0x3f
00000131 defe                 MOVIA 0x1
00000132 c6c9                 LGOTO 0x136; main.o:_00569_DS_=0x136
00000133                      main.o:_00565_DS_:
00000133 e0fc                 BCR 0x3, 0x6
00000134 fd40                 CLRR 0x3f
00000135                      main.o:_00568_DS_:
00000135 deff                 MOVIA 0x0
00000136                      main.o:_00569_DS_:
00000136 ffef                 RET
00000137                      _delay:
00000137 e0fc                 BCR 0x3, 0x6
00000138 ff51                 MOVAR 0x2e
00000139 feba                 MOVR 0x45, 0x0
0000013a ff52                 MOVAR 0x2d
0000013b fd50                 CLRR 0x2f
0000013c fd4f                 CLRR 0x30
0000013d                      main.o:_00541_DS_:
0000013d e0fc                 BCR 0x3, 0x6
0000013e fed1                 MOVR 0x2e, 0x0
0000013f fbcf                 SUBAR 0x30, 0x0
00000140 f6fc                 BTRSS 0x3, 0x2
00000141 c6bb                 LGOTO 0x144; main.o:_00552_DS_=0x144
00000142 fed2                 MOVR 0x2d, 0x0
00000143 fbd0                 SUBAR 0x2f, 0x0
00000144                      main.o:_00552_DS_:
00000144 f3fc                 BTRSC 0x3, 0x0
00000145 c6b3                 LGOTO 0x14c; main.o:_00543_DS_=0x14c
00000146 e0fc                 BCR 0x3, 0x6
00000147 fa50                 INCR 0x2f, 0x1
00000148 f6fc                 BTRSS 0x3, 0x2
00000149 c6b4                 LGOTO 0x14b; main.o:_00001_DS_=0x14b
0000014a fa4f                 INCR 0x30, 0x1
0000014b                      main.o:_00001_DS_:
0000014b c6c2                 LGOTO 0x13d; main.o:_00541_DS_=0x13d
0000014c                      main.o:_00543_DS_:
0000014c ffef                 RET
0000014d                      _gotoSleep:
0000014d debf                 MOVIA 0x40
0000014e e0fc                 BCR 0x3, 0x6
0000014f ff49                 MOVAR 0x36
00000150 def9                 MOVIA 0x6
00000151 ff48                 MOVAR 0x37
00000152 defe                 MOVIA 0x1
00000153 ff2d                 MOVAR 0x52
00000154 e3fa                 BCR 0x5, 0x0
00000155 fd46                 CLRR 0x39
00000156 fd45                 CLRR 0x3a
00000157 fd31                 CLRR 0x4e
00000158 fd39                 CLRR 0x46
00000159 defd                 MOVIA 0x2
0000015a ff79                 MOVAR 0x6
0000015b fd7a                 CLRR 0x5
0000015c dedf                 MOVIA 0x20
0000015d ff6a                 MOVAR 0x15
0000015e defe                 MOVIA 0x1
0000015f ff76                 MOVAR 0x9
00000160 def4                 MOVIA 0xb
00000161 ff71                 MOVAR 0xe
00000162 dee7                 MOVIA 0x18
00000163 ff77                 MOVAR 0x8
00000164 fd70                 CLRR 0xf
00000165 fffd                 CLRWDT
00000166 fffb                 ENI
00000167 fffe                 SLEEP
00000168 fd6a                 CLRR 0x15
00000169 fd76                 CLRR 0x9
0000016a defe                 MOVIA 0x1
0000016b ff71                 MOVAR 0xe
0000016c fd70                 CLRR 0xf
0000016d de47                 MOVIA 0xb8
0000016e ff77                 MOVAR 0x8
0000016f ffef                 RET
00000170                      _F_AIN2_Convert:
00000170 e0fc                 BCR 0x3, 0x6
00000171 ff56                 MOVAR 0x29
00000172 fd32                 CLRR 0x4d
00000173 fd36                 CLRR 0x49
00000174 fd35                 CLRR 0x4a
00000175 de6d                 MOVIA 0x92
00000176 ff6f                 MOVAR 0x10
00000177 de37                 MOVIA 0xc8
00000178 ff3a                 MOVAR 0x45
00000179 deff                 MOVIA 0x0
0000017a d6c8                 LCALL 0x137; _delay=0x137
0000017b defe                 MOVIA 0x1
0000017c e0fc                 BCR 0x3, 0x6
0000017d ff55                 MOVAR 0x2a
0000017e                      main.o:_00523_DS_:
0000017e e0fc                 BCR 0x3, 0x6
0000017f fed5                 MOVR 0x2a, 0x0
00000180 fbd6                 SUBAR 0x29, 0x0
00000181 f7fc                 BTRSS 0x3, 0x0
00000182 c667                 LGOTO 0x198; main.o:_00525_DS_=0x198
00000183 e4ef                 BSR 0x10, 0x6
00000184 d7fc                 LCALL 0x3; main.o:_00534_DS_=0x3
00000185 def0                 MOVIA 0xf
00000186 efee                 ANDAR 0x11, 0x0
00000187 e0fc                 BCR 0x3, 0x6
00000188 fc32                 ADDAR 0x4d, 0x1
00000189 feed                 MOVR 0x12, 0x0
0000018a ff54                 MOVAR 0x2b
0000018b deff                 MOVIA 0x0
0000018c ff53                 MOVAR 0x2c
0000018d fed4                 MOVR 0x2b, 0x0
0000018e fc36                 ADDAR 0x49, 0x1
0000018f fed3                 MOVR 0x2c, 0x0
00000190 f3fc                 BTRSC 0x3, 0x0
00000191 fad3                 INCR 0x2c, 0x0
00000192 f2fc                 BTRSC 0x3, 0x2
00000193 c66a                 LGOTO 0x195; main.o:_00002_DS_=0x195
00000194 fc35                 ADDAR 0x4a, 0x1
00000195                      main.o:_00002_DS_:
00000195 e0fc                 BCR 0x3, 0x6
00000196 fa55                 INCR 0x2a, 0x1
00000197 c681                 LGOTO 0x17e; main.o:_00523_DS_=0x17e
00000198                      main.o:_00525_DS_:
00000198 ffef                 RET
00000199                      _F_AIN1_Convert:
00000199 e0fc                 BCR 0x3, 0x6
0000019a ff5a                 MOVAR 0x25
0000019b fd33                 CLRR 0x4c
0000019c fd38                 CLRR 0x47
0000019d fd37                 CLRR 0x48
0000019e de6e                 MOVIA 0x91
0000019f ff6f                 MOVAR 0x10
000001a0 de37                 MOVIA 0xc8
000001a1 ff3a                 MOVAR 0x45
000001a2 deff                 MOVIA 0x0
000001a3 d6c8                 LCALL 0x137; _delay=0x137
000001a4 defe                 MOVIA 0x1
000001a5 e0fc                 BCR 0x3, 0x6
000001a6 ff59                 MOVAR 0x26
000001a7                      main.o:_00514_DS_:
000001a7 e0fc                 BCR 0x3, 0x6
000001a8 fed9                 MOVR 0x26, 0x0
000001a9 fbda                 SUBAR 0x25, 0x0
000001aa f7fc                 BTRSS 0x3, 0x0
000001ab c63e                 LGOTO 0x1c1; main.o:_00516_DS_=0x1c1
000001ac e4ef                 BSR 0x10, 0x6
000001ad d7fc                 LCALL 0x3; main.o:_00534_DS_=0x3
000001ae def0                 MOVIA 0xf
000001af efee                 ANDAR 0x11, 0x0
000001b0 e0fc                 BCR 0x3, 0x6
000001b1 fc33                 ADDAR 0x4c, 0x1
000001b2 feed                 MOVR 0x12, 0x0
000001b3 ff58                 MOVAR 0x27
000001b4 deff                 MOVIA 0x0
000001b5 ff57                 MOVAR 0x28
000001b6 fed8                 MOVR 0x27, 0x0
000001b7 fc38                 ADDAR 0x47, 0x1
000001b8 fed7                 MOVR 0x28, 0x0
000001b9 f3fc                 BTRSC 0x3, 0x0
000001ba fad7                 INCR 0x28, 0x0
000001bb f2fc                 BTRSC 0x3, 0x2
000001bc c641                 LGOTO 0x1be; main.o:_00003_DS_=0x1be
000001bd fc37                 ADDAR 0x48, 0x1
000001be                      main.o:_00003_DS_:
000001be e0fc                 BCR 0x3, 0x6
000001bf fa59                 INCR 0x26, 0x1
000001c0 c658                 LGOTO 0x1a7; main.o:_00514_DS_=0x1a7
000001c1                      main.o:_00516_DS_:
000001c1 ffef                 RET
000001c2                      _checkBat:
000001c2 e0fc                 BCR 0x3, 0x6
000001c3 fd32                 CLRR 0x4d
000001c4 fd36                 CLRR 0x49
000001c5 fd35                 CLRR 0x4a
000001c6 def7                 MOVIA 0x8
000001c7 d68f                 LCALL 0x170; _F_AIN2_Convert=0x170
000001c8 e0fc                 BCR 0x3, 0x6
000001c9 eab5                 SWAPR 0x4a, 0x0
000001ca dd0f                 ANDIA 0xf0
000001cb ff35                 MOVAR 0x4a
000001cc eab6                 SWAPR 0x49, 0x0
000001cd ff36                 MOVAR 0x49
000001ce ddf0                 ANDIA 0xf
000001cf ee35                 IORAR 0x4a, 0x1
000001d0 ed36                 XORAR 0x49, 0x1
000001d1 de0f                 MOVIA 0xf0
000001d2 ef32                 ANDAR 0x4d, 0x1
000001d3 feb2                 MOVR 0x4d, 0x0
000001d4 ff5c                 MOVAR 0x23
000001d5 deff                 MOVIA 0x0
000001d6 ff5b                 MOVAR 0x24
000001d7 fedc                 MOVR 0x23, 0x0
000001d8 fc36                 ADDAR 0x49, 0x1
000001d9 fedb                 MOVR 0x24, 0x0
000001da f3fc                 BTRSC 0x3, 0x0
000001db fadb                 INCR 0x24, 0x0
000001dc f2fc                 BTRSC 0x3, 0x2
000001dd c620                 LGOTO 0x1df; main.o:_00004_DS_=0x1df
000001de fc35                 ADDAR 0x4a, 0x1
000001df                      main.o:_00004_DS_:
000001df e3fc                 BCR 0x3, 0x0
000001e0 e0fc                 BCR 0x3, 0x6
000001e1 ec35                 RRR 0x4a, 0x1
000001e2 ec36                 RRR 0x49, 0x1
000001e3 e3fc                 BCR 0x3, 0x0
000001e4 ec35                 RRR 0x4a, 0x1
000001e5 ec36                 RRR 0x49, 0x1
000001e6 e3fc                 BCR 0x3, 0x0
000001e7 ec35                 RRR 0x4a, 0x1
000001e8 ec36                 RRR 0x49, 0x1
000001e9 feca                 MOVR 0x35, 0x0
000001ea f2fc                 BTRSC 0x3, 0x2
000001eb c60f                 LGOTO 0x1f0; main.o:_00421_DS_=0x1f0
000001ec fec9                 MOVR 0x36, 0x0
000001ed ff36                 MOVAR 0x49
000001ee fec8                 MOVR 0x37, 0x0
000001ef ff35                 MOVAR 0x4a
000001f0                      main.o:_00421_DS_:
000001f0 def6                 MOVIA 0x9
000001f1 e0fc                 BCR 0x3, 0x6
000001f2 fbb5                 SUBAR 0x4a, 0x0
000001f3 f6fc                 BTRSS 0x3, 0x2
000001f4 c608                 LGOTO 0x1f7; main.o:_00499_DS_=0x1f7
000001f5 dedd                 MOVIA 0x22
000001f6 fbb6                 SUBAR 0x49, 0x0
000001f7                      main.o:_00499_DS_:
000001f7 f3fc                 BTRSC 0x3, 0x0
000001f8 c5ed                 LGOTO 0x212; main.o:_00453_DS_=0x212
000001f9 e0fc                 BCR 0x3, 0x6
000001fa fec7                 MOVR 0x38, 0x0
000001fb dbfe                 XORIA 0x1
000001fc f6fc                 BTRSS 0x3, 0x2
000001fd c5f6                 LGOTO 0x209; main.o:_00425_DS_=0x209
000001fe def6                 MOVIA 0x9
000001ff fbb5                 SUBAR 0x4a, 0x0
00000200 f6fc                 BTRSS 0x3, 0x2
00000201 c5fb                 LGOTO 0x204; main.o:_00500_DS_=0x204
00000202 dee5                 MOVIA 0x1a
00000203 fbb6                 SUBAR 0x49, 0x0
00000204                      main.o:_00500_DS_:
00000204 f3fc                 BTRSC 0x3, 0x0
00000205 c5f4                 LGOTO 0x20b; main.o:_00426_DS_=0x20b
00000206 e0fc                 BCR 0x3, 0x6
00000207 fd47                 CLRR 0x38
00000208 c5f4                 LGOTO 0x20b; main.o:_00426_DS_=0x20b
00000209                      main.o:_00425_DS_:
00000209 e0fc                 BCR 0x3, 0x6
0000020a fd47                 CLRR 0x38
0000020b                      main.o:_00426_DS_:
0000020b e0fc                 BCR 0x3, 0x6
0000020c fec3                 MOVR 0x3c, 0x0
0000020d f6fc                 BTRSS 0x3, 0x2
0000020e c595                 LGOTO 0x26a; main.o:_00455_DS_=0x26a
0000020f defc                 MOVIA 0x3
00000210 ff43                 MOVAR 0x3c
00000211 c595                 LGOTO 0x26a; main.o:_00455_DS_=0x26a
00000212                      main.o:_00453_DS_:
00000212 def5                 MOVIA 0xa
00000213 e0fc                 BCR 0x3, 0x6
00000214 fbb5                 SUBAR 0x4a, 0x0
00000215 f6fc                 BTRSS 0x3, 0x2
00000216 c5e6                 LGOTO 0x219; main.o:_00501_DS_=0x219
00000217 ded0                 MOVIA 0x2f
00000218 fbb6                 SUBAR 0x49, 0x0
00000219                      main.o:_00501_DS_:
00000219 f3fc                 BTRSC 0x3, 0x0
0000021a c5db                 LGOTO 0x224; main.o:_00450_DS_=0x224
0000021b e0fc                 BCR 0x3, 0x6
0000021c fd31                 CLRR 0x4e
0000021d fec3                 MOVR 0x3c, 0x0
0000021e f6fc                 BTRSS 0x3, 0x2
0000021f c595                 LGOTO 0x26a; main.o:_00455_DS_=0x26a
00000220 defe                 MOVIA 0x1
00000221 ff47                 MOVAR 0x38
00000222 fd30                 CLRR 0x4f
00000223 c595                 LGOTO 0x26a; main.o:_00455_DS_=0x26a
00000224                      main.o:_00450_DS_:
00000224 def3                 MOVIA 0xc
00000225 e0fc                 BCR 0x3, 0x6
00000226 fbb5                 SUBAR 0x4a, 0x0
00000227 f6fc                 BTRSS 0x3, 0x2
00000228 c5d4                 LGOTO 0x22b; main.o:_00502_DS_=0x22b
00000229 def7                 MOVIA 0x8
0000022a fbb6                 SUBAR 0x49, 0x0
0000022b                      main.o:_00502_DS_:
0000022b f3fc                 BTRSC 0x3, 0x0
0000022c c5ab                 LGOTO 0x254; main.o:_00447_DS_=0x254
0000022d e0fc                 BCR 0x3, 0x6
0000022e fd31                 CLRR 0x4e
0000022f defc                 MOVIA 0x3
00000230 fbc7                 SUBAR 0x38, 0x0
00000231 f7fc                 BTRSS 0x3, 0x0
00000232 c5c0                 LGOTO 0x23f; main.o:_00439_DS_=0x23f
00000233 def4                 MOVIA 0xb
00000234 fbb5                 SUBAR 0x4a, 0x0
00000235 f6fc                 BTRSS 0x3, 0x2
00000236 c5c6                 LGOTO 0x239; main.o:_00504_DS_=0x239
00000237 de01                 MOVIA 0xfe
00000238 fbb6                 SUBAR 0x49, 0x0
00000239                      main.o:_00504_DS_:
00000239 f3fc                 BTRSC 0x3, 0x0
0000023a c595                 LGOTO 0x26a; main.o:_00455_DS_=0x26a
0000023b defd                 MOVIA 0x2
0000023c e0fc                 BCR 0x3, 0x6
0000023d ff47                 MOVAR 0x38
0000023e c595                 LGOTO 0x26a; main.o:_00455_DS_=0x26a
0000023f                      main.o:_00439_DS_:
0000023f e0fc                 BCR 0x3, 0x6
00000240 fec7                 MOVR 0x38, 0x0
00000241 dbfe                 XORIA 0x1
00000242 f6fc                 BTRSS 0x3, 0x2
00000243 c5af                 LGOTO 0x250; main.o:_00436_DS_=0x250
00000244 def5                 MOVIA 0xa
00000245 fbb5                 SUBAR 0x4a, 0x0
00000246 f6fc                 BTRSS 0x3, 0x2
00000247 c5b5                 LGOTO 0x24a; main.o:_00505_DS_=0x24a
00000248 deb8                 MOVIA 0x47
00000249 fbb6                 SUBAR 0x49, 0x0
0000024a                      main.o:_00505_DS_:
0000024a f7fc                 BTRSS 0x3, 0x0
0000024b c595                 LGOTO 0x26a; main.o:_00455_DS_=0x26a
0000024c defd                 MOVIA 0x2
0000024d e0fc                 BCR 0x3, 0x6
0000024e ff47                 MOVAR 0x38
0000024f c595                 LGOTO 0x26a; main.o:_00455_DS_=0x26a
00000250                      main.o:_00436_DS_:
00000250 defd                 MOVIA 0x2
00000251 e0fc                 BCR 0x3, 0x6
00000252 ff47                 MOVAR 0x38
00000253 c595                 LGOTO 0x26a; main.o:_00455_DS_=0x26a
00000254                      main.o:_00447_DS_:
00000254 e0fc                 BCR 0x3, 0x6
00000255 fd30                 CLRR 0x4f
00000256 fd31                 CLRR 0x4e
00000257 def3                 MOVIA 0xc
00000258 fbb5                 SUBAR 0x4a, 0x0
00000259 f6fc                 BTRSS 0x3, 0x2
0000025a c5a2                 LGOTO 0x25d; main.o:_00506_DS_=0x25d
0000025b deee                 MOVIA 0x11
0000025c fbb6                 SUBAR 0x49, 0x0
0000025d                      main.o:_00506_DS_:
0000025d f7fc                 BTRSS 0x3, 0x0
0000025e c59c                 LGOTO 0x263; main.o:_00444_DS_=0x263
0000025f defb                 MOVIA 0x4
00000260 e0fc                 BCR 0x3, 0x6
00000261 ff47                 MOVAR 0x38
00000262 c595                 LGOTO 0x26a; main.o:_00455_DS_=0x26a
00000263                      main.o:_00444_DS_:
00000263 e0fc                 BCR 0x3, 0x6
00000264 fec5                 MOVR 0x3a, 0x0
00000265 dbfe                 XORIA 0x1
00000266 f2fc                 BTRSC 0x3, 0x2
00000267 c595                 LGOTO 0x26a; main.o:_00455_DS_=0x26a
00000268 defc                 MOVIA 0x3
00000269 ff47                 MOVAR 0x38
0000026a                      main.o:_00455_DS_:
0000026a ffef                 RET
0000026b                      _checkInV:
0000026b e0fc                 BCR 0x3, 0x6
0000026c fd33                 CLRR 0x4c
0000026d fd38                 CLRR 0x47
0000026e fd37                 CLRR 0x48
0000026f def7                 MOVIA 0x8
00000270 d666                 LCALL 0x199; _F_AIN1_Convert=0x199
00000271 e0fc                 BCR 0x3, 0x6
00000272 eab7                 SWAPR 0x48, 0x0
00000273 dd0f                 ANDIA 0xf0
00000274 ff37                 MOVAR 0x48
00000275 eab8                 SWAPR 0x47, 0x0
00000276 ff38                 MOVAR 0x47
00000277 ddf0                 ANDIA 0xf
00000278 ee37                 IORAR 0x48, 0x1
00000279 ed38                 XORAR 0x47, 0x1
0000027a de0f                 MOVIA 0xf0
0000027b ef33                 ANDAR 0x4c, 0x1
0000027c feb3                 MOVR 0x4c, 0x0
0000027d ff5e                 MOVAR 0x21
0000027e deff                 MOVIA 0x0
0000027f ff5d                 MOVAR 0x22
00000280 fede                 MOVR 0x21, 0x0
00000281 fc38                 ADDAR 0x47, 0x1
00000282 fedd                 MOVR 0x22, 0x0
00000283 f3fc                 BTRSC 0x3, 0x0
00000284 fadd                 INCR 0x22, 0x0
00000285 f2fc                 BTRSC 0x3, 0x2
00000286 c577                 LGOTO 0x288; main.o:_00005_DS_=0x288
00000287 fc37                 ADDAR 0x48, 0x1
00000288                      main.o:_00005_DS_:
00000288 e3fc                 BCR 0x3, 0x0
00000289 e0fc                 BCR 0x3, 0x6
0000028a ec37                 RRR 0x48, 0x1
0000028b ec38                 RRR 0x47, 0x1
0000028c e3fc                 BCR 0x3, 0x0
0000028d ec37                 RRR 0x48, 0x1
0000028e ec38                 RRR 0x47, 0x1
0000028f e3fc                 BCR 0x3, 0x0
00000290 ec37                 RRR 0x48, 0x1
00000291 ec38                 RRR 0x47, 0x1
00000292 feca                 MOVR 0x35, 0x0
00000293 f2fc                 BTRSC 0x3, 0x2
00000294 c566                 LGOTO 0x299; main.o:_00373_DS_=0x299
00000295 deef                 MOVIA 0x10
00000296 ff38                 MOVAR 0x47
00000297 def1                 MOVIA 0xe
00000298 ff37                 MOVAR 0x48
00000299                      main.o:_00373_DS_:
00000299 e0fc                 BCR 0x3, 0x6
0000029a fd2d                 CLRR 0x52
0000029b def3                 MOVIA 0xc
0000029c fbb7                 SUBAR 0x48, 0x0
0000029d f6fc                 BTRSS 0x3, 0x2
0000029e c55e                 LGOTO 0x2a1; main.o:_00411_DS_=0x2a1
0000029f de43                 MOVIA 0xbc
000002a0 fbb8                 SUBAR 0x47, 0x0
000002a1                      main.o:_00411_DS_:
000002a1 f3fc                 BTRSC 0x3, 0x0
000002a2 c540                 LGOTO 0x2bf; main.o:_00384_DS_=0x2bf
000002a3 deff                 MOVIA 0x0
000002a4 e0fc                 BCR 0x3, 0x6
000002a5 fbb7                 SUBAR 0x48, 0x0
000002a6 f6fc                 BTRSS 0x3, 0x2
000002a7 c555                 LGOTO 0x2aa; main.o:_00412_DS_=0x2aa
000002a8 de36                 MOVIA 0xc9
000002a9 fbb8                 SUBAR 0x47, 0x0
000002aa                      main.o:_00412_DS_:
000002aa f7fc                 BTRSS 0x3, 0x0
000002ab c546                 LGOTO 0x2b9; main.o:_00377_DS_=0x2b9
000002ac e0fc                 BCR 0x3, 0x6
000002ad fa34                 INCR 0x4b, 0x1
000002ae defd                 MOVIA 0x2
000002af ff45                 MOVAR 0x3a
000002b0 fd2c                 CLRR 0x53
000002b1 fa2b                 INCR 0x54, 0x1
000002b2 de37                 MOVIA 0xc8
000002b3 fbab                 SUBAR 0x54, 0x0
000002b4 f7fc                 BTRSS 0x3, 0x0
000002b5 c52a                 LGOTO 0x2d5; main.o:_00385_DS_=0x2d5
000002b6 de37                 MOVIA 0xc8
000002b7 ff2b                 MOVAR 0x54
000002b8 c52a                 LGOTO 0x2d5; main.o:_00385_DS_=0x2d5
000002b9                      main.o:_00377_DS_:
000002b9 e0fc                 BCR 0x3, 0x6
000002ba fd34                 CLRR 0x4b
000002bb fd2c                 CLRR 0x53
000002bc fd45                 CLRR 0x3a
000002bd fd2b                 CLRR 0x54
000002be c52a                 LGOTO 0x2d5; main.o:_00385_DS_=0x2d5
000002bf                      main.o:_00384_DS_:
000002bf e0fc                 BCR 0x3, 0x6
000002c0 fd2b                 CLRR 0x54
000002c1 fd34                 CLRR 0x4b
000002c2 fa2c                 INCR 0x53, 0x1
000002c3 de37                 MOVIA 0xc8
000002c4 fbac                 SUBAR 0x53, 0x0
000002c5 f7fc                 BTRSS 0x3, 0x0
000002c6 c536                 LGOTO 0x2c9; main.o:_00380_DS_=0x2c9
000002c7 de37                 MOVIA 0xc8
000002c8 ff2c                 MOVAR 0x53
000002c9                      main.o:_00380_DS_:
000002c9 def3                 MOVIA 0xc
000002ca e0fc                 BCR 0x3, 0x6
000002cb fbb7                 SUBAR 0x48, 0x0
000002cc f6fc                 BTRSS 0x3, 0x2
000002cd c52f                 LGOTO 0x2d0; main.o:_00415_DS_=0x2d0
000002ce de2e                 MOVIA 0xd1
000002cf fbb8                 SUBAR 0x47, 0x0
000002d0                      main.o:_00415_DS_:
000002d0 f7fc                 BTRSS 0x3, 0x0
000002d1 c52a                 LGOTO 0x2d5; main.o:_00385_DS_=0x2d5
000002d2 defe                 MOVIA 0x1
000002d3 e0fc                 BCR 0x3, 0x6
000002d4 ff45                 MOVAR 0x3a
000002d5                      main.o:_00385_DS_:
000002d5 de9b                 MOVIA 0x64
000002d6 e0fc                 BCR 0x3, 0x6
000002d7 fbb4                 SUBAR 0x4b, 0x0
000002d8 f7fc                 BTRSS 0x3, 0x0
000002d9 c522                 LGOTO 0x2dd; main.o:_00388_DS_=0x2dd
000002da de9b                 MOVIA 0x64
000002db ff34                 MOVAR 0x4b
000002dc fd45                 CLRR 0x3a
000002dd                      main.o:_00388_DS_:
000002dd ffef                 RET
000002de                      _keyCtr:
000002de f8f9                 COMR 0x6, 0x0
000002df e0fc                 BCR 0x3, 0x6
000002e0 ff5f                 MOVAR 0x20
000002e1 defe                 MOVIA 0x1
000002e2 ef5f                 ANDAR 0x20, 0x1
000002e3 fedf                 MOVR 0x20, 0x0
000002e4 d6f0                 LCALL 0x10f; _keyRead=0x10f
000002e5 e0fc                 BCR 0x3, 0x6
000002e6 ff5f                 MOVAR 0x20
000002e7 dbfd                 XORIA 0x2
000002e8 f6fc                 BTRSS 0x3, 0x2
000002e9 c4fe                 LGOTO 0x301; main.o:_00367_DS_=0x301
000002ea fec6                 MOVR 0x39, 0x0
000002eb f6fc                 BTRSS 0x3, 0x2
000002ec c50a                 LGOTO 0x2f5; main.o:_00363_DS_=0x2f5
000002ed defe                 MOVIA 0x1
000002ee ff46                 MOVAR 0x39
000002ef fec7                 MOVR 0x38, 0x0
000002f0 f6fc                 BTRSS 0x3, 0x2
000002f1 c4fe                 LGOTO 0x301; main.o:_00367_DS_=0x301
000002f2 defc                 MOVIA 0x3
000002f3 ff43                 MOVAR 0x3c
000002f4 c4fe                 LGOTO 0x301; main.o:_00367_DS_=0x301
000002f5                      main.o:_00363_DS_:
000002f5 e0fc                 BCR 0x3, 0x6
000002f6 fec5                 MOVR 0x3a, 0x0
000002f7 f2fc                 BTRSC 0x3, 0x2
000002f8 c502                 LGOTO 0x2fd; main.o:_00359_DS_=0x2fd
000002f9 fec5                 MOVR 0x3a, 0x0
000002fa dbfd                 XORIA 0x2
000002fb f6fc                 BTRSS 0x3, 0x2
000002fc c4fe                 LGOTO 0x301; main.o:_00367_DS_=0x301
000002fd                      main.o:_00359_DS_:
000002fd e0fc                 BCR 0x3, 0x6
000002fe fd46                 CLRR 0x39
000002ff d6f6                 LCALL 0x109; _closeStatus=0x109
00000300 d6b2                 LCALL 0x14d; _gotoSleep=0x14d
00000301                      main.o:_00367_DS_:
00000301 ffef                 RET
00000302                      _initAD:
00000302 de74                 MOVIA 0x8b
00000303 ff6f                 MOVAR 0x10
00000304 fd6c                 CLRR 0x13
00000305 deef                 MOVIA 0x10
00000306 ff6e                 MOVAR 0x11
00000307 defc                 MOVIA 0x3
00000308 ff6b                 MOVAR 0x14
00000309 e5ef                 BSR 0x10, 0x4
0000030a de9b                 MOVIA 0x64
0000030b ff3a                 MOVAR 0x45
0000030c deff                 MOVIA 0x0
0000030d d6c8                 LCALL 0x137; _delay=0x137
0000030e ffef                 RET
0000030f                      _chrgCtr:
0000030f e0fc                 BCR 0x3, 0x6
00000310 fec5                 MOVR 0x3a, 0x0
00000311 dbfe                 XORIA 0x1
00000312 f6fc                 BTRSS 0x3, 0x2
00000313 c4e3                 LGOTO 0x31c; main.o:_00346_DS_=0x31c
00000314 defb                 MOVIA 0x4
00000315 fbc7                 SUBAR 0x38, 0x0
00000316 f3fc                 BTRSC 0x3, 0x0
00000317 c4e5                 LGOTO 0x31a; main.o:_00343_DS_=0x31a
00000318 e4fa                 BSR 0x5, 0x6
00000319 c4e2                 LGOTO 0x31d; main.o:_00348_DS_=0x31d
0000031a                      main.o:_00343_DS_:
0000031a e0fa                 BCR 0x5, 0x6
0000031b c4e2                 LGOTO 0x31d; main.o:_00348_DS_=0x31d
0000031c                      main.o:_00346_DS_:
0000031c e0fa                 BCR 0x5, 0x6
0000031d                      main.o:_00348_DS_:
0000031d ffef                 RET
0000031e                      _workCtr:
0000031e e0fc                 BCR 0x3, 0x6
0000031f fec6                 MOVR 0x39, 0x0
00000320 dbfe                 XORIA 0x1
00000321 f6fc                 BTRSS 0x3, 0x2
00000322 c498                 LGOTO 0x367; main.o:_00296_DS_=0x367
00000323 fec5                 MOVR 0x3a, 0x0
00000324 f2fc                 BTRSC 0x3, 0x2
00000325 c4d5                 LGOTO 0x32a; main.o:_00291_DS_=0x32a
00000326 fec5                 MOVR 0x3a, 0x0
00000327 dbfd                 XORIA 0x2
00000328 f6fc                 BTRSS 0x3, 0x2
00000329 c4b4                 LGOTO 0x34b; main.o:_00292_DS_=0x34b
0000032a                      main.o:_00291_DS_:
0000032a e0fc                 BCR 0x3, 0x6
0000032b fec7                 MOVR 0x38, 0x0
0000032c dbfe                 XORIA 0x1
0000032d f6fc                 BTRSS 0x3, 0x2
0000032e c4ce                 LGOTO 0x331; main.o:_00283_DS_=0x331
0000032f e379                 BCR 0x6, 0x1
00000330 c493                 LGOTO 0x36c; main.o:_00298_DS_=0x36c
00000331                      main.o:_00283_DS_:
00000331 e0fc                 BCR 0x3, 0x6
00000332 fec7                 MOVR 0x38, 0x0
00000333 f6fc                 BTRSS 0x3, 0x2
00000334 c493                 LGOTO 0x36c; main.o:_00298_DS_=0x36c
00000335 fec3                 MOVR 0x3c, 0x0
00000336 f2fc                 BTRSC 0x3, 0x2
00000337 c493                 LGOTO 0x36c; main.o:_00298_DS_=0x36c
00000338 decd                 MOVIA 0x32
00000339 fbc4                 SUBAR 0x3b, 0x0
0000033a f3fc                 BTRSC 0x3, 0x0
0000033b c4c1                 LGOTO 0x33e; main.o:_00272_DS_=0x33e
0000033c e779                 BSR 0x6, 0x1
0000033d c4c0                 LGOTO 0x33f; main.o:_00273_DS_=0x33f
0000033e                      main.o:_00272_DS_:
0000033e e379                 BCR 0x6, 0x1
0000033f                      main.o:_00273_DS_:
0000033f e0fc                 BCR 0x3, 0x6
00000340 fa44                 INCR 0x3b, 0x1
00000341 de9b                 MOVIA 0x64
00000342 fbc4                 SUBAR 0x3b, 0x0
00000343 f7fc                 BTRSS 0x3, 0x0
00000344 c493                 LGOTO 0x36c; main.o:_00298_DS_=0x36c
00000345 fd44                 CLRR 0x3b
00000346 e843                 DECRSZ 0x3c, 0x1
00000347 c493                 LGOTO 0x36c; main.o:_00298_DS_=0x36c
00000348 e779                 BSR 0x6, 0x1
00000349 d6b2                 LCALL 0x14d; _gotoSleep=0x14d
0000034a c493                 LGOTO 0x36c; main.o:_00298_DS_=0x36c
0000034b                      main.o:_00292_DS_:
0000034b e07a                 BCR 0x5, 0x7
0000034c deff                 MOVIA 0x0
0000034d e0fc                 BCR 0x3, 0x6
0000034e fbb5                 SUBAR 0x4a, 0x0
0000034f f6fc                 BTRSS 0x3, 0x2
00000350 c4ac                 LGOTO 0x353; main.o:_00335_DS_=0x353
00000351 def4                 MOVIA 0xb
00000352 fbb6                 SUBAR 0x49, 0x0
00000353                      main.o:_00335_DS_:
00000353 f7fc                 BTRSS 0x3, 0x0
00000354 c4a9                 LGOTO 0x356; main.o:_00286_DS_=0x356
00000355 e4fa                 BSR 0x5, 0x6
00000356                      main.o:_00286_DS_:
00000356 defb                 MOVIA 0x4
00000357 e0fc                 BCR 0x3, 0x6
00000358 fbc7                 SUBAR 0x38, 0x0
00000359 f3fc                 BTRSC 0x3, 0x0
0000035a c49a                 LGOTO 0x365; main.o:_00288_DS_=0x365
0000035b deff                 MOVIA 0x0
0000035c fbb5                 SUBAR 0x4a, 0x0
0000035d f6fc                 BTRSS 0x3, 0x2
0000035e c49e                 LGOTO 0x361; main.o:_00337_DS_=0x361
0000035f de36                 MOVIA 0xc9
00000360 fbb6                 SUBAR 0x49, 0x0
00000361                      main.o:_00337_DS_:
00000361 f7fc                 BTRSS 0x3, 0x0
00000362 c49a                 LGOTO 0x365; main.o:_00288_DS_=0x365
00000363 e679                 BSR 0x6, 0x3
00000364 c493                 LGOTO 0x36c; main.o:_00298_DS_=0x36c
00000365                      main.o:_00288_DS_:
00000365 e279                 BCR 0x6, 0x3
00000366 c493                 LGOTO 0x36c; main.o:_00298_DS_=0x36c
00000367                      main.o:_00296_DS_:
00000367 e779                 BSR 0x6, 0x1
00000368 e279                 BCR 0x6, 0x3
00000369 e0fa                 BCR 0x5, 0x6
0000036a e07a                 BCR 0x5, 0x7
0000036b e3fa                 BCR 0x5, 0x0
0000036c                      main.o:_00298_DS_:
0000036c ffef                 RET
0000036d                      ___cinit_load__:
