00000000 c7f6                 LGOTO 0x9; crt0.o:initial_ram_bss=0x9
00000001                      _Delay10Us:
00000001 ffff                 NOP
00000002 ffff                 NOP
00000003 ffff                 NOP
00000004 ffff                 NOP
00000005 ffff                 NOP
00000006 ffff                 NOP
00000007 ffef                 RET
00000008 c5bc                 LGOTO 0x243; main.o:__sdcc_interrupt=0x243
00000009                      crt0.o:initial_ram_bss:
0000000b                      ___cinit_size__:
00000015                      crt0.o:initial_ram_cinit:
00000017                      crt0.o:startup_exit:
0000001d                      crt0.o:crt0_end:
0000001d e0fc                 BCR 0x3, 0x6
0000001e fd56                 CLRR 0x29
0000001f                      codeDriver.o:_00140_DS_:
0000001f deaf                 MOVIA 0x50
00000020 e0fc                 BCR 0x3, 0x6
00000021 fbd6                 SUBAR 0x29, 0x0
00000022 f3fc                 BTRSC 0x3, 0x0
00000023 c7d8                 LGOTO 0x27; codeDriver.o:_00142_DS_=0x27
00000024 ffff                 NOP
00000025 fa56                 INCR 0x29, 0x1
00000026 c7e0                 LGOTO 0x1f; codeDriver.o:_00140_DS_=0x1f
00000027                      codeDriver.o:_00142_DS_:
00000027 ffef                 RET
00000028                      _sendRGB1:
00000028 e0fc                 BCR 0x3, 0x6
00000029 fd57                 CLRR 0x28
0000002a f3fc                 BTRSC 0x3, 0x0
0000002b fa57                 INCR 0x28, 0x1
0000002c ecd7                 RRR 0x28, 0x0
0000002d f3fc                 BTRSC 0x3, 0x0
0000002e c7cf                 LGOTO 0x30; codeDriver.o:_00007_DS_=0x30
0000002f e3d5                 BCR 0x2a, 0x0
00000030                      codeDriver.o:_00007_DS_:
00000030 f7fc                 BTRSS 0x3, 0x0
00000031 c7cb                 LGOTO 0x34; codeDriver.o:_00008_DS_=0x34
00000032 e0fc                 BCR 0x3, 0x6
00000033 e7d5                 BSR 0x2a, 0x0
00000034                      codeDriver.o:_00008_DS_:
00000034 e0fc                 BCR 0x3, 0x6
00000035 fd57                 CLRR 0x28
00000036 f3fc                 BTRSC 0x3, 0x0
00000037 fa57                 INCR 0x28, 0x1
00000038 ecd7                 RRR 0x28, 0x0
00000039 f3fc                 BTRSC 0x3, 0x0
0000003a c7c3                 LGOTO 0x3c; codeDriver.o:_00009_DS_=0x3c
0000003b e355                 BCR 0x2a, 0x1
0000003c                      codeDriver.o:_00009_DS_:
0000003c f7fc                 BTRSS 0x3, 0x0
0000003d c7bf                 LGOTO 0x40; codeDriver.o:_00010_DS_=0x40
0000003e e0fc                 BCR 0x3, 0x6
0000003f e755                 BSR 0x2a, 0x1
00000040                      codeDriver.o:_00010_DS_:
00000040 e0fc                 BCR 0x3, 0x6
00000041 fd57                 CLRR 0x28
00000042 f3fc                 BTRSC 0x3, 0x0
00000043 fa57                 INCR 0x28, 0x1
00000044 ecd7                 RRR 0x28, 0x0
00000045 f3fc                 BTRSC 0x3, 0x0
00000046 c7b7                 LGOTO 0x48; codeDriver.o:_00011_DS_=0x48
00000047 e2d5                 BCR 0x2a, 0x2
00000048                      codeDriver.o:_00011_DS_:
00000048 f7fc                 BTRSS 0x3, 0x0
00000049 c7b3                 LGOTO 0x4c; codeDriver.o:_00012_DS_=0x4c
0000004a e0fc                 BCR 0x3, 0x6
0000004b e6d5                 BSR 0x2a, 0x2
0000004c                      codeDriver.o:_00012_DS_:
0000004c e0fc                 BCR 0x3, 0x6
0000004d fd57                 CLRR 0x28
0000004e f3fc                 BTRSC 0x3, 0x0
0000004f fa57                 INCR 0x28, 0x1
00000050 ecd7                 RRR 0x28, 0x0
00000051 f3fc                 BTRSC 0x3, 0x0
00000052 c7ab                 LGOTO 0x54; codeDriver.o:_00013_DS_=0x54
00000053 e255                 BCR 0x2a, 0x3
00000054                      codeDriver.o:_00013_DS_:
00000054 f7fc                 BTRSS 0x3, 0x0
00000055 c7a7                 LGOTO 0x58; codeDriver.o:_00014_DS_=0x58
00000056 e0fc                 BCR 0x3, 0x6
00000057 e655                 BSR 0x2a, 0x3
00000058                      codeDriver.o:_00014_DS_:
00000058 e0fc                 BCR 0x3, 0x6
00000059 fd57                 CLRR 0x28
0000005a f3fc                 BTRSC 0x3, 0x0
0000005b fa57                 INCR 0x28, 0x1
0000005c ecd7                 RRR 0x28, 0x0
0000005d f3fc                 BTRSC 0x3, 0x0
0000005e c79f                 LGOTO 0x60; codeDriver.o:_00015_DS_=0x60
0000005f e1d5                 BCR 0x2a, 0x4
00000060                      codeDriver.o:_00015_DS_:
00000060 f7fc                 BTRSS 0x3, 0x0
00000061 c79b                 LGOTO 0x64; codeDriver.o:_00016_DS_=0x64
00000062 e0fc                 BCR 0x3, 0x6
00000063 e5d5                 BSR 0x2a, 0x4
00000064                      codeDriver.o:_00016_DS_:
00000064 e0fc                 BCR 0x3, 0x6
00000065 fd57                 CLRR 0x28
00000066 f3fc                 BTRSC 0x3, 0x0
00000067 fa57                 INCR 0x28, 0x1
00000068 ecd7                 RRR 0x28, 0x0
00000069 f3fc                 BTRSC 0x3, 0x0
0000006a c793                 LGOTO 0x6c; codeDriver.o:_00017_DS_=0x6c
0000006b e155                 BCR 0x2a, 0x5
0000006c                      codeDriver.o:_00017_DS_:
0000006c f7fc                 BTRSS 0x3, 0x0
0000006d c78f                 LGOTO 0x70; codeDriver.o:_00018_DS_=0x70
0000006e e0fc                 BCR 0x3, 0x6
0000006f e555                 BSR 0x2a, 0x5
00000070                      codeDriver.o:_00018_DS_:
00000070 e0fc                 BCR 0x3, 0x6
00000071 fd57                 CLRR 0x28
00000072 f3fc                 BTRSC 0x3, 0x0
00000073 fa57                 INCR 0x28, 0x1
00000074 ecd7                 RRR 0x28, 0x0
00000075 f3fc                 BTRSC 0x3, 0x0
00000076 c787                 LGOTO 0x78; codeDriver.o:_00019_DS_=0x78
00000077 e0d5                 BCR 0x2a, 0x6
00000078                      codeDriver.o:_00019_DS_:
00000078 f7fc                 BTRSS 0x3, 0x0
00000079 c783                 LGOTO 0x7c; codeDriver.o:_00020_DS_=0x7c
0000007a e0fc                 BCR 0x3, 0x6
0000007b e4d5                 BSR 0x2a, 0x6
0000007c                      codeDriver.o:_00020_DS_:
0000007c e0fc                 BCR 0x3, 0x6
0000007d fd57                 CLRR 0x28
0000007e f3fc                 BTRSC 0x3, 0x0
0000007f fa57                 INCR 0x28, 0x1
00000080 ecd7                 RRR 0x28, 0x0
00000081 f3fc                 BTRSC 0x3, 0x0
00000082 c77b                 LGOTO 0x84; codeDriver.o:_00021_DS_=0x84
00000083 e055                 BCR 0x2a, 0x7
00000084                      codeDriver.o:_00021_DS_:
00000084 f7fc                 BTRSS 0x3, 0x0
00000085 c777                 LGOTO 0x88; codeDriver.o:_00022_DS_=0x88
00000086 e0fc                 BCR 0x3, 0x6
00000087 e455                 BSR 0x2a, 0x7
00000088                      codeDriver.o:_00022_DS_:
00000088 e0fc                 BCR 0x3, 0x6
00000089 fd57                 CLRR 0x28
0000008a f3fc                 BTRSC 0x3, 0x0
0000008b fa57                 INCR 0x28, 0x1
0000008c ecd7                 RRR 0x28, 0x0
0000008d f3fc                 BTRSC 0x3, 0x0
0000008e c76f                 LGOTO 0x90; codeDriver.o:_00023_DS_=0x90
0000008f e3d4                 BCR 0x2b, 0x0
00000090                      codeDriver.o:_00023_DS_:
00000090 f7fc                 BTRSS 0x3, 0x0
00000091 c76b                 LGOTO 0x94; codeDriver.o:_00024_DS_=0x94
00000092 e0fc                 BCR 0x3, 0x6
00000093 e7d4                 BSR 0x2b, 0x0
00000094                      codeDriver.o:_00024_DS_:
00000094 e0fc                 BCR 0x3, 0x6
00000095 fd57                 CLRR 0x28
00000096 f3fc                 BTRSC 0x3, 0x0
00000097 fa57                 INCR 0x28, 0x1
00000098 ecd7                 RRR 0x28, 0x0
00000099 f3fc                 BTRSC 0x3, 0x0
0000009a c763                 LGOTO 0x9c; codeDriver.o:_00025_DS_=0x9c
0000009b e354                 BCR 0x2b, 0x1
0000009c                      codeDriver.o:_00025_DS_:
0000009c f7fc                 BTRSS 0x3, 0x0
0000009d c75f                 LGOTO 0xa0; codeDriver.o:_00026_DS_=0xa0
0000009e e0fc                 BCR 0x3, 0x6
0000009f e754                 BSR 0x2b, 0x1
000000a0                      codeDriver.o:_00026_DS_:
000000a0 e0fc                 BCR 0x3, 0x6
000000a1 fd57                 CLRR 0x28
000000a2 f3fc                 BTRSC 0x3, 0x0
000000a3 fa57                 INCR 0x28, 0x1
000000a4 ecd7                 RRR 0x28, 0x0
000000a5 f3fc                 BTRSC 0x3, 0x0
000000a6 c757                 LGOTO 0xa8; codeDriver.o:_00027_DS_=0xa8
000000a7 e2d4                 BCR 0x2b, 0x2
000000a8                      codeDriver.o:_00027_DS_:
000000a8 f7fc                 BTRSS 0x3, 0x0
000000a9 c753                 LGOTO 0xac; codeDriver.o:_00028_DS_=0xac
000000aa e0fc                 BCR 0x3, 0x6
000000ab e6d4                 BSR 0x2b, 0x2
000000ac                      codeDriver.o:_00028_DS_:
000000ac e0fc                 BCR 0x3, 0x6
000000ad fd57                 CLRR 0x28
000000ae f3fc                 BTRSC 0x3, 0x0
000000af fa57                 INCR 0x28, 0x1
000000b0 ecd7                 RRR 0x28, 0x0
000000b1 f3fc                 BTRSC 0x3, 0x0
000000b2 c74b                 LGOTO 0xb4; codeDriver.o:_00029_DS_=0xb4
000000b3 e254                 BCR 0x2b, 0x3
000000b4                      codeDriver.o:_00029_DS_:
000000b4 f7fc                 BTRSS 0x3, 0x0
000000b5 c747                 LGOTO 0xb8; codeDriver.o:_00030_DS_=0xb8
000000b6 e0fc                 BCR 0x3, 0x6
000000b7 e654                 BSR 0x2b, 0x3
000000b8                      codeDriver.o:_00030_DS_:
000000b8 e0fc                 BCR 0x3, 0x6
000000b9 fd57                 CLRR 0x28
000000ba f3fc                 BTRSC 0x3, 0x0
000000bb fa57                 INCR 0x28, 0x1
000000bc ecd7                 RRR 0x28, 0x0
000000bd f3fc                 BTRSC 0x3, 0x0
000000be c73f                 LGOTO 0xc0; codeDriver.o:_00031_DS_=0xc0
000000bf e1d4                 BCR 0x2b, 0x4
000000c0                      codeDriver.o:_00031_DS_:
000000c0 f7fc                 BTRSS 0x3, 0x0
000000c1 c73b                 LGOTO 0xc4; codeDriver.o:_00032_DS_=0xc4
000000c2 e0fc                 BCR 0x3, 0x6
000000c3 e5d4                 BSR 0x2b, 0x4
000000c4                      codeDriver.o:_00032_DS_:
000000c4 e0fc                 BCR 0x3, 0x6
000000c5 fd57                 CLRR 0x28
000000c6 f3fc                 BTRSC 0x3, 0x0
000000c7 fa57                 INCR 0x28, 0x1
000000c8 ecd7                 RRR 0x28, 0x0
000000c9 f3fc                 BTRSC 0x3, 0x0
000000ca c733                 LGOTO 0xcc; codeDriver.o:_00033_DS_=0xcc
000000cb e154                 BCR 0x2b, 0x5
000000cc                      codeDriver.o:_00033_DS_:
000000cc f7fc                 BTRSS 0x3, 0x0
000000cd c72f                 LGOTO 0xd0; codeDriver.o:_00034_DS_=0xd0
000000ce e0fc                 BCR 0x3, 0x6
000000cf e554                 BSR 0x2b, 0x5
000000d0                      codeDriver.o:_00034_DS_:
000000d0 e0fc                 BCR 0x3, 0x6
000000d1 fd57                 CLRR 0x28
000000d2 f3fc                 BTRSC 0x3, 0x0
000000d3 fa57                 INCR 0x28, 0x1
000000d4 ecd7                 RRR 0x28, 0x0
000000d5 f3fc                 BTRSC 0x3, 0x0
000000d6 c727                 LGOTO 0xd8; codeDriver.o:_00035_DS_=0xd8
000000d7 e0d4                 BCR 0x2b, 0x6
000000d8                      codeDriver.o:_00035_DS_:
000000d8 f7fc                 BTRSS 0x3, 0x0
000000d9 c723                 LGOTO 0xdc; codeDriver.o:_00036_DS_=0xdc
000000da e0fc                 BCR 0x3, 0x6
000000db e4d4                 BSR 0x2b, 0x6
000000dc                      codeDriver.o:_00036_DS_:
000000dc e0fc                 BCR 0x3, 0x6
000000dd fd57                 CLRR 0x28
000000de f3fc                 BTRSC 0x3, 0x0
000000df fa57                 INCR 0x28, 0x1
000000e0 ecd7                 RRR 0x28, 0x0
000000e1 f3fc                 BTRSC 0x3, 0x0
000000e2 c71b                 LGOTO 0xe4; codeDriver.o:_00037_DS_=0xe4
000000e3 e054                 BCR 0x2b, 0x7
000000e4                      codeDriver.o:_00037_DS_:
000000e4 f7fc                 BTRSS 0x3, 0x0
000000e5 c717                 LGOTO 0xe8; codeDriver.o:_00038_DS_=0xe8
000000e6 e0fc                 BCR 0x3, 0x6
000000e7 e454                 BSR 0x2b, 0x7
000000e8                      codeDriver.o:_00038_DS_:
000000e8 e0fc                 BCR 0x3, 0x6
000000e9 fd57                 CLRR 0x28
000000ea f3fc                 BTRSC 0x3, 0x0
000000eb fa57                 INCR 0x28, 0x1
000000ec ecd7                 RRR 0x28, 0x0
000000ed f3fc                 BTRSC 0x3, 0x0
000000ee c70f                 LGOTO 0xf0; codeDriver.o:_00039_DS_=0xf0
000000ef e3d3                 BCR 0x2c, 0x0
000000f0                      codeDriver.o:_00039_DS_:
000000f0 f7fc                 BTRSS 0x3, 0x0
000000f1 c70b                 LGOTO 0xf4; codeDriver.o:_00040_DS_=0xf4
000000f2 e0fc                 BCR 0x3, 0x6
000000f3 e7d3                 BSR 0x2c, 0x0
000000f4                      codeDriver.o:_00040_DS_:
000000f4 e0fc                 BCR 0x3, 0x6
000000f5 fd57                 CLRR 0x28
000000f6 f3fc                 BTRSC 0x3, 0x0
000000f7 fa57                 INCR 0x28, 0x1
000000f8 ecd7                 RRR 0x28, 0x0
000000f9 f3fc                 BTRSC 0x3, 0x0
000000fa c703                 LGOTO 0xfc; codeDriver.o:_00041_DS_=0xfc
000000fb e353                 BCR 0x2c, 0x1
000000fc                      codeDriver.o:_00041_DS_:
000000fc f7fc                 BTRSS 0x3, 0x0
000000fd c6ff                 LGOTO 0x100; codeDriver.o:_00042_DS_=0x100
000000fe e0fc                 BCR 0x3, 0x6
000000ff e753                 BSR 0x2c, 0x1
00000100                      codeDriver.o:_00042_DS_:
00000100 e0fc                 BCR 0x3, 0x6
00000101 fd57                 CLRR 0x28
00000102 f3fc                 BTRSC 0x3, 0x0
00000103 fa57                 INCR 0x28, 0x1
00000104 ecd7                 RRR 0x28, 0x0
00000105 f3fc                 BTRSC 0x3, 0x0
00000106 c6f7                 LGOTO 0x108; codeDriver.o:_00043_DS_=0x108
00000107 e2d3                 BCR 0x2c, 0x2
00000108                      codeDriver.o:_00043_DS_:
00000108 f7fc                 BTRSS 0x3, 0x0
00000109 c6f3                 LGOTO 0x10c; codeDriver.o:_00044_DS_=0x10c
0000010a e0fc                 BCR 0x3, 0x6
0000010b e6d3                 BSR 0x2c, 0x2
0000010c                      codeDriver.o:_00044_DS_:
0000010c e0fc                 BCR 0x3, 0x6
0000010d fd57                 CLRR 0x28
0000010e f3fc                 BTRSC 0x3, 0x0
0000010f fa57                 INCR 0x28, 0x1
00000110 ecd7                 RRR 0x28, 0x0
00000111 f3fc                 BTRSC 0x3, 0x0
00000112 c6eb                 LGOTO 0x114; codeDriver.o:_00045_DS_=0x114
00000113 e253                 BCR 0x2c, 0x3
00000114                      codeDriver.o:_00045_DS_:
00000114 f7fc                 BTRSS 0x3, 0x0
00000115 c6e7                 LGOTO 0x118; codeDriver.o:_00046_DS_=0x118
00000116 e0fc                 BCR 0x3, 0x6
00000117 e653                 BSR 0x2c, 0x3
00000118                      codeDriver.o:_00046_DS_:
00000118 e0fc                 BCR 0x3, 0x6
00000119 fd57                 CLRR 0x28
0000011a f3fc                 BTRSC 0x3, 0x0
0000011b fa57                 INCR 0x28, 0x1
0000011c ecd7                 RRR 0x28, 0x0
0000011d f3fc                 BTRSC 0x3, 0x0
0000011e c6df                 LGOTO 0x120; codeDriver.o:_00047_DS_=0x120
0000011f e1d3                 BCR 0x2c, 0x4
00000120                      codeDriver.o:_00047_DS_:
00000120 f7fc                 BTRSS 0x3, 0x0
00000121 c6db                 LGOTO 0x124; codeDriver.o:_00048_DS_=0x124
00000122 e0fc                 BCR 0x3, 0x6
00000123 e5d3                 BSR 0x2c, 0x4
00000124                      codeDriver.o:_00048_DS_:
00000124 e0fc                 BCR 0x3, 0x6
00000125 fd57                 CLRR 0x28
00000126 f3fc                 BTRSC 0x3, 0x0
00000127 fa57                 INCR 0x28, 0x1
00000128 ecd7                 RRR 0x28, 0x0
00000129 f3fc                 BTRSC 0x3, 0x0
0000012a c6d3                 LGOTO 0x12c; codeDriver.o:_00049_DS_=0x12c
0000012b e153                 BCR 0x2c, 0x5
0000012c                      codeDriver.o:_00049_DS_:
0000012c f7fc                 BTRSS 0x3, 0x0
0000012d c6cf                 LGOTO 0x130; codeDriver.o:_00050_DS_=0x130
0000012e e0fc                 BCR 0x3, 0x6
0000012f e553                 BSR 0x2c, 0x5
00000130                      codeDriver.o:_00050_DS_:
00000130 e0fc                 BCR 0x3, 0x6
00000131 fd57                 CLRR 0x28
00000132 f3fc                 BTRSC 0x3, 0x0
00000133 fa57                 INCR 0x28, 0x1
00000134 ecd7                 RRR 0x28, 0x0
00000135 f3fc                 BTRSC 0x3, 0x0
00000136 c6c7                 LGOTO 0x138; codeDriver.o:_00051_DS_=0x138
00000137 e0d3                 BCR 0x2c, 0x6
00000138                      codeDriver.o:_00051_DS_:
00000138 f7fc                 BTRSS 0x3, 0x0
00000139 c6c3                 LGOTO 0x13c; codeDriver.o:_00052_DS_=0x13c
0000013a e0fc                 BCR 0x3, 0x6
0000013b e4d3                 BSR 0x2c, 0x6
0000013c                      codeDriver.o:_00052_DS_:
0000013c e0fc                 BCR 0x3, 0x6
0000013d fd57                 CLRR 0x28
0000013e f3fc                 BTRSC 0x3, 0x0
0000013f fa57                 INCR 0x28, 0x1
00000140 ecd7                 RRR 0x28, 0x0
00000141 f3fc                 BTRSC 0x3, 0x0
00000142 c6bb                 LGOTO 0x144; codeDriver.o:_00053_DS_=0x144
00000143 e053                 BCR 0x2c, 0x7
00000144                      codeDriver.o:_00053_DS_:
00000144 f7fc                 BTRSS 0x3, 0x0
00000145 c6b7                 LGOTO 0x148; codeDriver.o:_00054_DS_=0x148
00000146 e0fc                 BCR 0x3, 0x6
00000147 e453                 BSR 0x2c, 0x7
00000148                      codeDriver.o:_00054_DS_:
00000148 ffef                 RET
00000149                      _sendtoLast:
00000149 e0fc                 BCR 0x3, 0x6
0000014a ff5f                 MOVAR 0x20
0000014b feb0                 MOVR 0x4f, 0x0
0000014c ff5e                 MOVAR 0x21
0000014d feb1                 MOVR 0x4e, 0x0
0000014e ff5d                 MOVAR 0x22
0000014f feb2                 MOVR 0x4d, 0x0
00000150 ff5c                 MOVAR 0x23
00000151 fd5b                 CLRR 0x24
00000152 fd5a                 CLRR 0x25
00000153                      codeDriver.o:_00107_DS_:
00000153 e0fc                 BCR 0x3, 0x6
00000154 fedf                 MOVR 0x20, 0x0
00000155 ff59                 MOVAR 0x26
00000156 feda                 MOVR 0x25, 0x0
00000157 da7f                 ADDIA 0x80
00000158 ff58                 MOVAR 0x27
00000159 deff                 MOVIA 0x0
0000015a da7f                 ADDIA 0x80
0000015b fbd8                 SUBAR 0x27, 0x0
0000015c f6fc                 BTRSS 0x3, 0x2
0000015d c69f                 LGOTO 0x160; codeDriver.o:_00118_DS_=0x160
0000015e fed9                 MOVR 0x26, 0x0
0000015f fbdb                 SUBAR 0x24, 0x0
00000160                      codeDriver.o:_00118_DS_:
00000160 f3fc                 BTRSC 0x3, 0x0
00000161 c690                 LGOTO 0x16f; codeDriver.o:_00105_DS_=0x16f
00000162 e0fc                 BCR 0x3, 0x6
00000163 fedc                 MOVR 0x23, 0x0
00000164 ff31                 MOVAR 0x4e
00000165 fedd                 MOVR 0x22, 0x0
00000166 ff30                 MOVAR 0x4f
00000167 fede                 MOVR 0x21, 0x0
00000168 d7d7                 LCALL 0x28; _sendRGB1=0x28
00000169 e0fc                 BCR 0x3, 0x6
0000016a fa5b                 INCR 0x24, 0x1
0000016b f6fc                 BTRSS 0x3, 0x2
0000016c c691                 LGOTO 0x16e; codeDriver.o:_00055_DS_=0x16e
0000016d fa5a                 INCR 0x25, 0x1
0000016e                      codeDriver.o:_00055_DS_:
0000016e c6ac                 LGOTO 0x153; codeDriver.o:_00107_DS_=0x153
0000016f                      codeDriver.o:_00105_DS_:
0000016f d7e2                 LCALL 0x1d; crt0.o:crt0_end=0x1d
00000170 ffef                 RET
00000171                      _writeWordStep:
00000171 e0fc                 BCR 0x3, 0x6
00000172 ff48                 MOVAR 0x37
00000173 de80                 MOVIA 0x7f
00000174 ff73                 MOVAR 0xc
00000175 fdff                 CLRA
00000176 fffa                 IOST 0x5
00000177 defe                 MOVIA 0x1
00000178 fff9                 IOST 0x6
00000179 e3fa                 BCR 0x5, 0x0
0000017a d5db                 LCALL 0x224; _Start24C02=0x224
0000017b de5f                 MOVIA 0xa0
0000017c d618                 LCALL 0x1e7; _SendByte=0x1e7
0000017d d5fc                 LCALL 0x203; _RecvAck=0x203
0000017e deff                 MOVIA 0x0
0000017f d618                 LCALL 0x1e7; _SendByte=0x1e7
00000180 d5fc                 LCALL 0x203; _RecvAck=0x203
00000181 e0fc                 BCR 0x3, 0x6
00000182 fec8                 MOVR 0x37, 0x0
00000183 d618                 LCALL 0x1e7; _SendByte=0x1e7
00000184 d5fc                 LCALL 0x203; _RecvAck=0x203
00000185 d5e5                 LCALL 0x21a; _Stop24C02=0x21a
00000186 ffef                 RET
00000187                      _readWordStep:
00000187 e0fc                 BCR 0x3, 0x6
00000188 ff4a                 MOVAR 0x35
00000189 feb0                 MOVR 0x4f, 0x0
0000018a ff4b                 MOVAR 0x34
0000018b feb1                 MOVR 0x4e, 0x0
0000018c ff4c                 MOVAR 0x33
0000018d de80                 MOVIA 0x7f
0000018e ff73                 MOVAR 0xc
0000018f fdff                 CLRA
00000190 fffa                 IOST 0x5
00000191 defe                 MOVIA 0x1
00000192 fff9                 IOST 0x6
00000193 e3fa                 BCR 0x5, 0x0
00000194 d5db                 LCALL 0x224; _Start24C02=0x224
00000195 de5f                 MOVIA 0xa0
00000196 d618                 LCALL 0x1e7; _SendByte=0x1e7
00000197 d5fc                 LCALL 0x203; _RecvAck=0x203
00000198 deff                 MOVIA 0x0
00000199 d618                 LCALL 0x1e7; _SendByte=0x1e7
0000019a d5fc                 LCALL 0x203; _RecvAck=0x203
0000019b d5db                 LCALL 0x224; _Start24C02=0x224
0000019c de5e                 MOVIA 0xa1
0000019d d618                 LCALL 0x1e7; _SendByte=0x1e7
0000019e d5fc                 LCALL 0x203; _RecvAck=0x203
0000019f d63a                 LCALL 0x1c5; _ReadByte=0x1c5
000001a0 e0fc                 BCR 0x3, 0x6
000001a1 ff49                 MOVAR 0x36
000001a2 ff32                 MOVAR 0x4d
000001a3 fecc                 MOVR 0x33, 0x0
000001a4 ff31                 MOVAR 0x4e
000001a5 fecb                 MOVR 0x34, 0x0
000001a6 ff30                 MOVAR 0x4f
000001a7 feca                 MOVR 0x35, 0x0
000001a8 d447                 LCALL 0x3b8; __gptrput=0x3b8
000001a9 d5ef                 LCALL 0x210; _SendNoAck=0x210
000001aa d5e5                 LCALL 0x21a; _Stop24C02=0x21a
000001ab e0fc                 BCR 0x3, 0x6
000001ac fecc                 MOVR 0x33, 0x0
000001ad ff31                 MOVAR 0x4e
000001ae fecb                 MOVR 0x34, 0x0
000001af ff30                 MOVAR 0x4f
000001b0 feca                 MOVR 0x35, 0x0
000001b1 d45a                 LCALL 0x3a5; __gptrget=0x3a5
000001b2 e0fc                 BCR 0x3, 0x6
000001b3 ff49                 MOVAR 0x36
000001b4 deec                 MOVIA 0x13
000001b5 fbc9                 SUBAR 0x36, 0x0
000001b6 f3fc                 BTRSC 0x3, 0x0
000001b7 c644                 LGOTO 0x1bb; eeprom.o:_00153_DS_=0x1bb
000001b8 fec9                 MOVR 0x36, 0x0
000001b9 f6fc                 BTRSS 0x3, 0x2
000001ba c63b                 LGOTO 0x1c4; eeprom.o:_00156_DS_=0x1c4
000001bb                      eeprom.o:_00153_DS_:
000001bb defe                 MOVIA 0x1
000001bc ff32                 MOVAR 0x4d
000001bd e0fc                 BCR 0x3, 0x6
000001be fecc                 MOVR 0x33, 0x0
000001bf ff31                 MOVAR 0x4e
000001c0 fecb                 MOVR 0x34, 0x0
000001c1 ff30                 MOVAR 0x4f
000001c2 feca                 MOVR 0x35, 0x0
000001c3 d447                 LCALL 0x3b8; __gptrput=0x3b8
000001c4                      eeprom.o:_00156_DS_:
000001c4 ffef                 RET
000001c5                      _ReadByte:
000001c5 e0fc                 BCR 0x3, 0x6
000001c6 fd50                 CLRR 0x2f
000001c7 d5ce                 LCALL 0x231; _SDAInput=0x231
000001c8 def7                 MOVIA 0x8
000001c9 e0fc                 BCR 0x3, 0x6
000001ca ff4f                 MOVAR 0x30
000001cb                      eeprom.o:_00148_DS_:
000001cb e0fc                 BCR 0x3, 0x6
000001cc fecf                 MOVR 0x30, 0x0
000001cd f2fc                 BTRSC 0x3, 0x2
000001ce c61c                 LGOTO 0x1e3; eeprom.o:_00146_DS_=0x1e3
000001cf e7fa                 BSR 0x5, 0x0
000001d0 d7fe                 LCALL 0x1; _Delay10Us=0x1
000001d1 e3fc                 BCR 0x3, 0x0
000001d2 e0fc                 BCR 0x3, 0x6
000001d3 eb50                 RLR 0x2f, 0x1
000001d4 fed0                 MOVR 0x2f, 0x0
000001d5 ff4e                 MOVAR 0x31
000001d6 fd4d                 CLRR 0x32
000001d7 f479                 BTRSS 0x6, 0x7
000001d8 c625                 LGOTO 0x1da; eeprom.o:_00001_DS_=0x1da
000001d9 fa4d                 INCR 0x32, 0x1
000001da                      eeprom.o:_00001_DS_:
000001da e0fc                 BCR 0x3, 0x6
000001db fecd                 MOVR 0x32, 0x0
000001dc eece                 IORAR 0x31, 0x0
000001dd ff50                 MOVAR 0x2f
000001de e3fa                 BCR 0x5, 0x0
000001df d7fe                 LCALL 0x1; _Delay10Us=0x1
000001e0 e0fc                 BCR 0x3, 0x6
000001e1 f94f                 DECR 0x30, 0x1
000001e2 c634                 LGOTO 0x1cb; eeprom.o:_00148_DS_=0x1cb
000001e3                      eeprom.o:_00146_DS_:
000001e3 d5c5                 LCALL 0x23a; _SDAOutput=0x23a
000001e4 e0fc                 BCR 0x3, 0x6
000001e5 fed0                 MOVR 0x2f, 0x0
000001e6 ffef                 RET
000001e7                      _SendByte:
000001e7 e0fc                 BCR 0x3, 0x6
000001e8 ff52                 MOVAR 0x2d
000001e9 def7                 MOVIA 0x8
000001ea ff51                 MOVAR 0x2e
000001eb                      eeprom.o:_00139_DS_:
000001eb e0fc                 BCR 0x3, 0x6
000001ec fed1                 MOVR 0x2e, 0x0
000001ed f2fc                 BTRSC 0x3, 0x2
000001ee c5fd                 LGOTO 0x202; eeprom.o:_00141_DS_=0x202
000001ef e3fc                 BCR 0x3, 0x0
000001f0 eb52                 RLR 0x2d, 0x1
000001f1 f3fc                 BTRSC 0x3, 0x0
000001f2 c60b                 LGOTO 0x1f4; eeprom.o:_00002_DS_=0x1f4
000001f3 e079                 BCR 0x6, 0x7
000001f4                      eeprom.o:_00002_DS_:
000001f4 f7fc                 BTRSS 0x3, 0x0
000001f5 c607                 LGOTO 0x1f8; eeprom.o:_00003_DS_=0x1f8
000001f6 e0fc                 BCR 0x3, 0x6
000001f7 e479                 BSR 0x6, 0x7
000001f8                      eeprom.o:_00003_DS_:
000001f8 d7fe                 LCALL 0x1; _Delay10Us=0x1
000001f9 e0fc                 BCR 0x3, 0x6
000001fa e7fa                 BSR 0x5, 0x0
000001fb d7fe                 LCALL 0x1; _Delay10Us=0x1
000001fc e0fc                 BCR 0x3, 0x6
000001fd e3fa                 BCR 0x5, 0x0
000001fe d7fe                 LCALL 0x1; _Delay10Us=0x1
000001ff e0fc                 BCR 0x3, 0x6
00000200 f951                 DECR 0x2e, 0x1
00000201 c614                 LGOTO 0x1eb; eeprom.o:_00139_DS_=0x1eb
00000202                      eeprom.o:_00141_DS_:
00000202 ffef                 RET
00000203                      _RecvAck:
00000203 d5ce                 LCALL 0x231; _SDAInput=0x231
00000204 d7fe                 LCALL 0x1; _Delay10Us=0x1
00000205 e0fc                 BCR 0x3, 0x6
00000206 e7fa                 BSR 0x5, 0x0
00000207 d7fe                 LCALL 0x1; _Delay10Us=0x1
00000208 e0fc                 BCR 0x3, 0x6
00000209 e3fa                 BCR 0x5, 0x0
0000020a d7fe                 LCALL 0x1; _Delay10Us=0x1
0000020b d5c5                 LCALL 0x23a; _SDAOutput=0x23a
0000020c e0fc                 BCR 0x3, 0x6
0000020d e079                 BCR 0x6, 0x7
0000020e d7fe                 LCALL 0x1; _Delay10Us=0x1
0000020f ffef                 RET
00000210                      _SendNoAck:
00000210 e0fc                 BCR 0x3, 0x6
00000211 e479                 BSR 0x6, 0x7
00000212 d7fe                 LCALL 0x1; _Delay10Us=0x1
00000213 e0fc                 BCR 0x3, 0x6
00000214 e7fa                 BSR 0x5, 0x0
00000215 d7fe                 LCALL 0x1; _Delay10Us=0x1
00000216 e0fc                 BCR 0x3, 0x6
00000217 e3fa                 BCR 0x5, 0x0
00000218 d7fe                 LCALL 0x1; _Delay10Us=0x1
00000219 ffef                 RET
0000021a                      _Stop24C02:
0000021a e0fc                 BCR 0x3, 0x6
0000021b e079                 BCR 0x6, 0x7
0000021c d7fe                 LCALL 0x1; _Delay10Us=0x1
0000021d e0fc                 BCR 0x3, 0x6
0000021e e7fa                 BSR 0x5, 0x0
0000021f d7fe                 LCALL 0x1; _Delay10Us=0x1
00000220 e0fc                 BCR 0x3, 0x6
00000221 e479                 BSR 0x6, 0x7
00000222 d7fe                 LCALL 0x1; _Delay10Us=0x1
00000223 ffef                 RET
00000224                      _Start24C02:
00000224 e0fc                 BCR 0x3, 0x6
00000225 e479                 BSR 0x6, 0x7
00000226 d7fe                 LCALL 0x1; _Delay10Us=0x1
00000227 e0fc                 BCR 0x3, 0x6
00000228 e7fa                 BSR 0x5, 0x0
00000229 d7fe                 LCALL 0x1; _Delay10Us=0x1
0000022a e0fc                 BCR 0x3, 0x6
0000022b e079                 BCR 0x6, 0x7
0000022c d7fe                 LCALL 0x1; _Delay10Us=0x1
0000022d e0fc                 BCR 0x3, 0x6
0000022e e3fa                 BCR 0x5, 0x0
0000022f d7fe                 LCALL 0x1; _Delay10Us=0x1
00000230 ffef                 RET
00000231                      _SDAInput:
00000231 ffec                 DISI
00000232 ffe9                 IOSTR 0x6
00000233 e0fc                 BCR 0x3, 0x6
00000234 ff52                 MOVAR 0x2d
00000235 e452                 BSR 0x2d, 0x7
00000236 fed2                 MOVR 0x2d, 0x0
00000237 fff9                 IOST 0x6
00000238 fffb                 ENI
00000239 ffef                 RET
0000023a                      _SDAOutput:
0000023a ffec                 DISI
0000023b ffe9                 IOSTR 0x6
0000023c e0fc                 BCR 0x3, 0x6
0000023d ff52                 MOVAR 0x2d
0000023e e052                 BCR 0x2d, 0x7
0000023f fed2                 MOVR 0x2d, 0x0
00000240 fff9                 IOST 0x6
00000241 fffb                 ENI
00000242 ffef                 RET
00000243                      main.o:__sdcc_interrupt:
00000243 ff3d                 MOVAR 0x42
00000244 eafc                 SWAPR 0x3, 0x0
00000245 fd7c                 CLRR 0x3
00000246 ff3e                 MOVAR 0x41
00000247 fef5                 MOVR 0xa, 0x0
00000248 fd75                 CLRR 0xa
00000249 ff3f                 MOVAR 0x40
0000024a fefb                 MOVR 0x4, 0x0
0000024b e0fc                 BCR 0x3, 0x6
0000024c ff43                 MOVAR 0x3c
0000024d feb0                 MOVR 0x4f, 0x0
0000024e ff42                 MOVAR 0x3d
0000024f feb1                 MOVR 0x4e, 0x0
00000250 ff41                 MOVAR 0x3e
00000251 f7f0                 BTRSS 0xf, 0x0
00000252 c5a2                 LGOTO 0x25d; main.o:_00108_DS_=0x25d
00000253 debe                 MOVIA 0x41
00000254 ff7e                 MOVAR 0x1
00000255 fa40                 INCR 0x3f, 0x1
00000256 fec0                 MOVR 0x3f, 0x0
00000257 db9b                 XORIA 0x64
00000258 f6fc                 BTRSS 0x3, 0x2
00000259 c5a2                 LGOTO 0x25d; main.o:_00108_DS_=0x25d
0000025a fd40                 CLRR 0x3f
0000025b defe                 MOVIA 0x1
0000025c ff2f                 MOVAR 0x50
0000025d                      main.o:_00108_DS_:
0000025d fd70                 CLRR 0xf
0000025e e0fc                 BCR 0x3, 0x6
0000025f fec1                 MOVR 0x3e, 0x0
00000260 ff31                 MOVAR 0x4e
00000261 fec2                 MOVR 0x3d, 0x0
00000262 ff30                 MOVAR 0x4f
00000263 fec3                 MOVR 0x3c, 0x0
00000264 ff7b                 MOVAR 0x4
00000265 febf                 MOVR 0x40, 0x0
00000266 ff75                 MOVAR 0xa
00000267 fd7c                 CLRR 0x3
00000268 eabe                 SWAPR 0x41, 0x0
00000269 ff7c                 MOVAR 0x3
0000026a ea3d                 SWAPR 0x42, 0x1
0000026b eabd                 SWAPR 0x42, 0x0
0000026c                      main.o:END_OF_INTERRUPT:
0000026c ffee                 RETIE
0000026d                      _main:
0000026d fdff                 CLRA
0000026e fff9                 IOST 0x6
0000026f deff                 MOVIA 0x0
00000270 e0fc                 BCR 0x3, 0x6
00000271 ff47                 MOVAR 0x38
00000272 dead                 MOVIA 0x52
00000273 ff31                 MOVAR 0x4e
00000274 fec7                 MOVR 0x38, 0x0
00000275 ff30                 MOVAR 0x4f
00000276 deff                 MOVIA 0x0
00000277 d678                 LCALL 0x187; _readWordStep=0x187
00000278                      main.o:_00117_DS_:
00000278 fffd                 CLRWDT
00000279 d52e                 LCALL 0x2d1; _ledCtrl=0x2d1
0000027a e0fc                 BCR 0x3, 0x6
0000027b feaf                 MOVR 0x50, 0x0
0000027c f2fc                 BTRSC 0x3, 0x2
0000027d c587                 LGOTO 0x278; main.o:_00117_DS_=0x278
0000027e fd2f                 CLRR 0x50
0000027f d545                 LCALL 0x2ba; _keyCtrl=0x2ba
00000280 deff                 MOVIA 0x0
00000281 ff32                 MOVAR 0x4d
00000282 ff31                 MOVAR 0x4e
00000283 de00                 MOVIA 0xff
00000284 ff30                 MOVAR 0x4f
00000285 deed                 MOVIA 0x12
00000286 d6b6                 LCALL 0x149; _sendtoLast=0x149
00000287 deff                 MOVIA 0x0
00000288 ff32                 MOVAR 0x4d
00000289 de00                 MOVIA 0xff
0000028a ff31                 MOVAR 0x4e
0000028b deff                 MOVIA 0x0
0000028c ff30                 MOVAR 0x4f
0000028d deed                 MOVIA 0x12
0000028e d6b6                 LCALL 0x149; _sendtoLast=0x149
0000028f de00                 MOVIA 0xff
00000290 ff32                 MOVAR 0x4d
00000291 deff                 MOVIA 0x0
00000292 ff31                 MOVAR 0x4e
00000293 ff30                 MOVAR 0x4f
00000294 deed                 MOVIA 0x12
00000295 d6b6                 LCALL 0x149; _sendtoLast=0x149
00000296 de05                 MOVIA 0xfa
00000297 ff32                 MOVAR 0x4d
00000298 deff                 MOVIA 0x0
00000299 ff31                 MOVAR 0x4e
0000029a de05                 MOVIA 0xfa
0000029b ff30                 MOVAR 0x4f
0000029c deed                 MOVIA 0x12
0000029d d6b6                 LCALL 0x149; _sendtoLast=0x149
0000029e de05                 MOVIA 0xfa
0000029f ff32                 MOVAR 0x4d
000002a0 ff31                 MOVAR 0x4e
000002a1 deff                 MOVIA 0x0
000002a2 ff30                 MOVAR 0x4f
000002a3 deed                 MOVIA 0x12
000002a4 d6b6                 LCALL 0x149; _sendtoLast=0x149
000002a5 c587                 LGOTO 0x278; main.o:_00117_DS_=0x278
000002a6 ffef                 RET
000002a7                      _keyRead:
000002a7 e0fc                 BCR 0x3, 0x6
000002a8 ff44                 MOVAR 0x3b
000002a9 fec4                 MOVR 0x3b, 0x0
000002aa f2fc                 BTRSC 0x3, 0x2
000002ab c551                 LGOTO 0x2ae; main.o:_00170_DS_=0x2ae
000002ac fa2e                 INCR 0x51, 0x1
000002ad c547                 LGOTO 0x2b8; main.o:_00171_DS_=0x2b8
000002ae                      main.o:_00170_DS_:
000002ae def7                 MOVIA 0x8
000002af e0fc                 BCR 0x3, 0x6
000002b0 fbae                 SUBAR 0x51, 0x0
000002b1 f7fc                 BTRSS 0x3, 0x0
000002b2 c549                 LGOTO 0x2b6; main.o:_00168_DS_=0x2b6
000002b3 fd2e                 CLRR 0x51
000002b4 defe                 MOVIA 0x1
000002b5 c546                 LGOTO 0x2b9; main.o:_00172_DS_=0x2b9
000002b6                      main.o:_00168_DS_:
000002b6 e0fc                 BCR 0x3, 0x6
000002b7 fd2e                 CLRR 0x51
000002b8                      main.o:_00171_DS_:
000002b8 deff                 MOVIA 0x0
000002b9                      main.o:_00172_DS_:
000002b9 ffef                 RET
000002ba                      _keyCtrl:
000002ba f8f9                 COMR 0x6, 0x0
000002bb e0fc                 BCR 0x3, 0x6
000002bc ff45                 MOVAR 0x3a
000002bd dedf                 MOVIA 0x20
000002be ef45                 ANDAR 0x3a, 0x1
000002bf fec5                 MOVR 0x3a, 0x0
000002c0 d558                 LCALL 0x2a7; _keyRead=0x2a7
000002c1 e0fc                 BCR 0x3, 0x6
000002c2 ff45                 MOVAR 0x3a
000002c3 fec5                 MOVR 0x3a, 0x0
000002c4 f2fc                 BTRSC 0x3, 0x2
000002c5 c52f                 LGOTO 0x2d0; main.o:_00162_DS_=0x2d0
000002c6 fa2d                 INCR 0x52, 0x1
000002c7 deea                 MOVIA 0x15
000002c8 fbad                 SUBAR 0x52, 0x0
000002c9 f7fc                 BTRSS 0x3, 0x0
000002ca c532                 LGOTO 0x2cd; main.o:_00159_DS_=0x2cd
000002cb defe                 MOVIA 0x1
000002cc ff2d                 MOVAR 0x52
000002cd                      main.o:_00159_DS_:
000002cd e0fc                 BCR 0x3, 0x6
000002ce fead                 MOVR 0x52, 0x0
000002cf d68e                 LCALL 0x171; _writeWordStep=0x171
000002d0                      main.o:_00162_DS_:
000002d0 ffef                 RET
000002d1                      _ledCtrl:
000002d1 defe                 MOVIA 0x1
000002d2 e0fc                 BCR 0x3, 0x6
000002d3 fbad                 SUBAR 0x52, 0x0
000002d4 f7fc                 BTRSS 0x3, 0x0
000002d5 c45b                 LGOTO 0x3a4; main.o:_00143_DS_=0x3a4
000002d6 deea                 MOVIA 0x15
000002d7 fbad                 SUBAR 0x52, 0x0
000002d8 f3fc                 BTRSC 0x3, 0x0
000002d9 c45b                 LGOTO 0x3a4; main.o:_00143_DS_=0x3a4
000002da f9ad                 DECR 0x52, 0x0
000002db ff46                 MOVAR 0x39
000002dc defd                 MOVIA 0x2
000002dd ff75                 MOVAR 0xa
000002de fec6                 MOVR 0x39, 0x0
000002df da1c                 ADDIA 0xe3
000002e0 f3fc                 BTRSC 0x3, 0x0
000002e1 fa75                 INCR 0xa, 0x1
000002e2 ff7d                 MOVAR 0x2
000002e3                      main.o:_00153_DS_:
000002e3 c508                 LGOTO 0x2f7; main.o:_00122_DS_=0x2f7
000002e4 c501                 LGOTO 0x2fe; main.o:_00123_DS_=0x2fe
000002e5 c4f8                 LGOTO 0x307; main.o:_00124_DS_=0x307
000002e6 c4ef                 LGOTO 0x310; main.o:_00125_DS_=0x310
000002e7 c4e6                 LGOTO 0x319; main.o:_00126_DS_=0x319
000002e8 c4dd                 LGOTO 0x322; main.o:_00127_DS_=0x322
000002e9 c4d4                 LGOTO 0x32b; main.o:_00128_DS_=0x32b
000002ea c4cb                 LGOTO 0x334; main.o:_00129_DS_=0x334
000002eb c4c2                 LGOTO 0x33d; main.o:_00130_DS_=0x33d
000002ec c4b9                 LGOTO 0x346; main.o:_00131_DS_=0x346
000002ed c4b0                 LGOTO 0x34f; main.o:_00132_DS_=0x34f
000002ee c4a7                 LGOTO 0x358; main.o:_00133_DS_=0x358
000002ef c49e                 LGOTO 0x361; main.o:_00134_DS_=0x361
000002f0 c495                 LGOTO 0x36a; main.o:_00135_DS_=0x36a
000002f1 c48c                 LGOTO 0x373; main.o:_00136_DS_=0x373
000002f2 c483                 LGOTO 0x37c; main.o:_00137_DS_=0x37c
000002f3 c47b                 LGOTO 0x384; main.o:_00138_DS_=0x384
000002f4 c473                 LGOTO 0x38c; main.o:_00139_DS_=0x38c
000002f5 c46b                 LGOTO 0x394; main.o:_00140_DS_=0x394
000002f6 c463                 LGOTO 0x39c; main.o:_00141_DS_=0x39c
000002f7                      main.o:_00122_DS_:
000002f7 de00                 MOVIA 0xff
000002f8 ff32                 MOVAR 0x4d
000002f9 ff31                 MOVAR 0x4e
000002fa ff30                 MOVAR 0x4f
000002fb deed                 MOVIA 0x12
000002fc d6b6                 LCALL 0x149; _sendtoLast=0x149
000002fd c45b                 LGOTO 0x3a4; main.o:_00143_DS_=0x3a4
000002fe                      main.o:_00123_DS_:
000002fe de05                 MOVIA 0xfa
000002ff ff32                 MOVAR 0x4d
00000300 deff                 MOVIA 0x0
00000301 ff31                 MOVAR 0x4e
00000302 de05                 MOVIA 0xfa
00000303 ff30                 MOVAR 0x4f
00000304 deed                 MOVIA 0x12
00000305 d6b6                 LCALL 0x149; _sendtoLast=0x149
00000306 c45b                 LGOTO 0x3a4; main.o:_00143_DS_=0x3a4
00000307                      main.o:_00124_DS_:
00000307 de05                 MOVIA 0xfa
00000308 ff32                 MOVAR 0x4d
00000309 deff                 MOVIA 0x0
0000030a ff31                 MOVAR 0x4e
0000030b de05                 MOVIA 0xfa
0000030c ff30                 MOVAR 0x4f
0000030d deed                 MOVIA 0x12
0000030e d6b6                 LCALL 0x149; _sendtoLast=0x149
0000030f c45b                 LGOTO 0x3a4; main.o:_00143_DS_=0x3a4
00000310                      main.o:_00125_DS_:
00000310 de05                 MOVIA 0xfa
00000311 ff32                 MOVAR 0x4d
00000312 deff                 MOVIA 0x0
00000313 ff31                 MOVAR 0x4e
00000314 de05                 MOVIA 0xfa
00000315 ff30                 MOVAR 0x4f
00000316 deed                 MOVIA 0x12
00000317 d6b6                 LCALL 0x149; _sendtoLast=0x149
00000318 c45b                 LGOTO 0x3a4; main.o:_00143_DS_=0x3a4
00000319                      main.o:_00126_DS_:
00000319 de05                 MOVIA 0xfa
0000031a ff32                 MOVAR 0x4d
0000031b deff                 MOVIA 0x0
0000031c ff31                 MOVAR 0x4e
0000031d de05                 MOVIA 0xfa
0000031e ff30                 MOVAR 0x4f
0000031f deed                 MOVIA 0x12
00000320 d6b6                 LCALL 0x149; _sendtoLast=0x149
00000321 c45b                 LGOTO 0x3a4; main.o:_00143_DS_=0x3a4
00000322                      main.o:_00127_DS_:
00000322 de05                 MOVIA 0xfa
00000323 ff32                 MOVAR 0x4d
00000324 deff                 MOVIA 0x0
00000325 ff31                 MOVAR 0x4e
00000326 de05                 MOVIA 0xfa
00000327 ff30                 MOVAR 0x4f
00000328 deed                 MOVIA 0x12
00000329 d6b6                 LCALL 0x149; _sendtoLast=0x149
0000032a c45b                 LGOTO 0x3a4; main.o:_00143_DS_=0x3a4
0000032b                      main.o:_00128_DS_:
0000032b de05                 MOVIA 0xfa
0000032c ff32                 MOVAR 0x4d
0000032d deff                 MOVIA 0x0
0000032e ff31                 MOVAR 0x4e
0000032f de05                 MOVIA 0xfa
00000330 ff30                 MOVAR 0x4f
00000331 deed                 MOVIA 0x12
00000332 d6b6                 LCALL 0x149; _sendtoLast=0x149
00000333 c45b                 LGOTO 0x3a4; main.o:_00143_DS_=0x3a4
00000334                      main.o:_00129_DS_:
00000334 de05                 MOVIA 0xfa
00000335 ff32                 MOVAR 0x4d
00000336 deff                 MOVIA 0x0
00000337 ff31                 MOVAR 0x4e
00000338 de05                 MOVIA 0xfa
00000339 ff30                 MOVAR 0x4f
0000033a deed                 MOVIA 0x12
0000033b d6b6                 LCALL 0x149; _sendtoLast=0x149
0000033c c45b                 LGOTO 0x3a4; main.o:_00143_DS_=0x3a4
0000033d                      main.o:_00130_DS_:
0000033d de05                 MOVIA 0xfa
0000033e ff32                 MOVAR 0x4d
0000033f deff                 MOVIA 0x0
00000340 ff31                 MOVAR 0x4e
00000341 de05                 MOVIA 0xfa
00000342 ff30                 MOVAR 0x4f
00000343 deed                 MOVIA 0x12
00000344 d6b6                 LCALL 0x149; _sendtoLast=0x149
00000345 c45b                 LGOTO 0x3a4; main.o:_00143_DS_=0x3a4
00000346                      main.o:_00131_DS_:
00000346 de05                 MOVIA 0xfa
00000347 ff32                 MOVAR 0x4d
00000348 deff                 MOVIA 0x0
00000349 ff31                 MOVAR 0x4e
0000034a de05                 MOVIA 0xfa
0000034b ff30                 MOVAR 0x4f
0000034c deed                 MOVIA 0x12
0000034d d6b6                 LCALL 0x149; _sendtoLast=0x149
0000034e c45b                 LGOTO 0x3a4; main.o:_00143_DS_=0x3a4
0000034f                      main.o:_00132_DS_:
0000034f de05                 MOVIA 0xfa
00000350 ff32                 MOVAR 0x4d
00000351 deff                 MOVIA 0x0
00000352 ff31                 MOVAR 0x4e
00000353 de05                 MOVIA 0xfa
00000354 ff30                 MOVAR 0x4f
00000355 deed                 MOVIA 0x12
00000356 d6b6                 LCALL 0x149; _sendtoLast=0x149
00000357 c45b                 LGOTO 0x3a4; main.o:_00143_DS_=0x3a4
00000358                      main.o:_00133_DS_:
00000358 de05                 MOVIA 0xfa
00000359 ff32                 MOVAR 0x4d
0000035a deff                 MOVIA 0x0
0000035b ff31                 MOVAR 0x4e
0000035c de05                 MOVIA 0xfa
0000035d ff30                 MOVAR 0x4f
0000035e deed                 MOVIA 0x12
0000035f d6b6                 LCALL 0x149; _sendtoLast=0x149
00000360 c45b                 LGOTO 0x3a4; main.o:_00143_DS_=0x3a4
00000361                      main.o:_00134_DS_:
00000361 de05                 MOVIA 0xfa
00000362 ff32                 MOVAR 0x4d
00000363 deff                 MOVIA 0x0
00000364 ff31                 MOVAR 0x4e
00000365 de05                 MOVIA 0xfa
00000366 ff30                 MOVAR 0x4f
00000367 deed                 MOVIA 0x12
00000368 d6b6                 LCALL 0x149; _sendtoLast=0x149
00000369 c45b                 LGOTO 0x3a4; main.o:_00143_DS_=0x3a4
0000036a                      main.o:_00135_DS_:
0000036a de05                 MOVIA 0xfa
0000036b ff32                 MOVAR 0x4d
0000036c deff                 MOVIA 0x0
0000036d ff31                 MOVAR 0x4e
0000036e de05                 MOVIA 0xfa
0000036f ff30                 MOVAR 0x4f
00000370 deed                 MOVIA 0x12
00000371 d6b6                 LCALL 0x149; _sendtoLast=0x149
00000372 c45b                 LGOTO 0x3a4; main.o:_00143_DS_=0x3a4
00000373                      main.o:_00136_DS_:
00000373 deff                 MOVIA 0x0
00000374 ff32                 MOVAR 0x4d
00000375 de00                 MOVIA 0xff
00000376 ff31                 MOVAR 0x4e
00000377 deff                 MOVIA 0x0
00000378 ff30                 MOVAR 0x4f
00000379 deed                 MOVIA 0x12
0000037a d6b6                 LCALL 0x149; _sendtoLast=0x149
0000037b c45b                 LGOTO 0x3a4; main.o:_00143_DS_=0x3a4
0000037c                      main.o:_00137_DS_:
0000037c deff                 MOVIA 0x0
0000037d ff32                 MOVAR 0x4d
0000037e ff31                 MOVAR 0x4e
0000037f de00                 MOVIA 0xff
00000380 ff30                 MOVAR 0x4f
00000381 deed                 MOVIA 0x12
00000382 d6b6                 LCALL 0x149; _sendtoLast=0x149
00000383 c45b                 LGOTO 0x3a4; main.o:_00143_DS_=0x3a4
00000384                      main.o:_00138_DS_:
00000384 de00                 MOVIA 0xff
00000385 ff32                 MOVAR 0x4d
00000386 deff                 MOVIA 0x0
00000387 ff31                 MOVAR 0x4e
00000388 ff30                 MOVAR 0x4f
00000389 deed                 MOVIA 0x12
0000038a d6b6                 LCALL 0x149; _sendtoLast=0x149
0000038b c45b                 LGOTO 0x3a4; main.o:_00143_DS_=0x3a4
0000038c                      main.o:_00139_DS_:
0000038c de05                 MOVIA 0xfa
0000038d ff32                 MOVAR 0x4d
0000038e ff31                 MOVAR 0x4e
0000038f deff                 MOVIA 0x0
00000390 ff30                 MOVAR 0x4f
00000391 deed                 MOVIA 0x12
00000392 d6b6                 LCALL 0x149; _sendtoLast=0x149
00000393 c45b                 LGOTO 0x3a4; main.o:_00143_DS_=0x3a4
00000394                      main.o:_00140_DS_:
00000394 deff                 MOVIA 0x0
00000395 ff32                 MOVAR 0x4d
00000396 de05                 MOVIA 0xfa
00000397 ff31                 MOVAR 0x4e
00000398 ff30                 MOVAR 0x4f
00000399 deed                 MOVIA 0x12
0000039a d6b6                 LCALL 0x149; _sendtoLast=0x149
0000039b c45b                 LGOTO 0x3a4; main.o:_00143_DS_=0x3a4
0000039c                      main.o:_00141_DS_:
0000039c de05                 MOVIA 0xfa
0000039d ff32                 MOVAR 0x4d
0000039e deff                 MOVIA 0x0
0000039f ff31                 MOVAR 0x4e
000003a0 de05                 MOVIA 0xfa
000003a1 ff30                 MOVAR 0x4f
000003a2 deed                 MOVIA 0x12
000003a3 d6b6                 LCALL 0x149; _sendtoLast=0x149
000003a4                      main.o:_00143_DS_:
000003a4 ffef                 RET
000003a5                      __gptrget:
000003ac                      _gptrget1.o:__dataptrget1:
000003b3                      __codeptrget1:
000003b8                      __gptrput:
000003bc                      _gptrput1.o:__dataptrput1:
000003c4                      ___cinit_load__:
