00000000 c7fe                 LGOTO 0x1; __nyc_ny8_startup=0x1
00000001                      __nyc_ny8_startup:
00000001 d10b                 LCALL 0x6f4; ___cinit_load__=0x6f4
00000002 c793                 LGOTO 0x6c; _main=0x6c
00000003                      main.o:_00972_DS_:
00000003 f56f                 BTRSS 0x10, 0x5
00000004 c7fc                 LGOTO 0x3; main.o:_00972_DS_=0x3
00000005 ffef                 RET
00000008 c7f6                 LGOTO 0x9; main.o:__sdcc_interrupt=0x9
00000009                      main.o:__sdcc_interrupt:
00000009 ff3d                 MOVAR 0x42
0000000a eafc                 SWAPR 0x3, 0x0
0000000b fd7c                 CLRR 0x3
0000000c ff3e                 MOVAR 0x41
0000000d fef5                 MOVR 0xa, 0x0
0000000e fd75                 CLRR 0xa
0000000f ff3f                 MOVAR 0x40
00000010 fefb                 MOVR 0x4, 0x0
00000011 e0fc                 BCR 0x3, 0x6
00000012 ff26                 MOVAR 0x59
00000013 feb8                 MOVR 0x47, 0x0
00000014 ff25                 MOVAR 0x5a
00000015 feb9                 MOVR 0x46, 0x0
00000016 ff24                 MOVAR 0x5b
00000017 f7f0                 BTRSS 0xf, 0x0
00000018 c7a7                 LGOTO 0x58; main.o:_00128_DS_=0x58
00000019 dec8                 MOVIA 0x37
0000001a fc7e                 ADDAR 0x1, 0x1
0000001b fa22                 INCR 0x5d, 0x1
0000001c de9b                 MOVIA 0x64
0000001d fba2                 SUBAR 0x5d, 0x0
0000001e f7fc                 BTRSS 0x3, 0x0
0000001f c7a7                 LGOTO 0x58; main.o:_00128_DS_=0x58
00000020 e7a3                 BSR 0x5c, 0x0
00000021 fd22                 CLRR 0x5d
00000022 fe9f                 MOVR 0x60, 0x0
00000023 f2fc                 BTRSC 0x3, 0x2
00000024 c7d7                 LGOTO 0x28; main.o:_00106_DS_=0x28
00000025 fa1d                 INCR 0x62, 0x1
00000026 f2fc                 BTRSC 0x3, 0x2
00000027 fa1c                 INCR 0x63, 0x1
00000028                      main.o:_00106_DS_:
00000028 e0fc                 BCR 0x3, 0x6
00000029 fa21                 INCR 0x5e, 0x1
0000002a ded7                 MOVIA 0x28
0000002b fba1                 SUBAR 0x5e, 0x0
0000002c f3fc                 BTRSC 0x3, 0x0
0000002d fd21                 CLRR 0x5e
0000002e fa13                 INCR 0x6c, 0x1
0000002f deeb                 MOVIA 0x14
00000030 fb93                 SUBAR 0x6c, 0x0
00000031 f7fc                 BTRSS 0x3, 0x0
00000032 c7c8                 LGOTO 0x37; main.o:_00112_DS_=0x37
00000033 fd13                 CLRR 0x6c
00000034 fe81                 MOVR 0x7e, 0x0
00000035 f6fc                 BTRSS 0x3, 0x2
00000036 f901                 DECR 0x7e, 0x1
00000037                      main.o:_00112_DS_:
00000037 e0fc                 BCR 0x3, 0x6
00000038 fa12                 INCR 0x6d, 0x1
00000039 de9b                 MOVIA 0x64
0000003a fb92                 SUBAR 0x6d, 0x0
0000003b f7fc                 BTRSS 0x3, 0x0
0000003c c7a7                 LGOTO 0x58; main.o:_00128_DS_=0x58
0000003d fd12                 CLRR 0x6d
0000003e f623                 BTRSS 0x5c, 0x3
0000003f c7b8                 LGOTO 0x47; main.o:_00114_DS_=0x47
00000040 fe98                 MOVR 0x67, 0x0
00000041 dbf9                 XORIA 0x6
00000042 f6fc                 BTRSS 0x3, 0x2
00000043 c7b8                 LGOTO 0x47; main.o:_00114_DS_=0x47
00000044 fa17                 INCR 0x68, 0x1
00000045 f2fc                 BTRSC 0x3, 0x2
00000046 fa16                 INCR 0x69, 0x1
00000047                      main.o:_00114_DS_:
00000047 e0fc                 BCR 0x3, 0x6
00000048 fe8d                 MOVR 0x72, 0x0
00000049 f6fc                 BTRSS 0x3, 0x2
0000004a f90d                 DECR 0x72, 0x1
0000004b fe89                 MOVR 0x76, 0x0
0000004c f6fc                 BTRSS 0x3, 0x2
0000004d f909                 DECR 0x76, 0x1
0000004e fe9f                 MOVR 0x60, 0x0
0000004f f2fc                 BTRSC 0x3, 0x2
00000050 c7aa                 LGOTO 0x55; main.o:_00121_DS_=0x55
00000051 fa11                 INCR 0x6e, 0x1
00000052 f2fc                 BTRSC 0x3, 0x2
00000053 fa10                 INCR 0x6f, 0x1
00000054 c7a7                 LGOTO 0x58; main.o:_00128_DS_=0x58
00000055                      main.o:_00121_DS_:
00000055 e0fc                 BCR 0x3, 0x6
00000056 fd11                 CLRR 0x6e
00000057 fd10                 CLRR 0x6f
00000058                      main.o:_00128_DS_:
00000058 f770                 BTRSS 0xf, 0x1
00000059 c7a3                 LGOTO 0x5c; main.o:_00130_DS_=0x5c
0000005a de02                 MOVIA 0xfd
0000005b ff70                 MOVAR 0xf
0000005c                      main.o:_00130_DS_:
0000005c fd70                 CLRR 0xf
0000005d e0fc                 BCR 0x3, 0x6
0000005e fea4                 MOVR 0x5b, 0x0
0000005f ff39                 MOVAR 0x46
00000060 fea5                 MOVR 0x5a, 0x0
00000061 ff38                 MOVAR 0x47
00000062 fea6                 MOVR 0x59, 0x0
00000063 ff7b                 MOVAR 0x4
00000064 febf                 MOVR 0x40, 0x0
00000065 ff75                 MOVAR 0xa
00000066 fd7c                 CLRR 0x3
00000067 eabe                 SWAPR 0x41, 0x0
00000068 ff7c                 MOVAR 0x3
00000069 ea3d                 SWAPR 0x42, 0x1
0000006a eabd                 SWAPR 0x42, 0x0
0000006b                      main.o:END_OF_INTERRUPT:
0000006b ffee                 RETIE
0000006c                      _main:
0000006c d1cd                 LCALL 0x632; _initSys=0x632
0000006d d3e1                 LCALL 0x41e; _initAD=0x41e
0000006e                      main.o:_00184_DS_:
0000006e fffd                 CLRWDT
0000006f d221                 LCALL 0x5de; _ledShow=0x5de
00000070 e0fc                 BCR 0x3, 0x6
00000071 fe9f                 MOVR 0x60, 0x0
00000072 f2fc                 BTRSC 0x3, 0x2
00000073 c777                 LGOTO 0x88; main.o:_00141_DS_=0x88
00000074 ded2                 MOVIA 0x2d
00000075 fb87                 SUBAR 0x78, 0x0
00000076 f7fc                 BTRSS 0x3, 0x0
00000077 c777                 LGOTO 0x88; main.o:_00141_DS_=0x88
00000078 fe85                 MOVR 0x7a, 0x0
00000079 fb87                 SUBAR 0x78, 0x0
0000007a f3fc                 BTRSC 0x3, 0x0
0000007b c77f                 LGOTO 0x80; main.o:_00138_DS_=0x80
0000007c f905                 DECR 0x7a, 0x1
0000007d fe85                 MOVR 0x7a, 0x0
0000007e ffb3                 SFUN 0xc
0000007f c777                 LGOTO 0x88; main.o:_00141_DS_=0x88
00000080                      main.o:_00138_DS_:
00000080 e0fc                 BCR 0x3, 0x6
00000081 fe87                 MOVR 0x78, 0x0
00000082 fb85                 SUBAR 0x7a, 0x0
00000083 f3fc                 BTRSC 0x3, 0x0
00000084 c777                 LGOTO 0x88; main.o:_00141_DS_=0x88
00000085 fa05                 INCR 0x7a, 0x1
00000086 fe85                 MOVR 0x7a, 0x0
00000087 ffb3                 SFUN 0xc
00000088                      main.o:_00141_DS_:
00000088 e0fc                 BCR 0x3, 0x6
00000089 fe9f                 MOVR 0x60, 0x0
0000008a f2fc                 BTRSC 0x3, 0x2
0000008b c76a                 LGOTO 0x95; main.o:_00144_DS_=0x95
0000008c fe8c                 MOVR 0x73, 0x0
0000008d fb99                 SUBAR 0x66, 0x0
0000008e f3fc                 BTRSC 0x3, 0x0
0000008f c76a                 LGOTO 0x95; main.o:_00144_DS_=0x95
00000090 f90c                 DECR 0x73, 0x1
00000091 fe8c                 MOVR 0x73, 0x0
00000092 ffb3                 SFUN 0xc
00000093 fe8c                 MOVR 0x73, 0x0
00000094 ff05                 MOVAR 0x7a
00000095                      main.o:_00144_DS_:
00000095 e0fc                 BCR 0x3, 0x6
00000096 f7a3                 BTRSS 0x5c, 0x0
00000097 c791                 LGOTO 0x6e; main.o:_00184_DS_=0x6e
00000098 e3a3                 BCR 0x5c, 0x0
00000099 fe89                 MOVR 0x76, 0x0
0000009a f6fc                 BTRSS 0x3, 0x2
0000009b c749                 LGOTO 0xb6; main.o:_00151_DS_=0xb6
0000009c fe98                 MOVR 0x67, 0x0
0000009d f6fc                 BTRSS 0x3, 0x2
0000009e c749                 LGOTO 0xb6; main.o:_00151_DS_=0xb6
0000009f fe9f                 MOVR 0x60, 0x0
000000a0 f2fc                 BTRSC 0x3, 0x2
000000a1 c749                 LGOTO 0xb6; main.o:_00151_DS_=0xb6
000000a2 e4fc                 BSR 0x3, 0x6
000000a3 fa5f                 INCR 0x20, 0x1
000000a4 f2fc                 BTRSC 0x3, 0x2
000000a5 fa5e                 INCR 0x21, 0x1
000000a6 defc                 MOVIA 0x3
000000a7 fbde                 SUBAR 0x21, 0x0
000000a8 f6fc                 BTRSS 0x3, 0x2
000000a9 c753                 LGOTO 0xac; main.o:_00276_DS_=0xac
000000aa de17                 MOVIA 0xe8
000000ab fbdf                 SUBAR 0x20, 0x0
000000ac                      main.o:_00276_DS_:
000000ac f7fc                 BTRSS 0x3, 0x0
000000ad c746                 LGOTO 0xb9; main.o:_00152_DS_=0xb9
000000ae e4fc                 BSR 0x3, 0x6
000000af fd5f                 CLRR 0x20
000000b0 fd5e                 CLRR 0x21
000000b1 e0fc                 BCR 0x3, 0x6
000000b2 fd1f                 CLRR 0x60
000000b3 fd1e                 CLRR 0x61
000000b4 d2b7                 LCALL 0x548; _pwmStop=0x548
000000b5 c746                 LGOTO 0xb9; main.o:_00152_DS_=0xb9
000000b6                      main.o:_00151_DS_:
000000b6 e4fc                 BSR 0x3, 0x6
000000b7 fd5f                 CLRR 0x20
000000b8 fd5e                 CLRR 0x21
000000b9                      main.o:_00152_DS_:
000000b9 defa                 MOVIA 0x5
000000ba e0fc                 BCR 0x3, 0x6
000000bb fb8e                 SUBAR 0x71, 0x0
000000bc f7fc                 BTRSS 0x3, 0x0
000000bd c72b                 LGOTO 0xd4; main.o:_00158_DS_=0xd4
000000be fe9f                 MOVR 0x60, 0x0
000000bf f2fc                 BTRSC 0x3, 0x2
000000c0 c72b                 LGOTO 0xd4; main.o:_00158_DS_=0xd4
000000c1 fa03                 INCR 0x7c, 0x1
000000c2 f2fc                 BTRSC 0x3, 0x2
000000c3 fa02                 INCR 0x7d, 0x1
000000c4 defe                 MOVIA 0x1
000000c5 fb82                 SUBAR 0x7d, 0x0
000000c6 f6fc                 BTRSS 0x3, 0x2
000000c7 c735                 LGOTO 0xca; main.o:_00278_DS_=0xca
000000c8 de0a                 MOVIA 0xf5
000000c9 fb83                 SUBAR 0x7c, 0x0
000000ca                      main.o:_00278_DS_:
000000ca f7fc                 BTRSS 0x3, 0x0
000000cb c728                 LGOTO 0xd7; main.o:_00159_DS_=0xd7
000000cc e0fc                 BCR 0x3, 0x6
000000cd fd0e                 CLRR 0x71
000000ce fd03                 CLRR 0x7c
000000cf fd02                 CLRR 0x7d
000000d0 dee6                 MOVIA 0x19
000000d1 ff01                 MOVAR 0x7e
000000d2 d1b0                 LCALL 0x64f; _powerOff=0x64f
000000d3 c728                 LGOTO 0xd7; main.o:_00159_DS_=0xd7
000000d4                      main.o:_00158_DS_:
000000d4 e0fc                 BCR 0x3, 0x6
000000d5 fd03                 CLRR 0x7c
000000d6 fd02                 CLRR 0x7d
000000d7                      main.o:_00159_DS_:
000000d7 e0fc                 BCR 0x3, 0x6
000000d8 f623                 BTRSS 0x5c, 0x3
000000d9 d1ac                 LCALL 0x653; _keyCtr=0x653
000000da                      main.o:_00162_DS_:
000000da defa                 MOVIA 0x5
000000db e0fc                 BCR 0x3, 0x6
000000dc fb93                 SUBAR 0x6c, 0x0
000000dd f3fc                 BTRSC 0x3, 0x0
000000de c71e                 LGOTO 0xe1; main.o:_00171_DS_=0xe1
000000df d595                 LCALL 0x26a; _checkBatAD=0x26a
000000e0 c70a                 LGOTO 0xf5; main.o:_00172_DS_=0xf5
000000e1                      main.o:_00171_DS_:
000000e1 def6                 MOVIA 0x9
000000e2 e0fc                 BCR 0x3, 0x6
000000e3 fb93                 SUBAR 0x6c, 0x0
000000e4 f7fc                 BTRSS 0x3, 0x0
000000e5 c713                 LGOTO 0xec; main.o:_00167_DS_=0xec
000000e6 def4                 MOVIA 0xb
000000e7 fb93                 SUBAR 0x6c, 0x0
000000e8 f3fc                 BTRSC 0x3, 0x0
000000e9 c713                 LGOTO 0xec; main.o:_00167_DS_=0xec
000000ea d66d                 LCALL 0x192; _checkOutA=0x192
000000eb c70a                 LGOTO 0xf5; main.o:_00172_DS_=0xf5
000000ec                      main.o:_00167_DS_:
000000ec def1                 MOVIA 0xe
000000ed e0fc                 BCR 0x3, 0x6
000000ee fb93                 SUBAR 0x6c, 0x0
000000ef f7fc                 BTRSS 0x3, 0x0
000000f0 c70a                 LGOTO 0xf5; main.o:_00172_DS_=0xf5
000000f1 deef                 MOVIA 0x10
000000f2 fb93                 SUBAR 0x6c, 0x0
000000f3 f7fc                 BTRSS 0x3, 0x0
000000f4 d5bd                 LCALL 0x242; _checkChrgV=0x242
000000f5                      main.o:_00172_DS_:
000000f5 d3ca                 LCALL 0x435; _chrgCtr=0x435
000000f6 e0fc                 BCR 0x3, 0x6
000000f7 fe9f                 MOVR 0x60, 0x0
000000f8 f6fc                 BTRSS 0x3, 0x2
000000f9 c6ee                 LGOTO 0x111; main.o:_00176_DS_=0x111
000000fa fea0                 MOVR 0x5f, 0x0
000000fb f6fc                 BTRSS 0x3, 0x2
000000fc c6ee                 LGOTO 0x111; main.o:_00176_DS_=0x111
000000fd f27a                 BTRSC 0x5, 0x3
000000fe c6ee                 LGOTO 0x111; main.o:_00176_DS_=0x111
000000ff fe8d                 MOVR 0x72, 0x0
00000100 f6fc                 BTRSS 0x3, 0x2
00000101 c6ee                 LGOTO 0x111; main.o:_00176_DS_=0x111
00000102 fe81                 MOVR 0x7e, 0x0
00000103 f6fc                 BTRSS 0x3, 0x2
00000104 c6ee                 LGOTO 0x111; main.o:_00176_DS_=0x111
00000105 fa15                 INCR 0x6a, 0x1
00000106 f2fc                 BTRSC 0x3, 0x2
00000107 fa14                 INCR 0x6b, 0x1
00000108 deff                 MOVIA 0x0
00000109 fb94                 SUBAR 0x6b, 0x0
0000010a f6fc                 BTRSS 0x3, 0x2
0000010b c6f1                 LGOTO 0x10e; main.o:_00284_DS_=0x10e
0000010c deea                 MOVIA 0x15
0000010d fb95                 SUBAR 0x6a, 0x0
0000010e                      main.o:_00284_DS_:
0000010e f7fc                 BTRSS 0x3, 0x0
0000010f c6ee                 LGOTO 0x111; main.o:_00176_DS_=0x111
00000110 d2e4                 LCALL 0x51b; _gotoSleep=0x51b
00000111                      main.o:_00176_DS_:
00000111 defc                 MOVIA 0x3
00000112 e0fc                 BCR 0x3, 0x6
00000113 fb90                 SUBAR 0x6f, 0x0
00000114 f6fc                 BTRSS 0x3, 0x2
00000115 c6e7                 LGOTO 0x118; main.o:_00285_DS_=0x118
00000116 de7b                 MOVIA 0x84
00000117 fb91                 SUBAR 0x6e, 0x0
00000118                      main.o:_00285_DS_:
00000118 f7fc                 BTRSS 0x3, 0x0
00000119 c791                 LGOTO 0x6e; main.o:_00184_DS_=0x6e
0000011a d1b0                 LCALL 0x64f; _powerOff=0x64f
0000011b c791                 LGOTO 0x6e; main.o:_00184_DS_=0x6e
0000011c ffef                 RET
0000011d                      _F_AIN2_Convert:
0000011d e0fc                 BCR 0x3, 0x6
0000011e ff2f                 MOVAR 0x50
0000011f fd57                 CLRR 0x28
00000120 fd59                 CLRR 0x26
00000121 fd58                 CLRR 0x27
00000122 de6d                 MOVIA 0x92
00000123 ff6f                 MOVAR 0x10
00000124 de37                 MOVIA 0xc8
00000125 d3d6                 LCALL 0x429; _delay=0x429
00000126 defe                 MOVIA 0x1
00000127 e0fc                 BCR 0x3, 0x6
00000128 ff2e                 MOVAR 0x51
00000129                      main.o:_00965_DS_:
00000129 e0fc                 BCR 0x3, 0x6
0000012a feae                 MOVR 0x51, 0x0
0000012b fbaf                 SUBAR 0x50, 0x0
0000012c f7fc                 BTRSS 0x3, 0x0
0000012d c6bc                 LGOTO 0x143; main.o:_00967_DS_=0x143
0000012e e4ef                 BSR 0x10, 0x6
0000012f d7fc                 LCALL 0x3; main.o:_00972_DS_=0x3
00000130 def0                 MOVIA 0xf
00000131 efee                 ANDAR 0x11, 0x0
00000132 e0fc                 BCR 0x3, 0x6
00000133 fc57                 ADDAR 0x28, 0x1
00000134 feed                 MOVR 0x12, 0x0
00000135 ff2d                 MOVAR 0x52
00000136 deff                 MOVIA 0x0
00000137 ff2c                 MOVAR 0x53
00000138 fead                 MOVR 0x52, 0x0
00000139 fc59                 ADDAR 0x26, 0x1
0000013a feac                 MOVR 0x53, 0x0
0000013b f3fc                 BTRSC 0x3, 0x0
0000013c faac                 INCR 0x53, 0x0
0000013d f2fc                 BTRSC 0x3, 0x2
0000013e c6bf                 LGOTO 0x140; main.o:_00001_DS_=0x140
0000013f fc58                 ADDAR 0x27, 0x1
00000140                      main.o:_00001_DS_:
00000140 e0fc                 BCR 0x3, 0x6
00000141 fa2e                 INCR 0x51, 0x1
00000142 c6d6                 LGOTO 0x129; main.o:_00965_DS_=0x129
00000143                      main.o:_00967_DS_:
00000143 ffef                 RET
00000144                      _F_AIN3_Convert:
00000144 e0fc                 BCR 0x3, 0x6
00000145 ff33                 MOVAR 0x4c
00000146 fd5a                 CLRR 0x25
00000147 fd5c                 CLRR 0x23
00000148 fd5b                 CLRR 0x24
00000149 de6c                 MOVIA 0x93
0000014a ff6f                 MOVAR 0x10
0000014b de37                 MOVIA 0xc8
0000014c d3d6                 LCALL 0x429; _delay=0x429
0000014d defe                 MOVIA 0x1
0000014e e0fc                 BCR 0x3, 0x6
0000014f ff32                 MOVAR 0x4d
00000150                      main.o:_00956_DS_:
00000150 e0fc                 BCR 0x3, 0x6
00000151 feb2                 MOVR 0x4d, 0x0
00000152 fbb3                 SUBAR 0x4c, 0x0
00000153 f7fc                 BTRSS 0x3, 0x0
00000154 c695                 LGOTO 0x16a; main.o:_00958_DS_=0x16a
00000155 e4ef                 BSR 0x10, 0x6
00000156 d7fc                 LCALL 0x3; main.o:_00972_DS_=0x3
00000157 def0                 MOVIA 0xf
00000158 efee                 ANDAR 0x11, 0x0
00000159 e0fc                 BCR 0x3, 0x6
0000015a fc5a                 ADDAR 0x25, 0x1
0000015b feed                 MOVR 0x12, 0x0
0000015c ff31                 MOVAR 0x4e
0000015d deff                 MOVIA 0x0
0000015e ff30                 MOVAR 0x4f
0000015f feb1                 MOVR 0x4e, 0x0
00000160 fc5c                 ADDAR 0x23, 0x1
00000161 feb0                 MOVR 0x4f, 0x0
00000162 f3fc                 BTRSC 0x3, 0x0
00000163 fab0                 INCR 0x4f, 0x0
00000164 f2fc                 BTRSC 0x3, 0x2
00000165 c698                 LGOTO 0x167; main.o:_00002_DS_=0x167
00000166 fc5b                 ADDAR 0x24, 0x1
00000167                      main.o:_00002_DS_:
00000167 e0fc                 BCR 0x3, 0x6
00000168 fa32                 INCR 0x4d, 0x1
00000169 c6af                 LGOTO 0x150; main.o:_00956_DS_=0x150
0000016a                      main.o:_00958_DS_:
0000016a ffef                 RET
0000016b                      _F_AIN4_Convert:
0000016b e0fc                 BCR 0x3, 0x6
0000016c ff37                 MOVAR 0x48
0000016d fd5d                 CLRR 0x22
0000016e fd5f                 CLRR 0x20
0000016f fd5e                 CLRR 0x21
00000170 de6b                 MOVIA 0x94
00000171 ff6f                 MOVAR 0x10
00000172 de37                 MOVIA 0xc8
00000173 d3d6                 LCALL 0x429; _delay=0x429
00000174 defe                 MOVIA 0x1
00000175 e0fc                 BCR 0x3, 0x6
00000176 ff36                 MOVAR 0x49
00000177                      main.o:_00947_DS_:
00000177 e0fc                 BCR 0x3, 0x6
00000178 feb6                 MOVR 0x49, 0x0
00000179 fbb7                 SUBAR 0x48, 0x0
0000017a f7fc                 BTRSS 0x3, 0x0
0000017b c66e                 LGOTO 0x191; main.o:_00949_DS_=0x191
0000017c e4ef                 BSR 0x10, 0x6
0000017d d7fc                 LCALL 0x3; main.o:_00972_DS_=0x3
0000017e def0                 MOVIA 0xf
0000017f efee                 ANDAR 0x11, 0x0
00000180 e0fc                 BCR 0x3, 0x6
00000181 fc5d                 ADDAR 0x22, 0x1
00000182 feed                 MOVR 0x12, 0x0
00000183 ff35                 MOVAR 0x4a
00000184 deff                 MOVIA 0x0
00000185 ff34                 MOVAR 0x4b
00000186 feb5                 MOVR 0x4a, 0x0
00000187 fc5f                 ADDAR 0x20, 0x1
00000188 feb4                 MOVR 0x4b, 0x0
00000189 f3fc                 BTRSC 0x3, 0x0
0000018a fab4                 INCR 0x4b, 0x0
0000018b f2fc                 BTRSC 0x3, 0x2
0000018c c671                 LGOTO 0x18e; main.o:_00003_DS_=0x18e
0000018d fc5e                 ADDAR 0x21, 0x1
0000018e                      main.o:_00003_DS_:
0000018e e0fc                 BCR 0x3, 0x6
0000018f fa36                 INCR 0x49, 0x1
00000190 c688                 LGOTO 0x177; main.o:_00947_DS_=0x177
00000191                      main.o:_00949_DS_:
00000191 ffef                 RET
00000192                      _checkOutA:
00000192 e0fc                 BCR 0x3, 0x6
00000193 fd5d                 CLRR 0x22
00000194 fd5f                 CLRR 0x20
00000195 fd5e                 CLRR 0x21
00000196 def7                 MOVIA 0x8
00000197 d694                 LCALL 0x16b; _F_AIN4_Convert=0x16b
00000198 e0fc                 BCR 0x3, 0x6
00000199 eade                 SWAPR 0x21, 0x0
0000019a dd0f                 ANDIA 0xf0
0000019b ff5e                 MOVAR 0x21
0000019c eadf                 SWAPR 0x20, 0x0
0000019d ff5f                 MOVAR 0x20
0000019e ddf0                 ANDIA 0xf
0000019f ee5e                 IORAR 0x21, 0x1
000001a0 ed5f                 XORAR 0x20, 0x1
000001a1 de0f                 MOVIA 0xf0
000001a2 ef5d                 ANDAR 0x22, 0x1
000001a3 fedd                 MOVR 0x22, 0x0
000001a4 ff41                 MOVAR 0x3e
000001a5 deff                 MOVIA 0x0
000001a6 ff40                 MOVAR 0x3f
000001a7 fec1                 MOVR 0x3e, 0x0
000001a8 fc5f                 ADDAR 0x20, 0x1
000001a9 fec0                 MOVR 0x3f, 0x0
000001aa f3fc                 BTRSC 0x3, 0x0
000001ab fac0                 INCR 0x3f, 0x0
000001ac f2fc                 BTRSC 0x3, 0x2
000001ad c650                 LGOTO 0x1af; main.o:_00004_DS_=0x1af
000001ae fc5e                 ADDAR 0x21, 0x1
000001af                      main.o:_00004_DS_:
000001af e3fc                 BCR 0x3, 0x0
000001b0 e0fc                 BCR 0x3, 0x6
000001b1 ec5e                 RRR 0x21, 0x1
000001b2 ec5f                 RRR 0x20, 0x1
000001b3 e3fc                 BCR 0x3, 0x0
000001b4 ec5e                 RRR 0x21, 0x1
000001b5 ec5f                 RRR 0x20, 0x1
000001b6 e3fc                 BCR 0x3, 0x0
000001b7 ec5e                 RRR 0x21, 0x1
000001b8 ec5f                 RRR 0x20, 0x1
000001b9 e4fc                 BSR 0x3, 0x6
000001ba fedb                 MOVR 0x24, 0x0
000001bb f2fc                 BTRSC 0x3, 0x2
000001bc c63d                 LGOTO 0x1c2; main.o:_00857_DS_=0x1c2
000001bd ded2                 MOVIA 0x2d
000001be e0fc                 BCR 0x3, 0x6
000001bf ff5f                 MOVAR 0x20
000001c0 defe                 MOVIA 0x1
000001c1 ff5e                 MOVAR 0x21
000001c2                      main.o:_00857_DS_:
000001c2 def9                 MOVIA 0x6
000001c3 e0fc                 BCR 0x3, 0x6
000001c4 fb9f                 SUBAR 0x60, 0x0
000001c5 f3fc                 BTRSC 0x3, 0x0
000001c6 c625                 LGOTO 0x1da; main.o:_00884_DS_=0x1da
000001c7 deff                 MOVIA 0x0
000001c8 fbde                 SUBAR 0x21, 0x0
000001c9 f6fc                 BTRSS 0x3, 0x2
000001ca c632                 LGOTO 0x1cd; main.o:_00932_DS_=0x1cd
000001cb de36                 MOVIA 0xc9
000001cc fbdf                 SUBAR 0x20, 0x0
000001cd                      main.o:_00932_DS_:
000001cd f7fc                 BTRSS 0x3, 0x0
000001ce c625                 LGOTO 0x1da; main.o:_00884_DS_=0x1da
000001cf e0fc                 BCR 0x3, 0x6
000001d0 fa0e                 INCR 0x71, 0x1
000001d1 def9                 MOVIA 0x6
000001d2 fb8e                 SUBAR 0x71, 0x0
000001d3 f7fc                 BTRSS 0x3, 0x0
000001d4 c5be                 LGOTO 0x241; main.o:_00887_DS_=0x241
000001d5 defa                 MOVIA 0x5
000001d6 ff0e                 MOVAR 0x71
000001d7 fe9f                 MOVR 0x60, 0x0
000001d8 ff04                 MOVAR 0x7b
000001d9 c5be                 LGOTO 0x241; main.o:_00887_DS_=0x241
000001da                      main.o:_00884_DS_:
000001da defe                 MOVIA 0x1
000001db e0fc                 BCR 0x3, 0x6
000001dc fbde                 SUBAR 0x21, 0x0
000001dd f6fc                 BTRSS 0x3, 0x2
000001de c61e                 LGOTO 0x1e1; main.o:_00934_DS_=0x1e1
000001df de6e                 MOVIA 0x91
000001e0 fbdf                 SUBAR 0x20, 0x0
000001e1                      main.o:_00934_DS_:
000001e1 f7fc                 BTRSS 0x3, 0x0
000001e2 c611                 LGOTO 0x1ee; main.o:_00881_DS_=0x1ee
000001e3 e0fc                 BCR 0x3, 0x6
000001e4 fa0e                 INCR 0x71, 0x1
000001e5 def9                 MOVIA 0x6
000001e6 fb8e                 SUBAR 0x71, 0x0
000001e7 f7fc                 BTRSS 0x3, 0x0
000001e8 c5be                 LGOTO 0x241; main.o:_00887_DS_=0x241
000001e9 defa                 MOVIA 0x5
000001ea ff0e                 MOVAR 0x71
000001eb fe9f                 MOVR 0x60, 0x0
000001ec ff04                 MOVAR 0x7b
000001ed c5be                 LGOTO 0x241; main.o:_00887_DS_=0x241
000001ee                      main.o:_00881_DS_:
000001ee deff                 MOVIA 0x0
000001ef e0fc                 BCR 0x3, 0x6
000001f0 fbde                 SUBAR 0x21, 0x0
000001f1 f6fc                 BTRSS 0x3, 0x2
000001f2 c60a                 LGOTO 0x1f5; main.o:_00936_DS_=0x1f5
000001f3 ded1                 MOVIA 0x2e
000001f4 fbdf                 SUBAR 0x20, 0x0
000001f5                      main.o:_00936_DS_:
000001f5 f7fc                 BTRSS 0x3, 0x0
000001f6 c5eb                 LGOTO 0x214; main.o:_00878_DS_=0x214
000001f7 e0fc                 BCR 0x3, 0x6
000001f8 fe8e                 MOVR 0x71, 0x0
000001f9 f6fc                 BTRSS 0x3, 0x2
000001fa f90e                 DECR 0x71, 0x1
000001fb defb                 MOVIA 0x4
000001fc fb9f                 SUBAR 0x60, 0x0
000001fd f3fc                 BTRSC 0x3, 0x0
000001fe c5f6                 LGOTO 0x209; main.o:_00865_DS_=0x209
000001ff defc                 MOVIA 0x3
00000200 ff38                 MOVAR 0x47
00000201 fe9f                 MOVR 0x60, 0x0
00000202 d124                 LCALL 0x6db; __mulchar=0x6db
00000203 e0fc                 BCR 0x3, 0x6
00000204 ff41                 MOVAR 0x3e
00000205 dead                 MOVIA 0x52
00000206 fcc1                 ADDAR 0x3e, 0x0
00000207 ff07                 MOVAR 0x78
00000208 c5be                 LGOTO 0x241; main.o:_00887_DS_=0x241
00000209                      main.o:_00865_DS_:
00000209 defc                 MOVIA 0x3
0000020a ff38                 MOVAR 0x47
0000020b e0fc                 BCR 0x3, 0x6
0000020c fe9f                 MOVR 0x60, 0x0
0000020d d124                 LCALL 0x6db; __mulchar=0x6db
0000020e e0fc                 BCR 0x3, 0x6
0000020f ff41                 MOVAR 0x3e
00000210 dead                 MOVIA 0x52
00000211 fcc1                 ADDAR 0x3e, 0x0
00000212 ff07                 MOVAR 0x78
00000213 c5be                 LGOTO 0x241; main.o:_00887_DS_=0x241
00000214                      main.o:_00878_DS_:
00000214 e0fc                 BCR 0x3, 0x6
00000215 fe8e                 MOVR 0x71, 0x0
00000216 f6fc                 BTRSS 0x3, 0x2
00000217 f90e                 DECR 0x71, 0x1
00000218 deff                 MOVIA 0x0
00000219 fbde                 SUBAR 0x21, 0x0
0000021a f6fc                 BTRSS 0x3, 0x2
0000021b c5e1                 LGOTO 0x21e; main.o:_00938_DS_=0x21e
0000021c ded6                 MOVIA 0x29
0000021d fbdf                 SUBAR 0x20, 0x0
0000021e                      main.o:_00938_DS_:
0000021e f7fc                 BTRSS 0x3, 0x0
0000021f c5d0                 LGOTO 0x22f; main.o:_00872_DS_=0x22f
00000220 defb                 MOVIA 0x4
00000221 e0fc                 BCR 0x3, 0x6
00000222 fb9f                 SUBAR 0x60, 0x0
00000223 f3fc                 BTRSC 0x3, 0x0
00000224 c5d0                 LGOTO 0x22f; main.o:_00872_DS_=0x22f
00000225 defc                 MOVIA 0x3
00000226 ff38                 MOVAR 0x47
00000227 fe9f                 MOVR 0x60, 0x0
00000228 d124                 LCALL 0x6db; __mulchar=0x6db
00000229 e0fc                 BCR 0x3, 0x6
0000022a ff41                 MOVAR 0x3e
0000022b dead                 MOVIA 0x52
0000022c fcc1                 ADDAR 0x3e, 0x0
0000022d ff07                 MOVAR 0x78
0000022e c5c4                 LGOTO 0x23b; main.o:_00873_DS_=0x23b
0000022f                      main.o:_00872_DS_:
0000022f deff                 MOVIA 0x0
00000230 e0fc                 BCR 0x3, 0x6
00000231 fbde                 SUBAR 0x21, 0x0
00000232 f6fc                 BTRSS 0x3, 0x2
00000233 c5c9                 LGOTO 0x236; main.o:_00940_DS_=0x236
00000234 debb                 MOVIA 0x44
00000235 fbdf                 SUBAR 0x20, 0x0
00000236                      main.o:_00940_DS_:
00000236 f3fc                 BTRSC 0x3, 0x0
00000237 c5c4                 LGOTO 0x23b; main.o:_00873_DS_=0x23b
00000238 e0fc                 BCR 0x3, 0x6
00000239 fe99                 MOVR 0x66, 0x0
0000023a ff07                 MOVAR 0x78
0000023b                      main.o:_00873_DS_:
0000023b e0fc                 BCR 0x3, 0x6
0000023c fe9f                 MOVR 0x60, 0x0
0000023d f2fc                 BTRSC 0x3, 0x2
0000023e c5be                 LGOTO 0x241; main.o:_00887_DS_=0x241
0000023f fe9f                 MOVR 0x60, 0x0
00000240 ff1e                 MOVAR 0x61
00000241                      main.o:_00887_DS_:
00000241 ffef                 RET
00000242                      _checkChrgV:
00000242 e0fc                 BCR 0x3, 0x6
00000243 fd5a                 CLRR 0x25
00000244 fd5c                 CLRR 0x23
00000245 fd5b                 CLRR 0x24
00000246 def7                 MOVIA 0x8
00000247 d6bb                 LCALL 0x144; _F_AIN3_Convert=0x144
00000248 e0fc                 BCR 0x3, 0x6
00000249 eadb                 SWAPR 0x24, 0x0
0000024a dd0f                 ANDIA 0xf0
0000024b ff5b                 MOVAR 0x24
0000024c eadc                 SWAPR 0x23, 0x0
0000024d ff5c                 MOVAR 0x23
0000024e ddf0                 ANDIA 0xf
0000024f ee5b                 IORAR 0x24, 0x1
00000250 ed5c                 XORAR 0x23, 0x1
00000251 de0f                 MOVIA 0xf0
00000252 ef5a                 ANDAR 0x25, 0x1
00000253 feda                 MOVR 0x25, 0x0
00000254 ff43                 MOVAR 0x3c
00000255 deff                 MOVIA 0x0
00000256 ff42                 MOVAR 0x3d
00000257 fec3                 MOVR 0x3c, 0x0
00000258 fc5c                 ADDAR 0x23, 0x1
00000259 fec2                 MOVR 0x3d, 0x0
0000025a f3fc                 BTRSC 0x3, 0x0
0000025b fac2                 INCR 0x3d, 0x0
0000025c f2fc                 BTRSC 0x3, 0x2
0000025d c5a0                 LGOTO 0x25f; main.o:_00005_DS_=0x25f
0000025e fc5b                 ADDAR 0x24, 0x1
0000025f                      main.o:_00005_DS_:
0000025f e3fc                 BCR 0x3, 0x0
00000260 e0fc                 BCR 0x3, 0x6
00000261 ec5b                 RRR 0x24, 0x1
00000262 ec5c                 RRR 0x23, 0x1
00000263 e3fc                 BCR 0x3, 0x0
00000264 ec5b                 RRR 0x24, 0x1
00000265 ec5c                 RRR 0x23, 0x1
00000266 e3fc                 BCR 0x3, 0x0
00000267 ec5b                 RRR 0x24, 0x1
00000268 ec5c                 RRR 0x23, 0x1
00000269 ffef                 RET
0000026a                      _checkBatAD:
0000026a e0fc                 BCR 0x3, 0x6
0000026b fd57                 CLRR 0x28
0000026c fd59                 CLRR 0x26
0000026d fd58                 CLRR 0x27
0000026e def7                 MOVIA 0x8
0000026f d6e2                 LCALL 0x11d; _F_AIN2_Convert=0x11d
00000270 e0fc                 BCR 0x3, 0x6
00000271 ead8                 SWAPR 0x27, 0x0
00000272 dd0f                 ANDIA 0xf0
00000273 ff58                 MOVAR 0x27
00000274 ead9                 SWAPR 0x26, 0x0
00000275 ff59                 MOVAR 0x26
00000276 ddf0                 ANDIA 0xf
00000277 ee58                 IORAR 0x27, 0x1
00000278 ed59                 XORAR 0x26, 0x1
00000279 de0f                 MOVIA 0xf0
0000027a ef57                 ANDAR 0x28, 0x1
0000027b fed7                 MOVR 0x28, 0x0
0000027c ff45                 MOVAR 0x3a
0000027d deff                 MOVIA 0x0
0000027e ff44                 MOVAR 0x3b
0000027f fec5                 MOVR 0x3a, 0x0
00000280 fc59                 ADDAR 0x26, 0x1
00000281 fec4                 MOVR 0x3b, 0x0
00000282 f3fc                 BTRSC 0x3, 0x0
00000283 fac4                 INCR 0x3b, 0x0
00000284 f2fc                 BTRSC 0x3, 0x2
00000285 c578                 LGOTO 0x287; main.o:_00006_DS_=0x287
00000286 fc58                 ADDAR 0x27, 0x1
00000287                      main.o:_00006_DS_:
00000287 e3fc                 BCR 0x3, 0x0
00000288 e0fc                 BCR 0x3, 0x6
00000289 ec58                 RRR 0x27, 0x1
0000028a ec59                 RRR 0x26, 0x1
0000028b e3fc                 BCR 0x3, 0x0
0000028c ec58                 RRR 0x27, 0x1
0000028d ec59                 RRR 0x26, 0x1
0000028e e3fc                 BCR 0x3, 0x0
0000028f ec58                 RRR 0x27, 0x1
00000290 ec59                 RRR 0x26, 0x1
00000291 e4fc                 BSR 0x3, 0x6
00000292 fedb                 MOVR 0x24, 0x0
00000293 f2fc                 BTRSC 0x3, 0x2
00000294 c565                 LGOTO 0x29a; main.o:_00608_DS_=0x29a
00000295 def1                 MOVIA 0xe
00000296 e0fc                 BCR 0x3, 0x6
00000297 ff59                 MOVAR 0x26
00000298 def9                 MOVIA 0x6
00000299 ff58                 MOVAR 0x27
0000029a                      main.o:_00608_DS_:
0000029a def9                 MOVIA 0x6
0000029b e0fc                 BCR 0x3, 0x6
0000029c fbd8                 SUBAR 0x27, 0x0
0000029d f6fc                 BTRSS 0x3, 0x2
0000029e c55e                 LGOTO 0x2a1; main.o:_00819_DS_=0x2a1
0000029f def0                 MOVIA 0xf
000002a0 fbd9                 SUBAR 0x26, 0x0
000002a1                      main.o:_00819_DS_:
000002a1 f7fc                 BTRSS 0x3, 0x0
000002a2 c559                 LGOTO 0x2a6; main.o:_00615_DS_=0x2a6
000002a3 e0fc                 BCR 0x3, 0x6
000002a4 fd06                 CLRR 0x79
000002a5 c53f                 LGOTO 0x2c0; main.o:_00616_DS_=0x2c0
000002a6                      main.o:_00615_DS_:
000002a6 defb                 MOVIA 0x4
000002a7 e0fc                 BCR 0x3, 0x6
000002a8 fbd8                 SUBAR 0x27, 0x0
000002a9 f6fc                 BTRSS 0x3, 0x2
000002aa c552                 LGOTO 0x2ad; main.o:_00820_DS_=0x2ad
000002ab de81                 MOVIA 0x7e
000002ac fbd9                 SUBAR 0x26, 0x0
000002ad                      main.o:_00820_DS_:
000002ad f3fc                 BTRSC 0x3, 0x0
000002ae c542                 LGOTO 0x2bd; main.o:_00612_DS_=0x2bd
000002af e0fc                 BCR 0x3, 0x6
000002b0 fa06                 INCR 0x79, 0x1
000002b1 def5                 MOVIA 0xa
000002b2 fb86                 SUBAR 0x79, 0x0
000002b3 f7fc                 BTRSS 0x3, 0x0
000002b4 c3e2                 LGOTO 0x41d; main.o:_00697_DS_=0x41d
000002b5 def5                 MOVIA 0xa
000002b6 ff06                 MOVAR 0x79
000002b7 fd18                 CLRR 0x67
000002b8 de81                 MOVIA 0x7e
000002b9 ff59                 MOVAR 0x26
000002ba defb                 MOVIA 0x4
000002bb ff58                 MOVAR 0x27
000002bc c53f                 LGOTO 0x2c0; main.o:_00616_DS_=0x2c0
000002bd                      main.o:_00612_DS_:
000002bd e0fc                 BCR 0x3, 0x6
000002be fd06                 CLRR 0x79
000002bf fd08                 CLRR 0x77
000002c0                      main.o:_00616_DS_:
000002c0 e4fc                 BSR 0x3, 0x6
000002c1 fedc                 MOVR 0x23, 0x0
000002c2 f6fc                 BTRSS 0x3, 0x2
000002c3 c537                 LGOTO 0x2c8; main.o:_00618_DS_=0x2c8
000002c4 e0fc                 BCR 0x3, 0x6
000002c5 fe98                 MOVR 0x67, 0x0
000002c6 e4fc                 BSR 0x3, 0x6
000002c7 ff5c                 MOVAR 0x23
000002c8                      main.o:_00618_DS_:
000002c8 de7d                 MOVIA 0x82
000002c9 e0fc                 BCR 0x3, 0x6
000002ca fc59                 ADDAR 0x26, 0x1
000002cb de04                 MOVIA 0xfb
000002cc f3fc                 BTRSC 0x3, 0x0
000002cd de03                 MOVIA 0xfc
000002ce fc58                 ADDAR 0x27, 0x1
000002cf defe                 MOVIA 0x1
000002d0 fbd8                 SUBAR 0x27, 0x0
000002d1 f6fc                 BTRSS 0x3, 0x2
000002d2 c52a                 LGOTO 0x2d5; main.o:_00822_DS_=0x2d5
000002d3 de6a                 MOVIA 0x95
000002d4 fbd9                 SUBAR 0x26, 0x0
000002d5                      main.o:_00822_DS_:
000002d5 f7fc                 BTRSS 0x3, 0x0
000002d6 c525                 LGOTO 0x2da; main.o:_00620_DS_=0x2da
000002d7 def8                 MOVIA 0x7
000002d8 e0fc                 BCR 0x3, 0x6
000002d9 ff18                 MOVAR 0x67
000002da                      main.o:_00620_DS_:
000002da defe                 MOVIA 0x1
000002db e0fc                 BCR 0x3, 0x6
000002dc fbd8                 SUBAR 0x27, 0x0
000002dd f6fc                 BTRSS 0x3, 0x2
000002de c51e                 LGOTO 0x2e1; main.o:_00823_DS_=0x2e1
000002df de60                 MOVIA 0x9f
000002e0 fbd9                 SUBAR 0x26, 0x0
000002e1                      main.o:_00823_DS_:
000002e1 f7fc                 BTRSS 0x3, 0x0
000002e2 c518                 LGOTO 0x2e7; main.o:_00692_DS_=0x2e7
000002e3 def7                 MOVIA 0x8
000002e4 e0fc                 BCR 0x3, 0x6
000002e5 ff18                 MOVAR 0x67
000002e6 c3ed                 LGOTO 0x412; main.o:_00693_DS_=0x412
000002e7                      main.o:_00692_DS_:
000002e7 defe                 MOVIA 0x1
000002e8 e0fc                 BCR 0x3, 0x6
000002e9 fbd8                 SUBAR 0x27, 0x0
000002ea f6fc                 BTRSS 0x3, 0x2
000002eb c511                 LGOTO 0x2ee; main.o:_00824_DS_=0x2ee
000002ec dea0                 MOVIA 0x5f
000002ed fbd9                 SUBAR 0x26, 0x0
000002ee                      main.o:_00824_DS_:
000002ee f7fc                 BTRSS 0x3, 0x0
000002ef c4cc                 LGOTO 0x333; main.o:_00689_DS_=0x333
000002f0 def9                 MOVIA 0x6
000002f1 e0fc                 BCR 0x3, 0x6
000002f2 fb98                 SUBAR 0x67, 0x0
000002f3 f3fc                 BTRSC 0x3, 0x0
000002f4 c4fc                 LGOTO 0x303; main.o:_00627_DS_=0x303
000002f5 fd0b                 CLRR 0x74
000002f6 fd0a                 CLRR 0x75
000002f7 defe                 MOVIA 0x1
000002f8 fbd8                 SUBAR 0x27, 0x0
000002f9 f6fc                 BTRSS 0x3, 0x2
000002fa c502                 LGOTO 0x2fd; main.o:_00826_DS_=0x2fd
000002fb de9b                 MOVIA 0x64
000002fc fbd9                 SUBAR 0x26, 0x0
000002fd                      main.o:_00826_DS_:
000002fd f7fc                 BTRSS 0x3, 0x0
000002fe c4ea                 LGOTO 0x315; main.o:_00628_DS_=0x315
000002ff def9                 MOVIA 0x6
00000300 e0fc                 BCR 0x3, 0x6
00000301 ff18                 MOVAR 0x67
00000302 c4ea                 LGOTO 0x315; main.o:_00628_DS_=0x315
00000303                      main.o:_00627_DS_:
00000303 e0fc                 BCR 0x3, 0x6
00000304 fe97                 MOVR 0x68, 0x0
00000305 ee96                 IORAR 0x69, 0x0
00000306 f6fc                 BTRSS 0x3, 0x2
00000307 c4ea                 LGOTO 0x315; main.o:_00628_DS_=0x315
00000308 defe                 MOVIA 0x1
00000309 fbd8                 SUBAR 0x27, 0x0
0000030a f6fc                 BTRSS 0x3, 0x2
0000030b c4f1                 LGOTO 0x30e; main.o:_00827_DS_=0x30e
0000030c de73                 MOVIA 0x8c
0000030d fbd9                 SUBAR 0x26, 0x0
0000030e                      main.o:_00827_DS_:
0000030e f3fc                 BTRSC 0x3, 0x0
0000030f c4ea                 LGOTO 0x315; main.o:_00628_DS_=0x315
00000310 def9                 MOVIA 0x6
00000311 e0fc                 BCR 0x3, 0x6
00000312 ff18                 MOVAR 0x67
00000313 fd0b                 CLRR 0x74
00000314 fd0a                 CLRR 0x75
00000315                      main.o:_00628_DS_:
00000315 e0fc                 BCR 0x3, 0x6
00000316 fe97                 MOVR 0x68, 0x0
00000317 ee96                 IORAR 0x69, 0x0
00000318 f2fc                 BTRSC 0x3, 0x2
00000319 c3ed                 LGOTO 0x412; main.o:_00693_DS_=0x412
0000031a defe                 MOVIA 0x1
0000031b fbd8                 SUBAR 0x27, 0x0
0000031c f6fc                 BTRSS 0x3, 0x2
0000031d c4df                 LGOTO 0x320; main.o:_00828_DS_=0x320
0000031e de73                 MOVIA 0x8c
0000031f fbd9                 SUBAR 0x26, 0x0
00000320                      main.o:_00828_DS_:
00000320 f7fc                 BTRSS 0x3, 0x0
00000321 c3ed                 LGOTO 0x412; main.o:_00693_DS_=0x412
00000322 defd                 MOVIA 0x2
00000323 e0fc                 BCR 0x3, 0x6
00000324 fb96                 SUBAR 0x69, 0x0
00000325 f6fc                 BTRSS 0x3, 0x2
00000326 c4d6                 LGOTO 0x329; main.o:_00829_DS_=0x329
00000327 dea6                 MOVIA 0x59
00000328 fb97                 SUBAR 0x68, 0x0
00000329                      main.o:_00829_DS_:
00000329 f7fc                 BTRSS 0x3, 0x0
0000032a c3ed                 LGOTO 0x412; main.o:_00693_DS_=0x412
0000032b dea7                 MOVIA 0x58
0000032c e0fc                 BCR 0x3, 0x6
0000032d ff17                 MOVAR 0x68
0000032e defd                 MOVIA 0x2
0000032f ff16                 MOVAR 0x69
00000330 def8                 MOVIA 0x7
00000331 ff18                 MOVAR 0x67
00000332 c3ed                 LGOTO 0x412; main.o:_00693_DS_=0x412
00000333                      main.o:_00689_DS_:
00000333 defe                 MOVIA 0x1
00000334 e0fc                 BCR 0x3, 0x6
00000335 fbd8                 SUBAR 0x27, 0x0
00000336 f6fc                 BTRSS 0x3, 0x2
00000337 c4c5                 LGOTO 0x33a; main.o:_00830_DS_=0x33a
00000338 deb9                 MOVIA 0x46
00000339 fbd9                 SUBAR 0x26, 0x0
0000033a                      main.o:_00830_DS_:
0000033a f7fc                 BTRSS 0x3, 0x0
0000033b c49b                 LGOTO 0x364; main.o:_00686_DS_=0x364
0000033c e0fc                 BCR 0x3, 0x6
0000033d fe98                 MOVR 0x67, 0x0
0000033e dbfb                 XORIA 0x4
0000033f f6fc                 BTRSS 0x3, 0x2
00000340 c4b3                 LGOTO 0x34c; main.o:_00636_DS_=0x34c
00000341 defe                 MOVIA 0x1
00000342 fbd8                 SUBAR 0x27, 0x0
00000343 f6fc                 BTRSS 0x3, 0x2
00000344 c4b8                 LGOTO 0x347; main.o:_00831_DS_=0x347
00000345 deb4                 MOVIA 0x4b
00000346 fbd9                 SUBAR 0x26, 0x0
00000347                      main.o:_00831_DS_:
00000347 f7fc                 BTRSS 0x3, 0x0
00000348 c4b3                 LGOTO 0x34c; main.o:_00636_DS_=0x34c
00000349 defa                 MOVIA 0x5
0000034a e0fc                 BCR 0x3, 0x6
0000034b ff18                 MOVAR 0x67
0000034c                      main.o:_00636_DS_:
0000034c def9                 MOVIA 0x6
0000034d e0fc                 BCR 0x3, 0x6
0000034e fb98                 SUBAR 0x67, 0x0
0000034f f7fc                 BTRSS 0x3, 0x0
00000350 c4a2                 LGOTO 0x35d; main.o:_00640_DS_=0x35d
00000351 defe                 MOVIA 0x1
00000352 fbd8                 SUBAR 0x27, 0x0
00000353 f6fc                 BTRSS 0x3, 0x2
00000354 c4a8                 LGOTO 0x357; main.o:_00833_DS_=0x357
00000355 de92                 MOVIA 0x6d
00000356 fbd9                 SUBAR 0x26, 0x0
00000357                      main.o:_00833_DS_:
00000357 f3fc                 BTRSC 0x3, 0x0
00000358 c49f                 LGOTO 0x360; main.o:_00641_DS_=0x360
00000359 defa                 MOVIA 0x5
0000035a e0fc                 BCR 0x3, 0x6
0000035b ff18                 MOVAR 0x67
0000035c c49f                 LGOTO 0x360; main.o:_00641_DS_=0x360
0000035d                      main.o:_00640_DS_:
0000035d defa                 MOVIA 0x5
0000035e e0fc                 BCR 0x3, 0x6
0000035f ff18                 MOVAR 0x67
00000360                      main.o:_00641_DS_:
00000360 e0fc                 BCR 0x3, 0x6
00000361 fd17                 CLRR 0x68
00000362 fd16                 CLRR 0x69
00000363 c3ed                 LGOTO 0x412; main.o:_00693_DS_=0x412
00000364                      main.o:_00686_DS_:
00000364 defe                 MOVIA 0x1
00000365 e0fc                 BCR 0x3, 0x6
00000366 fbd8                 SUBAR 0x27, 0x0
00000367 f6fc                 BTRSS 0x3, 0x2
00000368 c494                 LGOTO 0x36b; main.o:_00834_DS_=0x36b
00000369 defa                 MOVIA 0x5
0000036a fbd9                 SUBAR 0x26, 0x0
0000036b                      main.o:_00834_DS_:
0000036b f7fc                 BTRSS 0x3, 0x0
0000036c c46a                 LGOTO 0x395; main.o:_00683_DS_=0x395
0000036d e0fc                 BCR 0x3, 0x6
0000036e fe98                 MOVR 0x67, 0x0
0000036f dbfc                 XORIA 0x3
00000370 f6fc                 BTRSS 0x3, 0x2
00000371 c482                 LGOTO 0x37d; main.o:_00645_DS_=0x37d
00000372 defe                 MOVIA 0x1
00000373 fbd8                 SUBAR 0x27, 0x0
00000374 f6fc                 BTRSS 0x3, 0x2
00000375 c487                 LGOTO 0x378; main.o:_00835_DS_=0x378
00000376 def5                 MOVIA 0xa
00000377 fbd9                 SUBAR 0x26, 0x0
00000378                      main.o:_00835_DS_:
00000378 f7fc                 BTRSS 0x3, 0x0
00000379 c482                 LGOTO 0x37d; main.o:_00645_DS_=0x37d
0000037a defb                 MOVIA 0x4
0000037b e0fc                 BCR 0x3, 0x6
0000037c ff18                 MOVAR 0x67
0000037d                      main.o:_00645_DS_:
0000037d defa                 MOVIA 0x5
0000037e e0fc                 BCR 0x3, 0x6
0000037f fb98                 SUBAR 0x67, 0x0
00000380 f7fc                 BTRSS 0x3, 0x0
00000381 c471                 LGOTO 0x38e; main.o:_00649_DS_=0x38e
00000382 defe                 MOVIA 0x1
00000383 fbd8                 SUBAR 0x27, 0x0
00000384 f6fc                 BTRSS 0x3, 0x2
00000385 c477                 LGOTO 0x388; main.o:_00837_DS_=0x388
00000386 debf                 MOVIA 0x40
00000387 fbd9                 SUBAR 0x26, 0x0
00000388                      main.o:_00837_DS_:
00000388 f3fc                 BTRSC 0x3, 0x0
00000389 c46e                 LGOTO 0x391; main.o:_00650_DS_=0x391
0000038a defb                 MOVIA 0x4
0000038b e0fc                 BCR 0x3, 0x6
0000038c ff18                 MOVAR 0x67
0000038d c46e                 LGOTO 0x391; main.o:_00650_DS_=0x391
0000038e                      main.o:_00649_DS_:
0000038e defb                 MOVIA 0x4
0000038f e0fc                 BCR 0x3, 0x6
00000390 ff18                 MOVAR 0x67
00000391                      main.o:_00650_DS_:
00000391 e0fc                 BCR 0x3, 0x6
00000392 fd17                 CLRR 0x68
00000393 fd16                 CLRR 0x69
00000394 c3ed                 LGOTO 0x412; main.o:_00693_DS_=0x412
00000395                      main.o:_00683_DS_:
00000395 deff                 MOVIA 0x0
00000396 e0fc                 BCR 0x3, 0x6
00000397 fbd8                 SUBAR 0x27, 0x0
00000398 f6fc                 BTRSS 0x3, 0x2
00000399 c463                 LGOTO 0x39c; main.o:_00838_DS_=0x39c
0000039a de36                 MOVIA 0xc9
0000039b fbd9                 SUBAR 0x26, 0x0
0000039c                      main.o:_00838_DS_:
0000039c f7fc                 BTRSS 0x3, 0x0
0000039d c439                 LGOTO 0x3c6; main.o:_00680_DS_=0x3c6
0000039e e0fc                 BCR 0x3, 0x6
0000039f fe98                 MOVR 0x67, 0x0
000003a0 dbfd                 XORIA 0x2
000003a1 f6fc                 BTRSS 0x3, 0x2
000003a2 c451                 LGOTO 0x3ae; main.o:_00654_DS_=0x3ae
000003a3 deff                 MOVIA 0x0
000003a4 fbd8                 SUBAR 0x27, 0x0
000003a5 f6fc                 BTRSS 0x3, 0x2
000003a6 c456                 LGOTO 0x3a9; main.o:_00839_DS_=0x3a9
000003a7 de2c                 MOVIA 0xd3
000003a8 fbd9                 SUBAR 0x26, 0x0
000003a9                      main.o:_00839_DS_:
000003a9 f7fc                 BTRSS 0x3, 0x0
000003aa c451                 LGOTO 0x3ae; main.o:_00654_DS_=0x3ae
000003ab defc                 MOVIA 0x3
000003ac e0fc                 BCR 0x3, 0x6
000003ad ff18                 MOVAR 0x67
000003ae                      main.o:_00654_DS_:
000003ae defb                 MOVIA 0x4
000003af e0fc                 BCR 0x3, 0x6
000003b0 fb98                 SUBAR 0x67, 0x0
000003b1 f7fc                 BTRSS 0x3, 0x0
000003b2 c440                 LGOTO 0x3bf; main.o:_00658_DS_=0x3bf
000003b3 defe                 MOVIA 0x1
000003b4 fbd8                 SUBAR 0x27, 0x0
000003b5 f6fc                 BTRSS 0x3, 0x2
000003b6 c446                 LGOTO 0x3b9; main.o:_00841_DS_=0x3b9
000003b7 defb                 MOVIA 0x4
000003b8 fbd9                 SUBAR 0x26, 0x0
000003b9                      main.o:_00841_DS_:
000003b9 f3fc                 BTRSC 0x3, 0x0
000003ba c43d                 LGOTO 0x3c2; main.o:_00659_DS_=0x3c2
000003bb defc                 MOVIA 0x3
000003bc e0fc                 BCR 0x3, 0x6
000003bd ff18                 MOVAR 0x67
000003be c43d                 LGOTO 0x3c2; main.o:_00659_DS_=0x3c2
000003bf                      main.o:_00658_DS_:
000003bf defc                 MOVIA 0x3
000003c0 e0fc                 BCR 0x3, 0x6
000003c1 ff18                 MOVAR 0x67
000003c2                      main.o:_00659_DS_:
000003c2 e0fc                 BCR 0x3, 0x6
000003c3 fd17                 CLRR 0x68
000003c4 fd16                 CLRR 0x69
000003c5 c3ed                 LGOTO 0x412; main.o:_00693_DS_=0x412
000003c6                      main.o:_00680_DS_:
000003c6 deff                 MOVIA 0x0
000003c7 e0fc                 BCR 0x3, 0x6
000003c8 fbd8                 SUBAR 0x27, 0x0
000003c9 f6fc                 BTRSS 0x3, 0x2
000003ca c432                 LGOTO 0x3cd; main.o:_00842_DS_=0x3cd
000003cb de9a                 MOVIA 0x65
000003cc fbd9                 SUBAR 0x26, 0x0
000003cd                      main.o:_00842_DS_:
000003cd f7fc                 BTRSS 0x3, 0x0
000003ce c408                 LGOTO 0x3f7; main.o:_00677_DS_=0x3f7
000003cf e0fc                 BCR 0x3, 0x6
000003d0 fe98                 MOVR 0x67, 0x0
000003d1 dbfe                 XORIA 0x1
000003d2 f6fc                 BTRSS 0x3, 0x2
000003d3 c420                 LGOTO 0x3df; main.o:_00663_DS_=0x3df
000003d4 deff                 MOVIA 0x0
000003d5 fbd8                 SUBAR 0x27, 0x0
000003d6 f6fc                 BTRSS 0x3, 0x2
000003d7 c425                 LGOTO 0x3da; main.o:_00843_DS_=0x3da
000003d8 de90                 MOVIA 0x6f
000003d9 fbd9                 SUBAR 0x26, 0x0
000003da                      main.o:_00843_DS_:
000003da f7fc                 BTRSS 0x3, 0x0
000003db c420                 LGOTO 0x3df; main.o:_00663_DS_=0x3df
000003dc defd                 MOVIA 0x2
000003dd e0fc                 BCR 0x3, 0x6
000003de ff18                 MOVAR 0x67
000003df                      main.o:_00663_DS_:
000003df defc                 MOVIA 0x3
000003e0 e0fc                 BCR 0x3, 0x6
000003e1 fb98                 SUBAR 0x67, 0x0
000003e2 f7fc                 BTRSS 0x3, 0x0
000003e3 c40f                 LGOTO 0x3f0; main.o:_00667_DS_=0x3f0
000003e4 deff                 MOVIA 0x0
000003e5 fbd8                 SUBAR 0x27, 0x0
000003e6 f6fc                 BTRSS 0x3, 0x2
000003e7 c415                 LGOTO 0x3ea; main.o:_00845_DS_=0x3ea
000003e8 de41                 MOVIA 0xbe
000003e9 fbd9                 SUBAR 0x26, 0x0
000003ea                      main.o:_00845_DS_:
000003ea f3fc                 BTRSC 0x3, 0x0
000003eb c40c                 LGOTO 0x3f3; main.o:_00668_DS_=0x3f3
000003ec defd                 MOVIA 0x2
000003ed e0fc                 BCR 0x3, 0x6
000003ee ff18                 MOVAR 0x67
000003ef c40c                 LGOTO 0x3f3; main.o:_00668_DS_=0x3f3
000003f0                      main.o:_00667_DS_:
000003f0 defd                 MOVIA 0x2
000003f1 e0fc                 BCR 0x3, 0x6
000003f2 ff18                 MOVAR 0x67
000003f3                      main.o:_00668_DS_:
000003f3 e0fc                 BCR 0x3, 0x6
000003f4 fd17                 CLRR 0x68
000003f5 fd16                 CLRR 0x69
000003f6 c3ed                 LGOTO 0x412; main.o:_00693_DS_=0x412
000003f7                      main.o:_00677_DS_:
000003f7 e0fc                 BCR 0x3, 0x6
000003f8 fed9                 MOVR 0x26, 0x0
000003f9 eed8                 IORAR 0x27, 0x0
000003fa f2fc                 BTRSC 0x3, 0x2
000003fb c3ed                 LGOTO 0x412; main.o:_00693_DS_=0x412
000003fc defd                 MOVIA 0x2
000003fd fb98                 SUBAR 0x67, 0x0
000003fe f7fc                 BTRSS 0x3, 0x0
000003ff c3f3                 LGOTO 0x40c; main.o:_00672_DS_=0x40c
00000400 deff                 MOVIA 0x0
00000401 fbd8                 SUBAR 0x27, 0x0
00000402 f6fc                 BTRSS 0x3, 0x2
00000403 c3f9                 LGOTO 0x406; main.o:_00847_DS_=0x406
00000404 dea5                 MOVIA 0x5a
00000405 fbd9                 SUBAR 0x26, 0x0
00000406                      main.o:_00847_DS_:
00000406 f3fc                 BTRSC 0x3, 0x0
00000407 c3f0                 LGOTO 0x40f; main.o:_00673_DS_=0x40f
00000408 defe                 MOVIA 0x1
00000409 e0fc                 BCR 0x3, 0x6
0000040a ff18                 MOVAR 0x67
0000040b c3f0                 LGOTO 0x40f; main.o:_00673_DS_=0x40f
0000040c                      main.o:_00672_DS_:
0000040c defe                 MOVIA 0x1
0000040d e0fc                 BCR 0x3, 0x6
0000040e ff18                 MOVAR 0x67
0000040f                      main.o:_00673_DS_:
0000040f e0fc                 BCR 0x3, 0x6
00000410 fd17                 CLRR 0x68
00000411 fd16                 CLRR 0x69
00000412                      main.o:_00693_DS_:
00000412 e0fc                 BCR 0x3, 0x6
00000413 fe8d                 MOVR 0x72, 0x0
00000414 f2fc                 BTRSC 0x3, 0x2
00000415 c3e2                 LGOTO 0x41d; main.o:_00697_DS_=0x41d
00000416 e4fc                 BSR 0x3, 0x6
00000417 fedc                 MOVR 0x23, 0x0
00000418 f2fc                 BTRSC 0x3, 0x2
00000419 c3e2                 LGOTO 0x41d; main.o:_00697_DS_=0x41d
0000041a fedc                 MOVR 0x23, 0x0
0000041b e0fc                 BCR 0x3, 0x6
0000041c ff18                 MOVAR 0x67
0000041d                      main.o:_00697_DS_:
0000041d ffef                 RET
0000041e                      _initAD:
0000041e de7b                 MOVIA 0x84
0000041f ff6f                 MOVAR 0x10
00000420 fd6c                 CLRR 0x13
00000421 deef                 MOVIA 0x10
00000422 ff6e                 MOVAR 0x11
00000423 defc                 MOVIA 0x3
00000424 ff6b                 MOVAR 0x14
00000425 e5ef                 BSR 0x10, 0x4
00000426 de9b                 MOVIA 0x64
00000427 d3d6                 LCALL 0x429; _delay=0x429
00000428 ffef                 RET
00000429                      _delay:
00000429 e0fc                 BCR 0x3, 0x6
0000042a ff47                 MOVAR 0x38
0000042b fd46                 CLRR 0x39
0000042c                      main.o:_00596_DS_:
0000042c e0fc                 BCR 0x3, 0x6
0000042d fec7                 MOVR 0x38, 0x0
0000042e fbc6                 SUBAR 0x39, 0x0
0000042f f3fc                 BTRSC 0x3, 0x0
00000430 c3cb                 LGOTO 0x434; main.o:_00598_DS_=0x434
00000431 ffff                 NOP
00000432 fa46                 INCR 0x39, 0x1
00000433 c3d3                 LGOTO 0x42c; main.o:_00596_DS_=0x42c
00000434                      main.o:_00598_DS_:
00000434 ffef                 RET
00000435                      _chrgCtr:
00000435 e0fc                 BCR 0x3, 0x6
00000436 f27a                 BTRSC 0x5, 0x3
00000437 c3bf                 LGOTO 0x440; main.o:_00526_DS_=0x440
00000438 def4                 MOVIA 0xb
00000439 fbdb                 SUBAR 0x24, 0x0
0000043a f6fc                 BTRSS 0x3, 0x2
0000043b c3c1                 LGOTO 0x43e; main.o:_00586_DS_=0x43e
0000043c de46                 MOVIA 0xb9
0000043d fbdc                 SUBAR 0x23, 0x0
0000043e                      main.o:_00586_DS_:
0000043e f7fc                 BTRSS 0x3, 0x0
0000043f c31b                 LGOTO 0x4e4; main.o:_00527_DS_=0x4e4
00000440                      main.o:_00526_DS_:
00000440 e0fc                 BCR 0x3, 0x6
00000441 e623                 BSR 0x5c, 0x3
00000442 fd1f                 CLRR 0x60
00000443 fd0d                 CLRR 0x72
00000444 d2b7                 LCALL 0x548; _pwmStop=0x548
00000445 e0fc                 BCR 0x3, 0x6
00000446 fe98                 MOVR 0x67, 0x0
00000447 dbf7                 XORIA 0x8
00000448 f6fc                 BTRSS 0x3, 0x2
00000449 c398                 LGOTO 0x467; main.o:_00522_DS_=0x467
0000044a def9                 MOVIA 0x6
0000044b e4fc                 BSR 0x3, 0x6
0000044c ff5d                 MOVAR 0x22
0000044d e0fc                 BCR 0x3, 0x6
0000044e ff1e                 MOVAR 0x61
0000044f fa0b                 INCR 0x74, 0x1
00000450 f2fc                 BTRSC 0x3, 0x2
00000451 fa0a                 INCR 0x75, 0x1
00000452 deff                 MOVIA 0x0
00000453 fb8a                 SUBAR 0x75, 0x0
00000454 f6fc                 BTRSS 0x3, 0x2
00000455 c3a7                 LGOTO 0x458; main.o:_00587_DS_=0x458
00000456 de9b                 MOVIA 0x64
00000457 fb8b                 SUBAR 0x74, 0x0
00000458                      main.o:_00587_DS_:
00000458 f7fc                 BTRSS 0x3, 0x0
00000459 c3a0                 LGOTO 0x45f; main.o:_00489_DS_=0x45f
0000045a de9b                 MOVIA 0x64
0000045b e0fc                 BCR 0x3, 0x6
0000045c ff0b                 MOVAR 0x74
0000045d fd0a                 CLRR 0x75
0000045e d2a7                 LCALL 0x558; _pwm1Stop=0x558
0000045f                      main.o:_00489_DS_:
0000045f e279                 BCR 0x6, 0x3
00000460 ffe9                 IOSTR 0x6
00000461 e0fc                 BCR 0x3, 0x6
00000462 ff4b                 MOVAR 0x34
00000463 e64b                 BSR 0x34, 0x3
00000464 fecb                 MOVR 0x34, 0x0
00000465 fff9                 IOST 0x6
00000466 c30b                 LGOTO 0x4f4; main.o:_00530_DS_=0x4f4
00000467                      main.o:_00522_DS_:
00000467 ffe9                 IOSTR 0x6
00000468 e0fc                 BCR 0x3, 0x6
00000469 ff4b                 MOVAR 0x34
0000046a e24b                 BCR 0x34, 0x3
0000046b fecb                 MOVR 0x34, 0x0
0000046c fff9                 IOST 0x6
0000046d fea1                 MOVR 0x5e, 0x0
0000046e f6fc                 BTRSS 0x3, 0x2
0000046f c369                 LGOTO 0x496; main.o:_00495_DS_=0x496
00000470 def8                 MOVIA 0x7
00000471 fb98                 SUBAR 0x67, 0x0
00000472 f3fc                 BTRSC 0x3, 0x0
00000473 c369                 LGOTO 0x496; main.o:_00495_DS_=0x496
00000474 fe98                 MOVR 0x67, 0x0
00000475 ff4b                 MOVAR 0x34
00000476 fd4a                 CLRR 0x35
00000477 de00                 MOVIA 0xff
00000478 fc4b                 ADDAR 0x34, 0x1
00000479 f3fc                 BTRSC 0x3, 0x0
0000047a c383                 LGOTO 0x47c; main.o:_00007_DS_=0x47c
0000047b f94a                 DECR 0x35, 0x1
0000047c                      main.o:_00007_DS_:
0000047c e0fc                 BCR 0x3, 0x6
0000047d fe80                 MOVR 0x7f, 0x0
0000047e ff49                 MOVAR 0x36
0000047f deff                 MOVIA 0x0
00000480 da7f                 ADDIA 0x80
00000481 ff48                 MOVAR 0x37
00000482 feca                 MOVR 0x35, 0x0
00000483 da7f                 ADDIA 0x80
00000484 fbc8                 SUBAR 0x37, 0x0
00000485 f6fc                 BTRSS 0x3, 0x2
00000486 c376                 LGOTO 0x489; main.o:_00589_DS_=0x489
00000487 fecb                 MOVR 0x34, 0x0
00000488 fbc9                 SUBAR 0x36, 0x0
00000489                      main.o:_00589_DS_:
00000489 f3fc                 BTRSC 0x3, 0x0
0000048a c371                 LGOTO 0x48e; main.o:_00491_DS_=0x48e
0000048b e0fc                 BCR 0x3, 0x6
0000048c f998                 DECR 0x67, 0x0
0000048d ff00                 MOVAR 0x7f
0000048e                      main.o:_00491_DS_:
0000048e e0fc                 BCR 0x3, 0x6
0000048f fa1e                 INCR 0x61, 0x1
00000490 def8                 MOVIA 0x7
00000491 fb9e                 SUBAR 0x61, 0x0
00000492 f7fc                 BTRSS 0x3, 0x0
00000493 c369                 LGOTO 0x496; main.o:_00495_DS_=0x496
00000494 fe80                 MOVR 0x7f, 0x0
00000495 ff1e                 MOVAR 0x61
00000496                      main.o:_00495_DS_:
00000496 e0fc                 BCR 0x3, 0x6
00000497 fe98                 MOVR 0x67, 0x0
00000498 dbf8                 XORIA 0x7
00000499 f6fc                 BTRSS 0x3, 0x2
0000049a c362                 LGOTO 0x49d; main.o:_00498_DS_=0x49d
0000049b def9                 MOVIA 0x6
0000049c ff1e                 MOVAR 0x61
0000049d                      main.o:_00498_DS_:
0000049d defd                 MOVIA 0x2
0000049e e0fc                 BCR 0x3, 0x6
0000049f fb98                 SUBAR 0x67, 0x0
000004a0 f3fc                 BTRSC 0x3, 0x0
000004a1 c353                 LGOTO 0x4ac; main.o:_00519_DS_=0x4ac
000004a2 defd                 MOVIA 0x2
000004a3 e4fc                 BSR 0x3, 0x6
000004a4 fbdd                 SUBAR 0x22, 0x0
000004a5 f3fc                 BTRSC 0x3, 0x0
000004a6 c31d                 LGOTO 0x4e2; main.o:_00520_DS_=0x4e2
000004a7 def7                 MOVIA 0x8
000004a8 ffbc                 SFUN 0x3
000004a9 defe                 MOVIA 0x1
000004aa ff5d                 MOVAR 0x22
000004ab c31d                 LGOTO 0x4e2; main.o:_00520_DS_=0x4e2
000004ac                      main.o:_00519_DS_:
000004ac defc                 MOVIA 0x3
000004ad e0fc                 BCR 0x3, 0x6
000004ae fb98                 SUBAR 0x67, 0x0
000004af f3fc                 BTRSC 0x3, 0x0
000004b0 c344                 LGOTO 0x4bb; main.o:_00516_DS_=0x4bb
000004b1 defc                 MOVIA 0x3
000004b2 e4fc                 BSR 0x3, 0x6
000004b3 fbdd                 SUBAR 0x22, 0x0
000004b4 f3fc                 BTRSC 0x3, 0x0
000004b5 c31d                 LGOTO 0x4e2; main.o:_00520_DS_=0x4e2
000004b6 defd                 MOVIA 0x2
000004b7 ff5d                 MOVAR 0x22
000004b8 def5                 MOVIA 0xa
000004b9 ffbc                 SFUN 0x3
000004ba c31d                 LGOTO 0x4e2; main.o:_00520_DS_=0x4e2
000004bb                      main.o:_00516_DS_:
000004bb defb                 MOVIA 0x4
000004bc e0fc                 BCR 0x3, 0x6
000004bd fb98                 SUBAR 0x67, 0x0
000004be f3fc                 BTRSC 0x3, 0x0
000004bf c335                 LGOTO 0x4ca; main.o:_00513_DS_=0x4ca
000004c0 defb                 MOVIA 0x4
000004c1 e4fc                 BSR 0x3, 0x6
000004c2 fbdd                 SUBAR 0x22, 0x0
000004c3 f3fc                 BTRSC 0x3, 0x0
000004c4 c31d                 LGOTO 0x4e2; main.o:_00520_DS_=0x4e2
000004c5 defc                 MOVIA 0x3
000004c6 ff5d                 MOVAR 0x22
000004c7 def4                 MOVIA 0xb
000004c8 ffbc                 SFUN 0x3
000004c9 c31d                 LGOTO 0x4e2; main.o:_00520_DS_=0x4e2
000004ca                      main.o:_00513_DS_:
000004ca def7                 MOVIA 0x8
000004cb e0fc                 BCR 0x3, 0x6
000004cc fb98                 SUBAR 0x67, 0x0
000004cd f3fc                 BTRSC 0x3, 0x0
000004ce c326                 LGOTO 0x4d9; main.o:_00510_DS_=0x4d9
000004cf defa                 MOVIA 0x5
000004d0 e4fc                 BSR 0x3, 0x6
000004d1 fbdd                 SUBAR 0x22, 0x0
000004d2 f3fc                 BTRSC 0x3, 0x0
000004d3 c31d                 LGOTO 0x4e2; main.o:_00520_DS_=0x4e2
000004d4 defb                 MOVIA 0x4
000004d5 ff5d                 MOVAR 0x22
000004d6 def3                 MOVIA 0xc
000004d7 ffbc                 SFUN 0x3
000004d8 c31d                 LGOTO 0x4e2; main.o:_00520_DS_=0x4e2
000004d9                      main.o:_00510_DS_:
000004d9 def9                 MOVIA 0x6
000004da e4fc                 BSR 0x3, 0x6
000004db fbdd                 SUBAR 0x22, 0x0
000004dc f3fc                 BTRSC 0x3, 0x0
000004dd c31d                 LGOTO 0x4e2; main.o:_00520_DS_=0x4e2
000004de def2                 MOVIA 0xd
000004df ffbc                 SFUN 0x3
000004e0 defa                 MOVIA 0x5
000004e1 ff5d                 MOVAR 0x22
000004e2                      main.o:_00520_DS_:
000004e2 d2a4                 LCALL 0x55b; _pwm1Init=0x55b
000004e3 c30b                 LGOTO 0x4f4; main.o:_00530_DS_=0x4f4
000004e4                      main.o:_00527_DS_:
000004e4 e4fc                 BSR 0x3, 0x6
000004e5 fd5d                 CLRR 0x22
000004e6 e0fc                 BCR 0x3, 0x6
000004e7 fd00                 CLRR 0x7f
000004e8 fd17                 CLRR 0x68
000004e9 fd16                 CLRR 0x69
000004ea d2a7                 LCALL 0x558; _pwm1Stop=0x558
000004eb e0fc                 BCR 0x3, 0x6
000004ec fe9f                 MOVR 0x60, 0x0
000004ed f6fc                 BTRSS 0x3, 0x2
000004ee c30f                 LGOTO 0x4f0; main.o:_00008_DS_=0x4f0
000004ef fd1e                 CLRR 0x61
000004f0                      main.o:_00008_DS_:
000004f0 e0fc                 BCR 0x3, 0x6
000004f1 e223                 BCR 0x5c, 0x3
000004f2 fd17                 CLRR 0x68
000004f3 fd16                 CLRR 0x69
000004f4                      main.o:_00530_DS_:
000004f4 ffef                 RET
000004f5                      _keyRead:
000004f5 e0fc                 BCR 0x3, 0x6
000004f6 ff4c                 MOVAR 0x33
000004f7 fecc                 MOVR 0x33, 0x0
000004f8 f2fc                 BTRSC 0x3, 0x2
000004f9 c2f9                 LGOTO 0x506; main.o:_00481_DS_=0x506
000004fa fa20                 INCR 0x5f, 0x1
000004fb de9b                 MOVIA 0x64
000004fc fba0                 SUBAR 0x5f, 0x0
000004fd f7fc                 BTRSS 0x3, 0x0
000004fe c2e6                 LGOTO 0x519; main.o:_00482_DS_=0x519
000004ff de9b                 MOVIA 0x64
00000500 ff20                 MOVAR 0x5f
00000501 f323                 BTRSC 0x5c, 0x1
00000502 c2e6                 LGOTO 0x519; main.o:_00482_DS_=0x519
00000503 e723                 BSR 0x5c, 0x1
00000504 defd                 MOVIA 0x2
00000505 c2e5                 LGOTO 0x51a; main.o:_00483_DS_=0x51a
00000506                      main.o:_00481_DS_:
00000506 de9b                 MOVIA 0x64
00000507 e0fc                 BCR 0x3, 0x6
00000508 fba0                 SUBAR 0x5f, 0x0
00000509 f7fc                 BTRSS 0x3, 0x0
0000050a c2f0                 LGOTO 0x50f; main.o:_00478_DS_=0x50f
0000050b fd20                 CLRR 0x5f
0000050c e323                 BCR 0x5c, 0x1
0000050d deff                 MOVIA 0x0
0000050e c2e5                 LGOTO 0x51a; main.o:_00483_DS_=0x51a
0000050f                      main.o:_00478_DS_:
0000050f defb                 MOVIA 0x4
00000510 e0fc                 BCR 0x3, 0x6
00000511 fba0                 SUBAR 0x5f, 0x0
00000512 f7fc                 BTRSS 0x3, 0x0
00000513 c2e8                 LGOTO 0x517; main.o:_00479_DS_=0x517
00000514 fd20                 CLRR 0x5f
00000515 defe                 MOVIA 0x1
00000516 c2e5                 LGOTO 0x51a; main.o:_00483_DS_=0x51a
00000517                      main.o:_00479_DS_:
00000517 e0fc                 BCR 0x3, 0x6
00000518 fd20                 CLRR 0x5f
00000519                      main.o:_00482_DS_:
00000519 deff                 MOVIA 0x0
0000051a                      main.o:_00483_DS_:
0000051a ffef                 RET
0000051b                      _gotoSleep:
0000051b d231                 LCALL 0x5ce; _LedInput=0x5ce
0000051c e0fc                 BCR 0x3, 0x6
0000051d fd15                 CLRR 0x6a
0000051e fd14                 CLRR 0x6b
0000051f d2b7                 LCALL 0x548; _pwmStop=0x548
00000520 d2a7                 LCALL 0x558; _pwm1Stop=0x558
00000521 de37                 MOVIA 0xc8
00000522 fffa                 IOST 0x5
00000523 deb9                 MOVIA 0x46
00000524 e0fc                 BCR 0x3, 0x6
00000525 ff7a                 MOVAR 0x5
00000526 dec0                 MOVIA 0x3f
00000527 fff6                 IOST 0x9
00000528 fd79                 CLRR 0x6
00000529 fd1f                 CLRR 0x60
0000052a de77                 MOVIA 0x88
0000052b ff6a                 MOVAR 0x15
0000052c fd76                 CLRR 0x9
0000052d fd1b                 CLRR 0x64
0000052e fd1a                 CLRR 0x65
0000052f fd1d                 CLRR 0x62
00000530 fd1c                 CLRR 0x63
00000531 e2a3                 BCR 0x5c, 0x2
00000532 defd                 MOVIA 0x2
00000533 ff71                 MOVAR 0xe
00000534 dee7                 MOVIA 0x18
00000535 ff77                 MOVAR 0x8
00000536 fd70                 CLRR 0xf
00000537 fffd                 CLRWDT
00000538 fffb                 ENI
00000539 fffe                 SLEEP
0000053a fd6a                 CLRR 0x15
0000053b de41                 MOVIA 0xbe
0000053c fffa                 IOST 0x5
0000053d fdff                 CLRA
0000053e fff9                 IOST 0x6
0000053f fd7a                 CLRR 0x5
00000540 de80                 MOVIA 0x7f
00000541 fff6                 IOST 0x9
00000542 defe                 MOVIA 0x1
00000543 ff71                 MOVAR 0xe
00000544 fd70                 CLRR 0xf
00000545 de47                 MOVIA 0xb8
00000546 ff77                 MOVAR 0x8
00000547 ffef                 RET
00000548                      _pwmStop:
00000548 fdff                 CLRA
00000549 ffb5                 SFUN 0xa
0000054a ffef                 RET
0000054b                      _pwmInit:
0000054b ff95                 SFUNR 0xa
0000054c e0fc                 BCR 0x3, 0x6
0000054d ff4d                 MOVAR 0x32
0000054e f04d                 BTRSC 0x32, 0x7
0000054f c2a8                 LGOTO 0x557; main.o:_00458_DS_=0x557
00000550 fd66                 CLRR 0x19
00000551 de9b                 MOVIA 0x64
00000552 ffb6                 SFUN 0x9
00000553 defe                 MOVIA 0x1
00000554 ffb4                 SFUN 0xb
00000555 de7c                 MOVIA 0x83
00000556 ffb5                 SFUN 0xa
00000557                      main.o:_00458_DS_:
00000557 ffef                 RET
00000558                      _pwm1Stop:
00000558 fdff                 CLRA
00000559 ffbe                 SFUN 0x1
0000055a ffef                 RET
0000055b                      _pwm1Init:
0000055b ff9e                 SFUNR 0x1
0000055c e0fc                 BCR 0x3, 0x6
0000055d ff4e                 MOVAR 0x31
0000055e f04e                 BTRSC 0x31, 0x7
0000055f c298                 LGOTO 0x567; main.o:_00447_DS_=0x567
00000560 fd66                 CLRR 0x19
00000561 dee7                 MOVIA 0x18
00000562 ffbf                 SFUN 0x0
00000563 fdff                 CLRA
00000564 ffbd                 SFUN 0x2
00000565 de7c                 MOVIA 0x83
00000566 ffbe                 SFUN 0x1
00000567                      main.o:_00447_DS_:
00000567 ffef                 RET
00000568                      _LED6ON:
00000568 ffea                 IOSTR 0x5
00000569 e0fc                 BCR 0x3, 0x6
0000056a ff4f                 MOVAR 0x30
0000056b e3cf                 BCR 0x30, 0x0
0000056c fecf                 MOVR 0x30, 0x0
0000056d fffa                 IOST 0x5
0000056e ffe9                 IOSTR 0x6
0000056f ff4f                 MOVAR 0x30
00000570 e34f                 BCR 0x30, 0x1
00000571 fecf                 MOVR 0x30, 0x0
00000572 fff9                 IOST 0x6
00000573 e779                 BSR 0x6, 0x1
00000574 e3fa                 BCR 0x5, 0x0
00000575 de9b                 MOVIA 0x64
00000576 d3d6                 LCALL 0x429; _delay=0x429
00000577 d231                 LCALL 0x5ce; _LedInput=0x5ce
00000578 ffef                 RET
00000579                      _LED5ON:
00000579 ffea                 IOSTR 0x5
0000057a e0fc                 BCR 0x3, 0x6
0000057b ff50                 MOVAR 0x2f
0000057c e3d0                 BCR 0x2f, 0x0
0000057d fed0                 MOVR 0x2f, 0x0
0000057e fffa                 IOST 0x5
0000057f ffe9                 IOSTR 0x6
00000580 ff50                 MOVAR 0x2f
00000581 e350                 BCR 0x2f, 0x1
00000582 fed0                 MOVR 0x2f, 0x0
00000583 fff9                 IOST 0x6
00000584 e7fa                 BSR 0x5, 0x0
00000585 e379                 BCR 0x6, 0x1
00000586 de9b                 MOVIA 0x64
00000587 d3d6                 LCALL 0x429; _delay=0x429
00000588 d231                 LCALL 0x5ce; _LedInput=0x5ce
00000589 ffef                 RET
0000058a                      _LED4ON:
0000058a ffe9                 IOSTR 0x6
0000058b e0fc                 BCR 0x3, 0x6
0000058c ff51                 MOVAR 0x2e
0000058d e3d1                 BCR 0x2e, 0x0
0000058e fed1                 MOVR 0x2e, 0x0
0000058f fff9                 IOST 0x6
00000590 ffea                 IOSTR 0x5
00000591 ff51                 MOVAR 0x2e
00000592 e3d1                 BCR 0x2e, 0x0
00000593 fed1                 MOVR 0x2e, 0x0
00000594 fffa                 IOST 0x5
00000595 e7f9                 BSR 0x6, 0x0
00000596 e3fa                 BCR 0x5, 0x0
00000597 de9b                 MOVIA 0x64
00000598 d3d6                 LCALL 0x429; _delay=0x429
00000599 d231                 LCALL 0x5ce; _LedInput=0x5ce
0000059a ffef                 RET
0000059b                      _LED3ON:
0000059b ffe9                 IOSTR 0x6
0000059c e0fc                 BCR 0x3, 0x6
0000059d ff52                 MOVAR 0x2d
0000059e e3d2                 BCR 0x2d, 0x0
0000059f fed2                 MOVR 0x2d, 0x0
000005a0 fff9                 IOST 0x6
000005a1 ffe9                 IOSTR 0x6
000005a2 ff52                 MOVAR 0x2d
000005a3 e352                 BCR 0x2d, 0x1
000005a4 fed2                 MOVR 0x2d, 0x0
000005a5 fff9                 IOST 0x6
000005a6 e779                 BSR 0x6, 0x1
000005a7 e3f9                 BCR 0x6, 0x0
000005a8 de9b                 MOVIA 0x64
000005a9 d3d6                 LCALL 0x429; _delay=0x429
000005aa d231                 LCALL 0x5ce; _LedInput=0x5ce
000005ab ffef                 RET
000005ac                      _LED2ON:
000005ac ffea                 IOSTR 0x5
000005ad e0fc                 BCR 0x3, 0x6
000005ae ff53                 MOVAR 0x2c
000005af e3d3                 BCR 0x2c, 0x0
000005b0 fed3                 MOVR 0x2c, 0x0
000005b1 fffa                 IOST 0x5
000005b2 ffe9                 IOSTR 0x6
000005b3 ff53                 MOVAR 0x2c
000005b4 e3d3                 BCR 0x2c, 0x0
000005b5 fed3                 MOVR 0x2c, 0x0
000005b6 fff9                 IOST 0x6
000005b7 e7fa                 BSR 0x5, 0x0
000005b8 e3f9                 BCR 0x6, 0x0
000005b9 de9b                 MOVIA 0x64
000005ba d3d6                 LCALL 0x429; _delay=0x429
000005bb d231                 LCALL 0x5ce; _LedInput=0x5ce
000005bc ffef                 RET
000005bd                      _LED1ON:
000005bd ffe9                 IOSTR 0x6
000005be e0fc                 BCR 0x3, 0x6
000005bf ff54                 MOVAR 0x2b
000005c0 e3d4                 BCR 0x2b, 0x0
000005c1 fed4                 MOVR 0x2b, 0x0
000005c2 fff9                 IOST 0x6
000005c3 ffe9                 IOSTR 0x6
000005c4 ff54                 MOVAR 0x2b
000005c5 e354                 BCR 0x2b, 0x1
000005c6 fed4                 MOVR 0x2b, 0x0
000005c7 fff9                 IOST 0x6
000005c8 e7f9                 BSR 0x6, 0x0
000005c9 e379                 BCR 0x6, 0x1
000005ca de9b                 MOVIA 0x64
000005cb d3d6                 LCALL 0x429; _delay=0x429
000005cc d231                 LCALL 0x5ce; _LedInput=0x5ce
000005cd ffef                 RET
000005ce                      _LedInput:
000005ce ffea                 IOSTR 0x5
000005cf e0fc                 BCR 0x3, 0x6
000005d0 ff55                 MOVAR 0x2a
000005d1 e7d5                 BSR 0x2a, 0x0
000005d2 fed5                 MOVR 0x2a, 0x0
000005d3 fffa                 IOST 0x5
000005d4 ffe9                 IOSTR 0x6
000005d5 ff55                 MOVAR 0x2a
000005d6 defc                 MOVIA 0x3
000005d7 ee55                 IORAR 0x2a, 0x1
000005d8 fed5                 MOVR 0x2a, 0x0
000005d9 fff9                 IOST 0x6
000005da e3fa                 BCR 0x5, 0x0
000005db de03                 MOVIA 0xfc
000005dc ef79                 ANDAR 0x6, 0x1
000005dd ffef                 RET
000005de                      _ledShow:
000005de e0fc                 BCR 0x3, 0x6
000005df fe81                 MOVR 0x7e, 0x0
000005e0 f2fc                 BTRSC 0x3, 0x2
000005e1 c213                 LGOTO 0x5ec; main.o:_00344_DS_=0x5ec
000005e2 fe9f                 MOVR 0x60, 0x0
000005e3 f6fc                 BTRSS 0x3, 0x2
000005e4 c213                 LGOTO 0x5ec; main.o:_00344_DS_=0x5ec
000005e5 f381                 BTRSC 0x7e, 0x0
000005e6 c216                 LGOTO 0x5e9; main.o:_00341_DS_=0x5e9
000005e7 fd1e                 CLRR 0x61
000005e8 c213                 LGOTO 0x5ec; main.o:_00344_DS_=0x5ec
000005e9                      main.o:_00341_DS_:
000005e9 e0fc                 BCR 0x3, 0x6
000005ea fe84                 MOVR 0x7b, 0x0
000005eb ff1e                 MOVAR 0x61
000005ec                      main.o:_00344_DS_:
000005ec e0fc                 BCR 0x3, 0x6
000005ed fe8d                 MOVR 0x72, 0x0
000005ee f2fc                 BTRSC 0x3, 0x2
000005ef c1ff                 LGOTO 0x600; main.o:_00352_DS_=0x600
000005f0 fe98                 MOVR 0x67, 0x0
000005f1 f2fc                 BTRSC 0x3, 0x2
000005f2 c1ff                 LGOTO 0x600; main.o:_00352_DS_=0x600
000005f3 fe8d                 MOVR 0x72, 0x0
000005f4 f2fc                 BTRSC 0x3, 0x2
000005f5 c1ff                 LGOTO 0x600; main.o:_00352_DS_=0x600
000005f6 def8                 MOVIA 0x7
000005f7 fb98                 SUBAR 0x67, 0x0
000005f8 f7fc                 BTRSS 0x3, 0x0
000005f9 c202                 LGOTO 0x5fd; main.o:_00347_DS_=0x5fd
000005fa def9                 MOVIA 0x6
000005fb ff1e                 MOVAR 0x61
000005fc c1ff                 LGOTO 0x600; main.o:_00352_DS_=0x600
000005fd                      main.o:_00347_DS_:
000005fd e0fc                 BCR 0x3, 0x6
000005fe fe98                 MOVR 0x67, 0x0
000005ff ff1e                 MOVAR 0x61
00000600                      main.o:_00352_DS_:
00000600 e0fc                 BCR 0x3, 0x6
00000601 fe89                 MOVR 0x76, 0x0
00000602 f2fc                 BTRSC 0x3, 0x2
00000603 c1ec                 LGOTO 0x613; main.o:_00358_DS_=0x613
00000604 fe9f                 MOVR 0x60, 0x0
00000605 f2fc                 BTRSC 0x3, 0x2
00000606 c1ec                 LGOTO 0x613; main.o:_00358_DS_=0x613
00000607 fe98                 MOVR 0x67, 0x0
00000608 f6fc                 BTRSS 0x3, 0x2
00000609 c1ec                 LGOTO 0x613; main.o:_00358_DS_=0x613
0000060a decd                 MOVIA 0x32
0000060b fb92                 SUBAR 0x6d, 0x0
0000060c f3fc                 BTRSC 0x3, 0x0
0000060d c1ee                 LGOTO 0x611; main.o:_00355_DS_=0x611
0000060e fe9f                 MOVR 0x60, 0x0
0000060f ff1e                 MOVAR 0x61
00000610 c1ec                 LGOTO 0x613; main.o:_00358_DS_=0x613
00000611                      main.o:_00355_DS_:
00000611 e0fc                 BCR 0x3, 0x6
00000612 fd1e                 CLRR 0x61
00000613                      main.o:_00358_DS_:
00000613 d231                 LCALL 0x5ce; _LedInput=0x5ce
00000614 def6                 MOVIA 0x9
00000615 e0fc                 BCR 0x3, 0x6
00000616 fb9e                 SUBAR 0x61, 0x0
00000617 f3fc                 BTRSC 0x3, 0x0
00000618 c1ce                 LGOTO 0x631; main.o:_00371_DS_=0x631
00000619 def9                 MOVIA 0x6
0000061a ff75                 MOVAR 0xa
0000061b fe9e                 MOVR 0x61, 0x0
0000061c dadf                 ADDIA 0x20
0000061d f3fc                 BTRSC 0x3, 0x0
0000061e fa75                 INCR 0xa, 0x1
0000061f ff7d                 MOVAR 0x2
00000620                      main.o:_00412_DS_:
00000620 c1d6                 LGOTO 0x629; main.o:_00361_DS_=0x629
00000621 c1cf                 LGOTO 0x630; main.o:_00369_DS_=0x630
00000622 c1d0                 LGOTO 0x62f; main.o:_00368_DS_=0x62f
00000623 c1d1                 LGOTO 0x62e; main.o:_00367_DS_=0x62e
00000624 c1d2                 LGOTO 0x62d; main.o:_00366_DS_=0x62d
00000625 c1d3                 LGOTO 0x62c; main.o:_00365_DS_=0x62c
00000626 c1d4                 LGOTO 0x62b; main.o:_00364_DS_=0x62b
00000627 c1d4                 LGOTO 0x62b; main.o:_00364_DS_=0x62b
00000628 c1d4                 LGOTO 0x62b; main.o:_00364_DS_=0x62b
00000629                      main.o:_00361_DS_:
00000629 d231                 LCALL 0x5ce; _LedInput=0x5ce
0000062a c1ce                 LGOTO 0x631; main.o:_00371_DS_=0x631
0000062b                      main.o:_00364_DS_:
0000062b d297                 LCALL 0x568; _LED6ON=0x568
0000062c                      main.o:_00365_DS_:
0000062c d286                 LCALL 0x579; _LED5ON=0x579
0000062d                      main.o:_00366_DS_:
0000062d d275                 LCALL 0x58a; _LED4ON=0x58a
0000062e                      main.o:_00367_DS_:
0000062e d264                 LCALL 0x59b; _LED3ON=0x59b
0000062f                      main.o:_00368_DS_:
0000062f d253                 LCALL 0x5ac; _LED2ON=0x5ac
00000630                      main.o:_00369_DS_:
00000630 d242                 LCALL 0x5bd; _LED1ON=0x5bd
00000631                      main.o:_00371_DS_:
00000631 ffef                 RET
00000632                      _initSys:
00000632 ffec                 DISI
00000633 de41                 MOVIA 0xbe
00000634 fffa                 IOST 0x5
00000635 def7                 MOVIA 0x8
00000636 fff9                 IOST 0x6
00000637 fd79                 CLRR 0x6
00000638 e0fc                 BCR 0x3, 0x6
00000639 fd7a                 CLRR 0x5
0000063a d231                 LCALL 0x5ce; _LedInput=0x5ce
0000063b de80                 MOVIA 0x7f
0000063c fff6                 IOST 0x9
0000063d de00                 MOVIA 0xff
0000063e ff73                 MOVAR 0xc
0000063f ff74                 MOVAR 0xb
00000640 defe                 MOVIA 0x1
00000641 ff71                 MOVAR 0xe
00000642 fdff                 CLRA
00000643 fff0                 IOST 0xf
00000644 dec8                 MOVIA 0x37
00000645 ff7e                 MOVAR 0x1
00000646 defe                 MOVIA 0x1
00000647 fffc                 T0MD
00000648 fff0                 IOST 0xf
00000649 de67                 MOVIA 0x98
0000064a ff77                 MOVAR 0x8
0000064b defe                 MOVIA 0x1
0000064c fff0                 IOST 0xf
0000064d fffb                 ENI
0000064e ffef                 RET
0000064f                      _powerOff:
0000064f e0fc                 BCR 0x3, 0x6
00000650 fd1f                 CLRR 0x60
00000651 d2b7                 LCALL 0x548; _pwmStop=0x548
00000652 ffef                 RET
00000653                      _keyCtr:
00000653 e0fc                 BCR 0x3, 0x6
00000654 f8fa                 COMR 0x5, 0x0
00000655 ff56                 MOVAR 0x29
00000656 de7f                 MOVIA 0x80
00000657 ef56                 ANDAR 0x29, 0x1
00000658 fed6                 MOVR 0x29, 0x0
00000659 d30a                 LCALL 0x4f5; _keyRead=0x4f5
0000065a e0fc                 BCR 0x3, 0x6
0000065b ff56                 MOVAR 0x29
0000065c dbfe                 XORIA 0x1
0000065d f6fc                 BTRSS 0x3, 0x2
0000065e c14b                 LGOTO 0x6b4; main.o:_00325_DS_=0x6b4
0000065f fd21                 CLRR 0x5e
00000660 fd0d                 CLRR 0x72
00000661 fe9f                 MOVR 0x60, 0x0
00000662 f6fc                 BTRSS 0x3, 0x2
00000663 c195                 LGOTO 0x66a; main.o:_00291_DS_=0x66a
00000664 fd12                 CLRR 0x6d
00000665 defc                 MOVIA 0x3
00000666 ff0d                 MOVAR 0x72
00000667 e4fc                 BSR 0x3, 0x6
00000668 fd5c                 CLRR 0x23
00000669 c125                 LGOTO 0x6da; main.o:_00327_DS_=0x6da
0000066a                      main.o:_00291_DS_:
0000066a e0fc                 BCR 0x3, 0x6
0000066b fd0f                 CLRR 0x70
0000066c fa1f                 INCR 0x60, 0x1
0000066d def8                 MOVIA 0x7
0000066e fb9f                 SUBAR 0x60, 0x0
0000066f f7fc                 BTRSS 0x3, 0x0
00000670 c18c                 LGOTO 0x673; main.o:_00293_DS_=0x673
00000671 defe                 MOVIA 0x1
00000672 ff1f                 MOVAR 0x60
00000673                      main.o:_00293_DS_:
00000673 e0fc                 BCR 0x3, 0x6
00000674 fe98                 MOVR 0x67, 0x0
00000675 f6fc                 BTRSS 0x3, 0x2
00000676 c186                 LGOTO 0x679; main.o:_00295_DS_=0x679
00000677 def5                 MOVIA 0xa
00000678 ff09                 MOVAR 0x76
00000679                      main.o:_00295_DS_:
00000679 e0fc                 BCR 0x3, 0x6
0000067a fe9f                 MOVR 0x60, 0x0
0000067b dbfe                 XORIA 0x1
0000067c f6fc                 BTRSS 0x3, 0x2
0000067d c17d                 LGOTO 0x682; main.o:_00311_DS_=0x682
0000067e ded2                 MOVIA 0x2d
0000067f ff19                 MOVAR 0x66
00000680 fd0d                 CLRR 0x72
00000681 c156                 LGOTO 0x6a9; main.o:_00312_DS_=0x6a9
00000682                      main.o:_00311_DS_:
00000682 e0fc                 BCR 0x3, 0x6
00000683 fe9f                 MOVR 0x60, 0x0
00000684 dbfd                 XORIA 0x2
00000685 f6fc                 BTRSS 0x3, 0x2
00000686 c175                 LGOTO 0x68a; main.o:_00308_DS_=0x68a
00000687 dece                 MOVIA 0x31
00000688 ff19                 MOVAR 0x66
00000689 c156                 LGOTO 0x6a9; main.o:_00312_DS_=0x6a9
0000068a                      main.o:_00308_DS_:
0000068a e0fc                 BCR 0x3, 0x6
0000068b fe9f                 MOVR 0x60, 0x0
0000068c dbfc                 XORIA 0x3
0000068d f6fc                 BTRSS 0x3, 0x2
0000068e c16d                 LGOTO 0x692; main.o:_00305_DS_=0x692
0000068f deca                 MOVIA 0x35
00000690 ff19                 MOVAR 0x66
00000691 c156                 LGOTO 0x6a9; main.o:_00312_DS_=0x6a9
00000692                      main.o:_00305_DS_:
00000692 e0fc                 BCR 0x3, 0x6
00000693 fe9f                 MOVR 0x60, 0x0
00000694 dbfb                 XORIA 0x4
00000695 f6fc                 BTRSS 0x3, 0x2
00000696 c165                 LGOTO 0x69a; main.o:_00302_DS_=0x69a
00000697 dec6                 MOVIA 0x39
00000698 ff19                 MOVAR 0x66
00000699 c156                 LGOTO 0x6a9; main.o:_00312_DS_=0x6a9
0000069a                      main.o:_00302_DS_:
0000069a e0fc                 BCR 0x3, 0x6
0000069b fe9f                 MOVR 0x60, 0x0
0000069c dbfa                 XORIA 0x5
0000069d f6fc                 BTRSS 0x3, 0x2
0000069e c15d                 LGOTO 0x6a2; main.o:_00299_DS_=0x6a2
0000069f dec2                 MOVIA 0x3d
000006a0 ff19                 MOVAR 0x66
000006a1 c156                 LGOTO 0x6a9; main.o:_00312_DS_=0x6a9
000006a2                      main.o:_00299_DS_:
000006a2 e0fc                 BCR 0x3, 0x6
000006a3 fe9f                 MOVR 0x60, 0x0
000006a4 dbf9                 XORIA 0x6
000006a5 f6fc                 BTRSS 0x3, 0x2
000006a6 c156                 LGOTO 0x6a9; main.o:_00312_DS_=0x6a9
000006a7 debe                 MOVIA 0x41
000006a8 ff19                 MOVAR 0x66
000006a9                      main.o:_00312_DS_:
000006a9 e0fc                 BCR 0x3, 0x6
000006aa fe9f                 MOVR 0x60, 0x0
000006ab f2fc                 BTRSC 0x3, 0x2
000006ac c14f                 LGOTO 0x6b0; main.o:_00314_DS_=0x6b0
000006ad fe99                 MOVR 0x66, 0x0
000006ae ffb3                 SFUN 0xc
000006af d2b4                 LCALL 0x54b; _pwmInit=0x54b
000006b0                      main.o:_00314_DS_:
000006b0 e0fc                 BCR 0x3, 0x6
000006b1 fe9f                 MOVR 0x60, 0x0
000006b2 ff1e                 MOVAR 0x61
000006b3 c125                 LGOTO 0x6da; main.o:_00327_DS_=0x6da
000006b4                      main.o:_00325_DS_:
000006b4 e0fc                 BCR 0x3, 0x6
000006b5 fed6                 MOVR 0x29, 0x0
000006b6 dbfd                 XORIA 0x2
000006b7 f6fc                 BTRSS 0x3, 0x2
000006b8 c125                 LGOTO 0x6da; main.o:_00327_DS_=0x6da
000006b9 fe9f                 MOVR 0x60, 0x0
000006ba f2fc                 BTRSC 0x3, 0x2
000006bb c141                 LGOTO 0x6be; main.o:_00320_DS_=0x6be
000006bc d1b0                 LCALL 0x64f; _powerOff=0x64f
000006bd c128                 LGOTO 0x6d7; main.o:_00321_DS_=0x6d7
000006be                      main.o:_00320_DS_:
000006be e0fc                 BCR 0x3, 0x6
000006bf fe98                 MOVR 0x67, 0x0
000006c0 dbf5                 XORIA 0xa
000006c1 f6fc                 BTRSS 0x3, 0x2
000006c2 c139                 LGOTO 0x6c6; main.o:_00316_DS_=0x6c6
000006c3 fd15                 CLRR 0x6a
000006c4 fd14                 CLRR 0x6b
000006c5 c125                 LGOTO 0x6da; main.o:_00327_DS_=0x6da
000006c6                      main.o:_00316_DS_:
000006c6 e0fc                 BCR 0x3, 0x6
000006c7 fd0d                 CLRR 0x72
000006c8 defe                 MOVIA 0x1
000006c9 ff1e                 MOVAR 0x61
000006ca ff1f                 MOVAR 0x60
000006cb deb9                 MOVIA 0x46
000006cc ffb3                 SFUN 0xc
000006cd ff0c                 MOVAR 0x73
000006ce ded2                 MOVIA 0x2d
000006cf ff19                 MOVAR 0x66
000006d0 d2b4                 LCALL 0x54b; _pwmInit=0x54b
000006d1 e0fc                 BCR 0x3, 0x6
000006d2 fe98                 MOVR 0x67, 0x0
000006d3 f6fc                 BTRSS 0x3, 0x2
000006d4 c128                 LGOTO 0x6d7; main.o:_00321_DS_=0x6d7
000006d5 def5                 MOVIA 0xa
000006d6 ff09                 MOVAR 0x76
000006d7                      main.o:_00321_DS_:
000006d7 e0fc                 BCR 0x3, 0x6
000006d8 fe9f                 MOVR 0x60, 0x0
000006d9 ff1e                 MOVAR 0x61
000006da                      main.o:_00327_DS_:
000006da ffef                 RET
000006db                      __mulchar:
000006db e0fc                 BCR 0x3, 0x6
000006dc ff2b                 MOVAR 0x54
000006dd feb8                 MOVR 0x47, 0x0
000006de ff2a                 MOVAR 0x55
000006df fd29                 CLRR 0x56
000006e0 def7                 MOVIA 0x8
000006e1 ff28                 MOVAR 0x57
000006e2                      _mulchar.o:_00119_DS_:
000006e2 e0fc                 BCR 0x3, 0x6
000006e3 f7ab                 BTRSS 0x54, 0x0
000006e4 c118                 LGOTO 0x6e7; _mulchar.o:_00114_DS_=0x6e7
000006e5 feaa                 MOVR 0x55, 0x0
000006e6 fc29                 ADDAR 0x56, 0x1
000006e7                      _mulchar.o:_00114_DS_:
000006e7 e3fc                 BCR 0x3, 0x0
000006e8 e0fc                 BCR 0x3, 0x6
000006e9 ec2b                 RRR 0x54, 0x1
000006ea e3fc                 BCR 0x3, 0x0
000006eb eb2a                 RLR 0x55, 0x1
000006ec f9a8                 DECR 0x57, 0x0
000006ed ff27                 MOVAR 0x58
000006ee ff28                 MOVAR 0x57
000006ef fea7                 MOVR 0x58, 0x0
000006f0 f6fc                 BTRSS 0x3, 0x2
000006f1 c11d                 LGOTO 0x6e2; _mulchar.o:_00119_DS_=0x6e2
000006f2 fea9                 MOVR 0x56, 0x0
000006f3 ffef                 RET
000006f4                      ___cinit_load__:
