00000000 c7fe                 LGOTO 0x1; __nyc_ny8_startup=0x1
00000001                      __nyc_ny8_startup:
00000001 d09d                 LCALL 0x762; ___cinit_load__=0x762
00000002 c79a                 LGOTO 0x65; _main=0x65
00000003                      main.o:_00749_DS_:
00000003 f56f                 BTRSS 0x10, 0x5
00000004 c7fc                 LGOTO 0x3; main.o:_00749_DS_=0x3
00000005 ffef                 RET
00000008 c7f6                 LGOTO 0x9; main.o:__sdcc_interrupt=0x9
00000009                      main.o:__sdcc_interrupt:
00000009 ff3d                 MOVAR 0x42
0000000a eafc                 SWAPR 0x3, 0x0
0000000b fd7c                 CLRR 0x3
0000000c ff3e                 MOVAR 0x41
0000000d fef5                 MOVR 0xa, 0x0
0000000e fd75                 CLRR 0xa
0000000f ff3f                 MOVAR 0x40
00000010 fefb                 MOVR 0x4, 0x0
00000011 e0fc                 BCR 0x3, 0x6
00000012 ff1b                 MOVAR 0x64
00000013 feba                 MOVR 0x45, 0x0
00000014 ff1a                 MOVAR 0x65
00000015 febb                 MOVR 0x44, 0x0
00000016 ff19                 MOVAR 0x66
00000017 f7f0                 BTRSS 0xf, 0x0
00000018 c7ae                 LGOTO 0x51; main.o:_00121_DS_=0x51
00000019 dec8                 MOVIA 0x37
0000001a fc7e                 ADDAR 0x1, 0x1
0000001b fa0a                 INCR 0x75, 0x1
0000001c de9b                 MOVIA 0x64
0000001d fb8a                 SUBAR 0x75, 0x0
0000001e f7fc                 BTRSS 0x3, 0x0
0000001f c7ae                 LGOTO 0x51; main.o:_00121_DS_=0x51
00000020 e78b                 BSR 0x74, 0x0
00000021 fd0a                 CLRR 0x75
00000022 fa07                 INCR 0x78, 0x1
00000023 deeb                 MOVIA 0x14
00000024 fb87                 SUBAR 0x78, 0x0
00000025 f7fc                 BTRSS 0x3, 0x0
00000026 c7d3                 LGOTO 0x2c; main.o:_00108_DS_=0x2c
00000027 fd07                 CLRR 0x78
00000028 e4fc                 BSR 0x3, 0x6
00000029 fed8                 MOVR 0x27, 0x0
0000002a f6fc                 BTRSS 0x3, 0x2
0000002b f958                 DECR 0x27, 0x1
0000002c                      main.o:_00108_DS_:
0000002c e0fc                 BCR 0x3, 0x6
0000002d fa05                 INCR 0x7a, 0x1
0000002e f2fc                 BTRSC 0x3, 0x2
0000002f fa04                 INCR 0x7b, 0x1
00000030 defe                 MOVIA 0x1
00000031 fb84                 SUBAR 0x7b, 0x0
00000032 f6fc                 BTRSS 0x3, 0x2
00000033 c7c9                 LGOTO 0x36; main.o:_00155_DS_=0x36
00000034 de0b                 MOVIA 0xf4
00000035 fb85                 SUBAR 0x7a, 0x0
00000036                      main.o:_00155_DS_:
00000036 f7fc                 BTRSS 0x3, 0x0
00000037 c7c4                 LGOTO 0x3b; main.o:_00110_DS_=0x3b
00000038 e0fc                 BCR 0x3, 0x6
00000039 fd05                 CLRR 0x7a
0000003a fd04                 CLRR 0x7b
0000003b                      main.o:_00110_DS_:
0000003b e0fc                 BCR 0x3, 0x6
0000003c fa06                 INCR 0x79, 0x1
0000003d de9b                 MOVIA 0x64
0000003e fb86                 SUBAR 0x79, 0x0
0000003f f7fc                 BTRSS 0x3, 0x0
00000040 c7ae                 LGOTO 0x51; main.o:_00121_DS_=0x51
00000041 fd06                 CLRR 0x79
00000042 e4fc                 BSR 0x3, 0x6
00000043 fedf                 MOVR 0x20, 0x0
00000044 f6fc                 BTRSS 0x3, 0x2
00000045 f95f                 DECR 0x20, 0x1
00000046 e0fc                 BCR 0x3, 0x6
00000047 fe81                 MOVR 0x7e, 0x0
00000048 f2fc                 BTRSC 0x3, 0x2
00000049 c7b1                 LGOTO 0x4e; main.o:_00114_DS_=0x4e
0000004a fa03                 INCR 0x7c, 0x1
0000004b f2fc                 BTRSC 0x3, 0x2
0000004c fa02                 INCR 0x7d, 0x1
0000004d c7ae                 LGOTO 0x51; main.o:_00121_DS_=0x51
0000004e                      main.o:_00114_DS_:
0000004e e0fc                 BCR 0x3, 0x6
0000004f fd03                 CLRR 0x7c
00000050 fd02                 CLRR 0x7d
00000051                      main.o:_00121_DS_:
00000051 f770                 BTRSS 0xf, 0x1
00000052 c7aa                 LGOTO 0x55; main.o:_00123_DS_=0x55
00000053 de02                 MOVIA 0xfd
00000054 ff70                 MOVAR 0xf
00000055                      main.o:_00123_DS_:
00000055 fd70                 CLRR 0xf
00000056 e0fc                 BCR 0x3, 0x6
00000057 fe99                 MOVR 0x66, 0x0
00000058 ff3b                 MOVAR 0x44
00000059 fe9a                 MOVR 0x65, 0x0
0000005a ff3a                 MOVAR 0x45
0000005b fe9b                 MOVR 0x64, 0x0
0000005c ff7b                 MOVAR 0x4
0000005d febf                 MOVR 0x40, 0x0
0000005e ff75                 MOVAR 0xa
0000005f fd7c                 CLRR 0x3
00000060 eabe                 SWAPR 0x41, 0x0
00000061 ff7c                 MOVAR 0x3
00000062 ea3d                 SWAPR 0x42, 0x1
00000063 eabd                 SWAPR 0x42, 0x0
00000064                      main.o:END_OF_INTERRUPT:
00000064 ffee                 RETIE
00000065                      _main:
00000065 d477                 LCALL 0x388; _initSys=0x388
00000066 d4f5                 LCALL 0x30a; _initAD=0x30a
00000067 de9b                 MOVIA 0x64
00000068 e4fc                 BSR 0x3, 0x6
00000069 ff4c                 MOVAR 0x33
0000006a e0fc                 BCR 0x3, 0x6
0000006b e58b                 BSR 0x74, 0x4
0000006c e4fc                 BSR 0x3, 0x6
0000006d fd5f                 CLRR 0x20
0000006e e0fc                 BCR 0x3, 0x6
0000006f                      ___cinit_size__:
0000006f f58b                 BTRSS 0x74, 0x4
00000070 c78c                 LGOTO 0x73; main.o:_00010_DS_=0x73
00000071 e4fc                 BSR 0x3, 0x6
00000072 fa5f                 INCR 0x20, 0x1
00000073                      main.o:_00010_DS_:
00000073 def7                 MOVIA 0x8
00000074 e4fc                 BSR 0x3, 0x6
00000075 ff53                 MOVAR 0x2c
00000076 ff55                 MOVAR 0x2a
00000077 ff52                 MOVAR 0x2d
00000078 def7                 MOVIA 0x8
00000079 ff54                 MOVAR 0x2b
0000007a de05                 MOVIA 0xfa
0000007b d294                 LCALL 0x56b; _delayms=0x56b
0000007c                      main.o:_00212_DS_:
0000007c fffd                 CLRWDT
0000007d e0fc                 BCR 0x3, 0x6
0000007e f58b                 BTRSS 0x74, 0x4
0000007f c77d                 LGOTO 0x82; main.o:_00161_DS_=0x82
00000080 d3bc                 LCALL 0x443; _refreshNub=0x443
00000081 c77c                 LGOTO 0x83; main.o:_00162_DS_=0x83
00000082                      main.o:_00161_DS_:
00000082 d288                 LCALL 0x577; _setInput=0x577
00000083                      main.o:_00162_DS_:
00000083 e0fc                 BCR 0x3, 0x6
00000084 fe81                 MOVR 0x7e, 0x0
00000085 f2fc                 BTRSC 0x3, 0x2
00000086 c76d                 LGOTO 0x92; main.o:_00172_DS_=0x92
00000087 e4fc                 BSR 0x3, 0x6
00000088 fedd                 MOVR 0x22, 0x0
00000089 fbde                 SUBAR 0x21, 0x0
0000008a f3fc                 BTRSC 0x3, 0x0
0000008b c76d                 LGOTO 0x92; main.o:_00172_DS_=0x92
0000008c f95d                 DECR 0x22, 0x1
0000008d fedd                 MOVR 0x22, 0x0
0000008e ffb3                 SFUN 0xc
0000008f fedd                 MOVR 0x22, 0x0
00000090 ff50                 MOVAR 0x2f
00000091 c754                 LGOTO 0xab; main.o:_00173_DS_=0xab
00000092                      main.o:_00172_DS_:
00000092 e0fc                 BCR 0x3, 0x6
00000093 fe81                 MOVR 0x7e, 0x0
00000094 f2fc                 BTRSC 0x3, 0x2
00000095 c754                 LGOTO 0xab; main.o:_00173_DS_=0xab
00000096 ded7                 MOVIA 0x28
00000097 e4fc                 BSR 0x3, 0x6
00000098 fbdb                 SUBAR 0x24, 0x0
00000099 f7fc                 BTRSS 0x3, 0x0
0000009a c754                 LGOTO 0xab; main.o:_00173_DS_=0xab
0000009b fed0                 MOVR 0x2f, 0x0
0000009c fbdb                 SUBAR 0x24, 0x0
0000009d f3fc                 BTRSC 0x3, 0x0
0000009e c75c                 LGOTO 0xa3; main.o:_00166_DS_=0xa3
0000009f f950                 DECR 0x2f, 0x1
000000a0 fed0                 MOVR 0x2f, 0x0
000000a1 ffb3                 SFUN 0xc
000000a2 c754                 LGOTO 0xab; main.o:_00173_DS_=0xab
000000a3                      main.o:_00166_DS_:
000000a3 e4fc                 BSR 0x3, 0x6
000000a4 fedb                 MOVR 0x24, 0x0
000000a5 fbd0                 SUBAR 0x2f, 0x0
000000a6 f3fc                 BTRSC 0x3, 0x0
000000a7 c754                 LGOTO 0xab; main.o:_00173_DS_=0xab
000000a8 fa50                 INCR 0x2f, 0x1
000000a9 fed0                 MOVR 0x2f, 0x0
000000aa ffb3                 SFUN 0xc
000000ab                      main.o:_00173_DS_:
000000ab e0fc                 BCR 0x3, 0x6
000000ac f78b                 BTRSS 0x74, 0x0
000000ad c783                 LGOTO 0x7c; main.o:_00212_DS_=0x7c
000000ae e38b                 BCR 0x74, 0x0
000000af e4fc                 BSR 0x3, 0x6
000000b0 fecc                 MOVR 0x33, 0x0
000000b1 f2fc                 BTRSC 0x3, 0x2
000000b2 c749                 LGOTO 0xb6; main.o:_00178_DS_=0xb6
000000b3 f94c                 DECR 0x33, 0x1
000000b4 fed1                 MOVR 0x2e, 0x0
000000b5 ff4f                 MOVAR 0x30
000000b6                      main.o:_00178_DS_:
000000b6 defa                 MOVIA 0x5
000000b7 e4fc                 BSR 0x3, 0x6
000000b8 fbd1                 SUBAR 0x2e, 0x0
000000b9 f3fc                 BTRSC 0x3, 0x0
000000ba c72c                 LGOTO 0xd3; main.o:_00182_DS_=0xd3
000000bb e0fc                 BCR 0x3, 0x6
000000bc fe81                 MOVR 0x7e, 0x0
000000bd f2fc                 BTRSC 0x3, 0x2
000000be c72c                 LGOTO 0xd3; main.o:_00182_DS_=0xd3
000000bf e4fc                 BSR 0x3, 0x6
000000c0 fa4e                 INCR 0x31, 0x1
000000c1 f2fc                 BTRSC 0x3, 0x2
000000c2 fa4d                 INCR 0x32, 0x1
000000c3 dee8                 MOVIA 0x17
000000c4 fbcd                 SUBAR 0x32, 0x0
000000c5 f6fc                 BTRSS 0x3, 0x2
000000c6 c736                 LGOTO 0xc9; main.o:_00305_DS_=0xc9
000000c7 de8f                 MOVIA 0x70
000000c8 fbce                 SUBAR 0x31, 0x0
000000c9                      main.o:_00305_DS_:
000000c9 f7fc                 BTRSS 0x3, 0x0
000000ca c729                 LGOTO 0xd6; main.o:_00183_DS_=0xd6
000000cb e4fc                 BSR 0x3, 0x6
000000cc fd4e                 CLRR 0x31
000000cd fd4d                 CLRR 0x32
000000ce fd4f                 CLRR 0x30
000000cf e0fc                 BCR 0x3, 0x6
000000d0 fd01                 CLRR 0x7e
000000d1 d49d                 LCALL 0x362; _pwmStop=0x362
000000d2 c729                 LGOTO 0xd6; main.o:_00183_DS_=0xd6
000000d3                      main.o:_00182_DS_:
000000d3 e4fc                 BSR 0x3, 0x6
000000d4 fd4e                 CLRR 0x31
000000d5 fd4d                 CLRR 0x32
000000d6                      main.o:_00183_DS_:
000000d6 defa                 MOVIA 0x5
000000d7 e4fc                 BSR 0x3, 0x6
000000d8 fbdc                 SUBAR 0x23, 0x0
000000d9 f7fc                 BTRSS 0x3, 0x0
000000da c70c                 LGOTO 0xf3; main.o:_00188_DS_=0xf3
000000db e0fc                 BCR 0x3, 0x6
000000dc fe81                 MOVR 0x7e, 0x0
000000dd f2fc                 BTRSC 0x3, 0x2
000000de c70c                 LGOTO 0xf3; main.o:_00188_DS_=0xf3
000000df e4fc                 BSR 0x3, 0x6
000000e0 fa5a                 INCR 0x25, 0x1
000000e1 f2fc                 BTRSC 0x3, 0x2
000000e2 fa59                 INCR 0x26, 0x1
000000e3 deff                 MOVIA 0x0
000000e4 fbd9                 SUBAR 0x26, 0x0
000000e5 f6fc                 BTRSS 0x3, 0x2
000000e6 c716                 LGOTO 0xe9; main.o:_00307_DS_=0xe9
000000e7 de04                 MOVIA 0xfb
000000e8 fbda                 SUBAR 0x25, 0x0
000000e9                      main.o:_00307_DS_:
000000e9 f7fc                 BTRSS 0x3, 0x0
000000ea c709                 LGOTO 0xf6; main.o:_00189_DS_=0xf6
000000eb e4fc                 BSR 0x3, 0x6
000000ec fd5c                 CLRR 0x23
000000ed fd5a                 CLRR 0x25
000000ee fd59                 CLRR 0x26
000000ef dee6                 MOVIA 0x19
000000f0 ff58                 MOVAR 0x27
000000f1 d47b                 LCALL 0x384; _powerOff=0x384
000000f2 c709                 LGOTO 0xf6; main.o:_00189_DS_=0xf6
000000f3                      main.o:_00188_DS_:
000000f3 e4fc                 BSR 0x3, 0x6
000000f4 fd5a                 CLRR 0x25
000000f5 fd59                 CLRR 0x26
000000f6                      main.o:_00189_DS_:
000000f6 defc                 MOVIA 0x3
000000f7 e0fc                 BCR 0x3, 0x6
000000f8 fb87                 SUBAR 0x78, 0x0
000000f9 f3fc                 BTRSC 0x3, 0x0
000000fa c6fa                 LGOTO 0x105; main.o:_00195_DS_=0x105
000000fb deff                 MOVIA 0x0
000000fc fbde                 SUBAR 0x21, 0x0
000000fd f6fc                 BTRSS 0x3, 0x2
000000fe c6fe                 LGOTO 0x101; main.o:_00309_DS_=0x101
000000ff ded7                 MOVIA 0x28
00000100 fbdf                 SUBAR 0x20, 0x0
00000101                      main.o:_00309_DS_:
00000101 f3fc                 BTRSC 0x3, 0x0
00000102 c6fa                 LGOTO 0x105; main.o:_00195_DS_=0x105
00000103 d5c7                 LCALL 0x238; _checkBatAD=0x238
00000104 c6f1                 LGOTO 0x10e; main.o:_00196_DS_=0x10e
00000105                      main.o:_00195_DS_:
00000105 def9                 MOVIA 0x6
00000106 e0fc                 BCR 0x3, 0x6
00000107 fb87                 SUBAR 0x78, 0x0
00000108 f7fc                 BTRSS 0x3, 0x0
00000109 c6f1                 LGOTO 0x10e; main.o:_00196_DS_=0x10e
0000010a deec                 MOVIA 0x13
0000010b fb87                 SUBAR 0x78, 0x0
0000010c f7fc                 BTRSS 0x3, 0x0
0000010d d671                 LCALL 0x18e; _checkOutA=0x18e
0000010e                      main.o:_00196_DS_:
0000010e d374                 LCALL 0x48b; _chrgCtr=0x48b
0000010f e0fc                 BCR 0x3, 0x6
00000110 f60b                 BTRSS 0x74, 0x3
00000111 d45c                 LCALL 0x3a3; _keyCtr=0x3a3
00000112 e0fc                 BCR 0x3, 0x6
00000113 fe81                 MOVR 0x7e, 0x0
00000114 f6fc                 BTRSS 0x3, 0x2
00000115 c6ce                 LGOTO 0x131; main.o:_00203_DS_=0x131
00000116 fe80                 MOVR 0x7f, 0x0
00000117 f6fc                 BTRSS 0x3, 0x2
00000118 c6ce                 LGOTO 0x131; main.o:_00203_DS_=0x131
00000119 f20b                 BTRSC 0x74, 0x3
0000011a c6ce                 LGOTO 0x131; main.o:_00203_DS_=0x131
0000011b e4fc                 BSR 0x3, 0x6
0000011c fedf                 MOVR 0x20, 0x0
0000011d f6fc                 BTRSS 0x3, 0x2
0000011e c6ce                 LGOTO 0x131; main.o:_00203_DS_=0x131
0000011f fed8                 MOVR 0x27, 0x0
00000120 f6fc                 BTRSS 0x3, 0x2
00000121 c6ce                 LGOTO 0x131; main.o:_00203_DS_=0x131
00000122 e0fc                 BCR 0x3, 0x6
00000123 e18b                 BCR 0x74, 0x4
00000124 fa09                 INCR 0x76, 0x1
00000125 f2fc                 BTRSC 0x3, 0x2
00000126 fa08                 INCR 0x77, 0x1
00000127 deff                 MOVIA 0x0
00000128 fb88                 SUBAR 0x77, 0x0
00000129 f6fc                 BTRSS 0x3, 0x2
0000012a c6d2                 LGOTO 0x12d; main.o:_00312_DS_=0x12d
0000012b de36                 MOVIA 0xc9
0000012c fb89                 SUBAR 0x76, 0x0
0000012d                      main.o:_00312_DS_:
0000012d f7fc                 BTRSS 0x3, 0x0
0000012e c6cb                 LGOTO 0x134; main.o:_00204_DS_=0x134
0000012f d4c2                 LCALL 0x33d; _gotoSleep=0x33d
00000130 c6cb                 LGOTO 0x134; main.o:_00204_DS_=0x134
00000131                      main.o:_00203_DS_:
00000131 e0fc                 BCR 0x3, 0x6
00000132 fd09                 CLRR 0x76
00000133 fd08                 CLRR 0x77
00000134                      main.o:_00204_DS_:
00000134 defc                 MOVIA 0x3
00000135 e0fc                 BCR 0x3, 0x6
00000136 fb82                 SUBAR 0x7d, 0x0
00000137 f6fc                 BTRSS 0x3, 0x2
00000138 c6c4                 LGOTO 0x13b; main.o:_00313_DS_=0x13b
00000139 de7b                 MOVIA 0x84
0000013a fb83                 SUBAR 0x7c, 0x0
0000013b                      main.o:_00313_DS_:
0000013b f7fc                 BTRSS 0x3, 0x0
0000013c c783                 LGOTO 0x7c; main.o:_00212_DS_=0x7c
0000013d d47b                 LCALL 0x384; _powerOff=0x384
0000013e c783                 LGOTO 0x7c; main.o:_00212_DS_=0x7c
0000013f ffef                 RET
00000140                      _F_AIN2_Convert:
00000140 e0fc                 BCR 0x3, 0x6
00000141 ff41                 MOVAR 0x3e
00000142 fd5a                 CLRR 0x25
00000143 fd5c                 CLRR 0x23
00000144 fd5b                 CLRR 0x24
00000145 de6d                 MOVIA 0x92
00000146 ff6f                 MOVAR 0x10
00000147 de37                 MOVIA 0xc8
00000148 d294                 LCALL 0x56b; _delayms=0x56b
00000149 defe                 MOVIA 0x1
0000014a e0fc                 BCR 0x3, 0x6
0000014b ff40                 MOVAR 0x3f
0000014c                      main.o:_00742_DS_:
0000014c e0fc                 BCR 0x3, 0x6
0000014d fec0                 MOVR 0x3f, 0x0
0000014e fbc1                 SUBAR 0x3e, 0x0
0000014f f7fc                 BTRSS 0x3, 0x0
00000150 c699                 LGOTO 0x166; main.o:_00744_DS_=0x166
00000151 e4ef                 BSR 0x10, 0x6
00000152 d7fc                 LCALL 0x3; main.o:_00749_DS_=0x3
00000153 def0                 MOVIA 0xf
00000154 efee                 ANDAR 0x11, 0x0
00000155 e0fc                 BCR 0x3, 0x6
00000156 fc5a                 ADDAR 0x25, 0x1
00000157 feed                 MOVR 0x12, 0x0
00000158 ff39                 MOVAR 0x46
00000159 deff                 MOVIA 0x0
0000015a ff38                 MOVAR 0x47
0000015b feb9                 MOVR 0x46, 0x0
0000015c fc5c                 ADDAR 0x23, 0x1
0000015d feb8                 MOVR 0x47, 0x0
0000015e f3fc                 BTRSC 0x3, 0x0
0000015f fab8                 INCR 0x47, 0x0
00000160 f2fc                 BTRSC 0x3, 0x2
00000161 c69c                 LGOTO 0x163; main.o:_00001_DS_=0x163
00000162 fc5b                 ADDAR 0x24, 0x1
00000163                      main.o:_00001_DS_:
00000163 e0fc                 BCR 0x3, 0x6
00000164 fa40                 INCR 0x3f, 0x1
00000165 c6b3                 LGOTO 0x14c; main.o:_00742_DS_=0x14c
00000166                      main.o:_00744_DS_:
00000166 ffef                 RET
00000167                      _F_AIN4_Convert:
00000167 e0fc                 BCR 0x3, 0x6
00000168 ff45                 MOVAR 0x3a
00000169 fd5d                 CLRR 0x22
0000016a fd5f                 CLRR 0x20
0000016b fd5e                 CLRR 0x21
0000016c de6b                 MOVIA 0x94
0000016d ff6f                 MOVAR 0x10
0000016e de37                 MOVIA 0xc8
0000016f d294                 LCALL 0x56b; _delayms=0x56b
00000170 defe                 MOVIA 0x1
00000171 e0fc                 BCR 0x3, 0x6
00000172 ff44                 MOVAR 0x3b
00000173                      main.o:_00733_DS_:
00000173 e0fc                 BCR 0x3, 0x6
00000174 fec4                 MOVR 0x3b, 0x0
00000175 fbc5                 SUBAR 0x3a, 0x0
00000176 f7fc                 BTRSS 0x3, 0x0
00000177 c672                 LGOTO 0x18d; main.o:_00735_DS_=0x18d
00000178 e4ef                 BSR 0x10, 0x6
00000179 d7fc                 LCALL 0x3; main.o:_00749_DS_=0x3
0000017a def0                 MOVIA 0xf
0000017b efee                 ANDAR 0x11, 0x0
0000017c e0fc                 BCR 0x3, 0x6
0000017d fc5d                 ADDAR 0x22, 0x1
0000017e feed                 MOVR 0x12, 0x0
0000017f ff43                 MOVAR 0x3c
00000180 deff                 MOVIA 0x0
00000181 ff42                 MOVAR 0x3d
00000182 fec3                 MOVR 0x3c, 0x0
00000183 fc5f                 ADDAR 0x20, 0x1
00000184 fec2                 MOVR 0x3d, 0x0
00000185 f3fc                 BTRSC 0x3, 0x0
00000186 fac2                 INCR 0x3d, 0x0
00000187 f2fc                 BTRSC 0x3, 0x2
00000188 c675                 LGOTO 0x18a; main.o:_00002_DS_=0x18a
00000189 fc5e                 ADDAR 0x21, 0x1
0000018a                      main.o:_00002_DS_:
0000018a e0fc                 BCR 0x3, 0x6
0000018b fa44                 INCR 0x3b, 0x1
0000018c c68c                 LGOTO 0x173; main.o:_00733_DS_=0x173
0000018d                      main.o:_00735_DS_:
0000018d ffef                 RET
0000018e                      _checkOutA:
0000018e e0fc                 BCR 0x3, 0x6
0000018f fd5d                 CLRR 0x22
00000190 fd5f                 CLRR 0x20
00000191 fd5e                 CLRR 0x21
00000192 def7                 MOVIA 0x8
00000193 d698                 LCALL 0x167; _F_AIN4_Convert=0x167
00000194 e0fc                 BCR 0x3, 0x6
00000195 eade                 SWAPR 0x21, 0x0
00000196 dd0f                 ANDIA 0xf0
00000197 ff5e                 MOVAR 0x21
00000198 eadf                 SWAPR 0x20, 0x0
00000199 ff5f                 MOVAR 0x20
0000019a ddf0                 ANDIA 0xf
0000019b ee5e                 IORAR 0x21, 0x1
0000019c ed5f                 XORAR 0x20, 0x1
0000019d de0f                 MOVIA 0xf0
0000019e ef5d                 ANDAR 0x22, 0x1
0000019f fedd                 MOVR 0x22, 0x0
000001a0 ff47                 MOVAR 0x38
000001a1 ff49                 MOVAR 0x36
000001a2 fd48                 CLRR 0x37
000001a3 deff                 MOVIA 0x0
000001a4 ff46                 MOVAR 0x39
000001a5 fec7                 MOVR 0x38, 0x0
000001a6 fc5f                 ADDAR 0x20, 0x1
000001a7 fec6                 MOVR 0x39, 0x0
000001a8 f3fc                 BTRSC 0x3, 0x0
000001a9 fac6                 INCR 0x39, 0x0
000001aa f2fc                 BTRSC 0x3, 0x2
000001ab c652                 LGOTO 0x1ad; main.o:_00003_DS_=0x1ad
000001ac fc5e                 ADDAR 0x21, 0x1
000001ad                      main.o:_00003_DS_:
000001ad e3fc                 BCR 0x3, 0x0
000001ae e0fc                 BCR 0x3, 0x6
000001af ec5e                 RRR 0x21, 0x1
000001b0 ec5f                 RRR 0x20, 0x1
000001b1 e3fc                 BCR 0x3, 0x0
000001b2 ec5e                 RRR 0x21, 0x1
000001b3 ec5f                 RRR 0x20, 0x1
000001b4 e3fc                 BCR 0x3, 0x0
000001b5 ec5e                 RRR 0x21, 0x1
000001b6 ec5f                 RRR 0x20, 0x1
000001b7 def9                 MOVIA 0x6
000001b8 fb81                 SUBAR 0x7e, 0x0
000001b9 f3fc                 BTRSC 0x3, 0x0
000001ba c633                 LGOTO 0x1cc; main.o:_00672_DS_=0x1cc
000001bb deff                 MOVIA 0x0
000001bc fbde                 SUBAR 0x21, 0x0
000001bd f6fc                 BTRSS 0x3, 0x2
000001be c63e                 LGOTO 0x1c1; main.o:_00720_DS_=0x1c1
000001bf de36                 MOVIA 0xc9
000001c0 fbdf                 SUBAR 0x20, 0x0
000001c1                      main.o:_00720_DS_:
000001c1 f7fc                 BTRSS 0x3, 0x0
000001c2 c633                 LGOTO 0x1cc; main.o:_00672_DS_=0x1cc
000001c3 e4fc                 BSR 0x3, 0x6
000001c4 fa5c                 INCR 0x23, 0x1
000001c5 def9                 MOVIA 0x6
000001c6 fbdc                 SUBAR 0x23, 0x0
000001c7 f7fc                 BTRSS 0x3, 0x0
000001c8 c5c8                 LGOTO 0x237; main.o:_00675_DS_=0x237
000001c9 defa                 MOVIA 0x5
000001ca ff5c                 MOVAR 0x23
000001cb c5c8                 LGOTO 0x237; main.o:_00675_DS_=0x237
000001cc                      main.o:_00672_DS_:
000001cc defe                 MOVIA 0x1
000001cd e0fc                 BCR 0x3, 0x6
000001ce fbde                 SUBAR 0x21, 0x0
000001cf f6fc                 BTRSS 0x3, 0x2
000001d0 c62c                 LGOTO 0x1d3; main.o:_00722_DS_=0x1d3
000001d1 de6e                 MOVIA 0x91
000001d2 fbdf                 SUBAR 0x20, 0x0
000001d3                      main.o:_00722_DS_:
000001d3 f7fc                 BTRSS 0x3, 0x0
000001d4 c621                 LGOTO 0x1de; main.o:_00669_DS_=0x1de
000001d5 e4fc                 BSR 0x3, 0x6
000001d6 fa5c                 INCR 0x23, 0x1
000001d7 def9                 MOVIA 0x6
000001d8 fbdc                 SUBAR 0x23, 0x0
000001d9 f7fc                 BTRSS 0x3, 0x0
000001da c5c8                 LGOTO 0x237; main.o:_00675_DS_=0x237
000001db defa                 MOVIA 0x5
000001dc ff5c                 MOVAR 0x23
000001dd c5c8                 LGOTO 0x237; main.o:_00675_DS_=0x237
000001de                      main.o:_00669_DS_:
000001de ded7                 MOVIA 0x28
000001df e0fc                 BCR 0x3, 0x6
000001e0 ff49                 MOVAR 0x36
000001e1 deb8                 MOVIA 0x47
000001e2 e4fc                 BSR 0x3, 0x6
000001e3 fbd1                 SUBAR 0x2e, 0x0
000001e4 f7fc                 BTRSS 0x3, 0x0
000001e5 c616                 LGOTO 0x1e9; main.o:_00647_DS_=0x1e9
000001e6 ded2                 MOVIA 0x2d
000001e7 e0fc                 BCR 0x3, 0x6
000001e8 ff49                 MOVAR 0x36
000001e9                      main.o:_00647_DS_:
000001e9 e0fc                 BCR 0x3, 0x6
000001ea fe81                 MOVR 0x7e, 0x0
000001eb dbfe                 XORIA 0x1
000001ec f6fc                 BTRSS 0x3, 0x2
000001ed c60f                 LGOTO 0x1f0; main.o:_00649_DS_=0x1f0
000001ee de0a                 MOVIA 0xf5
000001ef fc49                 ADDAR 0x36, 0x1
000001f0                      main.o:_00649_DS_:
000001f0 e0fc                 BCR 0x3, 0x6
000001f1 fe81                 MOVR 0x7e, 0x0
000001f2 dbfd                 XORIA 0x2
000001f3 f6fc                 BTRSS 0x3, 0x2
000001f4 c607                 LGOTO 0x1f8; main.o:_00659_DS_=0x1f8
000001f5 de07                 MOVIA 0xf8
000001f6 fc49                 ADDAR 0x36, 0x1
000001f7 c5f0                 LGOTO 0x20f; main.o:_00660_DS_=0x20f
000001f8                      main.o:_00659_DS_:
000001f8 e0fc                 BCR 0x3, 0x6
000001f9 fe81                 MOVR 0x7e, 0x0
000001fa dbfb                 XORIA 0x4
000001fb f6fc                 BTRSS 0x3, 0x2
000001fc c5ff                 LGOTO 0x200; main.o:_00656_DS_=0x200
000001fd defa                 MOVIA 0x5
000001fe fc49                 ADDAR 0x36, 0x1
000001ff c5f0                 LGOTO 0x20f; main.o:_00660_DS_=0x20f
00000200                      main.o:_00656_DS_:
00000200 e0fc                 BCR 0x3, 0x6
00000201 fe81                 MOVR 0x7e, 0x0
00000202 dbfa                 XORIA 0x5
00000203 f6fc                 BTRSS 0x3, 0x2
00000204 c5f7                 LGOTO 0x208; main.o:_00653_DS_=0x208
00000205 def5                 MOVIA 0xa
00000206 fc49                 ADDAR 0x36, 0x1
00000207 c5f0                 LGOTO 0x20f; main.o:_00660_DS_=0x20f
00000208                      main.o:_00653_DS_:
00000208 e0fc                 BCR 0x3, 0x6
00000209 fe81                 MOVR 0x7e, 0x0
0000020a dbf9                 XORIA 0x6
0000020b f6fc                 BTRSS 0x3, 0x2
0000020c c5f0                 LGOTO 0x20f; main.o:_00660_DS_=0x20f
0000020d deed                 MOVIA 0x12
0000020e fc49                 ADDAR 0x36, 0x1
0000020f                      main.o:_00660_DS_:
0000020f e4fc                 BSR 0x3, 0x6
00000210 fedc                 MOVR 0x23, 0x0
00000211 f6fc                 BTRSS 0x3, 0x2
00000212 f95c                 DECR 0x23, 0x1
00000213 e0fc                 BCR 0x3, 0x6
00000214 fec9                 MOVR 0x36, 0x0
00000215 ff48                 MOVAR 0x37
00000216 fd47                 CLRR 0x38
00000217 fede                 MOVR 0x21, 0x0
00000218 fbc7                 SUBAR 0x38, 0x0
00000219 f6fc                 BTRSS 0x3, 0x2
0000021a c5e2                 LGOTO 0x21d; main.o:_00725_DS_=0x21d
0000021b fedf                 MOVR 0x20, 0x0
0000021c fbc8                 SUBAR 0x37, 0x0
0000021d                      main.o:_00725_DS_:
0000021d f3fc                 BTRSC 0x3, 0x0
0000021e c5d4                 LGOTO 0x22b; main.o:_00666_DS_=0x22b
0000021f defa                 MOVIA 0x5
00000220 ff3a                 MOVAR 0x45
00000221 e0fc                 BCR 0x3, 0x6
00000222 fe81                 MOVR 0x7e, 0x0
00000223 d116                 LCALL 0x6e9; __mulchar=0x6e9
00000224 e0fc                 BCR 0x3, 0x6
00000225 ff49                 MOVAR 0x36
00000226 deb9                 MOVIA 0x46
00000227 fcc9                 ADDAR 0x36, 0x0
00000228 e4fc                 BSR 0x3, 0x6
00000229 ff5b                 MOVAR 0x24
0000022a c5c8                 LGOTO 0x237; main.o:_00675_DS_=0x237
0000022b                      main.o:_00666_DS_:
0000022b deff                 MOVIA 0x0
0000022c e0fc                 BCR 0x3, 0x6
0000022d fbde                 SUBAR 0x21, 0x0
0000022e f6fc                 BTRSS 0x3, 0x2
0000022f c5cd                 LGOTO 0x232; main.o:_00726_DS_=0x232
00000230 deb4                 MOVIA 0x4b
00000231 fbdf                 SUBAR 0x20, 0x0
00000232                      main.o:_00726_DS_:
00000232 f3fc                 BTRSC 0x3, 0x0
00000233 c5c8                 LGOTO 0x237; main.o:_00675_DS_=0x237
00000234 e4fc                 BSR 0x3, 0x6
00000235 fede                 MOVR 0x21, 0x0
00000236 ff5b                 MOVAR 0x24
00000237                      main.o:_00675_DS_:
00000237 ffef                 RET
00000238                      _checkBatAD:
00000238 e0fc                 BCR 0x3, 0x6
00000239 fd5a                 CLRR 0x25
0000023a fd5c                 CLRR 0x23
0000023b fd5b                 CLRR 0x24
0000023c def7                 MOVIA 0x8
0000023d d6bf                 LCALL 0x140; _F_AIN2_Convert=0x140
0000023e e0fc                 BCR 0x3, 0x6
0000023f eadb                 SWAPR 0x24, 0x0
00000240 dd0f                 ANDIA 0xf0
00000241 ff5b                 MOVAR 0x24
00000242 eadc                 SWAPR 0x23, 0x0
00000243 ff5c                 MOVAR 0x23
00000244 ddf0                 ANDIA 0xf
00000245 ee5b                 IORAR 0x24, 0x1
00000246 ed5c                 XORAR 0x23, 0x1
00000247 de0f                 MOVIA 0xf0
00000248 ef5a                 ANDAR 0x25, 0x1
00000249 feda                 MOVR 0x25, 0x0
0000024a ff4c                 MOVAR 0x33
0000024b ff4e                 MOVAR 0x31
0000024c fd4d                 CLRR 0x32
0000024d deff                 MOVIA 0x0
0000024e ff4b                 MOVAR 0x34
0000024f fecc                 MOVR 0x33, 0x0
00000250 fc5c                 ADDAR 0x23, 0x1
00000251 fecb                 MOVR 0x34, 0x0
00000252 f3fc                 BTRSC 0x3, 0x0
00000253 facb                 INCR 0x34, 0x0
00000254 f2fc                 BTRSC 0x3, 0x2
00000255 c5a8                 LGOTO 0x257; main.o:_00004_DS_=0x257
00000256 fc5b                 ADDAR 0x24, 0x1
00000257                      main.o:_00004_DS_:
00000257 e0fc                 BCR 0x3, 0x6
00000258 eadc                 SWAPR 0x23, 0x0
00000259 ddf0                 ANDIA 0xf
0000025a ff5c                 MOVAR 0x23
0000025b eadb                 SWAPR 0x24, 0x0
0000025c ff5b                 MOVAR 0x24
0000025d dd0f                 ANDIA 0xf0
0000025e ee5c                 IORAR 0x23, 0x1
0000025f ed5b                 XORAR 0x24, 0x1
00000260 defc                 MOVIA 0x3
00000261 fbdb                 SUBAR 0x24, 0x0
00000262 f6fc                 BTRSS 0x3, 0x2
00000263 c599                 LGOTO 0x266; main.o:_00632_DS_=0x266
00000264 deed                 MOVIA 0x12
00000265 fbdc                 SUBAR 0x23, 0x0
00000266                      main.o:_00632_DS_:
00000266 f7fc                 BTRSS 0x3, 0x0
00000267 c58c                 LGOTO 0x273; main.o:_00592_DS_=0x273
00000268 e4fc                 BSR 0x3, 0x6
00000269 fa48                 INCR 0x37, 0x1
0000026a de36                 MOVIA 0xc9
0000026b fbc8                 SUBAR 0x37, 0x0
0000026c f7fc                 BTRSS 0x3, 0x0
0000026d c4f6                 LGOTO 0x309; main.o:_00594_DS_=0x309
0000026e defe                 MOVIA 0x1
0000026f ff47                 MOVAR 0x38
00000270 de9b                 MOVIA 0x64
00000271 ff51                 MOVAR 0x2e
00000272 c4f6                 LGOTO 0x309; main.o:_00594_DS_=0x309
00000273                      main.o:_00592_DS_:
00000273 defd                 MOVIA 0x2
00000274 e0fc                 BCR 0x3, 0x6
00000275 fbdb                 SUBAR 0x24, 0x0
00000276 f6fc                 BTRSS 0x3, 0x2
00000277 c585                 LGOTO 0x27a; main.o:_00634_DS_=0x27a
00000278 ded9                 MOVIA 0x26
00000279 fbdc                 SUBAR 0x23, 0x0
0000027a                      main.o:_00634_DS_:
0000027a f3fc                 BTRSC 0x3, 0x0
0000027b c57f                 LGOTO 0x280; main.o:_00589_DS_=0x280
0000027c e4fc                 BSR 0x3, 0x6
0000027d fd51                 CLRR 0x2e
0000027e fd48                 CLRR 0x37
0000027f c4f6                 LGOTO 0x309; main.o:_00594_DS_=0x309
00000280                      main.o:_00589_DS_:
00000280 e4fc                 BSR 0x3, 0x6
00000281 fd48                 CLRR 0x37
00000282 defd                 MOVIA 0x2
00000283 e0fc                 BCR 0x3, 0x6
00000284 fbdb                 SUBAR 0x24, 0x0
00000285 f6fc                 BTRSS 0x3, 0x2
00000286 c576                 LGOTO 0x289; main.o:_00635_DS_=0x289
00000287 de4b                 MOVIA 0xb4
00000288 fbdc                 SUBAR 0x23, 0x0
00000289                      main.o:_00635_DS_:
00000289 f7fc                 BTRSS 0x3, 0x0
0000028a c56b                 LGOTO 0x294; main.o:_00571_DS_=0x294
0000028b e0fc                 BCR 0x3, 0x6
0000028c fedc                 MOVR 0x23, 0x0
0000028d ff4e                 MOVAR 0x31
0000028e ff4d                 MOVAR 0x32
0000028f de8b                 MOVIA 0x74
00000290 fccd                 ADDAR 0x32, 0x0
00000291 e4fc                 BSR 0x3, 0x6
00000292 ff51                 MOVAR 0x2e
00000293 c51f                 LGOTO 0x2e0; main.o:_00572_DS_=0x2e0
00000294                      main.o:_00571_DS_:
00000294 defd                 MOVIA 0x2
00000295 e0fc                 BCR 0x3, 0x6
00000296 fbdb                 SUBAR 0x24, 0x0
00000297 f6fc                 BTRSS 0x3, 0x2
00000298 c564                 LGOTO 0x29b; main.o:_00636_DS_=0x29b
00000299 dec3                 MOVIA 0x3c
0000029a fbdc                 SUBAR 0x23, 0x0
0000029b                      main.o:_00636_DS_:
0000029b f7fc                 BTRSS 0x3, 0x0
0000029c c546                 LGOTO 0x2b9; main.o:_00568_DS_=0x2b9
0000029d de3b                 MOVIA 0xc4
0000029e e0fc                 BCR 0x3, 0x6
0000029f fcdc                 ADDAR 0x23, 0x0
000002a0 ff4e                 MOVAR 0x31
000002a1 de02                 MOVIA 0xfd
000002a2 ff4d                 MOVAR 0x32
000002a3 fedb                 MOVR 0x24, 0x0
000002a4 f3fc                 BTRSC 0x3, 0x0
000002a5 fadb                 INCR 0x24, 0x0
000002a6 f2fc                 BTRSC 0x3, 0x2
000002a7 c556                 LGOTO 0x2a9; main.o:_00005_DS_=0x2a9
000002a8 fc4d                 ADDAR 0x32, 0x1
000002a9                      main.o:_00005_DS_:
000002a9 e3fc                 BCR 0x3, 0x0
000002aa e0fc                 BCR 0x3, 0x6
000002ab eccd                 RRR 0x32, 0x0
000002ac ff4b                 MOVAR 0x34
000002ad ecce                 RRR 0x31, 0x0
000002ae ff4c                 MOVAR 0x33
000002af e3fc                 BCR 0x3, 0x0
000002b0 ec4b                 RRR 0x34, 0x1
000002b1 ec4c                 RRR 0x33, 0x1
000002b2 fecc                 MOVR 0x33, 0x0
000002b3 ff4e                 MOVAR 0x31
000002b4 def5                 MOVIA 0xa
000002b5 fcce                 ADDAR 0x31, 0x0
000002b6 e4fc                 BSR 0x3, 0x6
000002b7 ff51                 MOVAR 0x2e
000002b8 c51f                 LGOTO 0x2e0; main.o:_00572_DS_=0x2e0
000002b9                      main.o:_00568_DS_:
000002b9 defd                 MOVIA 0x2
000002ba e0fc                 BCR 0x3, 0x6
000002bb fbdb                 SUBAR 0x24, 0x0
000002bc f6fc                 BTRSS 0x3, 0x2
000002bd c53f                 LGOTO 0x2c0; main.o:_00637_DS_=0x2c0
000002be ded8                 MOVIA 0x27
000002bf fbdc                 SUBAR 0x23, 0x0
000002c0                      main.o:_00637_DS_:
000002c0 f7fc                 BTRSS 0x3, 0x0
000002c1 c521                 LGOTO 0x2de; main.o:_00565_DS_=0x2de
000002c2 de25                 MOVIA 0xda
000002c3 e0fc                 BCR 0x3, 0x6
000002c4 fcdc                 ADDAR 0x23, 0x0
000002c5 ff4e                 MOVAR 0x31
000002c6 de02                 MOVIA 0xfd
000002c7 ff4c                 MOVAR 0x33
000002c8 fedb                 MOVR 0x24, 0x0
000002c9 f3fc                 BTRSC 0x3, 0x0
000002ca fadb                 INCR 0x24, 0x0
000002cb f2fc                 BTRSC 0x3, 0x2
000002cc c531                 LGOTO 0x2ce; main.o:_00006_DS_=0x2ce
000002cd fc4c                 ADDAR 0x33, 0x1
000002ce                      main.o:_00006_DS_:
000002ce e3fc                 BCR 0x3, 0x0
000002cf e0fc                 BCR 0x3, 0x6
000002d0 eccc                 RRR 0x33, 0x0
000002d1 ff4a                 MOVAR 0x35
000002d2 ecce                 RRR 0x31, 0x0
000002d3 ff4b                 MOVAR 0x34
000002d4 e3fc                 BCR 0x3, 0x0
000002d5 ec4a                 RRR 0x35, 0x1
000002d6 ec4b                 RRR 0x34, 0x1
000002d7 e3fc                 BCR 0x3, 0x0
000002d8 ec4a                 RRR 0x35, 0x1
000002d9 ec4b                 RRR 0x34, 0x1
000002da fecb                 MOVR 0x34, 0x0
000002db e4fc                 BSR 0x3, 0x6
000002dc ff51                 MOVAR 0x2e
000002dd c51f                 LGOTO 0x2e0; main.o:_00572_DS_=0x2e0
000002de                      main.o:_00565_DS_:
000002de e4fc                 BSR 0x3, 0x6
000002df fd51                 CLRR 0x2e
000002e0                      main.o:_00572_DS_:
000002e0 e0fc                 BCR 0x3, 0x6
000002e1 f67a                 BTRSS 0x5, 0x3
000002e2 c4fd                 LGOTO 0x302; main.o:_00585_DS_=0x302
000002e3 def5                 MOVIA 0xa
000002e4 e4fc                 BSR 0x3, 0x6
000002e5 fbd1                 SUBAR 0x2e, 0x0
000002e6 f3fc                 BTRSC 0x3, 0x0
000002e7 c514                 LGOTO 0x2eb; main.o:_00582_DS_=0x2eb
000002e8 defe                 MOVIA 0x1
000002e9 ff51                 MOVAR 0x2e
000002ea c4fd                 LGOTO 0x302; main.o:_00585_DS_=0x302
000002eb                      main.o:_00582_DS_:
000002eb deeb                 MOVIA 0x14
000002ec e4fc                 BSR 0x3, 0x6
000002ed fbd1                 SUBAR 0x2e, 0x0
000002ee f3fc                 BTRSC 0x3, 0x0
000002ef c50c                 LGOTO 0x2f3; main.o:_00579_DS_=0x2f3
000002f0 de09                 MOVIA 0xf6
000002f1 fc51                 ADDAR 0x2e, 0x1
000002f2 c4fd                 LGOTO 0x302; main.o:_00585_DS_=0x302
000002f3                      main.o:_00579_DS_:
000002f3 decd                 MOVIA 0x32
000002f4 e4fc                 BSR 0x3, 0x6
000002f5 fbd1                 SUBAR 0x2e, 0x0
000002f6 f3fc                 BTRSC 0x3, 0x0
000002f7 c504                 LGOTO 0x2fb; main.o:_00576_DS_=0x2fb
000002f8 de13                 MOVIA 0xec
000002f9 fc51                 ADDAR 0x2e, 0x1
000002fa c4fd                 LGOTO 0x302; main.o:_00585_DS_=0x302
000002fb                      main.o:_00576_DS_:
000002fb de7a                 MOVIA 0x85
000002fc e4fc                 BSR 0x3, 0x6
000002fd fbd1                 SUBAR 0x2e, 0x0
000002fe f3fc                 BTRSC 0x3, 0x0
000002ff c4fd                 LGOTO 0x302; main.o:_00585_DS_=0x302
00000300 de20                 MOVIA 0xdf
00000301 fc51                 ADDAR 0x2e, 0x1
00000302                      main.o:_00585_DS_:
00000302 de9a                 MOVIA 0x65
00000303 e4fc                 BSR 0x3, 0x6
00000304 fbd1                 SUBAR 0x2e, 0x0
00000305 f7fc                 BTRSS 0x3, 0x0
00000306 c4f6                 LGOTO 0x309; main.o:_00594_DS_=0x309
00000307 de9b                 MOVIA 0x64
00000308 ff51                 MOVAR 0x2e
00000309                      main.o:_00594_DS_:
00000309 ffef                 RET
0000030a                      _initAD:
0000030a de7b                 MOVIA 0x84
0000030b ff6f                 MOVAR 0x10
0000030c fd6c                 CLRR 0x13
0000030d deef                 MOVIA 0x10
0000030e ff6e                 MOVAR 0x11
0000030f defc                 MOVIA 0x3
00000310 ff6b                 MOVAR 0x14
00000311 dee9                 MOVIA 0x16
00000312 ff69                 MOVAR 0x16
00000313 e5ef                 BSR 0x10, 0x4
00000314 de9b                 MOVIA 0x64
00000315 d294                 LCALL 0x56b; _delayms=0x56b
00000316 ffef                 RET
00000317                      _keyRead:
00000317 e0fc                 BCR 0x3, 0x6
00000318 ff4f                 MOVAR 0x30
00000319 fecf                 MOVR 0x30, 0x0
0000031a f2fc                 BTRSC 0x3, 0x2
0000031b c4d7                 LGOTO 0x328; main.o:_00551_DS_=0x328
0000031c fa00                 INCR 0x7f, 0x1
0000031d de37                 MOVIA 0xc8
0000031e fb80                 SUBAR 0x7f, 0x0
0000031f f7fc                 BTRSS 0x3, 0x0
00000320 c4c4                 LGOTO 0x33b; main.o:_00552_DS_=0x33b
00000321 de37                 MOVIA 0xc8
00000322 ff00                 MOVAR 0x7f
00000323 f30b                 BTRSC 0x74, 0x1
00000324 c4c4                 LGOTO 0x33b; main.o:_00552_DS_=0x33b
00000325 e70b                 BSR 0x74, 0x1
00000326 defd                 MOVIA 0x2
00000327 c4c3                 LGOTO 0x33c; main.o:_00553_DS_=0x33c
00000328                      main.o:_00551_DS_:
00000328 de37                 MOVIA 0xc8
00000329 e0fc                 BCR 0x3, 0x6
0000032a fb80                 SUBAR 0x7f, 0x0
0000032b f7fc                 BTRSS 0x3, 0x0
0000032c c4ce                 LGOTO 0x331; main.o:_00548_DS_=0x331
0000032d fd00                 CLRR 0x7f
0000032e e30b                 BCR 0x74, 0x1
0000032f deff                 MOVIA 0x0
00000330 c4c3                 LGOTO 0x33c; main.o:_00553_DS_=0x33c
00000331                      main.o:_00548_DS_:
00000331 defb                 MOVIA 0x4
00000332 e0fc                 BCR 0x3, 0x6
00000333 fb80                 SUBAR 0x7f, 0x0
00000334 f7fc                 BTRSS 0x3, 0x0
00000335 c4c6                 LGOTO 0x339; main.o:_00549_DS_=0x339
00000336 fd00                 CLRR 0x7f
00000337 defe                 MOVIA 0x1
00000338 c4c3                 LGOTO 0x33c; main.o:_00553_DS_=0x33c
00000339                      main.o:_00549_DS_:
00000339 e0fc                 BCR 0x3, 0x6
0000033a fd00                 CLRR 0x7f
0000033b                      main.o:_00552_DS_:
0000033b deff                 MOVIA 0x0
0000033c                      main.o:_00553_DS_:
0000033c ffef                 RET
0000033d                      _gotoSleep:
0000033d d5c7                 LCALL 0x238; _checkBatAD=0x238
0000033e d288                 LCALL 0x577; _setInput=0x577
0000033f e0fc                 BCR 0x3, 0x6
00000340 fd05                 CLRR 0x7a
00000341 fd04                 CLRR 0x7b
00000342 e18b                 BCR 0x74, 0x4
00000343 ded1                 MOVIA 0x2e
00000344 fffa                 IOST 0x5
00000345 fdff                 CLRA
00000346 fff9                 IOST 0x6
00000347 fd79                 CLRR 0x6
00000348 fd7a                 CLRR 0x5
00000349 fd09                 CLRR 0x76
0000034a fd08                 CLRR 0x77
0000034b d49d                 LCALL 0x362; _pwmStop=0x362
0000034c d48d                 LCALL 0x372; _pwm1Stop=0x372
0000034d e0fc                 BCR 0x3, 0x6
0000034e fd01                 CLRR 0x7e
0000034f ded7                 MOVIA 0x28
00000350 ff6a                 MOVAR 0x15
00000351 def4                 MOVIA 0xb
00000352 ff71                 MOVAR 0xe
00000353 dee7                 MOVIA 0x18
00000354 ff77                 MOVAR 0x8
00000355 fd70                 CLRR 0xf
00000356 fffd                 CLRWDT
00000357 fffb                 ENI
00000358 fffe                 SLEEP
00000359 fd6a                 CLRR 0x15
0000035a dec1                 MOVIA 0x3e
0000035b fffa                 IOST 0x5
0000035c defe                 MOVIA 0x1
0000035d ff71                 MOVAR 0xe
0000035e fd70                 CLRR 0xf
0000035f de57                 MOVIA 0xa8
00000360 ff77                 MOVAR 0x8
00000361 ffef                 RET
00000362                      _pwmStop:
00000362 fdff                 CLRA
00000363 ffb5                 SFUN 0xa
00000364 ffef                 RET
00000365                      _pwmInit:
00000365 ff95                 SFUNR 0xa
00000366 e0fc                 BCR 0x3, 0x6
00000367 ff50                 MOVAR 0x2f
00000368 f050                 BTRSC 0x2f, 0x7
00000369 c48e                 LGOTO 0x371; main.o:_00528_DS_=0x371
0000036a fd66                 CLRR 0x19
0000036b de9b                 MOVIA 0x64
0000036c ffb6                 SFUN 0x9
0000036d defe                 MOVIA 0x1
0000036e ffb4                 SFUN 0xb
0000036f de7c                 MOVIA 0x83
00000370 ffb5                 SFUN 0xa
00000371                      main.o:_00528_DS_:
00000371 ffef                 RET
00000372                      _pwm1Stop:
00000372 fdff                 CLRA
00000373 ffbe                 SFUN 0x1
00000374 ffef                 RET
00000375                      _pwm1Init:
00000375 ff9e                 SFUNR 0x1
00000376 e0fc                 BCR 0x3, 0x6
00000377 ff51                 MOVAR 0x2e
00000378 f051                 BTRSC 0x2e, 0x7
00000379 c47c                 LGOTO 0x383; main.o:_00517_DS_=0x383
0000037a fd66                 CLRR 0x19
0000037b decf                 MOVIA 0x30
0000037c ffbf                 SFUN 0x0
0000037d fdff                 CLRA
0000037e ffbd                 SFUN 0x2
0000037f def7                 MOVIA 0x8
00000380 ffbd                 SFUN 0x2
00000381 de7c                 MOVIA 0x83
00000382 ffbe                 SFUN 0x1
00000383                      main.o:_00517_DS_:
00000383 ffef                 RET
00000384                      _powerOff:
00000384 e0fc                 BCR 0x3, 0x6
00000385 fd01                 CLRR 0x7e
00000386 d49d                 LCALL 0x362; _pwmStop=0x362
00000387 ffef                 RET
00000388                      _initSys:
00000388 ffec                 DISI
00000389 dec1                 MOVIA 0x3e
0000038a fffa                 IOST 0x5
0000038b fdff                 CLRA
0000038c fff9                 IOST 0x6
0000038d fd79                 CLRR 0x6
0000038e e0fc                 BCR 0x3, 0x6
0000038f fd7a                 CLRR 0x5
00000390 de00                 MOVIA 0xff
00000391 fff6                 IOST 0x9
00000392 ff73                 MOVAR 0xc
00000393 ff74                 MOVAR 0xb
00000394 defe                 MOVIA 0x1
00000395 ff71                 MOVAR 0xe
00000396 fdff                 CLRA
00000397 fff0                 IOST 0xf
00000398 dec8                 MOVIA 0x37
00000399 ff7e                 MOVAR 0x1
0000039a defe                 MOVIA 0x1
0000039b fffc                 T0MD
0000039c fff0                 IOST 0xf
0000039d de77                 MOVIA 0x88
0000039e ff77                 MOVAR 0x8
0000039f defe                 MOVIA 0x1
000003a0 fff0                 IOST 0xf
000003a1 fffb                 ENI
000003a2 ffef                 RET
000003a3                      _keyCtr:
000003a3 e0fc                 BCR 0x3, 0x6
000003a4 f8fa                 COMR 0x5, 0x0
000003a5 ff52                 MOVAR 0x2d
000003a6 dedf                 MOVIA 0x20
000003a7 ef52                 ANDAR 0x2d, 0x1
000003a8 fed2                 MOVR 0x2d, 0x0
000003a9 d4e8                 LCALL 0x317; _keyRead=0x317
000003aa e0fc                 BCR 0x3, 0x6
000003ab ff52                 MOVAR 0x2d
000003ac dbfe                 XORIA 0x1
000003ad f6fc                 BTRSS 0x3, 0x2
000003ae c3fa                 LGOTO 0x405; main.o:_00500_DS_=0x405
000003af e4fc                 BSR 0x3, 0x6
000003b0 fd5f                 CLRR 0x20
000003b1 fd5a                 CLRR 0x25
000003b2 fd59                 CLRR 0x26
000003b3 e0fc                 BCR 0x3, 0x6
000003b4 fe81                 MOVR 0x7e, 0x0
000003b5 f6fc                 BTRSS 0x3, 0x2
000003b6 c439                 LGOTO 0x3c6; main.o:_00471_DS_=0x3c6
000003b7 f58b                 BTRSS 0x74, 0x4
000003b8 c441                 LGOTO 0x3be; main.o:_00468_DS_=0x3be
000003b9 e4fc                 BSR 0x3, 0x6
000003ba fd5f                 CLRR 0x20
000003bb e0fc                 BCR 0x3, 0x6
000003bc e18b                 BCR 0x74, 0x4
000003bd c43a                 LGOTO 0x3c5; main.o:_00469_DS_=0x3c5
000003be                      main.o:_00468_DS_:
000003be e0fc                 BCR 0x3, 0x6
000003bf fd06                 CLRR 0x79
000003c0 defc                 MOVIA 0x3
000003c1 e4fc                 BSR 0x3, 0x6
000003c2 ff5f                 MOVAR 0x20
000003c3 e0fc                 BCR 0x3, 0x6
000003c4 e58b                 BSR 0x74, 0x4
000003c5                      main.o:_00469_DS_:
000003c5 c3d4                 LGOTO 0x42b; main.o:_00502_DS_=0x42b
000003c6                      main.o:_00471_DS_:
000003c6 e0fc                 BCR 0x3, 0x6
000003c7 fa01                 INCR 0x7e, 0x1
000003c8 def8                 MOVIA 0x7
000003c9 fb81                 SUBAR 0x7e, 0x0
000003ca f7fc                 BTRSS 0x3, 0x0
000003cb c431                 LGOTO 0x3ce; main.o:_00473_DS_=0x3ce
000003cc defe                 MOVIA 0x1
000003cd ff01                 MOVAR 0x7e
000003ce                      main.o:_00473_DS_:
000003ce e0fc                 BCR 0x3, 0x6
000003cf fe81                 MOVR 0x7e, 0x0
000003d0 dbfe                 XORIA 0x1
000003d1 f6fc                 BTRSS 0x3, 0x2
000003d2 c428                 LGOTO 0x3d7; main.o:_00489_DS_=0x3d7
000003d3 ded7                 MOVIA 0x28
000003d4 e4fc                 BSR 0x3, 0x6
000003d5 ff5e                 MOVAR 0x21
000003d6 c3fc                 LGOTO 0x403; main.o:_00490_DS_=0x403
000003d7                      main.o:_00489_DS_:
000003d7 e0fc                 BCR 0x3, 0x6
000003d8 fe81                 MOVR 0x7e, 0x0
000003d9 dbfd                 XORIA 0x2
000003da f6fc                 BTRSS 0x3, 0x2
000003db c41f                 LGOTO 0x3e0; main.o:_00486_DS_=0x3e0
000003dc ded5                 MOVIA 0x2a
000003dd e4fc                 BSR 0x3, 0x6
000003de ff5e                 MOVAR 0x21
000003df c3fc                 LGOTO 0x403; main.o:_00490_DS_=0x403
000003e0                      main.o:_00486_DS_:
000003e0 e0fc                 BCR 0x3, 0x6
000003e1 fe81                 MOVR 0x7e, 0x0
000003e2 dbfc                 XORIA 0x3
000003e3 f6fc                 BTRSS 0x3, 0x2
000003e4 c416                 LGOTO 0x3e9; main.o:_00483_DS_=0x3e9
000003e5 ded3                 MOVIA 0x2c
000003e6 e4fc                 BSR 0x3, 0x6
000003e7 ff5e                 MOVAR 0x21
000003e8 c3fc                 LGOTO 0x403; main.o:_00490_DS_=0x403
000003e9                      main.o:_00483_DS_:
000003e9 e0fc                 BCR 0x3, 0x6
000003ea fe81                 MOVR 0x7e, 0x0
000003eb dbfb                 XORIA 0x4
000003ec f6fc                 BTRSS 0x3, 0x2
000003ed c40d                 LGOTO 0x3f2; main.o:_00480_DS_=0x3f2
000003ee ded1                 MOVIA 0x2e
000003ef e4fc                 BSR 0x3, 0x6
000003f0 ff5e                 MOVAR 0x21
000003f1 c3fc                 LGOTO 0x403; main.o:_00490_DS_=0x403
000003f2                      main.o:_00480_DS_:
000003f2 e0fc                 BCR 0x3, 0x6
000003f3 fe81                 MOVR 0x7e, 0x0
000003f4 dbfa                 XORIA 0x5
000003f5 f6fc                 BTRSS 0x3, 0x2
000003f6 c404                 LGOTO 0x3fb; main.o:_00477_DS_=0x3fb
000003f7 decf                 MOVIA 0x30
000003f8 e4fc                 BSR 0x3, 0x6
000003f9 ff5e                 MOVAR 0x21
000003fa c3fc                 LGOTO 0x403; main.o:_00490_DS_=0x403
000003fb                      main.o:_00477_DS_:
000003fb e0fc                 BCR 0x3, 0x6
000003fc fe81                 MOVR 0x7e, 0x0
000003fd dbf9                 XORIA 0x6
000003fe f6fc                 BTRSS 0x3, 0x2
000003ff c3fc                 LGOTO 0x403; main.o:_00490_DS_=0x403
00000400 decd                 MOVIA 0x32
00000401 e4fc                 BSR 0x3, 0x6
00000402 ff5e                 MOVAR 0x21
00000403                      main.o:_00490_DS_:
00000403 d3d3                 LCALL 0x42c; _setMaxDuty=0x42c
00000404 c3d4                 LGOTO 0x42b; main.o:_00502_DS_=0x42b
00000405                      main.o:_00500_DS_:
00000405 e0fc                 BCR 0x3, 0x6
00000406 fed2                 MOVR 0x2d, 0x0
00000407 dbfd                 XORIA 0x2
00000408 f6fc                 BTRSS 0x3, 0x2
00000409 c3d4                 LGOTO 0x42b; main.o:_00502_DS_=0x42b
0000040a fe81                 MOVR 0x7e, 0x0
0000040b f2fc                 BTRSC 0x3, 0x2
0000040c c3ed                 LGOTO 0x412; main.o:_00495_DS_=0x412
0000040d fd01                 CLRR 0x7e
0000040e d47b                 LCALL 0x384; _powerOff=0x384
0000040f e0fc                 BCR 0x3, 0x6
00000410 e18b                 BCR 0x74, 0x4
00000411 c3d4                 LGOTO 0x42b; main.o:_00502_DS_=0x42b
00000412                      main.o:_00495_DS_:
00000412 e4fc                 BSR 0x3, 0x6
00000413 fed1                 MOVR 0x2e, 0x0
00000414 f2fc                 BTRSC 0x3, 0x2
00000415 c3e6                 LGOTO 0x419; main.o:_00491_DS_=0x419
00000416 fecf                 MOVR 0x30, 0x0
00000417 f6fc                 BTRSS 0x3, 0x2
00000418 c3df                 LGOTO 0x420; main.o:_00492_DS_=0x420
00000419                      main.o:_00491_DS_:
00000419 defc                 MOVIA 0x3
0000041a e4fc                 BSR 0x3, 0x6
0000041b ff5f                 MOVAR 0x20
0000041c fd4f                 CLRR 0x30
0000041d e0fc                 BCR 0x3, 0x6
0000041e e58b                 BSR 0x74, 0x4
0000041f c3d4                 LGOTO 0x42b; main.o:_00502_DS_=0x42b
00000420                      main.o:_00492_DS_:
00000420 defe                 MOVIA 0x1
00000421 e0fc                 BCR 0x3, 0x6
00000422 ff01                 MOVAR 0x7e
00000423 deaf                 MOVIA 0x50
00000424 ffb3                 SFUN 0xc
00000425 e4fc                 BSR 0x3, 0x6
00000426 ff50                 MOVAR 0x2f
00000427 ff5d                 MOVAR 0x22
00000428 ded7                 MOVIA 0x28
00000429 ff5e                 MOVAR 0x21
0000042a d3d3                 LCALL 0x42c; _setMaxDuty=0x42c
0000042b                      main.o:_00502_DS_:
0000042b ffef                 RET
0000042c                      _setMaxDuty:
0000042c decd                 MOVIA 0x32
0000042d e4fc                 BSR 0x3, 0x6
0000042e fbd1                 SUBAR 0x2e, 0x0
0000042f f3fc                 BTRSC 0x3, 0x0
00000430 c3c1                 LGOTO 0x43e; main.o:_00462_DS_=0x43e
00000431 def5                 MOVIA 0xa
00000432 fcde                 ADDAR 0x21, 0x0
00000433 e0fc                 BCR 0x3, 0x6
00000434 ff53                 MOVAR 0x2c
00000435 def5                 MOVIA 0xa
00000436 ff3a                 MOVAR 0x45
00000437 e4fc                 BSR 0x3, 0x6
00000438 fed1                 MOVR 0x2e, 0x0
00000439 d0fd                 LCALL 0x702; __divuchar=0x702
0000043a e0fc                 BCR 0x3, 0x6
0000043b fbd3                 SUBAR 0x2c, 0x0
0000043c e4fc                 BSR 0x3, 0x6
0000043d ff5e                 MOVAR 0x21
0000043e                      main.o:_00462_DS_:
0000043e e4fc                 BSR 0x3, 0x6
0000043f fede                 MOVR 0x21, 0x0
00000440 ff5b                 MOVAR 0x24
00000441 d49a                 LCALL 0x365; _pwmInit=0x365
00000442 ffef                 RET
00000443                      _refreshNub:
00000443 defc                 MOVIA 0x3
00000444 e0fc                 BCR 0x3, 0x6
00000445 fb82                 SUBAR 0x7d, 0x0
00000446 f6fc                 BTRSS 0x3, 0x2
00000447 c3b5                 LGOTO 0x44a; main.o:_00456_DS_=0x44a
00000448 de7b                 MOVIA 0x84
00000449 fb83                 SUBAR 0x7c, 0x0
0000044a                      main.o:_00456_DS_:
0000044a f7fc                 BTRSS 0x3, 0x0
0000044b c3b1                 LGOTO 0x44e; main.o:_00434_DS_=0x44e
0000044c d288                 LCALL 0x577; _setInput=0x577
0000044d c375                 LGOTO 0x48a; main.o:_00442_DS_=0x48a
0000044e                      main.o:_00434_DS_:
0000044e e4fc                 BSR 0x3, 0x6
0000044f fed3                 MOVR 0x2c, 0x0
00000450 ff55                 MOVAR 0x2a
00000451 fed2                 MOVR 0x2d, 0x0
00000452 ff54                 MOVAR 0x2b
00000453 e0fc                 BCR 0x3, 0x6
00000454 fe81                 MOVR 0x7e, 0x0
00000455 f6fc                 BTRSS 0x3, 0x2
00000456 c3a5                 LGOTO 0x45a; main.o:_00435_DS_=0x45a
00000457 e4fc                 BSR 0x3, 0x6
00000458 fedf                 MOVR 0x20, 0x0
00000459 f6fc                 BTRSS 0x3, 0x2
0000045a                      main.o:_00435_DS_:
0000045a d19b                 LCALL 0x664; _showKeyLed=0x664
0000045b e4fc                 BSR 0x3, 0x6
0000045c fed8                 MOVR 0x27, 0x0
0000045d f2fc                 BTRSC 0x3, 0x2
0000045e c39c                 LGOTO 0x463; main.o:_00439_DS_=0x463
0000045f def4                 MOVIA 0xb
00000460 ff55                 MOVAR 0x2a
00000461 def3                 MOVIA 0xc
00000462 ff54                 MOVAR 0x2b
00000463                      main.o:_00439_DS_:
00000463 e4fc                 BSR 0x3, 0x6
00000464 fecc                 MOVR 0x33, 0x0
00000465 f2fc                 BTRSC 0x3, 0x2
00000466 c395                 LGOTO 0x46a; main.o:_00441_DS_=0x46a
00000467 def7                 MOVIA 0x8
00000468 ff54                 MOVAR 0x2b
00000469 ff55                 MOVAR 0x2a
0000046a                      main.o:_00441_DS_:
0000046a e4fc                 BSR 0x3, 0x6
0000046b fed5                 MOVR 0x2a, 0x0
0000046c da98                 ADDIA 0x67
0000046d e0fc                 BCR 0x3, 0x6
0000046e ff55                 MOVAR 0x2a
0000046f deff                 MOVIA 0x0
00000470 f3fc                 BTRSC 0x3, 0x0
00000471 dafe                 ADDIA 0x1
00000472 ff54                 MOVAR 0x2b
00000473 fed5                 MOVR 0x2a, 0x0
00000474 ff3b                 MOVAR 0x44
00000475 fed4                 MOVR 0x2b, 0x0
00000476 ff3a                 MOVAR 0x45
00000477 deff                 MOVIA 0x0
00000478 d0b0                 LCALL 0x74f; __gptrget=0x74f
00000479 d134                 LCALL 0x6cb; _showNubShiwei=0x6cb
0000047a e4fc                 BSR 0x3, 0x6
0000047b fed4                 MOVR 0x2b, 0x0
0000047c da98                 ADDIA 0x67
0000047d e0fc                 BCR 0x3, 0x6
0000047e ff55                 MOVAR 0x2a
0000047f deff                 MOVIA 0x0
00000480 f3fc                 BTRSC 0x3, 0x0
00000481 dafe                 ADDIA 0x1
00000482 ff54                 MOVAR 0x2b
00000483 fed5                 MOVR 0x2a, 0x0
00000484 ff3b                 MOVAR 0x44
00000485 fed4                 MOVR 0x2b, 0x0
00000486 ff3a                 MOVAR 0x45
00000487 deff                 MOVIA 0x0
00000488 d0b0                 LCALL 0x74f; __gptrget=0x74f
00000489 d174                 LCALL 0x68b; _showNubGewei=0x68b
0000048a                      main.o:_00442_DS_:
0000048a ffef                 RET
0000048b                      _chrgCtr:
0000048b de9b                 MOVIA 0x64
0000048c e4fc                 BSR 0x3, 0x6
0000048d fbcf                 SUBAR 0x30, 0x0
0000048e f7fc                 BTRSS 0x3, 0x0
0000048f c36b                 LGOTO 0x494; main.o:_00319_DS_=0x494
00000490 def6                 MOVIA 0x9
00000491 ff52                 MOVAR 0x2d
00000492 ff53                 MOVAR 0x2c
00000493 c35e                 LGOTO 0x4a1; main.o:_00320_DS_=0x4a1
00000494                      main.o:_00319_DS_:
00000494 def5                 MOVIA 0xa
00000495 ff3a                 MOVAR 0x45
00000496 e4fc                 BSR 0x3, 0x6
00000497 fecf                 MOVR 0x30, 0x0
00000498 d0fd                 LCALL 0x702; __divuchar=0x702
00000499 e4fc                 BSR 0x3, 0x6
0000049a ff53                 MOVAR 0x2c
0000049b def5                 MOVIA 0xa
0000049c ff3a                 MOVAR 0x45
0000049d fecf                 MOVR 0x30, 0x0
0000049e d0d4                 LCALL 0x72b; __moduchar=0x72b
0000049f e4fc                 BSR 0x3, 0x6
000004a0 ff52                 MOVAR 0x2d
000004a1                      main.o:_00320_DS_:
000004a1 e0fc                 BCR 0x3, 0x6
000004a2 fe81                 MOVR 0x7e, 0x0
000004a3 f2fc                 BTRSC 0x3, 0x2
000004a4 c353                 LGOTO 0x4ac; main.o:_00322_DS_=0x4ac
000004a5 e58b                 BSR 0x74, 0x4
000004a6 e4fc                 BSR 0x3, 0x6
000004a7 fd53                 CLRR 0x2c
000004a8 e0fc                 BCR 0x3, 0x6
000004a9 fe81                 MOVR 0x7e, 0x0
000004aa e4fc                 BSR 0x3, 0x6
000004ab ff52                 MOVAR 0x2d
000004ac                      main.o:_00322_DS_:
000004ac e0fc                 BCR 0x3, 0x6
000004ad f67a                 BTRSS 0x5, 0x3
000004ae c2bf                 LGOTO 0x540; main.o:_00355_DS_=0x540
000004af e60b                 BSR 0x74, 0x3
000004b0 e58b                 BSR 0x74, 0x4
000004b1 fd01                 CLRR 0x7e
000004b2 e4fc                 BSR 0x3, 0x6
000004b3 fd5f                 CLRR 0x20
000004b4 d49d                 LCALL 0x362; _pwmStop=0x362
000004b5 de9c                 MOVIA 0x63
000004b6 e4fc                 BSR 0x3, 0x6
000004b7 fbcf                 SUBAR 0x30, 0x0
000004b8 f3fc                 BTRSC 0x3, 0x0
000004b9 c336                 LGOTO 0x4c9; main.o:_00007_DS_=0x4c9
000004ba fecf                 MOVR 0x30, 0x0
000004bb fbd1                 SUBAR 0x2e, 0x0
000004bc f7fc                 BTRSS 0x3, 0x0
000004bd c336                 LGOTO 0x4c9; main.o:_00007_DS_=0x4c9
000004be e0fc                 BCR 0x3, 0x6
000004bf fe85                 MOVR 0x7a, 0x0
000004c0 dbfe                 XORIA 0x1
000004c1 f6fc                 BTRSS 0x3, 0x2
000004c2 c336                 LGOTO 0x4c9; main.o:_00007_DS_=0x4c9
000004c3 fe84                 MOVR 0x7b, 0x0
000004c4 dbff                 XORIA 0x0
000004c5 f6fc                 BTRSS 0x3, 0x2
000004c6 c336                 LGOTO 0x4c9; main.o:_00007_DS_=0x4c9
000004c7 e4fc                 BSR 0x3, 0x6
000004c8 fa4f                 INCR 0x30, 0x1
000004c9                      main.o:_00007_DS_:
000004c9 de9c                 MOVIA 0x63
000004ca e4fc                 BSR 0x3, 0x6
000004cb fbd1                 SUBAR 0x2e, 0x0
000004cc f3fc                 BTRSC 0x3, 0x0
000004cd c32e                 LGOTO 0x4d1; main.o:_00346_DS_=0x4d1
000004ce fec9                 MOVR 0x36, 0x0
000004cf f2fc                 BTRSC 0x3, 0x2
000004d0 c308                 LGOTO 0x4f7; main.o:_00347_DS_=0x4f7
000004d1                      main.o:_00346_DS_:
000004d1 defb                 MOVIA 0x4
000004d2 e4fc                 BSR 0x3, 0x6
000004d3 ff4b                 MOVAR 0x34
000004d4 fed3                 MOVR 0x2c, 0x0
000004d5 dbf6                 XORIA 0x9
000004d6 f6fc                 BTRSS 0x3, 0x2
000004d7 c295                 LGOTO 0x56a; main.o:_00009_DS_=0x56a
000004d8 fed2                 MOVR 0x2d, 0x0
000004d9 dbf6                 XORIA 0x9
000004da f6fc                 BTRSS 0x3, 0x2
000004db c295                 LGOTO 0x56a; main.o:_00009_DS_=0x56a
000004dc de9b                 MOVIA 0x64
000004dd fbd1                 SUBAR 0x2e, 0x0
000004de f7fc                 BTRSS 0x3, 0x0
000004df c295                 LGOTO 0x56a; main.o:_00009_DS_=0x56a
000004e0 fa57                 INCR 0x28, 0x1
000004e1 f2fc                 BTRSC 0x3, 0x2
000004e2 fa56                 INCR 0x29, 0x1
000004e3 def8                 MOVIA 0x7
000004e4 fbd6                 SUBAR 0x29, 0x0
000004e5 f6fc                 BTRSS 0x3, 0x2
000004e6 c316                 LGOTO 0x4e9; main.o:_00421_DS_=0x4e9
000004e7 de2e                 MOVIA 0xd1
000004e8 fbd7                 SUBAR 0x28, 0x0
000004e9                      main.o:_00421_DS_:
000004e9 f7fc                 BTRSS 0x3, 0x0
000004ea c295                 LGOTO 0x56a; main.o:_00009_DS_=0x56a
000004eb d48d                 LCALL 0x372; _pwm1Stop=0x372
000004ec e279                 BCR 0x6, 0x3
000004ed ffe9                 IOSTR 0x6
000004ee e0fc                 BCR 0x3, 0x6
000004ef ff59                 MOVAR 0x26
000004f0 e659                 BSR 0x26, 0x3
000004f1 fed9                 MOVR 0x26, 0x0
000004f2 fff9                 IOST 0x6
000004f3 defe                 MOVIA 0x1
000004f4 e4fc                 BSR 0x3, 0x6
000004f5 ff49                 MOVAR 0x36
000004f6 c295                 LGOTO 0x56a; main.o:_00009_DS_=0x56a
000004f7                      main.o:_00347_DS_:
000004f7 e4fc                 BSR 0x3, 0x6
000004f8 fd57                 CLRR 0x28
000004f9 fd56                 CLRR 0x29
000004fa ffe9                 IOSTR 0x6
000004fb e0fc                 BCR 0x3, 0x6
000004fc ff59                 MOVAR 0x26
000004fd e259                 BCR 0x26, 0x3
000004fe fed9                 MOVR 0x26, 0x0
000004ff fff9                 IOST 0x6
00000500 e4fc                 BSR 0x3, 0x6
00000501 fec3                 MOVR 0x3c, 0x0
00000502 ffbc                 SFUN 0x3
00000503 d48a                 LCALL 0x375; _pwm1Init=0x375
00000504 def9                 MOVIA 0x6
00000505 e0fc                 BCR 0x3, 0x6
00000506 fb87                 SUBAR 0x78, 0x0
00000507 f7fc                 BTRSS 0x3, 0x0
00000508 c295                 LGOTO 0x56a; main.o:_00009_DS_=0x56a
00000509 deff                 MOVIA 0x0
0000050a fbde                 SUBAR 0x21, 0x0
0000050b f6fc                 BTRSS 0x3, 0x2
0000050c c2f0                 LGOTO 0x50f; main.o:_00423_DS_=0x50f
0000050d dedf                 MOVIA 0x20
0000050e fbdf                 SUBAR 0x20, 0x0
0000050f                      main.o:_00423_DS_:
0000050f f7fc                 BTRSS 0x3, 0x0
00000510 c2e1                 LGOTO 0x51e; main.o:_00339_DS_=0x51e
00000511 e4fc                 BSR 0x3, 0x6
00000512 fa46                 INCR 0x39, 0x1
00000513 decc                 MOVIA 0x33
00000514 fbc6                 SUBAR 0x39, 0x0
00000515 f7fc                 BTRSS 0x3, 0x0
00000516 c2e4                 LGOTO 0x51b; main.o:_00333_DS_=0x51b
00000517 f94a                 DECR 0x35, 0x1
00000518 fd46                 CLRR 0x39
00000519 dee4                 MOVIA 0x1b
0000051a ff45                 MOVAR 0x3a
0000051b                      main.o:_00333_DS_:
0000051b e4fc                 BSR 0x3, 0x6
0000051c fd44                 CLRR 0x3b
0000051d c2ca                 LGOTO 0x535; main.o:_00340_DS_=0x535
0000051e                      main.o:_00339_DS_:
0000051e e4fc                 BSR 0x3, 0x6
0000051f fec5                 MOVR 0x3a, 0x0
00000520 e0fc                 BCR 0x3, 0x6
00000521 ff59                 MOVAR 0x26
00000522 fd58                 CLRR 0x27
00000523 deff                 MOVIA 0x0
00000524 fbde                 SUBAR 0x21, 0x0
00000525 f6fc                 BTRSS 0x3, 0x2
00000526 c2d6                 LGOTO 0x529; main.o:_00425_DS_=0x529
00000527 fed9                 MOVR 0x26, 0x0
00000528 fbdf                 SUBAR 0x20, 0x0
00000529                      main.o:_00425_DS_:
00000529 f3fc                 BTRSC 0x3, 0x0
0000052a c2ca                 LGOTO 0x535; main.o:_00340_DS_=0x535
0000052b e4fc                 BSR 0x3, 0x6
0000052c fa44                 INCR 0x3b, 0x1
0000052d decc                 MOVIA 0x33
0000052e fbc4                 SUBAR 0x3b, 0x0
0000052f f7fc                 BTRSS 0x3, 0x0
00000530 c2cc                 LGOTO 0x533; main.o:_00335_DS_=0x533
00000531 fa4a                 INCR 0x35, 0x1
00000532 fd44                 CLRR 0x3b
00000533                      main.o:_00335_DS_:
00000533 e4fc                 BSR 0x3, 0x6
00000534 fd46                 CLRR 0x39
00000535                      main.o:_00340_DS_:
00000535 e4fc                 BSR 0x3, 0x6
00000536 feca                 MOVR 0x35, 0x0
00000537 fbc3                 SUBAR 0x3c, 0x0
00000538 f3fc                 BTRSC 0x3, 0x0
00000539 c2c3                 LGOTO 0x53c; main.o:_00342_DS_=0x53c
0000053a fa43                 INCR 0x3c, 0x1
0000053b c295                 LGOTO 0x56a; main.o:_00009_DS_=0x56a
0000053c                      main.o:_00342_DS_:
0000053c e4fc                 BSR 0x3, 0x6
0000053d feca                 MOVR 0x35, 0x0
0000053e ff43                 MOVAR 0x3c
0000053f c295                 LGOTO 0x56a; main.o:_00009_DS_=0x56a
00000540                      main.o:_00355_DS_:
00000540 dee4                 MOVIA 0x1b
00000541 e4fc                 BSR 0x3, 0x6
00000542 ff45                 MOVAR 0x3a
00000543 fd49                 CLRR 0x36
00000544 fd4a                 CLRR 0x35
00000545 fd57                 CLRR 0x28
00000546 fd56                 CLRR 0x29
00000547 d48d                 LCALL 0x372; _pwm1Stop=0x372
00000548 e0fc                 BCR 0x3, 0x6
00000549 e20b                 BCR 0x74, 0x3
0000054a e4fc                 BSR 0x3, 0x6
0000054b fed1                 MOVR 0x2e, 0x0
0000054c e0fc                 BCR 0x3, 0x6
0000054d ff59                 MOVAR 0x26
0000054e fd58                 CLRR 0x27
0000054f fa59                 INCR 0x26, 0x1
00000550 f6fc                 BTRSS 0x3, 0x2
00000551 c2ac                 LGOTO 0x553; main.o:_00008_DS_=0x553
00000552 fa58                 INCR 0x27, 0x1
00000553                      main.o:_00008_DS_:
00000553 e4fc                 BSR 0x3, 0x6
00000554 fecf                 MOVR 0x30, 0x0
00000555 e0fc                 BCR 0x3, 0x6
00000556 ff57                 MOVAR 0x28
00000557 fed8                 MOVR 0x27, 0x0
00000558 da7f                 ADDIA 0x80
00000559 ff56                 MOVAR 0x29
0000055a deff                 MOVIA 0x0
0000055b da7f                 ADDIA 0x80
0000055c fbd6                 SUBAR 0x29, 0x0
0000055d f6fc                 BTRSS 0x3, 0x2
0000055e c29e                 LGOTO 0x561; main.o:_00428_DS_=0x561
0000055f fed7                 MOVR 0x28, 0x0
00000560 fbd9                 SUBAR 0x26, 0x0
00000561                      main.o:_00428_DS_:
00000561 f3fc                 BTRSC 0x3, 0x0
00000562 c295                 LGOTO 0x56a; main.o:_00009_DS_=0x56a
00000563 e0fc                 BCR 0x3, 0x6
00000564 fe85                 MOVR 0x7a, 0x0
00000565 ee84                 IORAR 0x7b, 0x0
00000566 f6fc                 BTRSS 0x3, 0x2
00000567 c295                 LGOTO 0x56a; main.o:_00009_DS_=0x56a
00000568 e4fc                 BSR 0x3, 0x6
00000569 f94f                 DECR 0x30, 0x1
0000056a                      main.o:_00009_DS_:
0000056a ffef                 RET
0000056b                      _delayms:
0000056b e0fc                 BCR 0x3, 0x6
0000056c ff29                 MOVAR 0x56
0000056d fd28                 CLRR 0x57
0000056e                      number.o:_00328_DS_:
0000056e e0fc                 BCR 0x3, 0x6
0000056f fea9                 MOVR 0x56, 0x0
00000570 fba8                 SUBAR 0x57, 0x0
00000571 f3fc                 BTRSC 0x3, 0x0
00000572 c289                 LGOTO 0x576; number.o:_00330_DS_=0x576
00000573 ffff                 NOP
00000574 fa28                 INCR 0x57, 0x1
00000575 c291                 LGOTO 0x56e; number.o:_00328_DS_=0x56e
00000576                      number.o:_00330_DS_:
00000576 ffef                 RET
00000577                      _setInput:
00000577 ffea                 IOSTR 0x5
00000578 e0fc                 BCR 0x3, 0x6
00000579 ff2a                 MOVAR 0x55
0000057a de3e                 MOVIA 0xc1
0000057b ee2a                 IORAR 0x55, 0x1
0000057c feaa                 MOVR 0x55, 0x0
0000057d fffa                 IOST 0x5
0000057e ffe9                 IOSTR 0x6
0000057f ff2a                 MOVAR 0x55
00000580 defc                 MOVIA 0x3
00000581 ee2a                 IORAR 0x55, 0x1
00000582 feaa                 MOVR 0x55, 0x0
00000583 fff9                 IOST 0x6
00000584 ffef                 RET
00000585                      _setOutput:
00000585 e0fc                 BCR 0x3, 0x6
00000586 ff2b                 MOVAR 0x54
00000587 defe                 MOVIA 0x1
00000588 fbab                 SUBAR 0x54, 0x0
00000589 f7fc                 BTRSS 0x3, 0x0
0000058a c241                 LGOTO 0x5be; number.o:_00307_DS_=0x5be
0000058b def9                 MOVIA 0x6
0000058c fbab                 SUBAR 0x54, 0x0
0000058d f3fc                 BTRSC 0x3, 0x0
0000058e c241                 LGOTO 0x5be; number.o:_00307_DS_=0x5be
0000058f f92b                 DECR 0x54, 0x1
00000590 defa                 MOVIA 0x5
00000591 ff75                 MOVAR 0xa
00000592 feab                 MOVR 0x54, 0x0
00000593 da68                 ADDIA 0x97
00000594 f3fc                 BTRSC 0x3, 0x0
00000595 fa75                 INCR 0xa, 0x1
00000596 ff7d                 MOVAR 0x2
00000597                      number.o:_00317_DS_:
00000597 c263                 LGOTO 0x59c; number.o:_00301_DS_=0x59c
00000598 c25c                 LGOTO 0x5a3; number.o:_00302_DS_=0x5a3
00000599 c255                 LGOTO 0x5aa; number.o:_00303_DS_=0x5aa
0000059a c24e                 LGOTO 0x5b1; number.o:_00304_DS_=0x5b1
0000059b c247                 LGOTO 0x5b8; number.o:_00305_DS_=0x5b8
0000059c                      number.o:_00301_DS_:
0000059c ffea                 IOSTR 0x5
0000059d e0fc                 BCR 0x3, 0x6
0000059e ff2b                 MOVAR 0x54
0000059f e0ab                 BCR 0x54, 0x6
000005a0 feab                 MOVR 0x54, 0x0
000005a1 fffa                 IOST 0x5
000005a2 c241                 LGOTO 0x5be; number.o:_00307_DS_=0x5be
000005a3                      number.o:_00302_DS_:
000005a3 ffea                 IOSTR 0x5
000005a4 e0fc                 BCR 0x3, 0x6
000005a5 ff2b                 MOVAR 0x54
000005a6 e02b                 BCR 0x54, 0x7
000005a7 feab                 MOVR 0x54, 0x0
000005a8 fffa                 IOST 0x5
000005a9 c241                 LGOTO 0x5be; number.o:_00307_DS_=0x5be
000005aa                      number.o:_00303_DS_:
000005aa ffe9                 IOSTR 0x6
000005ab e0fc                 BCR 0x3, 0x6
000005ac ff2b                 MOVAR 0x54
000005ad e32b                 BCR 0x54, 0x1
000005ae feab                 MOVR 0x54, 0x0
000005af fff9                 IOST 0x6
000005b0 c241                 LGOTO 0x5be; number.o:_00307_DS_=0x5be
000005b1                      number.o:_00304_DS_:
000005b1 ffe9                 IOSTR 0x6
000005b2 e0fc                 BCR 0x3, 0x6
000005b3 ff2b                 MOVAR 0x54
000005b4 e3ab                 BCR 0x54, 0x0
000005b5 feab                 MOVR 0x54, 0x0
000005b6 fff9                 IOST 0x6
000005b7 c241                 LGOTO 0x5be; number.o:_00307_DS_=0x5be
000005b8                      number.o:_00305_DS_:
000005b8 ffea                 IOSTR 0x5
000005b9 e0fc                 BCR 0x3, 0x6
000005ba ff2b                 MOVAR 0x54
000005bb e3ab                 BCR 0x54, 0x0
000005bc feab                 MOVR 0x54, 0x0
000005bd fffa                 IOST 0x5
000005be                      number.o:_00307_DS_:
000005be ffef                 RET
000005bf                      _setlowOutput:
000005bf e0fc                 BCR 0x3, 0x6
000005c0 ff2c                 MOVAR 0x53
000005c1 defe                 MOVIA 0x1
000005c2 fbac                 SUBAR 0x53, 0x0
000005c3 f7fc                 BTRSS 0x3, 0x0
000005c4 c220                 LGOTO 0x5df; number.o:_00286_DS_=0x5df
000005c5 def9                 MOVIA 0x6
000005c6 fbac                 SUBAR 0x53, 0x0
000005c7 f3fc                 BTRSC 0x3, 0x0
000005c8 c220                 LGOTO 0x5df; number.o:_00286_DS_=0x5df
000005c9 f92c                 DECR 0x53, 0x1
000005ca defa                 MOVIA 0x5
000005cb ff75                 MOVAR 0xa
000005cc feac                 MOVR 0x53, 0x0
000005cd da2e                 ADDIA 0xd1
000005ce f3fc                 BTRSC 0x3, 0x0
000005cf fa75                 INCR 0xa, 0x1
000005d0 ff7d                 MOVAR 0x2
000005d1                      number.o:_00296_DS_:
000005d1 c229                 LGOTO 0x5d6; number.o:_00280_DS_=0x5d6
000005d2 c227                 LGOTO 0x5d8; number.o:_00281_DS_=0x5d8
000005d3 c225                 LGOTO 0x5da; number.o:_00282_DS_=0x5da
000005d4 c223                 LGOTO 0x5dc; number.o:_00283_DS_=0x5dc
000005d5 c221                 LGOTO 0x5de; number.o:_00284_DS_=0x5de
000005d6                      number.o:_00280_DS_:
000005d6 e0fa                 BCR 0x5, 0x6
000005d7 c220                 LGOTO 0x5df; number.o:_00286_DS_=0x5df
000005d8                      number.o:_00281_DS_:
000005d8 e07a                 BCR 0x5, 0x7
000005d9 c220                 LGOTO 0x5df; number.o:_00286_DS_=0x5df
000005da                      number.o:_00282_DS_:
000005da e379                 BCR 0x6, 0x1
000005db c220                 LGOTO 0x5df; number.o:_00286_DS_=0x5df
000005dc                      number.o:_00283_DS_:
000005dc e3f9                 BCR 0x6, 0x0
000005dd c220                 LGOTO 0x5df; number.o:_00286_DS_=0x5df
000005de                      number.o:_00284_DS_:
000005de e3fa                 BCR 0x5, 0x0
000005df                      number.o:_00286_DS_:
000005df ffef                 RET
000005e0                      _setHightOutput:
000005e0 e0fc                 BCR 0x3, 0x6
000005e1 ff2d                 MOVAR 0x52
000005e2 defe                 MOVIA 0x1
000005e3 fbad                 SUBAR 0x52, 0x0
000005e4 f7fc                 BTRSS 0x3, 0x0
000005e5 c1ff                 LGOTO 0x600; number.o:_00265_DS_=0x600
000005e6 def9                 MOVIA 0x6
000005e7 fbad                 SUBAR 0x52, 0x0
000005e8 f3fc                 BTRSC 0x3, 0x0
000005e9 c1ff                 LGOTO 0x600; number.o:_00265_DS_=0x600
000005ea f92d                 DECR 0x52, 0x1
000005eb defa                 MOVIA 0x5
000005ec ff75                 MOVAR 0xa
000005ed fead                 MOVR 0x52, 0x0
000005ee da0d                 ADDIA 0xf2
000005ef f3fc                 BTRSC 0x3, 0x0
000005f0 fa75                 INCR 0xa, 0x1
000005f1 ff7d                 MOVAR 0x2
000005f2                      number.o:_00275_DS_:
000005f2 c208                 LGOTO 0x5f7; number.o:_00259_DS_=0x5f7
000005f3 c206                 LGOTO 0x5f9; number.o:_00260_DS_=0x5f9
000005f4 c204                 LGOTO 0x5fb; number.o:_00261_DS_=0x5fb
000005f5 c202                 LGOTO 0x5fd; number.o:_00262_DS_=0x5fd
000005f6 c200                 LGOTO 0x5ff; number.o:_00263_DS_=0x5ff
000005f7                      number.o:_00259_DS_:
000005f7 e4fa                 BSR 0x5, 0x6
000005f8 c1ff                 LGOTO 0x600; number.o:_00265_DS_=0x600
000005f9                      number.o:_00260_DS_:
000005f9 e47a                 BSR 0x5, 0x7
000005fa c1ff                 LGOTO 0x600; number.o:_00265_DS_=0x600
000005fb                      number.o:_00261_DS_:
000005fb e779                 BSR 0x6, 0x1
000005fc c1ff                 LGOTO 0x600; number.o:_00265_DS_=0x600
000005fd                      number.o:_00262_DS_:
000005fd e7f9                 BSR 0x6, 0x0
000005fe c1ff                 LGOTO 0x600; number.o:_00265_DS_=0x600
000005ff                      number.o:_00263_DS_:
000005ff e7fa                 BSR 0x5, 0x0
00000600                      number.o:_00265_DS_:
00000600 ffef                 RET
00000601                      _showNub:
00000601 e0fc                 BCR 0x3, 0x6
00000602 ff2f                 MOVAR 0x50
00000603 feba                 MOVR 0x45, 0x0
00000604 ff2e                 MOVAR 0x51
00000605 d288                 LCALL 0x577; _setInput=0x577
00000606 dec1                 MOVIA 0x3e
00000607 ef7a                 ANDAR 0x5, 0x1
00000608 de03                 MOVIA 0xfc
00000609 ef79                 ANDAR 0x6, 0x1
0000060a e0fc                 BCR 0x3, 0x6
0000060b feaf                 MOVR 0x50, 0x0
0000060c d27a                 LCALL 0x585; _setOutput=0x585
0000060d e0fc                 BCR 0x3, 0x6
0000060e feaf                 MOVR 0x50, 0x0
0000060f d21f                 LCALL 0x5e0; _setHightOutput=0x5e0
00000610 e0fc                 BCR 0x3, 0x6
00000611 feae                 MOVR 0x51, 0x0
00000612 d27a                 LCALL 0x585; _setOutput=0x585
00000613 e0fc                 BCR 0x3, 0x6
00000614 feae                 MOVR 0x51, 0x0
00000615 d240                 LCALL 0x5bf; _setlowOutput=0x5bf
00000616 def5                 MOVIA 0xa
00000617 d294                 LCALL 0x56b; _delayms=0x56b
00000618 fffd                 CLRWDT
00000619 dec1                 MOVIA 0x3e
0000061a ef7a                 ANDAR 0x5, 0x1
0000061b de03                 MOVIA 0xfc
0000061c ef79                 ANDAR 0x6, 0x1
0000061d ffef                 RET
0000061e                      _G3:
0000061e defa                 MOVIA 0x5
0000061f ff3a                 MOVAR 0x45
00000620 defe                 MOVIA 0x1
00000621 d1fe                 LCALL 0x601; _showNub=0x601
00000622 ffef                 RET
00000623                      _F3:
00000623 defb                 MOVIA 0x4
00000624 ff3a                 MOVAR 0x45
00000625 defe                 MOVIA 0x1
00000626 d1fe                 LCALL 0x601; _showNub=0x601
00000627 ffef                 RET
00000628                      _E3:
00000628 defe                 MOVIA 0x1
00000629 ff3a                 MOVAR 0x45
0000062a defb                 MOVIA 0x4
0000062b d1fe                 LCALL 0x601; _showNub=0x601
0000062c ffef                 RET
0000062d                      _D3:
0000062d defc                 MOVIA 0x3
0000062e ff3a                 MOVAR 0x45
0000062f defe                 MOVIA 0x1
00000630 d1fe                 LCALL 0x601; _showNub=0x601
00000631 ffef                 RET
00000632                      _C3:
00000632 defe                 MOVIA 0x1
00000633 ff3a                 MOVAR 0x45
00000634 defc                 MOVIA 0x3
00000635 d1fe                 LCALL 0x601; _showNub=0x601
00000636 ffef                 RET
00000637                      _B3:
00000637 defd                 MOVIA 0x2
00000638 ff3a                 MOVAR 0x45
00000639 defe                 MOVIA 0x1
0000063a d1fe                 LCALL 0x601; _showNub=0x601
0000063b ffef                 RET
0000063c                      _A3:
0000063c defe                 MOVIA 0x1
0000063d ff3a                 MOVAR 0x45
0000063e defd                 MOVIA 0x2
0000063f d1fe                 LCALL 0x601; _showNub=0x601
00000640 ffef                 RET
00000641                      _G2:
00000641 defa                 MOVIA 0x5
00000642 ff3a                 MOVAR 0x45
00000643 defb                 MOVIA 0x4
00000644 d1fe                 LCALL 0x601; _showNub=0x601
00000645 ffef                 RET
00000646                      _F2:
00000646 defa                 MOVIA 0x5
00000647 ff3a                 MOVAR 0x45
00000648 defc                 MOVIA 0x3
00000649 d1fe                 LCALL 0x601; _showNub=0x601
0000064a ffef                 RET
0000064b                      _E2:
0000064b defa                 MOVIA 0x5
0000064c ff3a                 MOVAR 0x45
0000064d defd                 MOVIA 0x2
0000064e d1fe                 LCALL 0x601; _showNub=0x601
0000064f ffef                 RET
00000650                      _D2:
00000650 defb                 MOVIA 0x4
00000651 ff3a                 MOVAR 0x45
00000652 defd                 MOVIA 0x2
00000653 d1fe                 LCALL 0x601; _showNub=0x601
00000654 ffef                 RET
00000655                      _C2:
00000655 defb                 MOVIA 0x4
00000656 ff3a                 MOVAR 0x45
00000657 defc                 MOVIA 0x3
00000658 d1fe                 LCALL 0x601; _showNub=0x601
00000659 ffef                 RET
0000065a                      _B2:
0000065a defc                 MOVIA 0x3
0000065b ff3a                 MOVAR 0x45
0000065c defd                 MOVIA 0x2
0000065d d1fe                 LCALL 0x601; _showNub=0x601
0000065e ffef                 RET
0000065f                      _A2:
0000065f defd                 MOVIA 0x2
00000660 ff3a                 MOVAR 0x45
00000661 defc                 MOVIA 0x3
00000662 d1fe                 LCALL 0x601; _showNub=0x601
00000663 ffef                 RET
00000664                      _showKeyLed:
00000664 defe                 MOVIA 0x1
00000665 ff3a                 MOVAR 0x45
00000666 defa                 MOVIA 0x5
00000667 d1fe                 LCALL 0x601; _showNub=0x601
00000668 ffef                 RET
00000669                      _showNubGewei2:
00000669 e0fc                 BCR 0x3, 0x6
0000066a ff30                 MOVAR 0x4f
0000066b def8                 MOVIA 0x7
0000066c fbb0                 SUBAR 0x4f, 0x0
0000066d f3fc                 BTRSC 0x3, 0x0
0000066e c175                 LGOTO 0x68a; number.o:_00184_DS_=0x68a
0000066f def9                 MOVIA 0x6
00000670 ff75                 MOVAR 0xa
00000671 feb0                 MOVR 0x4f, 0x0
00000672 da89                 ADDIA 0x76
00000673 f3fc                 BTRSC 0x3, 0x0
00000674 fa75                 INCR 0xa, 0x1
00000675 ff7d                 MOVAR 0x2
00000676                      number.o:_00190_DS_:
00000676 c182                 LGOTO 0x67d; number.o:_00176_DS_=0x67d
00000677 c180                 LGOTO 0x67f; number.o:_00177_DS_=0x67f
00000678 c17e                 LGOTO 0x681; number.o:_00178_DS_=0x681
00000679 c17c                 LGOTO 0x683; number.o:_00179_DS_=0x683
0000067a c17a                 LGOTO 0x685; number.o:_00180_DS_=0x685
0000067b c178                 LGOTO 0x687; number.o:_00181_DS_=0x687
0000067c c176                 LGOTO 0x689; number.o:_00182_DS_=0x689
0000067d                      number.o:_00176_DS_:
0000067d d1c3                 LCALL 0x63c; _A3=0x63c
0000067e c175                 LGOTO 0x68a; number.o:_00184_DS_=0x68a
0000067f                      number.o:_00177_DS_:
0000067f d1c8                 LCALL 0x637; _B3=0x637
00000680 c175                 LGOTO 0x68a; number.o:_00184_DS_=0x68a
00000681                      number.o:_00178_DS_:
00000681 d1cd                 LCALL 0x632; _C3=0x632
00000682 c175                 LGOTO 0x68a; number.o:_00184_DS_=0x68a
00000683                      number.o:_00179_DS_:
00000683 d1d2                 LCALL 0x62d; _D3=0x62d
00000684 c175                 LGOTO 0x68a; number.o:_00184_DS_=0x68a
00000685                      number.o:_00180_DS_:
00000685 d1d7                 LCALL 0x628; _E3=0x628
00000686 c175                 LGOTO 0x68a; number.o:_00184_DS_=0x68a
00000687                      number.o:_00181_DS_:
00000687 d1dc                 LCALL 0x623; _F3=0x623
00000688 c175                 LGOTO 0x68a; number.o:_00184_DS_=0x68a
00000689                      number.o:_00182_DS_:
00000689 d1e1                 LCALL 0x61e; _G3=0x61e
0000068a                      number.o:_00184_DS_:
0000068a ffef                 RET
0000068b                      _showNubGewei:
0000068b e0fc                 BCR 0x3, 0x6
0000068c ff33                 MOVAR 0x4c
0000068d fd32                 CLRR 0x4d
0000068e                      number.o:_00155_DS_:
0000068e def8                 MOVIA 0x7
0000068f e0fc                 BCR 0x3, 0x6
00000690 fbb2                 SUBAR 0x4d, 0x0
00000691 f3fc                 BTRSC 0x3, 0x0
00000692 c157                 LGOTO 0x6a8; number.o:_00157_DS_=0x6a8
00000693 feb3                 MOVR 0x4c, 0x0
00000694 ff31                 MOVAR 0x4e
00000695 feb2                 MOVR 0x4d, 0x0
00000696 d8ff                 SUBIA 0x0
00000697 f2fc                 BTRSC 0x3, 0x2
00000698 c161                 LGOTO 0x69e; number.o:_00171_DS_=0x69e
00000699                      number.o:_00170_DS_:
00000699 e0fc                 BCR 0x3, 0x6
0000069a ec31                 RRR 0x4e, 0x1
0000069b dafe                 ADDIA 0x1
0000069c f7fc                 BTRSS 0x3, 0x0
0000069d c166                 LGOTO 0x699; number.o:_00170_DS_=0x699
0000069e                      number.o:_00171_DS_:
0000069e e0fc                 BCR 0x3, 0x6
0000069f f7b1                 BTRSS 0x4e, 0x0
000006a0 c15b                 LGOTO 0x6a4; number.o:_00151_DS_=0x6a4
000006a1 feb2                 MOVR 0x4d, 0x0
000006a2 d196                 LCALL 0x669; _showNubGewei2=0x669
000006a3 c15a                 LGOTO 0x6a5; number.o:_00156_DS_=0x6a5
000006a4                      number.o:_00151_DS_:
000006a4 d288                 LCALL 0x577; _setInput=0x577
000006a5                      number.o:_00156_DS_:
000006a5 e0fc                 BCR 0x3, 0x6
000006a6 fa32                 INCR 0x4d, 0x1
000006a7 c171                 LGOTO 0x68e; number.o:_00155_DS_=0x68e
000006a8                      number.o:_00157_DS_:
000006a8 ffef                 RET
000006a9                      _showNubShiwei2:
000006a9 e0fc                 BCR 0x3, 0x6
000006aa ff34                 MOVAR 0x4b
000006ab def8                 MOVIA 0x7
000006ac fbb4                 SUBAR 0x4b, 0x0
000006ad f3fc                 BTRSC 0x3, 0x0
000006ae c135                 LGOTO 0x6ca; number.o:_00139_DS_=0x6ca
000006af def9                 MOVIA 0x6
000006b0 ff75                 MOVAR 0xa
000006b1 feb4                 MOVR 0x4b, 0x0
000006b2 da49                 ADDIA 0xb6
000006b3 f3fc                 BTRSC 0x3, 0x0
000006b4 fa75                 INCR 0xa, 0x1
000006b5 ff7d                 MOVAR 0x2
000006b6                      number.o:_00145_DS_:
000006b6 c142                 LGOTO 0x6bd; number.o:_00131_DS_=0x6bd
000006b7 c140                 LGOTO 0x6bf; number.o:_00132_DS_=0x6bf
000006b8 c13e                 LGOTO 0x6c1; number.o:_00133_DS_=0x6c1
000006b9 c13c                 LGOTO 0x6c3; number.o:_00134_DS_=0x6c3
000006ba c13a                 LGOTO 0x6c5; number.o:_00135_DS_=0x6c5
000006bb c138                 LGOTO 0x6c7; number.o:_00136_DS_=0x6c7
000006bc c136                 LGOTO 0x6c9; number.o:_00137_DS_=0x6c9
000006bd                      number.o:_00131_DS_:
000006bd d1a0                 LCALL 0x65f; _A2=0x65f
000006be c135                 LGOTO 0x6ca; number.o:_00139_DS_=0x6ca
000006bf                      number.o:_00132_DS_:
000006bf d1a5                 LCALL 0x65a; _B2=0x65a
000006c0 c135                 LGOTO 0x6ca; number.o:_00139_DS_=0x6ca
000006c1                      number.o:_00133_DS_:
000006c1 d1aa                 LCALL 0x655; _C2=0x655
000006c2 c135                 LGOTO 0x6ca; number.o:_00139_DS_=0x6ca
000006c3                      number.o:_00134_DS_:
000006c3 d1af                 LCALL 0x650; _D2=0x650
000006c4 c135                 LGOTO 0x6ca; number.o:_00139_DS_=0x6ca
000006c5                      number.o:_00135_DS_:
000006c5 d1b4                 LCALL 0x64b; _E2=0x64b
000006c6 c135                 LGOTO 0x6ca; number.o:_00139_DS_=0x6ca
000006c7                      number.o:_00136_DS_:
000006c7 d1b9                 LCALL 0x646; _F2=0x646
000006c8 c135                 LGOTO 0x6ca; number.o:_00139_DS_=0x6ca
000006c9                      number.o:_00137_DS_:
000006c9 d1be                 LCALL 0x641; _G2=0x641
000006ca                      number.o:_00139_DS_:
000006ca ffef                 RET
000006cb                      _showNubShiwei:
000006cb e0fc                 BCR 0x3, 0x6
000006cc ff37                 MOVAR 0x48
000006cd fd36                 CLRR 0x49
000006ce                      number.o:_00110_DS_:
000006ce def8                 MOVIA 0x7
000006cf e0fc                 BCR 0x3, 0x6
000006d0 fbb6                 SUBAR 0x49, 0x0
000006d1 f3fc                 BTRSC 0x3, 0x0
000006d2 c117                 LGOTO 0x6e8; number.o:_00112_DS_=0x6e8
000006d3 feb7                 MOVR 0x48, 0x0
000006d4 ff35                 MOVAR 0x4a
000006d5 feb6                 MOVR 0x49, 0x0
000006d6 d8ff                 SUBIA 0x0
000006d7 f2fc                 BTRSC 0x3, 0x2
000006d8 c121                 LGOTO 0x6de; number.o:_00126_DS_=0x6de
000006d9                      number.o:_00125_DS_:
000006d9 e0fc                 BCR 0x3, 0x6
000006da ec35                 RRR 0x4a, 0x1
000006db dafe                 ADDIA 0x1
000006dc f7fc                 BTRSS 0x3, 0x0
000006dd c126                 LGOTO 0x6d9; number.o:_00125_DS_=0x6d9
000006de                      number.o:_00126_DS_:
000006de e0fc                 BCR 0x3, 0x6
000006df f7b5                 BTRSS 0x4a, 0x0
000006e0 c11b                 LGOTO 0x6e4; number.o:_00106_DS_=0x6e4
000006e1 feb6                 MOVR 0x49, 0x0
000006e2 d156                 LCALL 0x6a9; _showNubShiwei2=0x6a9
000006e3 c11a                 LGOTO 0x6e5; number.o:_00111_DS_=0x6e5
000006e4                      number.o:_00106_DS_:
000006e4 d288                 LCALL 0x577; _setInput=0x577
000006e5                      number.o:_00111_DS_:
000006e5 e0fc                 BCR 0x3, 0x6
000006e6 fa36                 INCR 0x49, 0x1
000006e7 c131                 LGOTO 0x6ce; number.o:_00110_DS_=0x6ce
000006e8                      number.o:_00112_DS_:
000006e8 ffef                 RET
000006e9                      __mulchar:
000006e9 e0fc                 BCR 0x3, 0x6
000006ea ff27                 MOVAR 0x58
000006eb feba                 MOVR 0x45, 0x0
000006ec ff26                 MOVAR 0x59
000006ed fd25                 CLRR 0x5a
000006ee def7                 MOVIA 0x8
000006ef ff24                 MOVAR 0x5b
000006f0                      _mulchar.o:_00119_DS_:
000006f0 e0fc                 BCR 0x3, 0x6
000006f1 f7a7                 BTRSS 0x58, 0x0
000006f2 c10a                 LGOTO 0x6f5; _mulchar.o:_00114_DS_=0x6f5
000006f3 fea6                 MOVR 0x59, 0x0
000006f4 fc25                 ADDAR 0x5a, 0x1
000006f5                      _mulchar.o:_00114_DS_:
000006f5 e3fc                 BCR 0x3, 0x0
000006f6 e0fc                 BCR 0x3, 0x6
000006f7 ec27                 RRR 0x58, 0x1
000006f8 e3fc                 BCR 0x3, 0x0
000006f9 eb26                 RLR 0x59, 0x1
000006fa f9a4                 DECR 0x5b, 0x0
000006fb ff23                 MOVAR 0x5c
000006fc ff24                 MOVAR 0x5b
000006fd fea3                 MOVR 0x5c, 0x0
000006fe f6fc                 BTRSS 0x3, 0x2
000006ff c10f                 LGOTO 0x6f0; _mulchar.o:_00119_DS_=0x6f0
00000700 fea5                 MOVR 0x5a, 0x0
00000701 ffef                 RET
00000702                      __divuchar:
00000702 e0fc                 BCR 0x3, 0x6
00000703 ff22                 MOVAR 0x5d
00000704 feba                 MOVR 0x45, 0x0
00000705 ff21                 MOVAR 0x5e
00000706 fd20                 CLRR 0x5f
00000707 defe                 MOVIA 0x1
00000708 ff1f                 MOVAR 0x60
00000709 fea1                 MOVR 0x5e, 0x0
0000070a f6fc                 BTRSS 0x3, 0x2
0000070b c0f1                 LGOTO 0x70e; _divuchar.o:_00107_DS_=0x70e
0000070c de00                 MOVIA 0xff
0000070d c0d5                 LGOTO 0x72a; _divuchar.o:_00115_DS_=0x72a
0000070e                      _divuchar.o:_00107_DS_:
0000070e e0fc                 BCR 0x3, 0x6
0000070f f021                 BTRSC 0x5e, 0x7
00000710 c0e9                 LGOTO 0x716; _divuchar.o:_00112_DS_=0x716
00000711 e3fc                 BCR 0x3, 0x0
00000712 eb21                 RLR 0x5e, 0x1
00000713 e3fc                 BCR 0x3, 0x0
00000714 eb1f                 RLR 0x60, 0x1
00000715 c0f1                 LGOTO 0x70e; _divuchar.o:_00107_DS_=0x70e
00000716                      _divuchar.o:_00112_DS_:
00000716 e0fc                 BCR 0x3, 0x6
00000717 fe9f                 MOVR 0x60, 0x0
00000718 f2fc                 BTRSC 0x3, 0x2
00000719 c0d7                 LGOTO 0x728; _divuchar.o:_00114_DS_=0x728
0000071a fea1                 MOVR 0x5e, 0x0
0000071b fba2                 SUBAR 0x5d, 0x0
0000071c f7fc                 BTRSS 0x3, 0x0
0000071d c0dd                 LGOTO 0x722; _divuchar.o:_00111_DS_=0x722
0000071e fe9f                 MOVR 0x60, 0x0
0000071f fc20                 ADDAR 0x5f, 0x1
00000720 fea1                 MOVR 0x5e, 0x0
00000721 fb22                 SUBAR 0x5d, 0x1
00000722                      _divuchar.o:_00111_DS_:
00000722 e3fc                 BCR 0x3, 0x0
00000723 e0fc                 BCR 0x3, 0x6
00000724 ec21                 RRR 0x5e, 0x1
00000725 e3fc                 BCR 0x3, 0x0
00000726 ec1f                 RRR 0x60, 0x1
00000727 c0e9                 LGOTO 0x716; _divuchar.o:_00112_DS_=0x716
00000728                      _divuchar.o:_00114_DS_:
00000728 e0fc                 BCR 0x3, 0x6
00000729 fea0                 MOVR 0x5f, 0x0
0000072a                      _divuchar.o:_00115_DS_:
0000072a ffef                 RET
0000072b                      __moduchar:
0000072b e0fc                 BCR 0x3, 0x6
0000072c ff1e                 MOVAR 0x61
0000072d feba                 MOVR 0x45, 0x0
0000072e ff1d                 MOVAR 0x62
0000072f f6fc                 BTRSS 0x3, 0x2
00000730 c0cc                 LGOTO 0x733; _moduchar.o:_00119_DS_=0x733
00000731 de00                 MOVIA 0xff
00000732 c0b1                 LGOTO 0x74e; _moduchar.o:_00115_DS_=0x74e
00000733                      _moduchar.o:_00119_DS_:
00000733 defe                 MOVIA 0x1
00000734 e0fc                 BCR 0x3, 0x6
00000735 ff1c                 MOVAR 0x63
00000736                      _moduchar.o:_00107_DS_:
00000736 e0fc                 BCR 0x3, 0x6
00000737 f01d                 BTRSC 0x62, 0x7
00000738 c0c2                 LGOTO 0x73d; _moduchar.o:_00112_DS_=0x73d
00000739 e3fc                 BCR 0x3, 0x0
0000073a eb1d                 RLR 0x62, 0x1
0000073b fa1c                 INCR 0x63, 0x1
0000073c c0c9                 LGOTO 0x736; _moduchar.o:_00107_DS_=0x736
0000073d                      _moduchar.o:_00112_DS_:
0000073d e0fc                 BCR 0x3, 0x6
0000073e fe9c                 MOVR 0x63, 0x0
0000073f f2fc                 BTRSC 0x3, 0x2
00000740 c0b3                 LGOTO 0x74c; _moduchar.o:_00114_DS_=0x74c
00000741 fe9d                 MOVR 0x62, 0x0
00000742 fb9e                 SUBAR 0x61, 0x0
00000743 f7fc                 BTRSS 0x3, 0x0
00000744 c0b8                 LGOTO 0x747; _moduchar.o:_00111_DS_=0x747
00000745 fe9d                 MOVR 0x62, 0x0
00000746 fb1e                 SUBAR 0x61, 0x1
00000747                      _moduchar.o:_00111_DS_:
00000747 e3fc                 BCR 0x3, 0x0
00000748 e0fc                 BCR 0x3, 0x6
00000749 ec1d                 RRR 0x62, 0x1
0000074a f91c                 DECR 0x63, 0x1
0000074b c0c2                 LGOTO 0x73d; _moduchar.o:_00112_DS_=0x73d
0000074c                      _moduchar.o:_00114_DS_:
0000074c e0fc                 BCR 0x3, 0x6
0000074d fe9e                 MOVR 0x61, 0x0
0000074e                      _moduchar.o:_00115_DS_:
0000074e ffef                 RET
0000074f                      __gptrget:
0000074f dbff                 XORIA 0x0
00000750 f2fc                 BTRSC 0x3, 0x2
00000751 c0a9                 LGOTO 0x756; _gptrget1.o:__dataptrget1=0x756
00000752 db7f                 XORIA 0x80
00000753 f2fc                 BTRSC 0x3, 0x2
00000754 c0a2                 LGOTO 0x75d; __codeptrget1=0x75d
00000755 dfff                 RETIA 0x0
00000756                      _gptrget1.o:__dataptrget1:
00000756 febb                 MOVR 0x44, 0x0
00000757 ff7b                 MOVAR 0x4
00000758 e0fc                 BCR 0x3, 0x6
00000759 f03b                 BTRSC 0x44, 0x7
0000075a e4fc                 BSR 0x3, 0x6
0000075b feff                 MOVR 0x0, 0x0
0000075c ffef                 RET
0000075d                      __codeptrget1:
0000075d feba                 MOVR 0x45, 0x0
0000075e ffb8                 SFUN 0x7
0000075f febb                 MOVR 0x44, 0x0
00000760 fdee                 TABLEA
00000761 ffef                 RET
00000762                      ___cinit_load__:
