00000000 c7fe                LGOTO    0x1; __nyc_ny8_startup=0x1
00000001                     __nyc_ny8_startup:
00000001 d4bc                LCALL    0x343; ___cinit_load__=0x343
00000002 c76f                LGOTO    0x90; _main=0x90
00000003                     crt0.o:crt0_end:
00000008 c661                LGOTO    0x19e; _isr=0x19e
00000009                     _proHight:
00000009 fdff                CLRA
0000000a ffde                SFUN     T1CR1
0000000b e0fb                BCR      FSR, BK0
0000000c fec2                MOVR     0x3d, ToAcc
0000000d ff6f                MOVAR    0x10
0000000e fd6e                CLRR     0x11
0000000f feef                MOVR     0x10, ToAcc
00000010 ff6e                MOVAR    0x11
00000011 fd6f                CLRR     0x10
00000012 ffcf                SFUNR    TMR1
00000013 ff64                MOVAR    0x1b
00000014 fd63                CLRR     0x1c
00000015 fee4                MOVR     0x1b, ToAcc
00000016 d800                SUBIA    0xff
00000017 ff65                MOVAR    0x1a
00000018 deff                MOVIA    0x0
00000019 f3fc                BTRSC    STATUS, C
0000001a c7e3                LGOTO    0x1c; main.o:_00005_DS_=0x1c
0000001b fae3                INCR     0x1c, ToAcc
0000001c                     main.o:_00005_DS_:
0000001c d8ff                SUBIA    0x0
0000001d e0fb                BCR      FSR, BK0
0000001e ff63                MOVAR    0x1c
0000001f fee5                MOVR     0x1a, ToAcc
00000020 ff64                MOVAR    0x1b
00000021 fc6f                ADDAR    0x10, ToReg
00000022 fee3                MOVR     0x1c, ToAcc
00000023 f3fc                BTRSC    STATUS, C
00000024 fae3                INCR     0x1c, ToAcc
00000025 f2fc                BTRSC    STATUS, Z
00000026 c7d7                LGOTO    0x28; main.o:_00006_DS_=0x28
00000027 fc6e                ADDAR    0x11, ToReg
00000028                     main.o:_00006_DS_:
00000028 e0fb                BCR      FSR, BK0
00000029 fd42                CLRR     0x3d
0000002a de00                MOVIA    0xff
0000002b ffdf                SFUN     TMR1
0000002c defc                MOVIA    0x3
0000002d ffde                SFUN     T1CR1
0000002e f6c8                BTRSS    0x37, 0x2
0000002f c7b5                LGOTO    0x4a; main.o:_00142_DS_=0x4a
00000030 deff                MOVIA    0x0
00000031 fbee                SUBAR    0x11, ToAcc
00000032 f6fc                BTRSS    STATUS, Z
00000033 c7c9                LGOTO    0x36; main.o:_00178_DS_=0x36
00000034 de26                MOVIA    0xd9
00000035 fbef                SUBAR    0x10, ToAcc
00000036                     main.o:_00178_DS_:
00000036 f7fc                BTRSS    STATUS, C
00000037 c7b5                LGOTO    0x4a; main.o:_00142_DS_=0x4a
00000038 defe                MOVIA    0x1
00000039 e0fb                BCR      FSR, BK0
0000003a fbee                SUBAR    0x11, ToAcc
0000003b f6fc                BTRSS    STATUS, Z
0000003c c7c0                LGOTO    0x3f; main.o:_00179_DS_=0x3f
0000003d deaf                MOVIA    0x50
0000003e fbef                SUBAR    0x10, ToAcc
0000003f                     main.o:_00179_DS_:
0000003f f3fc                BTRSC    STATUS, C
00000040 c7b5                LGOTO    0x4a; main.o:_00142_DS_=0x4a
00000041 e0fb                BCR      FSR, BK0
00000042 e2c8                BCR      0x37, 0x2
00000043 e648                BSR      0x37, 0x3
00000044 fd49                CLRR     0x36
00000045 fd4a                CLRR     0x35
00000046 e348                BCR      0x37, 0x1
00000047 e3c8                BCR      0x37, 0x0
00000048 e1c8                BCR      0x37, 0x4
00000049 c770                LGOTO    0x8f; main.o:_00146_DS_=0x8f
0000004a                     main.o:_00142_DS_:
0000004a e0fb                BCR      FSR, BK0
0000004b f648                BTRSS    0x37, 0x3
0000004c c778                LGOTO    0x87; main.o:_00139_DS_=0x87
0000004d deff                MOVIA    0x0
0000004e fbee                SUBAR    0x11, ToAcc
0000004f f6fc                BTRSS    STATUS, Z
00000050 c7ac                LGOTO    0x53; main.o:_00180_DS_=0x53
00000051 dea6                MOVIA    0x59
00000052 fbef                SUBAR    0x10, ToAcc
00000053                     main.o:_00180_DS_:
00000053 f7fc                BTRSS    STATUS, C
00000054 c79d                LGOTO    0x62; main.o:_00130_DS_=0x62
00000055 deff                MOVIA    0x0
00000056 e0fb                BCR      FSR, BK0
00000057 fbee                SUBAR    0x11, ToAcc
00000058 f6fc                BTRSS    STATUS, Z
00000059 c7a3                LGOTO    0x5c; main.o:_00181_DS_=0x5c
0000005a de93                MOVIA    0x6c
0000005b fbef                SUBAR    0x10, ToAcc
0000005c                     main.o:_00181_DS_:
0000005c f3fc                BTRSC    STATUS, C
0000005d c79d                LGOTO    0x62; main.o:_00130_DS_=0x62
0000005e e0fb                BCR      FSR, BK0
0000005f e748                BSR      0x37, 0x1
00000060 e3c8                BCR      0x37, 0x0
00000061 c784                LGOTO    0x7b; main.o:_00131_DS_=0x7b
00000062                     main.o:_00130_DS_:
00000062 deff                MOVIA    0x0
00000063 e0fb                BCR      FSR, BK0
00000064 fbee                SUBAR    0x11, ToAcc
00000065 f6fc                BTRSS    STATUS, Z
00000066 c796                LGOTO    0x69; main.o:_00182_DS_=0x69
00000067 dee8                MOVIA    0x17
00000068 fbef                SUBAR    0x10, ToAcc
00000069                     main.o:_00182_DS_:
00000069 f7fc                BTRSS    STATUS, C
0000006a c787                LGOTO    0x78; main.o:_00126_DS_=0x78
0000006b deff                MOVIA    0x0
0000006c e0fb                BCR      FSR, BK0
0000006d fbee                SUBAR    0x11, ToAcc
0000006e f6fc                BTRSS    STATUS, Z
0000006f c78d                LGOTO    0x72; main.o:_00183_DS_=0x72
00000070 ded5                MOVIA    0x2a
00000071 fbef                SUBAR    0x10, ToAcc
00000072                     main.o:_00183_DS_:
00000072 f3fc                BTRSC    STATUS, C
00000073 c787                LGOTO    0x78; main.o:_00126_DS_=0x78
00000074 e0fb                BCR      FSR, BK0
00000075 e7c8                BSR      0x37, 0x0
00000076 e348                BCR      0x37, 0x1
00000077 c784                LGOTO    0x7b; main.o:_00131_DS_=0x7b
00000078                     main.o:_00126_DS_:
00000078 e0fb                BCR      FSR, BK0
00000079 e3c8                BCR      0x37, 0x0
0000007a e348                BCR      0x37, 0x1
0000007b                     main.o:_00131_DS_:
0000007b e0fb                BCR      FSR, BK0
0000007c f748                BTRSS    0x37, 0x1
0000007d c77e                LGOTO    0x81; main.o:_00136_DS_=0x81
0000007e defe                MOVIA    0x1
0000007f d5e2                LCALL    0x21d; _GetOneByte=0x21d
00000080 c770                LGOTO    0x8f; main.o:_00146_DS_=0x8f
00000081                     main.o:_00136_DS_:
00000081 e0fb                BCR      FSR, BK0
00000082 f7c8                BTRSS    0x37, 0x0
00000083 c770                LGOTO    0x8f; main.o:_00146_DS_=0x8f
00000084 deff                MOVIA    0x0
00000085 d5e2                LCALL    0x21d; _GetOneByte=0x21d
00000086 c770                LGOTO    0x8f; main.o:_00146_DS_=0x8f
00000087                     main.o:_00139_DS_:
00000087 e0fb                BCR      FSR, BK0
00000088 e2c8                BCR      0x37, 0x2
00000089 e248                BCR      0x37, 0x3
0000008a fd49                CLRR     0x36
0000008b fd4a                CLRR     0x35
0000008c e348                BCR      0x37, 0x1
0000008d e3c8                BCR      0x37, 0x0
0000008e e1c8                BCR      0x37, 0x4
0000008f                     main.o:_00146_DS_:
0000008f ffef                RET
00000090                     _main:
00000090 def0                MOVIA    0xf
00000091 fff9                IOST     IOSTB
00000092 de0f                MOVIA    0xf0
00000093 ff73                MOVAR    BPHCON
00000094 de00                MOVIA    0xff
00000095 ff74                MOVAR    ABPLCON
00000096 decf                MOVIA    0x30
00000097 ff79                MOVAR    PORTB
00000098 ffec                DISI
00000099 fdff                CLRA
0000009a fff0                IOST     PCON1
0000009b de00                MOVIA    0xff
0000009c ffdf                SFUN     TMR1
0000009d defa                MOVIA    0x5
0000009e ffdd                SFUN     T1CR2
0000009f defc                MOVIA    0x3
000000a0 ffde                SFUN     T1CR1
000000a1 e0fb                BCR      FSR, BK0
000000a2 e548                BSR      0x37, 0x5
000000a3 def4                MOVIA    0xb
000000a4 ff71                MOVAR    INTE
000000a5 dec8                MOVIA    0x37
000000a6 ff7e                MOVAR    TMR0
000000a7 fdff                CLRA
000000a8 fffc                T0MD
000000a9 de77                MOVIA    0x88
000000aa ff77                MOVAR    PCON
000000ab defe                MOVIA    0x1
000000ac fff0                IOST     PCON1
000000ad fffb                ENI
000000ae fd68                CLRR     0x17
000000af fd69                CLRR     0x16
000000b0 fd6a                CLRR     0x15
000000b1 fd6b                CLRR     0x14
000000b2                     main.o:_00291_DS_:
000000b2 e0fb                BCR      FSR, BK0
000000b3 f1c8                BTRSC    0x37, 0x4
000000b4 d507                LCALL    0x2f8; _proData=0x2f8
000000b5                     main.o:_00271_DS_:
000000b5 e0fb                BCR      FSR, BK0
000000b6 f548                BTRSS    0x37, 0x5
000000b7 c742                LGOTO    0xbd; main.o:_00276_DS_=0xbd
000000b8 f679                BTRSS    PORTB, PB3
000000b9 c742                LGOTO    0xbd; main.o:_00276_DS_=0xbd
000000ba e148                BCR      0x37, 0x5
000000bb d6b8                LCALL    0x147; _proLow=0x147
000000bc c73b                LGOTO    0xc4; main.o:_00277_DS_=0xc4
000000bd                     main.o:_00276_DS_:
000000bd e0fb                BCR      FSR, BK0
000000be f148                BTRSC    0x37, 0x5
000000bf c73b                LGOTO    0xc4; main.o:_00277_DS_=0xc4
000000c0 f279                BTRSC    PORTB, PB3
000000c1 c73b                LGOTO    0xc4; main.o:_00277_DS_=0xc4
000000c2 e548                BSR      0x37, 0x5
000000c3 d7f6                LCALL    0x9; _proHight=0x9
000000c4                     main.o:_00277_DS_:
000000c4 fffd                CLRWDT
000000c5 e0fb                BCR      FSR, BK0
000000c6 fec3                MOVR     0x3c, ToAcc
000000c7 f6fc                BTRSS    STATUS, Z
000000c8 d540                LCALL    0x2bf; _setPWMduty=0x2bf
000000c9 e0fb                BCR      FSR, BK0
000000ca feed                MOVR     0x12, ToAcc
000000cb f2fc                BTRSC    STATUS, Z
000000cc c74d                LGOTO    0xb2; main.o:_00291_DS_=0xb2
000000cd fd6d                CLRR     0x12
000000ce d4ed                LCALL    0x312; _setModeStep=0x312
000000cf d4a7                LCALL    0x358; _keyCtr=0x358
000000d0 e0fb                BCR      FSR, BK0
000000d1 fec7                MOVR     0x38, ToAcc
000000d2 f6fc                BTRSS    STATUS, Z
000000d3 d5a5                LCALL    0x25a; _workCtr=0x25a
000000d4 e0fb                BCR      FSR, BK0
000000d5 feca                MOVR     0x35, ToAcc
000000d6 f6fc                BTRSS    STATUS, Z
000000d7 c74d                LGOTO    0xb2; main.o:_00291_DS_=0xb2
000000d8 fec6                MOVR     0x39, ToAcc
000000d9 f6fc                BTRSS    STATUS, Z
000000da c74d                LGOTO    0xb2; main.o:_00291_DS_=0xb2
000000db fec7                MOVR     0x38, ToAcc
000000dc f6fc                BTRSS    STATUS, Z
000000dd c74d                LGOTO    0xb2; main.o:_00291_DS_=0xb2
000000de fa54                INCR     0x2b, ToReg
000000df f2fc                BTRSC    STATUS, Z
000000e0 fa53                INCR     0x2c, ToReg
000000e1 deff                MOVIA    0x0
000000e2 fbd3                SUBAR    0x2c, ToAcc
000000e3 f6fc                BTRSS    STATUS, Z
000000e4 c718                LGOTO    0xe7; main.o:_00334_DS_=0xe7
000000e5 de9b                MOVIA    0x64
000000e6 fbd4                SUBAR    0x2b, ToAcc
000000e7                     main.o:_00334_DS_:
000000e7 f7fc                BTRSS    STATUS, C
000000e8 c74d                LGOTO    0xb2; main.o:_00291_DS_=0xb2
000000e9 d4d4                LCALL    0x32b; _gotoSleep=0x32b
000000ea c74d                LGOTO    0xb2; main.o:_00291_DS_=0xb2
000000eb ffef                RET
000000ec                     _breathCtr:
000000ec deff                MOVIA    0x0
000000ed e0fb                BCR      FSR, BK0
000000ee fbcb                SUBAR    0x34, ToAcc
000000ef f6fc                BTRSS    STATUS, Z
000000f0 c70c                LGOTO    0xf3; main.o:_00369_DS_=0xf3
000000f1 de44                MOVIA    0xbb
000000f2 fbcc                SUBAR    0x33, ToAcc
000000f3                     main.o:_00369_DS_:
000000f3 f3fc                BTRSC    STATUS, C
000000f4 c705                LGOTO    0xfa; main.o:_00348_DS_=0xfa
000000f5 e0fb                BCR      FSR, BK0
000000f6 fd43                CLRR     0x3c
000000f7 de30                MOVIA    0xcf
000000f8 ef79                ANDAR    PORTB, ToReg
000000f9 c6c8                LGOTO    0x137; main.o:_00349_DS_=0x137
000000fa                     main.o:_00348_DS_:
000000fa defe                MOVIA    0x1
000000fb e0fb                BCR      FSR, BK0
000000fc fbcb                SUBAR    0x34, ToAcc
000000fd f6fc                BTRSS    STATUS, Z
000000fe c6fe                LGOTO    0x101; main.o:_00370_DS_=0x101
000000ff de18                MOVIA    0xe7
00000100 fbcc                SUBAR    0x33, ToAcc
00000101                     main.o:_00370_DS_:
00000101 f3fc                BTRSC    STATUS, C
00000102 c6ed                LGOTO    0x112; main.o:_00345_DS_=0x112
00000103 defe                MOVIA    0x1
00000104 e0fb                BCR      FSR, BK0
00000105 ff43                MOVAR    0x3c
00000106 deba                MOVIA    0x45
00000107 fccc                ADDAR    0x33, ToAcc
00000108 ff52                MOVAR    0x2d
00000109 de00                MOVIA    0xff
0000010a ff51                MOVAR    0x2e
0000010b fecb                MOVR     0x34, ToAcc
0000010c f3fc                BTRSC    STATUS, C
0000010d facb                INCR     0x34, ToAcc
0000010e f2fc                BTRSC    STATUS, Z
0000010f c6ee                LGOTO    0x111; main.o:_00001_DS_=0x111
00000110 fc51                ADDAR    0x2e, ToReg
00000111                     main.o:_00001_DS_:
00000111 c6c8                LGOTO    0x137; main.o:_00349_DS_=0x137
00000112                     main.o:_00345_DS_:
00000112 defd                MOVIA    0x2
00000113 e0fb                BCR      FSR, BK0
00000114 fbcb                SUBAR    0x34, ToAcc
00000115 f6fc                BTRSS    STATUS, Z
00000116 c6e6                LGOTO    0x119; main.o:_00371_DS_=0x119
00000117 de50                MOVIA    0xaf
00000118 fbcc                SUBAR    0x33, ToAcc
00000119                     main.o:_00371_DS_:
00000119 f3fc                BTRSC    STATUS, C
0000011a c6dc                LGOTO    0x123; main.o:_00342_DS_=0x123
0000011b defe                MOVIA    0x1
0000011c e0fb                BCR      FSR, BK0
0000011d ff43                MOVAR    0x3c
0000011e ded3                MOVIA    0x2c
0000011f ff52                MOVAR    0x2d
00000120 defe                MOVIA    0x1
00000121 ff51                MOVAR    0x2e
00000122 c6c8                LGOTO    0x137; main.o:_00349_DS_=0x137
00000123                     main.o:_00342_DS_:
00000123 defc                MOVIA    0x3
00000124 e0fb                BCR      FSR, BK0
00000125 fbcb                SUBAR    0x34, ToAcc
00000126 f6fc                BTRSS    STATUS, Z
00000127 c6d5                LGOTO    0x12a; main.o:_00372_DS_=0x12a
00000128 de24                MOVIA    0xdb
00000129 fbcc                SUBAR    0x33, ToAcc
0000012a                     main.o:_00372_DS_:
0000012a f3fc                BTRSC    STATUS, C
0000012b c6c8                LGOTO    0x137; main.o:_00349_DS_=0x137
0000012c defe                MOVIA    0x1
0000012d e0fb                BCR      FSR, BK0
0000012e ff43                MOVAR    0x3c
0000012f fecc                MOVR     0x33, ToAcc
00000130 d824                SUBIA    0xdb
00000131 ff52                MOVAR    0x2d
00000132 fecb                MOVR     0x34, ToAcc
00000133 f7fc                BTRSS    STATUS, C
00000134 facb                INCR     0x34, ToAcc
00000135 d8fc                SUBIA    0x3
00000136 ff51                MOVAR    0x2e
00000137                     main.o:_00349_DS_:
00000137 e0fb                BCR      FSR, BK0
00000138 fa4c                INCR     0x33, ToReg
00000139 f2fc                BTRSC    STATUS, Z
0000013a fa4b                INCR     0x34, ToReg
0000013b defc                MOVIA    0x3
0000013c fbcb                SUBAR    0x34, ToAcc
0000013d f6fc                BTRSS    STATUS, Z
0000013e c6be                LGOTO    0x141; main.o:_00373_DS_=0x141
0000013f de23                MOVIA    0xdc
00000140 fbcc                SUBAR    0x33, ToAcc
00000141                     main.o:_00373_DS_:
00000141 f7fc                BTRSS    STATUS, C
00000142 c6b9                LGOTO    0x146; main.o:_00352_DS_=0x146
00000143 e0fb                BCR      FSR, BK0
00000144 fd4c                CLRR     0x33
00000145 fd4b                CLRR     0x34
00000146                     main.o:_00352_DS_:
00000146 ffef                RET
00000147                     _proLow:
00000147 fdff                CLRA
00000148 ffde                SFUN     T1CR1
00000149 e0fb                BCR      FSR, BK0
0000014a fec2                MOVR     0x3d, ToAcc
0000014b ff6f                MOVAR    0x10
0000014c fd6e                CLRR     0x11
0000014d feef                MOVR     0x10, ToAcc
0000014e ff6e                MOVAR    0x11
0000014f fd6f                CLRR     0x10
00000150 ffcf                SFUNR    TMR1
00000151 ff65                MOVAR    0x1a
00000152 fd64                CLRR     0x1b
00000153 fee5                MOVR     0x1a, ToAcc
00000154 d800                SUBIA    0xff
00000155 ff62                MOVAR    0x1d
00000156 deff                MOVIA    0x0
00000157 f3fc                BTRSC    STATUS, C
00000158 c6a5                LGOTO    0x15a; main.o:_00003_DS_=0x15a
00000159 fae4                INCR     0x1b, ToAcc
0000015a                     main.o:_00003_DS_:
0000015a d8ff                SUBIA    0x0
0000015b e0fb                BCR      FSR, BK0
0000015c ff64                MOVAR    0x1b
0000015d fee2                MOVR     0x1d, ToAcc
0000015e ff65                MOVAR    0x1a
0000015f fc6f                ADDAR    0x10, ToReg
00000160 fee4                MOVR     0x1b, ToAcc
00000161 f3fc                BTRSC    STATUS, C
00000162 fae4                INCR     0x1b, ToAcc
00000163 f2fc                BTRSC    STATUS, Z
00000164 c699                LGOTO    0x166; main.o:_00004_DS_=0x166
00000165 fc6e                ADDAR    0x11, ToReg
00000166                     main.o:_00004_DS_:
00000166 e0fb                BCR      FSR, BK0
00000167 fd42                CLRR     0x3d
00000168 de00                MOVIA    0xff
00000169 ffdf                SFUN     TMR1
0000016a defc                MOVIA    0x3
0000016b ffde                SFUN     T1CR1
0000016c defd                MOVIA    0x2
0000016d fbee                SUBAR    0x11, ToAcc
0000016e f6fc                BTRSS    STATUS, Z
0000016f c68d                LGOTO    0x172; main.o:_00215_DS_=0x172
00000170 defa                MOVIA    0x5
00000171 fbef                SUBAR    0x10, ToAcc
00000172                     main.o:_00215_DS_:
00000172 f7fc                BTRSS    STATUS, C
00000173 c679                LGOTO    0x186; main.o:_00195_DS_=0x186
00000174 defd                MOVIA    0x2
00000175 e0fb                BCR      FSR, BK0
00000176 fbee                SUBAR    0x11, ToAcc
00000177 f6fc                BTRSS    STATUS, Z
00000178 c684                LGOTO    0x17b; main.o:_00216_DS_=0x17b
00000179 de83                MOVIA    0x7c
0000017a fbef                SUBAR    0x10, ToAcc
0000017b                     main.o:_00216_DS_:
0000017b f3fc                BTRSC    STATUS, C
0000017c c679                LGOTO    0x186; main.o:_00195_DS_=0x186
0000017d e0fb                BCR      FSR, BK0
0000017e e248                BCR      0x37, 0x3
0000017f e6c8                BSR      0x37, 0x2
00000180 fd49                CLRR     0x36
00000181 fd4a                CLRR     0x35
00000182 e348                BCR      0x37, 0x1
00000183 e3c8                BCR      0x37, 0x0
00000184 e1c8                BCR      0x37, 0x4
00000185 c662                LGOTO    0x19d; main.o:_00198_DS_=0x19d
00000186                     main.o:_00195_DS_:
00000186 e0fb                BCR      FSR, BK0
00000187 f648                BTRSS    0x37, 0x3
00000188 c662                LGOTO    0x19d; main.o:_00198_DS_=0x19d
00000189 deff                MOVIA    0x0
0000018a fbee                SUBAR    0x11, ToAcc
0000018b f6fc                BTRSS    STATUS, Z
0000018c c670                LGOTO    0x18f; main.o:_00217_DS_=0x18f
0000018d dedf                MOVIA    0x20
0000018e fbef                SUBAR    0x10, ToAcc
0000018f                     main.o:_00217_DS_:
0000018f f7fc                BTRSS    STATUS, C
00000190 c663                LGOTO    0x19c; main.o:_00189_DS_=0x19c
00000191 deff                MOVIA    0x0
00000192 e0fb                BCR      FSR, BK0
00000193 fbee                SUBAR    0x11, ToAcc
00000194 f6fc                BTRSS    STATUS, Z
00000195 c667                LGOTO    0x198; main.o:_00218_DS_=0x198
00000196 decc                MOVIA    0x33
00000197 fbef                SUBAR    0x10, ToAcc
00000198                     main.o:_00218_DS_:
00000198 f3fc                BTRSC    STATUS, C
00000199 c663                LGOTO    0x19c; main.o:_00189_DS_=0x19c
0000019a ffff                NOP
0000019b c662                LGOTO    0x19d; main.o:_00198_DS_=0x19d
0000019c                     main.o:_00189_DS_:
0000019c d49a                LCALL    0x365; _cleanData=0x365
0000019d                     main.o:_00198_DS_:
0000019d ffef                RET
0000019e                     _isr:
0000019e ff5d                MOVAR    0x22
0000019f eafc                SWAPR    STATUS, ToAcc
000001a0 fd7c                CLRR     STATUS
000001a1 ff5e                MOVAR    0x21
000001a2 fef5                MOVR     PCHBUF, ToAcc
000001a3 fd75                CLRR     PCHBUF
000001a4 ff5f                MOVAR    0x20
000001a5 fefb                MOVR     FSR, ToAcc
000001a6 e0fb                BCR      FSR, BK0
000001a7 ff57                MOVAR    0x28
000001a8 fed8                MOVR     0x27, ToAcc
000001a9 ff56                MOVAR    0x29
000001aa fed9                MOVR     0x26, ToAcc
000001ab ff55                MOVAR    0x2a
000001ac f670                BTRSS    INTF, T1IF
000001ad c64e                LGOTO    0x1b1; main.o:_00106_DS_=0x1b1
000001ae fa42                INCR     0x3d, ToReg
000001af de08                MOVIA    0xf7
000001b0 ff70                MOVAR    INTF
000001b1                     main.o:_00106_DS_:
000001b1 f7f0                BTRSS    INTF, T0IF
000001b2 c633                LGOTO    0x1cc; main.o:_00114_DS_=0x1cc
000001b3 dec7                MOVIA    0x38
000001b4 fc7e                ADDAR    TMR0, ToReg
000001b5 e0fb                BCR      FSR, BK0
000001b6 fa6c                INCR     0x13, ToReg
000001b7 feec                MOVR     0x13, ToAcc
000001b8 db9b                XORIA    0x64
000001b9 f6fc                BTRSS    STATUS, Z
000001ba c633                LGOTO    0x1cc; main.o:_00114_DS_=0x1cc
000001bb fd6c                CLRR     0x13
000001bc defe                MOVIA    0x1
000001bd ff6d                MOVAR    0x12
000001be fa44                INCR     0x3b, ToReg
000001bf de9a                MOVIA    0x65
000001c0 fbc4                SUBAR    0x3b, ToAcc
000001c1 f7fc                BTRSS    STATUS, C
000001c2 c633                LGOTO    0x1cc; main.o:_00114_DS_=0x1cc
000001c3 fd44                CLRR     0x3b
000001c4 fece                MOVR     0x31, ToAcc
000001c5 eecd                IORAR    0x32, ToAcc
000001c6 f2fc                BTRSC    STATUS, Z
000001c7 c633                LGOTO    0x1cc; main.o:_00114_DS_=0x1cc
000001c8 de00                MOVIA    0xff
000001c9 fc4e                ADDAR    0x31, ToReg
000001ca f7fc                BTRSS    STATUS, C
000001cb f94d                DECR     0x32, ToReg
000001cc                     main.o:_00114_DS_:
000001cc f770                BTRSS    INTF, PBIF
000001cd c62f                LGOTO    0x1d0; main.o:_00116_DS_=0x1d0
000001ce de02                MOVIA    0xfd
000001cf ff70                MOVAR    INTF
000001d0                     main.o:_00116_DS_:
000001d0 fd70                CLRR     INTF
000001d1 e0fb                BCR      FSR, BK0
000001d2 fed5                MOVR     0x2a, ToAcc
000001d3 ff59                MOVAR    0x26
000001d4 fed6                MOVR     0x29, ToAcc
000001d5 ff58                MOVAR    0x27
000001d6 fed7                MOVR     0x28, ToAcc
000001d7 ff7b                MOVAR    FSR
000001d8 fedf                MOVR     0x20, ToAcc
000001d9 ff75                MOVAR    PCHBUF
000001da fd7c                CLRR     STATUS
000001db eade                SWAPR    0x21, ToAcc
000001dc ff7c                MOVAR    STATUS
000001dd ea5d                SWAPR    0x22, ToReg
000001de eadd                SWAPR    0x22, ToAcc
000001df                     main.o:END_OF_INTERRUPT:
000001df ffee                RETIE
000001e0                     _setWorkStep:
000001e0 e0fb                BCR      FSR, BK0
000001e1 fec7                MOVR     0x38, ToAcc
000001e2 f2fc                BTRSC    STATUS, Z
000001e3 c5f8                LGOTO    0x207; main.o:_00480_DS_=0x207
000001e4 fec5                MOVR     0x3a, ToAcc
000001e5 dbfe                XORIA    0x1
000001e6 f6fc                BTRSS    STATUS, Z
000001e7 c600                LGOTO    0x1ff; main.o:_00472_DS_=0x1ff
000001e8 fa47                INCR     0x38, ToReg
000001e9 defc                MOVIA    0x3
000001ea fbc7                SUBAR    0x38, ToAcc
000001eb f7fc                BTRSS    STATUS, C
000001ec c60c                LGOTO    0x1f3; main.o:_00468_DS_=0x1f3
000001ed fd47                CLRR     0x38
000001ee fd4e                CLRR     0x31
000001ef fd4d                CLRR     0x32
000001f0 fd43                CLRR     0x3c
000001f1 decf                MOVIA    0x30
000001f2 ee79                IORAR    PORTB, ToReg
000001f3                     main.o:_00468_DS_:
000001f3 e0fb                BCR      FSR, BK0
000001f4 fec7                MOVR     0x38, ToAcc
000001f5 dbfd                XORIA    0x2
000001f6 f6fc                BTRSS    STATUS, Z
000001f7 c5e3                LGOTO    0x21c; main.o:_00482_DS_=0x21c
000001f8 fd50                CLRR     0x2f
000001f9 fd4f                CLRR     0x30
000001fa fd52                CLRR     0x2d
000001fb fd51                CLRR     0x2e
000001fc fd4c                CLRR     0x33
000001fd fd4b                CLRR     0x34
000001fe c5e3                LGOTO    0x21c; main.o:_00482_DS_=0x21c
000001ff                     main.o:_00472_DS_:
000001ff e0fb                BCR      FSR, BK0
00000200 fd47                CLRR     0x38
00000201 fd4e                CLRR     0x31
00000202 fd4d                CLRR     0x32
00000203 fd43                CLRR     0x3c
00000204 decf                MOVIA    0x30
00000205 ee79                IORAR    PORTB, ToReg
00000206 c5e3                LGOTO    0x21c; main.o:_00482_DS_=0x21c
00000207                     main.o:_00480_DS_:
00000207 defe                MOVIA    0x1
00000208 e0fb                BCR      FSR, BK0
00000209 ff47                MOVAR    0x38
0000020a fd43                CLRR     0x3c
0000020b fec5                MOVR     0x3a, ToAcc
0000020c dbfd                XORIA    0x2
0000020d f6fc                BTRSS    STATUS, Z
0000020e c5eb                LGOTO    0x214; main.o:_00477_DS_=0x214
0000020f dea7                MOVIA    0x58
00000210 ff4e                MOVAR    0x31
00000211 defd                MOVIA    0x2
00000212 ff4d                MOVAR    0x32
00000213 c5e3                LGOTO    0x21c; main.o:_00482_DS_=0x21c
00000214                     main.o:_00477_DS_:
00000214 e0fb                BCR      FSR, BK0
00000215 fec5                MOVR     0x3a, ToAcc
00000216 dbfc                XORIA    0x3
00000217 f6fc                BTRSS    STATUS, Z
00000218 c5e3                LGOTO    0x21c; main.o:_00482_DS_=0x21c
00000219 dee1                MOVIA    0x1e
0000021a ff4e                MOVAR    0x31
0000021b fd4d                CLRR     0x32
0000021c                     main.o:_00482_DS_:
0000021c ffef                RET
0000021d                     _GetOneByte:
0000021d e0fb                BCR      FSR, BK0
0000021e ff62                MOVAR    0x1d
0000021f f648                BTRSS    0x37, 0x3
00000220 c5a6                LGOTO    0x259; main.o:_00240_DS_=0x259
00000221 feca                MOVR     0x35, ToAcc
00000222 f6fc                BTRSS    STATUS, Z
00000223 c5d5                LGOTO    0x22a; main.o:_00224_DS_=0x22a
00000224 fd4a                CLRR     0x35
00000225 fd66                CLRR     0x19
00000226 fd68                CLRR     0x17
00000227 fd69                CLRR     0x16
00000228 fd6a                CLRR     0x15
00000229 fd6b                CLRR     0x14
0000022a                     main.o:_00224_DS_:
0000022a e0fb                BCR      FSR, BK0
0000022b fa4a                INCR     0x35, ToReg
0000022c fee2                MOVR     0x1d, ToAcc
0000022d f2fc                BTRSC    STATUS, Z
0000022e c5cf                LGOTO    0x230; main.o:_00002_DS_=0x230
0000022f e466                BSR      0x19, 0x7
00000230                     main.o:_00002_DS_:
00000230 e0fb                BCR      FSR, BK0
00000231 feca                MOVR     0x35, ToAcc
00000232 dbf7                XORIA    0x8
00000233 f6fc                BTRSS    STATUS, Z
00000234 c5c7                LGOTO    0x238; main.o:_00236_DS_=0x238
00000235 fee6                MOVR     0x19, ToAcc
00000236 ff6b                MOVAR    0x14
00000237 c5a9                LGOTO    0x256; main.o:_00237_DS_=0x256
00000238                     main.o:_00236_DS_:
00000238 e0fb                BCR      FSR, BK0
00000239 feca                MOVR     0x35, ToAcc
0000023a dbef                XORIA    0x10
0000023b f6fc                BTRSS    STATUS, Z
0000023c c5bf                LGOTO    0x240; main.o:_00233_DS_=0x240
0000023d fee6                MOVR     0x19, ToAcc
0000023e ff6a                MOVAR    0x15
0000023f c5a9                LGOTO    0x256; main.o:_00237_DS_=0x256
00000240                     main.o:_00233_DS_:
00000240 e0fb                BCR      FSR, BK0
00000241 feca                MOVR     0x35, ToAcc
00000242 dbe7                XORIA    0x18
00000243 f6fc                BTRSS    STATUS, Z
00000244 c5b7                LGOTO    0x248; main.o:_00230_DS_=0x248
00000245 fee6                MOVR     0x19, ToAcc
00000246 ff69                MOVAR    0x16
00000247 c5a9                LGOTO    0x256; main.o:_00237_DS_=0x256
00000248                     main.o:_00230_DS_:
00000248 e0fb                BCR      FSR, BK0
00000249 feca                MOVR     0x35, ToAcc
0000024a dbdf                XORIA    0x20
0000024b f6fc                BTRSS    STATUS, Z
0000024c c5a9                LGOTO    0x256; main.o:_00237_DS_=0x256
0000024d fee6                MOVR     0x19, ToAcc
0000024e ff68                MOVAR    0x17
0000024f e5c8                BSR      0x37, 0x4
00000250 e348                BCR      0x37, 0x1
00000251 e3c8                BCR      0x37, 0x0
00000252 e248                BCR      0x37, 0x3
00000253 fd4a                CLRR     0x35
00000254 fd54                CLRR     0x2b
00000255 fd53                CLRR     0x2c
00000256                     main.o:_00237_DS_:
00000256 e3fc                BCR      STATUS, C
00000257 e0fb                BCR      FSR, BK0
00000258 ec66                RRR      0x19, ToReg
00000259                     main.o:_00240_DS_:
00000259 ffef                RET
0000025a                     _workCtr:
0000025a e0fb                BCR      FSR, BK0
0000025b fec7                MOVR     0x38, ToAcc
0000025c f6fc                BTRSS    STATUS, Z
0000025d c59f                LGOTO    0x260; main.o:_00394_DS_=0x260
0000025e decf                MOVIA    0x30
0000025f ee79                IORAR    PORTB, ToReg
00000260                     main.o:_00394_DS_:
00000260 e0fb                BCR      FSR, BK0
00000261 fec5                MOVR     0x3a, ToAcc
00000262 dbfe                XORIA    0x1
00000263 f6fc                BTRSS    STATUS, Z
00000264 c58b                LGOTO    0x274; main.o:_00408_DS_=0x274
00000265 fec7                MOVR     0x38, ToAcc
00000266 dbfe                XORIA    0x1
00000267 f6fc                BTRSS    STATUS, Z
00000268 c592                LGOTO    0x26d; main.o:_00398_DS_=0x26d
00000269 fd43                CLRR     0x3c
0000026a de30                MOVIA    0xcf
0000026b ef79                ANDAR    PORTB, ToReg
0000026c c570                LGOTO    0x28f; main.o:_00410_DS_=0x28f
0000026d                     main.o:_00398_DS_:
0000026d e0fb                BCR      FSR, BK0
0000026e fec7                MOVR     0x38, ToAcc
0000026f dbfd                XORIA    0x2
00000270 f6fc                BTRSS    STATUS, Z
00000271 c570                LGOTO    0x28f; main.o:_00410_DS_=0x28f
00000272 d713                LCALL    0xec; _breathCtr=0xec
00000273 c570                LGOTO    0x28f; main.o:_00410_DS_=0x28f
00000274                     main.o:_00408_DS_:
00000274 e0fb                BCR      FSR, BK0
00000275 fec5                MOVR     0x3a, ToAcc
00000276 dbfd                XORIA    0x2
00000277 f2fc                BTRSC    STATUS, Z
00000278 c582                LGOTO    0x27d; main.o:_00404_DS_=0x27d
00000279 fec5                MOVR     0x3a, ToAcc
0000027a dbfc                XORIA    0x3
0000027b f6fc                BTRSS    STATUS, Z
0000027c c570                LGOTO    0x28f; main.o:_00410_DS_=0x28f
0000027d                     main.o:_00404_DS_:
0000027d e0fb                BCR      FSR, BK0
0000027e fece                MOVR     0x31, ToAcc
0000027f eecd                IORAR    0x32, ToAcc
00000280 f2fc                BTRSC    STATUS, Z
00000281 c575                LGOTO    0x28a; main.o:_00401_DS_=0x28a
00000282 fec7                MOVR     0x38, ToAcc
00000283 dbfe                XORIA    0x1
00000284 f6fc                BTRSS    STATUS, Z
00000285 c575                LGOTO    0x28a; main.o:_00401_DS_=0x28a
00000286 de30                MOVIA    0xcf
00000287 ef79                ANDAR    PORTB, ToReg
00000288 fd43                CLRR     0x3c
00000289 c570                LGOTO    0x28f; main.o:_00410_DS_=0x28f
0000028a                     main.o:_00401_DS_:
0000028a e0fb                BCR      FSR, BK0
0000028b fd43                CLRR     0x3c
0000028c fd47                CLRR     0x38
0000028d decf                MOVIA    0x30
0000028e ee79                IORAR    PORTB, ToReg
0000028f                     main.o:_00410_DS_:
0000028f ffef                RET
00000290                     _setIRWorkStep:
00000290 e0fb                BCR      FSR, BK0
00000291 fec5                MOVR     0x3a, ToAcc
00000292 dbfe                XORIA    0x1
00000293 f6fc                BTRSS    STATUS, Z
00000294 c556                LGOTO    0x2a9; main.o:_00460_DS_=0x2a9
00000295 fa47                INCR     0x38, ToReg
00000296 defc                MOVIA    0x3
00000297 fbc7                SUBAR    0x38, ToAcc
00000298 f7fc                BTRSS    STATUS, C
00000299 c562                LGOTO    0x29d; main.o:_00451_DS_=0x29d
0000029a defe                MOVIA    0x1
0000029b ff47                MOVAR    0x38
0000029c fd43                CLRR     0x3c
0000029d                     main.o:_00451_DS_:
0000029d e0fb                BCR      FSR, BK0
0000029e fec7                MOVR     0x38, ToAcc
0000029f dbfd                XORIA    0x2
000002a0 f6fc                BTRSS    STATUS, Z
000002a1 c541                LGOTO    0x2be; main.o:_00462_DS_=0x2be
000002a2 fd50                CLRR     0x2f
000002a3 fd4f                CLRR     0x30
000002a4 fd52                CLRR     0x2d
000002a5 fd51                CLRR     0x2e
000002a6 fd4c                CLRR     0x33
000002a7 fd4b                CLRR     0x34
000002a8 c541                LGOTO    0x2be; main.o:_00462_DS_=0x2be
000002a9                     main.o:_00460_DS_:
000002a9 defe                MOVIA    0x1
000002aa e0fb                BCR      FSR, BK0
000002ab ff47                MOVAR    0x38
000002ac fd43                CLRR     0x3c
000002ad fec5                MOVR     0x3a, ToAcc
000002ae dbfd                XORIA    0x2
000002af f6fc                BTRSS    STATUS, Z
000002b0 c549                LGOTO    0x2b6; main.o:_00457_DS_=0x2b6
000002b1 dea7                MOVIA    0x58
000002b2 ff4e                MOVAR    0x31
000002b3 defd                MOVIA    0x2
000002b4 ff4d                MOVAR    0x32
000002b5 c541                LGOTO    0x2be; main.o:_00462_DS_=0x2be
000002b6                     main.o:_00457_DS_:
000002b6 e0fb                BCR      FSR, BK0
000002b7 fec5                MOVR     0x3a, ToAcc
000002b8 dbfc                XORIA    0x3
000002b9 f6fc                BTRSS    STATUS, Z
000002ba c541                LGOTO    0x2be; main.o:_00462_DS_=0x2be
000002bb dee1                MOVIA    0x1e
000002bc ff4e                MOVAR    0x31
000002bd fd4d                CLRR     0x32
000002be                     main.o:_00462_DS_:
000002be ffef                RET
000002bf                     _setPWMduty:
000002bf e0fb                BCR      FSR, BK0
000002c0 fed1                MOVR     0x2e, ToAcc
000002c1 fbcf                SUBAR    0x30, ToAcc
000002c2 f6fc                BTRSS    STATUS, Z
000002c3 c539                LGOTO    0x2c6; main.o:_00507_DS_=0x2c6
000002c4 fed2                MOVR     0x2d, ToAcc
000002c5 fbd0                SUBAR    0x2f, ToAcc
000002c6                     main.o:_00507_DS_:
000002c6 f3fc                BTRSC    STATUS, C
000002c7 c534                LGOTO    0x2cb; main.o:_00495_DS_=0x2cb
000002c8 decf                MOVIA    0x30
000002c9 ee79                IORAR    PORTB, ToReg
000002ca c532                LGOTO    0x2cd; main.o:_00496_DS_=0x2cd
000002cb                     main.o:_00495_DS_:
000002cb de30                MOVIA    0xcf
000002cc ef79                ANDAR    PORTB, ToReg
000002cd                     main.o:_00496_DS_:
000002cd e0fb                BCR      FSR, BK0
000002ce fa50                INCR     0x2f, ToReg
000002cf f2fc                BTRSC    STATUS, Z
000002d0 fa4f                INCR     0x30, ToReg
000002d1 defe                MOVIA    0x1
000002d2 fbcf                SUBAR    0x30, ToAcc
000002d3 f6fc                BTRSS    STATUS, Z
000002d4 c528                LGOTO    0x2d7; main.o:_00508_DS_=0x2d7
000002d5 dec5                MOVIA    0x3a
000002d6 fbd0                SUBAR    0x2f, ToAcc
000002d7                     main.o:_00508_DS_:
000002d7 f7fc                BTRSS    STATUS, C
000002d8 c523                LGOTO    0x2dc; main.o:_00499_DS_=0x2dc
000002d9 e0fb                BCR      FSR, BK0
000002da fd50                CLRR     0x2f
000002db fd4f                CLRR     0x30
000002dc                     main.o:_00499_DS_:
000002dc ffef                RET
000002dd                     _keyRead:
000002dd e0fb                BCR      FSR, BK0
000002de ff61                MOVAR    0x1e
000002df fee1                MOVR     0x1e, ToAcc
000002e0 f2fc                BTRSC    STATUS, Z
000002e1 c513                LGOTO    0x2ec; main.o:_00443_DS_=0x2ec
000002e2 fa46                INCR     0x39, ToReg
000002e3 fd54                CLRR     0x2b
000002e4 fd53                CLRR     0x2c
000002e5 de37                MOVIA    0xc8
000002e6 fbc6                SUBAR    0x39, ToAcc
000002e7 f7fc                BTRSS    STATUS, C
000002e8 c509                LGOTO    0x2f6; main.o:_00444_DS_=0x2f6
000002e9 de37                MOVIA    0xc8
000002ea ff46                MOVAR    0x39
000002eb c509                LGOTO    0x2f6; main.o:_00444_DS_=0x2f6
000002ec                     main.o:_00443_DS_:
000002ec def7                MOVIA    0x8
000002ed e0fb                BCR      FSR, BK0
000002ee fbc6                SUBAR    0x39, ToAcc
000002ef f7fc                BTRSS    STATUS, C
000002f0 c50b                LGOTO    0x2f4; main.o:_00441_DS_=0x2f4
000002f1 fd46                CLRR     0x39
000002f2 defe                MOVIA    0x1
000002f3 c508                LGOTO    0x2f7; main.o:_00445_DS_=0x2f7
000002f4                     main.o:_00441_DS_:
000002f4 e0fb                BCR      FSR, BK0
000002f5 fd46                CLRR     0x39
000002f6                     main.o:_00444_DS_:
000002f6 deff                MOVIA    0x0
000002f7                     main.o:_00445_DS_:
000002f7 ffef                RET
000002f8                     _proData:
000002f8 e0fb                BCR      FSR, BK0
000002f9 f8e8                COMR     0x17, ToAcc
000002fa ff67                MOVAR    0x18
000002fb ede9                XORAR    0x16, ToAcc
000002fc f6fc                BTRSS    STATUS, Z
000002fd c4f0                LGOTO    0x30f; main.o:_00249_DS_=0x30f
000002fe fee7                MOVR     0x18, ToAcc
000002ff dbea                XORIA    0x15
00000300 f2fc                BTRSC    STATUS, Z
00000301 c4f7                LGOTO    0x308; main.o:_00246_DS_=0x308
00000302 fee7                MOVR     0x18, ToAcc
00000303 dbb9                XORIA    0x46
00000304 f6fc                BTRSS    STATUS, Z
00000305 c4f0                LGOTO    0x30f; main.o:_00249_DS_=0x30f
00000306 d56f                LCALL    0x290; _setIRWorkStep=0x290
00000307 c4f0                LGOTO    0x30f; main.o:_00249_DS_=0x30f
00000308                     main.o:_00246_DS_:
00000308 e0fb                BCR      FSR, BK0
00000309 fd47                CLRR     0x38
0000030a fd4e                CLRR     0x31
0000030b fd4d                CLRR     0x32
0000030c fd43                CLRR     0x3c
0000030d decf                MOVIA    0x30
0000030e ee79                IORAR    PORTB, ToReg
0000030f                     main.o:_00249_DS_:
0000030f e0fb                BCR      FSR, BK0
00000310 e1c8                BCR      0x37, 0x4
00000311 ffef                RET
00000312                     _setModeStep:
00000312 f779                BTRSS    PORTB, PB1
00000313 c4e5                LGOTO    0x31a; main.o:_00385_DS_=0x31a
00000314 f6f9                BTRSS    PORTB, PB2
00000315 c4e5                LGOTO    0x31a; main.o:_00385_DS_=0x31a
00000316 defe                MOVIA    0x1
00000317 e0fb                BCR      FSR, BK0
00000318 ff45                MOVAR    0x3a
00000319 c4d5                LGOTO    0x32a; main.o:_00388_DS_=0x32a
0000031a                     main.o:_00385_DS_:
0000031a f6f9                BTRSS    PORTB, PB2
0000031b c4de                LGOTO    0x321; main.o:_00382_DS_=0x321
0000031c e0fb                BCR      FSR, BK0
0000031d fd43                CLRR     0x3c
0000031e defd                MOVIA    0x2
0000031f ff45                MOVAR    0x3a
00000320 c4d5                LGOTO    0x32a; main.o:_00388_DS_=0x32a
00000321                     main.o:_00382_DS_:
00000321 f779                BTRSS    PORTB, PB1
00000322 c4d7                LGOTO    0x328; main.o:_00379_DS_=0x328
00000323 e0fb                BCR      FSR, BK0
00000324 fd43                CLRR     0x3c
00000325 defc                MOVIA    0x3
00000326 ff45                MOVAR    0x3a
00000327 c4d5                LGOTO    0x32a; main.o:_00388_DS_=0x32a
00000328                     main.o:_00379_DS_:
00000328 e0fb                BCR      FSR, BK0
00000329 fd45                CLRR     0x3a
0000032a                     main.o:_00388_DS_:
0000032a ffef                RET
0000032b                     _gotoSleep:
0000032b e0fb                BCR      FSR, BK0
0000032c fd54                CLRR     0x2b
0000032d fd53                CLRR     0x2c
0000032e fd47                CLRR     0x38
0000032f def6                MOVIA    0x9
00000330 ff76                MOVAR    BWUCON
00000331 decf                MOVIA    0x30
00000332 ff79                MOVAR    PORTB
00000333 def4                MOVIA    0xb
00000334 ff71                MOVAR    INTE
00000335 def7                MOVIA    0x8
00000336 ff77                MOVAR    PCON
00000337 fd70                CLRR     INTF
00000338 fffd                CLRWDT
00000339 fffe                SLEEP
0000033a def4                MOVIA    0xb
0000033b ff71                MOVAR    INTE
0000033c fd70                CLRR     INTF
0000033d de7f                MOVIA    0x80
0000033e ff77                MOVAR    PCON
0000033f fd49                CLRR     0x36
00000340 fd4a                CLRR     0x35
00000341 fd66                CLRR     0x19
00000342 ffef                RET
00000343                     ___cinit_load__:
00000343 e0fb                BCR      FSR, BK0
00000344 fd4a                CLRR     0x35
00000345 fd49                CLRR     0x36
00000346 fd54                CLRR     0x2b
00000347 fd53                CLRR     0x2c
00000348 fd48                CLRR     0x37
00000349 fd47                CLRR     0x38
0000034a fd46                CLRR     0x39
0000034b fd52                CLRR     0x2d
0000034c fd51                CLRR     0x2e
0000034d fd50                CLRR     0x2f
0000034e fd4f                CLRR     0x30
0000034f fd45                CLRR     0x3a
00000350 fd44                CLRR     0x3b
00000351 fd4e                CLRR     0x31
00000352 fd4d                CLRR     0x32
00000353 fd4c                CLRR     0x33
00000354 fd4b                CLRR     0x34
00000355 fd43                CLRR     0x3c
00000356 fd42                CLRR     0x3d
00000357 ffef                RET
00000358                     _keyCtr:
00000358 f8f9                COMR     PORTB, ToAcc
00000359 e0fb                BCR      FSR, BK0
0000035a ff60                MOVAR    0x1f
0000035b defe                MOVIA    0x1
0000035c ef60                ANDAR    0x1f, ToReg
0000035d fee0                MOVR     0x1f, ToAcc
0000035e d522                LCALL    0x2dd; _keyRead=0x2dd
0000035f e0fb                BCR      FSR, BK0
00000360 ff60                MOVAR    0x1f
00000361 dbfe                XORIA    0x1
00000362 f2fc                BTRSC    STATUS, Z
00000363 d61f                LCALL    0x1e0; _setWorkStep=0x1e0
00000364 ffef                RET
00000365                     _cleanData:
00000365 e0fb                BCR      FSR, BK0
00000366 e2c8                BCR      0x37, 0x2
00000367 e248                BCR      0x37, 0x3
00000368 fd49                CLRR     0x36
00000369 fd4a                CLRR     0x35
0000036a e348                BCR      0x37, 0x1
0000036b e3c8                BCR      0x37, 0x0
0000036c e1c8                BCR      0x37, 0x4
0000036d ffef                RET

