00000000 c7f6                 LGOTO 0x9; crt0.o:initial_ram_bss=0x9
00000001                      _ScanKey_Config:
00000001 defe                 MOVIA 0x1
00000002 ff5f                 MOVAR 0x20
00000003 fd5e                 CLRR 0x21
00000004 fd5d                 CLRR 0x22
00000005 fd5c                 CLRR 0x23
00000006 ffef                 RET
00000008 c2aa                 LGOTO 0x555; main.o:__sdcc_interrupt=0x555
00000009                      crt0.o:initial_ram_bss:
00000009 dedf                 MOVIA 0x20
0000000a ff7b                 MOVAR 0x4
0000000b de7f                 MOVIA 0x80
0000000c                      crt0.o:.l0:
0000000c fd7f                 CLRR 0x0
0000000d fa7b                 INCR 0x4, 0x1
0000000e c97b                 CMPAR 0x4
0000000f f6fc                 BTRSS 0x3, 0x2
00000010 c7f3                 LGOTO 0xc; crt0.o:.l0=0xc
00000011                      crt0.o:initial_ram_cinit:
00000011 d20f                 LCALL 0x5f0; ___cinit_load__=0x5f0
00000012 c261                 LGOTO 0x59e; _main=0x59e
00000013                      WS281x_Drive.o:LED_TWINKLE_Q:
00000013 ff3e                 MOVAR 0x41
00000014 def7                 MOVIA 0x8
00000015 ff3f                 MOVAR 0x40
00000016                      WS281x_Drive.o:LED_TWINKLE_Q_LOOP:
00000016 e57a                 BSR 0x5, 0x5
00000017 e57a                 BSR 0x5, 0x5
00000018 e57a                 BSR 0x5, 0x5
00000019                      ___cinit_size__:
00000019 f43e                 BTRSS 0x41, 0x7
0000001a e17a                 BCR 0x5, 0x5
0000001b f03e                 BTRSC 0x41, 0x7
0000001c e57a                 BSR 0x5, 0x5
0000001d ffff                 NOP
0000001e e17a                 BCR 0x5, 0x5
0000001f eb3e                 RLR 0x41, 0x1
00000020 e83f                 DECRSZ 0x40, 0x1
00000021 c7e9                 LGOTO 0x16; WS281x_Drive.o:LED_TWINKLE_Q_LOOP=0x16
00000022 ffef                 RET
00000023                      _ScanKey:
00000023 ff55                 MOVAR 0x2a
00000024 feb0                 MOVR 0x4f, 0x0
00000025 ff56                 MOVAR 0x29
00000026 feb1                 MOVR 0x4e, 0x0
00000027 ff57                 MOVAR 0x28
00000028 fd54                 CLRR 0x2b
00000029 defe                 MOVIA 0x1
0000002a fcd7                 ADDAR 0x28, 0x0
0000002b ff53                 MOVAR 0x2c
0000002c fd52                 CLRR 0x2d
0000002d eb52                 RLR 0x2d, 0x1
0000002e fed6                 MOVR 0x29, 0x0
0000002f fc52                 ADDAR 0x2d, 0x1
00000030 fd51                 CLRR 0x2e
00000031 eb51                 RLR 0x2e, 0x1
00000032 fed5                 MOVR 0x2a, 0x0
00000033 fc51                 ADDAR 0x2e, 0x1
00000034 fed3                 MOVR 0x2c, 0x0
00000035 ff31                 MOVAR 0x4e
00000036 fed2                 MOVR 0x2d, 0x0
00000037 ff30                 MOVAR 0x4f
00000038 fed1                 MOVR 0x2e, 0x0
00000039 d24e                 LCALL 0x5b1; __gptrget2=0x5b1
0000003a ff4f                 MOVAR 0x30
0000003b feb0                 MOVR 0x4f, 0x0
0000003c ff50                 MOVAR 0x2f
0000003d fa50                 INCR 0x2f, 0x1
0000003e f6fc                 BTRSS 0x3, 0x2
0000003f c7be                 LGOTO 0x41; scankey.o:_00001_DS_=0x41
00000040 fa4f                 INCR 0x30, 0x1
00000041                      scankey.o:_00001_DS_:
00000041 fecf                 MOVR 0x30, 0x0
00000042 ff32                 MOVAR 0x4d
00000043 fed0                 MOVR 0x2f, 0x0
00000044 ff33                 MOVAR 0x4c
00000045 fed3                 MOVR 0x2c, 0x0
00000046 ff31                 MOVAR 0x4e
00000047 fed2                 MOVR 0x2d, 0x0
00000048 ff30                 MOVAR 0x4f
00000049 fed1                 MOVR 0x2e, 0x0
0000004a d234                 LCALL 0x5cb; __gptrput2=0x5cb
0000004b fed7                 MOVR 0x28, 0x0
0000004c ff31                 MOVAR 0x4e
0000004d fed6                 MOVR 0x29, 0x0
0000004e ff30                 MOVAR 0x4f
0000004f fed5                 MOVR 0x2a, 0x0
00000050 d228                 LCALL 0x5d7; __gptrget=0x5d7
00000051 ff50                 MOVAR 0x2f
00000052 dbfe                 XORIA 0x1
00000053 f6fc                 BTRSS 0x3, 0x2
00000054 c7a5                 LGOTO 0x5a; scankey.o:_00121_DS_=0x5a
00000055 fd50                 CLRR 0x2f
00000056 f07a                 BTRSC 0x5, 0x7
00000057 fa50                 INCR 0x2f, 0x1
00000058 fed0                 MOVR 0x2f, 0x0
00000059 ff54                 MOVAR 0x2b
0000005a                      scankey.o:_00121_DS_:
0000005a defc                 MOVIA 0x3
0000005b fcd7                 ADDAR 0x28, 0x0
0000005c ff50                 MOVAR 0x2f
0000005d fd4f                 CLRR 0x30
0000005e eb4f                 RLR 0x30, 0x1
0000005f fed6                 MOVR 0x29, 0x0
00000060 fc4f                 ADDAR 0x30, 0x1
00000061 fd4e                 CLRR 0x31
00000062 eb4e                 RLR 0x31, 0x1
00000063 fed5                 MOVR 0x2a, 0x0
00000064 fc4e                 ADDAR 0x31, 0x1
00000065 fed0                 MOVR 0x2f, 0x0
00000066 ff31                 MOVAR 0x4e
00000067 fecf                 MOVR 0x30, 0x0
00000068 ff30                 MOVAR 0x4f
00000069 fece                 MOVR 0x31, 0x0
0000006a d228                 LCALL 0x5d7; __gptrget=0x5d7
0000006b ff4d                 MOVAR 0x32
0000006c defb                 MOVIA 0x4
0000006d fbcd                 SUBAR 0x32, 0x0
0000006e f3fc                 BTRSC 0x3, 0x0
0000006f c6d3                 LGOTO 0x12c; scankey.o:_00142_DS_=0x12c
00000070 deff                 MOVIA 0x0
00000071 ff75                 MOVAR 0xa
00000072 fecd                 MOVR 0x32, 0x0
00000073 da88                 ADDIA 0x77
00000074 f3fc                 BTRSC 0x3, 0x0
00000075 fa75                 INCR 0xa, 0x1
00000076 ff7d                 MOVAR 0x2
00000077                      scankey.o:_00169_DS_:
00000077 c784                 LGOTO 0x7b; scankey.o:_00122_DS_=0x7b
00000078 c766                 LGOTO 0x99; scankey.o:_00126_DS_=0x99
00000079 c748                 LGOTO 0xb7; scankey.o:_00130_DS_=0xb7
0000007a c6f9                 LGOTO 0x106; scankey.o:_00136_DS_=0x106
0000007b                      scankey.o:_00122_DS_:
0000007b fed4                 MOVR 0x2b, 0x0
0000007c f6fc                 BTRSS 0x3, 0x2
0000007d c76f                 LGOTO 0x90; scankey.o:_00124_DS_=0x90
0000007e deff                 MOVIA 0x0
0000007f ff32                 MOVAR 0x4d
00000080 ff33                 MOVAR 0x4c
00000081 fed3                 MOVR 0x2c, 0x0
00000082 ff31                 MOVAR 0x4e
00000083 fed2                 MOVR 0x2d, 0x0
00000084 ff30                 MOVAR 0x4f
00000085 fed1                 MOVR 0x2e, 0x0
00000086 d234                 LCALL 0x5cb; __gptrput2=0x5cb
00000087 defe                 MOVIA 0x1
00000088 ff32                 MOVAR 0x4d
00000089 fed0                 MOVR 0x2f, 0x0
0000008a ff31                 MOVAR 0x4e
0000008b fecf                 MOVR 0x30, 0x0
0000008c ff30                 MOVAR 0x4f
0000008d fece                 MOVR 0x31, 0x0
0000008e d218                 LCALL 0x5e7; __gptrput=0x5e7
0000008f c6d3                 LGOTO 0x12c; scankey.o:_00142_DS_=0x12c
00000090                      scankey.o:_00124_DS_:
00000090 deff                 MOVIA 0x0
00000091 ff32                 MOVAR 0x4d
00000092 fed0                 MOVR 0x2f, 0x0
00000093 ff31                 MOVAR 0x4e
00000094 fecf                 MOVR 0x30, 0x0
00000095 ff30                 MOVAR 0x4f
00000096 fece                 MOVR 0x31, 0x0
00000097 d218                 LCALL 0x5e7; __gptrput=0x5e7
00000098 c6d3                 LGOTO 0x12c; scankey.o:_00142_DS_=0x12c
00000099                      scankey.o:_00126_DS_:
00000099 fed4                 MOVR 0x2b, 0x0
0000009a f6fc                 BTRSS 0x3, 0x2
0000009b c751                 LGOTO 0xae; scankey.o:_00128_DS_=0xae
0000009c deff                 MOVIA 0x0
0000009d ff32                 MOVAR 0x4d
0000009e ff33                 MOVAR 0x4c
0000009f fed3                 MOVR 0x2c, 0x0
000000a0 ff31                 MOVAR 0x4e
000000a1 fed2                 MOVR 0x2d, 0x0
000000a2 ff30                 MOVAR 0x4f
000000a3 fed1                 MOVR 0x2e, 0x0
000000a4 d234                 LCALL 0x5cb; __gptrput2=0x5cb
000000a5 defd                 MOVIA 0x2
000000a6 ff32                 MOVAR 0x4d
000000a7 fed0                 MOVR 0x2f, 0x0
000000a8 ff31                 MOVAR 0x4e
000000a9 fecf                 MOVR 0x30, 0x0
000000aa ff30                 MOVAR 0x4f
000000ab fece                 MOVR 0x31, 0x0
000000ac d218                 LCALL 0x5e7; __gptrput=0x5e7
000000ad c6d3                 LGOTO 0x12c; scankey.o:_00142_DS_=0x12c
000000ae                      scankey.o:_00128_DS_:
000000ae deff                 MOVIA 0x0
000000af ff32                 MOVAR 0x4d
000000b0 fed0                 MOVR 0x2f, 0x0
000000b1 ff31                 MOVAR 0x4e
000000b2 fecf                 MOVR 0x30, 0x0
000000b3 ff30                 MOVAR 0x4f
000000b4 fece                 MOVR 0x31, 0x0
000000b5 d218                 LCALL 0x5e7; __gptrput=0x5e7
000000b6 c6d3                 LGOTO 0x12c; scankey.o:_00142_DS_=0x12c
000000b7                      scankey.o:_00130_DS_:
000000b7 fed4                 MOVR 0x2b, 0x0
000000b8 dbfe                 XORIA 0x1
000000b9 f6fc                 BTRSS 0x3, 0x2
000000ba c727                 LGOTO 0xd8; scankey.o:_00134_DS_=0xd8
000000bb deff                 MOVIA 0x0
000000bc ff32                 MOVAR 0x4d
000000bd ff33                 MOVAR 0x4c
000000be fed3                 MOVR 0x2c, 0x0
000000bf ff31                 MOVAR 0x4e
000000c0 fed2                 MOVR 0x2d, 0x0
000000c1 ff30                 MOVAR 0x4f
000000c2 fed1                 MOVR 0x2e, 0x0
000000c3 d234                 LCALL 0x5cb; __gptrput2=0x5cb
000000c4 deff                 MOVIA 0x0
000000c5 ff32                 MOVAR 0x4d
000000c6 fed0                 MOVR 0x2f, 0x0
000000c7 ff31                 MOVAR 0x4e
000000c8 fecf                 MOVR 0x30, 0x0
000000c9 ff30                 MOVAR 0x4f
000000ca fece                 MOVR 0x31, 0x0
000000cb d218                 LCALL 0x5e7; __gptrput=0x5e7
000000cc fed7                 MOVR 0x28, 0x0
000000cd ff31                 MOVAR 0x4e
000000ce fed6                 MOVR 0x29, 0x0
000000cf ff30                 MOVAR 0x4f
000000d0 fed5                 MOVR 0x2a, 0x0
000000d1 d228                 LCALL 0x5d7; __gptrget=0x5d7
000000d2 ff4d                 MOVAR 0x32
000000d3 deff                 MOVIA 0x0
000000d4 ff30                 MOVAR 0x4f
000000d5 fecd                 MOVR 0x32, 0x0
000000d6 d6d2                 LCALL 0x12d; _KEY_Proess=0x12d
000000d7 c6d3                 LGOTO 0x12c; scankey.o:_00142_DS_=0x12c
000000d8                      scankey.o:_00134_DS_:
000000d8 fed3                 MOVR 0x2c, 0x0
000000d9 ff31                 MOVAR 0x4e
000000da fed2                 MOVR 0x2d, 0x0
000000db ff30                 MOVAR 0x4f
000000dc fed1                 MOVR 0x2e, 0x0
000000dd d24e                 LCALL 0x5b1; __gptrget2=0x5b1
000000de ff4c                 MOVAR 0x33
000000df feb0                 MOVR 0x4f, 0x0
000000e0 ff4d                 MOVAR 0x32
000000e1 deff                 MOVIA 0x0
000000e2 fbcc                 SUBAR 0x33, 0x0
000000e3 f6fc                 BTRSS 0x3, 0x2
000000e4 c718                 LGOTO 0xe7; scankey.o:_00170_DS_=0xe7
000000e5 de9b                 MOVIA 0x64
000000e6 fbcd                 SUBAR 0x32, 0x0
000000e7                      scankey.o:_00170_DS_:
000000e7 f7fc                 BTRSS 0x3, 0x0
000000e8 c6d3                 LGOTO 0x12c; scankey.o:_00142_DS_=0x12c
000000e9 deff                 MOVIA 0x0
000000ea ff32                 MOVAR 0x4d
000000eb ff33                 MOVAR 0x4c
000000ec fed3                 MOVR 0x2c, 0x0
000000ed ff31                 MOVAR 0x4e
000000ee fed2                 MOVR 0x2d, 0x0
000000ef ff30                 MOVAR 0x4f
000000f0 fed1                 MOVR 0x2e, 0x0
000000f1 d234                 LCALL 0x5cb; __gptrput2=0x5cb
000000f2 defc                 MOVIA 0x3
000000f3 ff32                 MOVAR 0x4d
000000f4 fed0                 MOVR 0x2f, 0x0
000000f5 ff31                 MOVAR 0x4e
000000f6 fecf                 MOVR 0x30, 0x0
000000f7 ff30                 MOVAR 0x4f
000000f8 fece                 MOVR 0x31, 0x0
000000f9 d218                 LCALL 0x5e7; __gptrput=0x5e7
000000fa fed7                 MOVR 0x28, 0x0
000000fb ff31                 MOVAR 0x4e
000000fc fed6                 MOVR 0x29, 0x0
000000fd ff30                 MOVAR 0x4f
000000fe fed5                 MOVR 0x2a, 0x0
000000ff d228                 LCALL 0x5d7; __gptrget=0x5d7
00000100 ff4d                 MOVAR 0x32
00000101 defe                 MOVIA 0x1
00000102 ff30                 MOVAR 0x4f
00000103 fecd                 MOVR 0x32, 0x0
00000104 d6d2                 LCALL 0x12d; _KEY_Proess=0x12d
00000105 c6d3                 LGOTO 0x12c; scankey.o:_00142_DS_=0x12c
00000106                      scankey.o:_00136_DS_:
00000106 fed3                 MOVR 0x2c, 0x0
00000107 ff31                 MOVAR 0x4e
00000108 fed2                 MOVR 0x2d, 0x0
00000109 ff30                 MOVAR 0x4f
0000010a fed1                 MOVR 0x2e, 0x0
0000010b d24e                 LCALL 0x5b1; __gptrget2=0x5b1
0000010c ff56                 MOVAR 0x29
0000010d feb0                 MOVR 0x4f, 0x0
0000010e ff57                 MOVAR 0x28
0000010f deff                 MOVIA 0x0
00000110 fbd6                 SUBAR 0x29, 0x0
00000111 f6fc                 BTRSS 0x3, 0x2
00000112 c6ea                 LGOTO 0x115; scankey.o:_00171_DS_=0x115
00000113 def5                 MOVIA 0xa
00000114 fbd7                 SUBAR 0x28, 0x0
00000115                      scankey.o:_00171_DS_:
00000115 f7fc                 BTRSS 0x3, 0x0
00000116 c6d3                 LGOTO 0x12c; scankey.o:_00142_DS_=0x12c
00000117 deff                 MOVIA 0x0
00000118 ff32                 MOVAR 0x4d
00000119 ff33                 MOVAR 0x4c
0000011a fed3                 MOVR 0x2c, 0x0
0000011b ff31                 MOVAR 0x4e
0000011c fed2                 MOVR 0x2d, 0x0
0000011d ff30                 MOVAR 0x4f
0000011e fed1                 MOVR 0x2e, 0x0
0000011f d234                 LCALL 0x5cb; __gptrput2=0x5cb
00000120 fed4                 MOVR 0x2b, 0x0
00000121 dbfe                 XORIA 0x1
00000122 f6fc                 BTRSS 0x3, 0x2
00000123 c6d3                 LGOTO 0x12c; scankey.o:_00142_DS_=0x12c
00000124 deff                 MOVIA 0x0
00000125 ff32                 MOVAR 0x4d
00000126 fed0                 MOVR 0x2f, 0x0
00000127 ff31                 MOVAR 0x4e
00000128 fecf                 MOVR 0x30, 0x0
00000129 ff30                 MOVAR 0x4f
0000012a fece                 MOVR 0x31, 0x0
0000012b d218                 LCALL 0x5e7; __gptrput=0x5e7
0000012c                      scankey.o:_00142_DS_:
0000012c ffef                 RET
0000012d                      _KEY_Proess:
0000012d ff59                 MOVAR 0x26
0000012e feb0                 MOVR 0x4f, 0x0
0000012f ff58                 MOVAR 0x27
00000130 fed9                 MOVR 0x26, 0x0
00000131 dbfe                 XORIA 0x1
00000132 f6fc                 BTRSS 0x3, 0x2
00000133 c6b9                 LGOTO 0x146; scankey.o:_00111_DS_=0x146
00000134 fed8                 MOVR 0x27, 0x0
00000135 f6fc                 BTRSS 0x3, 0x2
00000136 c6b9                 LGOTO 0x146; scankey.o:_00111_DS_=0x146
00000137 de37                 MOVIA 0xc8
00000138 fc1f                 ADDAR 0x60, 0x1
00000139 f3fc                 BTRSC 0x3, 0x0
0000013a fa1e                 INCR 0x61, 0x1
0000013b fe9f                 MOVR 0x60, 0x0
0000013c dbb3                 XORIA 0x4c
0000013d f6fc                 BTRSS 0x3, 0x2
0000013e c6b9                 LGOTO 0x146; scankey.o:_00111_DS_=0x146
0000013f fe9e                 MOVR 0x61, 0x0
00000140 dbfb                 XORIA 0x4
00000141 f6fc                 BTRSS 0x3, 0x2
00000142 c6b9                 LGOTO 0x146; scankey.o:_00111_DS_=0x146
00000143 de9b                 MOVIA 0x64
00000144 ff1f                 MOVAR 0x60
00000145 fd1e                 CLRR 0x61
00000146                      scankey.o:_00111_DS_:
00000146 ffef                 RET
00000147                      _IR_Decode:
00000147 fe93                 MOVR 0x6c, 0x0
00000148 f6fc                 BTRSS 0x3, 0x2
00000149 c6ad                 LGOTO 0x152; IR_Decode.o:_00153_DS_=0x152
0000014a fa13                 INCR 0x6c, 0x1
0000014b fd14                 CLRR 0x6b
0000014c de69                 MOVIA 0x96
0000014d ff17                 MOVAR 0x68
0000014e fee0                 MOVR 0x1f, 0x0
0000014f dc0e                 IORIA 0xf1
00000150 ff60                 MOVAR 0x1f
00000151 c669                 LGOTO 0x196; IR_Decode.o:_00173_DS_=0x196
00000152                      IR_Decode.o:_00153_DS_:
00000152 fe93                 MOVR 0x6c, 0x0
00000153 dbfe                 XORIA 0x1
00000154 f6fc                 BTRSS 0x3, 0x2
00000155 c69b                 LGOTO 0x164; IR_Decode.o:_00159_DS_=0x164
00000156 dea5                 MOVIA 0x5a
00000157 fb94                 SUBAR 0x6b, 0x0
00000158 f7fc                 BTRSS 0x3, 0x0
00000159 c69d                 LGOTO 0x162; IR_Decode.o:_00155_DS_=0x162
0000015a de68                 MOVIA 0x97
0000015b fb94                 SUBAR 0x6b, 0x0
0000015c f3fc                 BTRSC 0x3, 0x0
0000015d c69d                 LGOTO 0x162; IR_Decode.o:_00155_DS_=0x162
0000015e fd14                 CLRR 0x6b
0000015f fa13                 INCR 0x6c, 0x1
00000160 e271                 BCR 0xe, 0x3
00000161 c669                 LGOTO 0x196; IR_Decode.o:_00173_DS_=0x196
00000162                      IR_Decode.o:_00155_DS_:
00000162 fd13                 CLRR 0x6c
00000163 fd14                 CLRR 0x6b
00000164                      IR_Decode.o:_00159_DS_:
00000164 defd                 MOVIA 0x2
00000165 fb93                 SUBAR 0x6c, 0x0
00000166 f7fc                 BTRSS 0x3, 0x0
00000167 c669                 LGOTO 0x196; IR_Decode.o:_00173_DS_=0x196
00000168 dedd                 MOVIA 0x22
00000169 fb93                 SUBAR 0x6c, 0x0
0000016a f3fc                 BTRSC 0x3, 0x0
0000016b c669                 LGOTO 0x196; IR_Decode.o:_00173_DS_=0x196
0000016c defa                 MOVIA 0x5
0000016d fb94                 SUBAR 0x6b, 0x0
0000016e f7fc                 BTRSS 0x3, 0x0
0000016f c689                 LGOTO 0x176; IR_Decode.o:_00164_DS_=0x176
00000170 deea                 MOVIA 0x15
00000171 fb94                 SUBAR 0x6b, 0x0
00000172 f3fc                 BTRSC 0x3, 0x0
00000173 c689                 LGOTO 0x176; IR_Decode.o:_00164_DS_=0x176
00000174 e015                 BCR 0x6a, 0x7
00000175 c680                 LGOTO 0x17f; IR_Decode.o:_00001_DS_=0x17f
00000176                      IR_Decode.o:_00164_DS_:
00000176 deea                 MOVIA 0x15
00000177 fb94                 SUBAR 0x6b, 0x0
00000178 f7fc                 BTRSS 0x3, 0x0
00000179 c680                 LGOTO 0x17f; IR_Decode.o:_00001_DS_=0x17f
0000017a dee0                 MOVIA 0x1f
0000017b fb94                 SUBAR 0x6b, 0x0
0000017c f3fc                 BTRSC 0x3, 0x0
0000017d c680                 LGOTO 0x17f; IR_Decode.o:_00001_DS_=0x17f
0000017e e415                 BSR 0x6a, 0x7
0000017f                      IR_Decode.o:_00001_DS_:
0000017f fe93                 MOVR 0x6c, 0x0
00000180 dbde                 XORIA 0x21
00000181 f6fc                 BTRSS 0x3, 0x2
00000182 c66e                 LGOTO 0x191; IR_Decode.o:_00168_DS_=0x191
00000183 fd14                 CLRR 0x6b
00000184 fd13                 CLRR 0x6c
00000185 fe96                 MOVR 0x69, 0x0
00000186 ff30                 MOVAR 0x4f
00000187 fe95                 MOVR 0x6a, 0x0
00000188 d668                 LCALL 0x197; _IR_KEY_Proess=0x197
00000189 fd16                 CLRR 0x69
0000018a fd15                 CLRR 0x6a
0000018b e671                 BSR 0xe, 0x3
0000018c fee0                 MOVR 0x1f, 0x0
0000018d dd01                 ANDIA 0xfe
0000018e dc0f                 IORIA 0xf0
0000018f ff60                 MOVAR 0x1f
00000190 c669                 LGOTO 0x196; IR_Decode.o:_00173_DS_=0x196
00000191                      IR_Decode.o:_00168_DS_:
00000191 fd14                 CLRR 0x6b
00000192 fa13                 INCR 0x6c, 0x1
00000193 e3fc                 BCR 0x3, 0x0
00000194 ec15                 RRR 0x6a, 0x1
00000195 ec16                 RRR 0x69, 0x1
00000196                      IR_Decode.o:_00173_DS_:
00000196 ffef                 RET
00000197                      _IR_KEY_Proess:
00000197 ff4a                 MOVAR 0x35
00000198 feb0                 MOVR 0x4f, 0x0
00000199 ff4b                 MOVAR 0x34
0000019a dbb8                 XORIA 0x47
0000019b f6fc                 BTRSS 0x3, 0x2
0000019c c65e                 LGOTO 0x1a1; IR_Decode.o:_00142_DS_=0x1a1
0000019d feca                 MOVR 0x35, 0x0
0000019e db47                 XORIA 0xb8
0000019f f2fc                 BTRSC 0x3, 0x2
000001a0 c62f                 LGOTO 0x1d0; IR_Decode.o:_00116_DS_=0x1d0
000001a1                      IR_Decode.o:_00142_DS_:
000001a1 fecb                 MOVR 0x34, 0x0
000001a2 dbb9                 XORIA 0x46
000001a3 f6fc                 BTRSS 0x3, 0x2
000001a4 c656                 LGOTO 0x1a9; IR_Decode.o:_00143_DS_=0x1a9
000001a5 feca                 MOVR 0x35, 0x0
000001a6 db46                 XORIA 0xb9
000001a7 f2fc                 BTRSC 0x3, 0x2
000001a8 c632                 LGOTO 0x1cd; IR_Decode.o:_00115_DS_=0x1cd
000001a9                      IR_Decode.o:_00143_DS_:
000001a9 fecb                 MOVR 0x34, 0x0
000001aa dbba                 XORIA 0x45
000001ab f6fc                 BTRSS 0x3, 0x2
000001ac c64e                 LGOTO 0x1b1; IR_Decode.o:_00144_DS_=0x1b1
000001ad feca                 MOVR 0x35, 0x0
000001ae db45                 XORIA 0xba
000001af f2fc                 BTRSC 0x3, 0x2
000001b0 c635                 LGOTO 0x1ca; IR_Decode.o:_00114_DS_=0x1ca
000001b1                      IR_Decode.o:_00144_DS_:
000001b1 fecb                 MOVR 0x34, 0x0
000001b2 dbbb                 XORIA 0x44
000001b3 f6fc                 BTRSS 0x3, 0x2
000001b4 c646                 LGOTO 0x1b9; IR_Decode.o:_00145_DS_=0x1b9
000001b5 feca                 MOVR 0x35, 0x0
000001b6 db44                 XORIA 0xbb
000001b7 f2fc                 BTRSC 0x3, 0x2
000001b8 c62d                 LGOTO 0x1d2; IR_Decode.o:_00117_DS_=0x1d2
000001b9                      IR_Decode.o:_00145_DS_:
000001b9 fecb                 MOVR 0x34, 0x0
000001ba dbbc                 XORIA 0x43
000001bb f6fc                 BTRSS 0x3, 0x2
000001bc c63e                 LGOTO 0x1c1; IR_Decode.o:_00146_DS_=0x1c1
000001bd feca                 MOVR 0x35, 0x0
000001be db43                 XORIA 0xbc
000001bf f2fc                 BTRSC 0x3, 0x2
000001c0 c628                 LGOTO 0x1d7; IR_Decode.o:_00119_DS_=0x1d7
000001c1                      IR_Decode.o:_00146_DS_:
000001c1 fecb                 MOVR 0x34, 0x0
000001c2 dbbf                 XORIA 0x40
000001c3 f6fc                 BTRSS 0x3, 0x2
000001c4 c636                 LGOTO 0x1c9; IR_Decode.o:_00147_DS_=0x1c9
000001c5 feca                 MOVR 0x35, 0x0
000001c6 db40                 XORIA 0xbf
000001c7 f2fc                 BTRSC 0x3, 0x2
000001c8 c62a                 LGOTO 0x1d5; IR_Decode.o:_00118_DS_=0x1d5
000001c9                      IR_Decode.o:_00147_DS_:
000001c9 c627                 LGOTO 0x1d8; IR_Decode.o:_00122_DS_=0x1d8
000001ca                      IR_Decode.o:_00114_DS_:
000001ca de7f                 MOVIA 0x80
000001cb ff0d                 MOVAR 0x72
000001cc c627                 LGOTO 0x1d8; IR_Decode.o:_00122_DS_=0x1d8
000001cd                      IR_Decode.o:_00115_DS_:
000001cd de7e                 MOVIA 0x81
000001ce ff0d                 MOVAR 0x72
000001cf c627                 LGOTO 0x1d8; IR_Decode.o:_00122_DS_=0x1d8
000001d0                      IR_Decode.o:_00116_DS_:
000001d0 d3a2                 LCALL 0x45d; _User_Style_Collision_Start=0x45d
000001d1 c627                 LGOTO 0x1d8; IR_Decode.o:_00122_DS_=0x1d8
000001d2                      IR_Decode.o:_00117_DS_:
000001d2 de7c                 MOVIA 0x83
000001d3 ff0d                 MOVAR 0x72
000001d4 c627                 LGOTO 0x1d8; IR_Decode.o:_00122_DS_=0x1d8
000001d5                      IR_Decode.o:_00118_DS_:
000001d5 d32d                 LCALL 0x4d2; _User_Style_Sweep_Start=0x4d2
000001d6 c627                 LGOTO 0x1d8; IR_Decode.o:_00122_DS_=0x1d8
000001d7                      IR_Decode.o:_00119_DS_:
000001d7 d2ca                 LCALL 0x535; _User_Style_Breath_Start=0x535
000001d8                      IR_Decode.o:_00122_DS_:
000001d8 ffef                 RET
000001d9                      _IR_Decode_Time_Process:
000001d9 fe97                 MOVR 0x68, 0x0
000001da f2fc                 BTRSC 0x3, 0x2
000001db c618                 LGOTO 0x1e7; IR_Decode.o:_00109_DS_=0x1e7
000001dc e817                 DECRSZ 0x68, 0x1
000001dd c618                 LGOTO 0x1e7; IR_Decode.o:_00109_DS_=0x1e7
000001de fd13                 CLRR 0x6c
000001df fd14                 CLRR 0x6b
000001e0 fd16                 CLRR 0x69
000001e1 fd15                 CLRR 0x6a
000001e2 e671                 BSR 0xe, 0x3
000001e3 fee0                 MOVR 0x1f, 0x0
000001e4 dd01                 ANDIA 0xfe
000001e5 dc0f                 IORIA 0xf0
000001e6 ff60                 MOVAR 0x1f
000001e7                      IR_Decode.o:_00109_DS_:
000001e7 ffef                 RET
000001e8                      _WS281x_RGB:
000001e8 ff25                 MOVAR 0x5a
000001e9 feb0                 MOVR 0x4f, 0x0
000001ea ff24                 MOVAR 0x5b
000001eb feb1                 MOVR 0x4e, 0x0
000001ec ff23                 MOVAR 0x5c
000001ed fea4                 MOVR 0x5b, 0x0
000001ee d7ec                 LCALL 0x13; WS281x_Drive.o:LED_TWINKLE_Q=0x13
000001ef fea5                 MOVR 0x5a, 0x0
000001f0 d7ec                 LCALL 0x13; WS281x_Drive.o:LED_TWINKLE_Q=0x13
000001f1 fea3                 MOVR 0x5c, 0x0
000001f2 d7ec                 LCALL 0x13; WS281x_Drive.o:LED_TWINKLE_Q=0x13
000001f3 ffef                 RET
000001f4                      _WS281x_Style_All:
000001f4 ff28                 MOVAR 0x57
000001f5 feb0                 MOVR 0x4f, 0x0
000001f6 ff27                 MOVAR 0x58
000001f7 feb1                 MOVR 0x4e, 0x0
000001f8 ff26                 MOVAR 0x59
000001f9 defc                 MOVIA 0x3
000001fa fb92                 SUBAR 0x6d, 0x0
000001fb f3fc                 BTRSC 0x3, 0x0
000001fc c5e3                 LGOTO 0x21c; WS281x.o:_00372_DS_=0x21c
000001fd defd                 MOVIA 0x2
000001fe ff75                 MOVAR 0xa
000001ff fe92                 MOVR 0x6d, 0x0
00000200 dafb                 ADDIA 0x4
00000201 f3fc                 BTRSC 0x3, 0x0
00000202 fa75                 INCR 0xa, 0x1
00000203 ff7d                 MOVAR 0x2
00000204                      WS281x.o:_00387_DS_:
00000204 c5f8                 LGOTO 0x207; WS281x.o:_00363_DS_=0x207
00000205 c5f1                 LGOTO 0x20e; WS281x.o:_00366_DS_=0x20e
00000206 c5e3                 LGOTO 0x21c; WS281x.o:_00372_DS_=0x21c
00000207                      WS281x.o:_00363_DS_:
00000207 fe90                 MOVR 0x6f, 0x0
00000208 ee8f                 IORAR 0x70, 0x0
00000209 f6fc                 BTRSS 0x3, 0x2
0000020a c5e3                 LGOTO 0x21c; WS281x.o:_00372_DS_=0x21c
0000020b fd11                 CLRR 0x6e
0000020c fa12                 INCR 0x6d, 0x1
0000020d c5e3                 LGOTO 0x21c; WS281x.o:_00372_DS_=0x21c
0000020e                      WS281x.o:_00366_DS_:
0000020e fd11                 CLRR 0x6e
0000020f                      WS281x.o:_00370_DS_:
0000020f fea6                 MOVR 0x59, 0x0
00000210 ff31                 MOVAR 0x4e
00000211 fea7                 MOVR 0x58, 0x0
00000212 ff30                 MOVAR 0x4f
00000213 fea8                 MOVR 0x57, 0x0
00000214 d617                 LCALL 0x1e8; _WS281x_RGB=0x1e8
00000215 fa11                 INCR 0x6e, 0x1
00000216 deeb                 MOVIA 0x14
00000217 fb91                 SUBAR 0x6e, 0x0
00000218 f7fc                 BTRSS 0x3, 0x0
00000219 c5f0                 LGOTO 0x20f; WS281x.o:_00370_DS_=0x20f
0000021a de9c                 MOVIA 0x63
0000021b ff12                 MOVAR 0x6d
0000021c                      WS281x.o:_00372_DS_:
0000021c ffef                 RET
0000021d                      _WS281x_Style_3:
0000021d defc                 MOVIA 0x3
0000021e fb92                 SUBAR 0x6d, 0x0
0000021f f3fc                 BTRSC 0x3, 0x0
00000220 c52d                 LGOTO 0x2d2; WS281x.o:_00301_DS_=0x2d2
00000221 defd                 MOVIA 0x2
00000222 ff75                 MOVAR 0xa
00000223 fe92                 MOVR 0x6d, 0x0
00000224 dad7                 ADDIA 0x28
00000225 f3fc                 BTRSC 0x3, 0x0
00000226 fa75                 INCR 0xa, 0x1
00000227 ff7d                 MOVAR 0x2
00000228                      WS281x.o:_00358_DS_:
00000228 c5d4                 LGOTO 0x22b; WS281x.o:_00267_DS_=0x22b
00000229 c5cb                 LGOTO 0x234; WS281x.o:_00270_DS_=0x234
0000022a c57d                 LGOTO 0x282; WS281x.o:_00284_DS_=0x282
0000022b                      WS281x.o:_00267_DS_:
0000022b fe90                 MOVR 0x6f, 0x0
0000022c ee8f                 IORAR 0x70, 0x0
0000022d f6fc                 BTRSS 0x3, 0x2
0000022e c52d                 LGOTO 0x2d2; WS281x.o:_00301_DS_=0x2d2
0000022f fd22                 CLRR 0x5d
00000230 fd21                 CLRR 0x5e
00000231 fd20                 CLRR 0x5f
00000232 fa12                 INCR 0x6d, 0x1
00000233 c52d                 LGOTO 0x2d2; WS281x.o:_00301_DS_=0x2d2
00000234                      WS281x.o:_00270_DS_:
00000234 fe90                 MOVR 0x6f, 0x0
00000235 ee8f                 IORAR 0x70, 0x0
00000236 f6fc                 BTRSS 0x3, 0x2
00000237 c52d                 LGOTO 0x2d2; WS281x.o:_00301_DS_=0x2d2
00000238 fd11                 CLRR 0x6e
00000239                      WS281x.o:_00297_DS_:
00000239 fea2                 MOVR 0x5d, 0x0
0000023a ff2d                 MOVAR 0x52
0000023b fea1                 MOVR 0x5e, 0x0
0000023c ff2c                 MOVAR 0x53
0000023d fea0                 MOVR 0x5f, 0x0
0000023e ff2b                 MOVAR 0x54
0000023f ff31                 MOVAR 0x4e
00000240 feac                 MOVR 0x53, 0x0
00000241 ff30                 MOVAR 0x4f
00000242 fead                 MOVR 0x52, 0x0
00000243 d617                 LCALL 0x1e8; _WS281x_RGB=0x1e8
00000244 fa11                 INCR 0x6e, 0x1
00000245 deeb                 MOVIA 0x14
00000246 fb91                 SUBAR 0x6e, 0x0
00000247 f7fc                 BTRSS 0x3, 0x0
00000248 c5c6                 LGOTO 0x239; WS281x.o:_00297_DS_=0x239
00000249 fea2                 MOVR 0x5d, 0x0
0000024a ff2d                 MOVAR 0x52
0000024b fec9                 MOVR 0x36, 0x0
0000024c ff2c                 MOVAR 0x53
0000024d fbad                 SUBAR 0x52, 0x0
0000024e f3fc                 BTRSC 0x3, 0x0
0000024f c5ac                 LGOTO 0x253; WS281x.o:_00273_DS_=0x253
00000250 fa2d                 INCR 0x52, 0x1
00000251 fead                 MOVR 0x52, 0x0
00000252 ff22                 MOVAR 0x5d
00000253                      WS281x.o:_00273_DS_:
00000253 fea1                 MOVR 0x5e, 0x0
00000254 ff2d                 MOVAR 0x52
00000255 fec8                 MOVR 0x37, 0x0
00000256 ff2c                 MOVAR 0x53
00000257 fbad                 SUBAR 0x52, 0x0
00000258 f3fc                 BTRSC 0x3, 0x0
00000259 c5a2                 LGOTO 0x25d; WS281x.o:_00275_DS_=0x25d
0000025a fa2d                 INCR 0x52, 0x1
0000025b fead                 MOVR 0x52, 0x0
0000025c ff21                 MOVAR 0x5e
0000025d                      WS281x.o:_00275_DS_:
0000025d fea0                 MOVR 0x5f, 0x0
0000025e ff2d                 MOVAR 0x52
0000025f fec7                 MOVR 0x38, 0x0
00000260 ff2c                 MOVAR 0x53
00000261 fbad                 SUBAR 0x52, 0x0
00000262 f3fc                 BTRSC 0x3, 0x0
00000263 c598                 LGOTO 0x267; WS281x.o:_00277_DS_=0x267
00000264 fa2d                 INCR 0x52, 0x1
00000265 fead                 MOVR 0x52, 0x0
00000266 ff20                 MOVAR 0x5f
00000267                      WS281x.o:_00277_DS_:
00000267 fea2                 MOVR 0x5d, 0x0
00000268 ff2d                 MOVAR 0x52
00000269 fec9                 MOVR 0x36, 0x0
0000026a ff2c                 MOVAR 0x53
0000026b edad                 XORAR 0x52, 0x0
0000026c f6fc                 BTRSS 0x3, 0x2
0000026d c581                 LGOTO 0x27e; WS281x.o:_00279_DS_=0x27e
0000026e fea1                 MOVR 0x5e, 0x0
0000026f ff2d                 MOVAR 0x52
00000270 fec8                 MOVR 0x37, 0x0
00000271 ff2c                 MOVAR 0x53
00000272 edad                 XORAR 0x52, 0x0
00000273 f6fc                 BTRSS 0x3, 0x2
00000274 c581                 LGOTO 0x27e; WS281x.o:_00279_DS_=0x27e
00000275 fea0                 MOVR 0x5f, 0x0
00000276 ff2d                 MOVAR 0x52
00000277 fec7                 MOVR 0x38, 0x0
00000278 ff2c                 MOVAR 0x53
00000279 edad                 XORAR 0x52, 0x0
0000027a f6fc                 BTRSS 0x3, 0x2
0000027b c581                 LGOTO 0x27e; WS281x.o:_00279_DS_=0x27e
0000027c defd                 MOVIA 0x2
0000027d ff12                 MOVAR 0x6d
0000027e                      WS281x.o:_00279_DS_:
0000027e defd                 MOVIA 0x2
0000027f ff10                 MOVAR 0x6f
00000280 fd0f                 CLRR 0x70
00000281 c52d                 LGOTO 0x2d2; WS281x.o:_00301_DS_=0x2d2
00000282                      WS281x.o:_00284_DS_:
00000282 fe90                 MOVR 0x6f, 0x0
00000283 ee8f                 IORAR 0x70, 0x0
00000284 f6fc                 BTRSS 0x3, 0x2
00000285 c52d                 LGOTO 0x2d2; WS281x.o:_00301_DS_=0x2d2
00000286 fea2                 MOVR 0x5d, 0x0
00000287 ff2d                 MOVAR 0x52
00000288 f2fc                 BTRSC 0x3, 0x2
00000289 c572                 LGOTO 0x28d; WS281x.o:_00286_DS_=0x28d
0000028a f92d                 DECR 0x52, 0x1
0000028b fead                 MOVR 0x52, 0x0
0000028c ff22                 MOVAR 0x5d
0000028d                      WS281x.o:_00286_DS_:
0000028d fea1                 MOVR 0x5e, 0x0
0000028e ff2d                 MOVAR 0x52
0000028f f2fc                 BTRSC 0x3, 0x2
00000290 c56b                 LGOTO 0x294; WS281x.o:_00288_DS_=0x294
00000291 f92d                 DECR 0x52, 0x1
00000292 fead                 MOVR 0x52, 0x0
00000293 ff21                 MOVAR 0x5e
00000294                      WS281x.o:_00288_DS_:
00000294 fea0                 MOVR 0x5f, 0x0
00000295 ff2d                 MOVAR 0x52
00000296 f2fc                 BTRSC 0x3, 0x2
00000297 c564                 LGOTO 0x29b; WS281x.o:_00290_DS_=0x29b
00000298 f92d                 DECR 0x52, 0x1
00000299 fead                 MOVR 0x52, 0x0
0000029a ff20                 MOVAR 0x5f
0000029b                      WS281x.o:_00290_DS_:
0000029b fd11                 CLRR 0x6e
0000029c                      WS281x.o:_00299_DS_:
0000029c fea2                 MOVR 0x5d, 0x0
0000029d ff2d                 MOVAR 0x52
0000029e fea1                 MOVR 0x5e, 0x0
0000029f ff2c                 MOVAR 0x53
000002a0 fea0                 MOVR 0x5f, 0x0
000002a1 ff2b                 MOVAR 0x54
000002a2 ff31                 MOVAR 0x4e
000002a3 feac                 MOVR 0x53, 0x0
000002a4 ff30                 MOVAR 0x4f
000002a5 fead                 MOVR 0x52, 0x0
000002a6 d617                 LCALL 0x1e8; _WS281x_RGB=0x1e8
000002a7 fa11                 INCR 0x6e, 0x1
000002a8 deeb                 MOVIA 0x14
000002a9 fb91                 SUBAR 0x6e, 0x0
000002aa f7fc                 BTRSS 0x3, 0x0
000002ab c563                 LGOTO 0x29c; WS281x.o:_00299_DS_=0x29c
000002ac fea2                 MOVR 0x5d, 0x0
000002ad ff2c                 MOVAR 0x53
000002ae fd2b                 CLRR 0x54
000002af fea1                 MOVR 0x5e, 0x0
000002b0 ff2d                 MOVAR 0x52
000002b1 ff2a                 MOVAR 0x55
000002b2 fd29                 CLRR 0x56
000002b3 feaa                 MOVR 0x55, 0x0
000002b4 fc2c                 ADDAR 0x53, 0x1
000002b5 deff                 MOVIA 0x0
000002b6 f7fc                 BTRSS 0x3, 0x0
000002b7 c544                 LGOTO 0x2bb; WS281x.o:_00001_DS_=0x2bb
000002b8 faa9                 INCR 0x56, 0x0
000002b9 f2fc                 BTRSC 0x3, 0x2
000002ba c543                 LGOTO 0x2bc; WS281x.o:_00002_DS_=0x2bc
000002bb                      WS281x.o:_00001_DS_:
000002bb fc2b                 ADDAR 0x54, 0x1
000002bc                      WS281x.o:_00002_DS_:
000002bc fea0                 MOVR 0x5f, 0x0
000002bd ff2d                 MOVAR 0x52
000002be ff2a                 MOVAR 0x55
000002bf fd29                 CLRR 0x56
000002c0 feaa                 MOVR 0x55, 0x0
000002c1 fc2c                 ADDAR 0x53, 0x1
000002c2 deff                 MOVIA 0x0
000002c3 f7fc                 BTRSS 0x3, 0x0
000002c4 c537                 LGOTO 0x2c8; WS281x.o:_00003_DS_=0x2c8
000002c5 faa9                 INCR 0x56, 0x0
000002c6 f2fc                 BTRSC 0x3, 0x2
000002c7 c536                 LGOTO 0x2c9; WS281x.o:_00004_DS_=0x2c9
000002c8                      WS281x.o:_00003_DS_:
000002c8 fc2b                 ADDAR 0x54, 0x1
000002c9                      WS281x.o:_00004_DS_:
000002c9 feac                 MOVR 0x53, 0x0
000002ca eeab                 IORAR 0x54, 0x0
000002cb f6fc                 BTRSS 0x3, 0x2
000002cc c530                 LGOTO 0x2cf; WS281x.o:_00293_DS_=0x2cf
000002cd de9c                 MOVIA 0x63
000002ce ff12                 MOVAR 0x6d
000002cf                      WS281x.o:_00293_DS_:
000002cf defd                 MOVIA 0x2
000002d0 ff10                 MOVAR 0x6f
000002d1 fd0f                 CLRR 0x70
000002d2                      WS281x.o:_00301_DS_:
000002d2 ffef                 RET
000002d3                      _WS281x_Style_2:
000002d3 ff42                 MOVAR 0x3d
000002d4 fe92                 MOVR 0x6d, 0x0
000002d5 f2fc                 BTRSC 0x3, 0x2
000002d6 c51f                 LGOTO 0x2e0; WS281x.o:_00176_DS_=0x2e0
000002d7 fe92                 MOVR 0x6d, 0x0
000002d8 dbde                 XORIA 0x21
000002d9 f2fc                 BTRSC 0x3, 0x2
000002da c516                 LGOTO 0x2e9; WS281x.o:_00179_DS_=0x2e9
000002db fe92                 MOVR 0x6d, 0x0
000002dc dbdd                 XORIA 0x22
000002dd f2fc                 BTRSC 0x3, 0x2
000002de c4cc                 LGOTO 0x333; WS281x.o:_00186_DS_=0x333
000002df c483                 LGOTO 0x37c; WS281x.o:_00206_DS_=0x37c
000002e0                      WS281x.o:_00176_DS_:
000002e0 fe90                 MOVR 0x6f, 0x0
000002e1 ee8f                 IORAR 0x70, 0x0
000002e2 f6fc                 BTRSS 0x3, 0x2
000002e3 c483                 LGOTO 0x37c; WS281x.o:_00206_DS_=0x37c
000002e4 fd11                 CLRR 0x6e
000002e5 fd0e                 CLRR 0x71
000002e6 fec2                 MOVR 0x3d, 0x0
000002e7 ff12                 MOVAR 0x6d
000002e8 c483                 LGOTO 0x37c; WS281x.o:_00206_DS_=0x37c
000002e9                      WS281x.o:_00179_DS_:
000002e9 fe90                 MOVR 0x6f, 0x0
000002ea ee8f                 IORAR 0x70, 0x0
000002eb f6fc                 BTRSS 0x3, 0x2
000002ec c483                 LGOTO 0x37c; WS281x.o:_00206_DS_=0x37c
000002ed fd11                 CLRR 0x6e
000002ee                      WS281x.o:_00195_DS_:
000002ee fe8e                 MOVR 0x71, 0x0
000002ef fb91                 SUBAR 0x6e, 0x0
000002f0 f3fc                 BTRSC 0x3, 0x0
000002f1 c500                 LGOTO 0x2ff; WS281x.o:_00180_DS_=0x2ff
000002f2 fec9                 MOVR 0x36, 0x0
000002f3 ff42                 MOVAR 0x3d
000002f4 fec8                 MOVR 0x37, 0x0
000002f5 ff41                 MOVAR 0x3e
000002f6 fec7                 MOVR 0x38, 0x0
000002f7 ff40                 MOVAR 0x3f
000002f8 ff31                 MOVAR 0x4e
000002f9 fec1                 MOVR 0x3e, 0x0
000002fa ff30                 MOVAR 0x4f
000002fb fec2                 MOVR 0x3d, 0x0
000002fc d617                 LCALL 0x1e8; _WS281x_RGB=0x1e8
000002fd fa11                 INCR 0x6e, 0x1
000002fe c511                 LGOTO 0x2ee; WS281x.o:_00195_DS_=0x2ee
000002ff                      WS281x.o:_00180_DS_:
000002ff fd11                 CLRR 0x6e
00000300                      WS281x.o:_00198_DS_:
00000300 fe8e                 MOVR 0x71, 0x0
00000301 ff42                 MOVAR 0x3d
00000302 fd41                 CLRR 0x3e
00000303 fec2                 MOVR 0x3d, 0x0
00000304 d8eb                 SUBIA 0x14
00000305 ff42                 MOVAR 0x3d
00000306 deff                 MOVIA 0x0
00000307 f3fc                 BTRSC 0x3, 0x0
00000308 c4f5                 LGOTO 0x30a; WS281x.o:_00005_DS_=0x30a
00000309 fac1                 INCR 0x3e, 0x0
0000030a                      WS281x.o:_00005_DS_:
0000030a d8ff                 SUBIA 0x0
0000030b ff41                 MOVAR 0x3e
0000030c fe91                 MOVR 0x6e, 0x0
0000030d ff40                 MOVAR 0x3f
0000030e fd2f                 CLRR 0x50
0000030f deff                 MOVIA 0x0
00000310 da7f                 ADDIA 0x80
00000311 ff2e                 MOVAR 0x51
00000312 fec1                 MOVR 0x3e, 0x0
00000313 da7f                 ADDIA 0x80
00000314 fbae                 SUBAR 0x51, 0x0
00000315 f6fc                 BTRSS 0x3, 0x2
00000316 c4e6                 LGOTO 0x319; WS281x.o:_00260_DS_=0x319
00000317 fec2                 MOVR 0x3d, 0x0
00000318 fbc0                 SUBAR 0x3f, 0x0
00000319                      WS281x.o:_00260_DS_:
00000319 f3fc                 BTRSC 0x3, 0x0
0000031a c4d7                 LGOTO 0x328; WS281x.o:_00181_DS_=0x328
0000031b fec6                 MOVR 0x39, 0x0
0000031c ff42                 MOVAR 0x3d
0000031d fec5                 MOVR 0x3a, 0x0
0000031e ff41                 MOVAR 0x3e
0000031f fec4                 MOVR 0x3b, 0x0
00000320 ff40                 MOVAR 0x3f
00000321 ff31                 MOVAR 0x4e
00000322 fec1                 MOVR 0x3e, 0x0
00000323 ff30                 MOVAR 0x4f
00000324 fec2                 MOVR 0x3d, 0x0
00000325 d617                 LCALL 0x1e8; _WS281x_RGB=0x1e8
00000326 fa11                 INCR 0x6e, 0x1
00000327 c4ff                 LGOTO 0x300; WS281x.o:_00198_DS_=0x300
00000328                      WS281x.o:_00181_DS_:
00000328 fa0e                 INCR 0x71, 0x1
00000329 deea                 MOVIA 0x15
0000032a fb8e                 SUBAR 0x71, 0x0
0000032b f7fc                 BTRSS 0x3, 0x0
0000032c c4d0                 LGOTO 0x32f; WS281x.o:_00183_DS_=0x32f
0000032d de9c                 MOVIA 0x63
0000032e ff12                 MOVAR 0x6d
0000032f                      WS281x.o:_00183_DS_:
0000032f dee1                 MOVIA 0x1e
00000330 ff10                 MOVAR 0x6f
00000331 fd0f                 CLRR 0x70
00000332 c483                 LGOTO 0x37c; WS281x.o:_00206_DS_=0x37c
00000333                      WS281x.o:_00186_DS_:
00000333 fe90                 MOVR 0x6f, 0x0
00000334 ee8f                 IORAR 0x70, 0x0
00000335 f6fc                 BTRSS 0x3, 0x2
00000336 c483                 LGOTO 0x37c; WS281x.o:_00206_DS_=0x37c
00000337 fd11                 CLRR 0x6e
00000338                      WS281x.o:_00201_DS_:
00000338 fe8e                 MOVR 0x71, 0x0
00000339 ff42                 MOVAR 0x3d
0000033a fd41                 CLRR 0x3e
0000033b fec2                 MOVR 0x3d, 0x0
0000033c d8eb                 SUBIA 0x14
0000033d ff42                 MOVAR 0x3d
0000033e deff                 MOVIA 0x0
0000033f f3fc                 BTRSC 0x3, 0x0
00000340 c4bd                 LGOTO 0x342; WS281x.o:_00006_DS_=0x342
00000341 fac1                 INCR 0x3e, 0x0
00000342                      WS281x.o:_00006_DS_:
00000342 d8ff                 SUBIA 0x0
00000343 ff41                 MOVAR 0x3e
00000344 fe91                 MOVR 0x6e, 0x0
00000345 ff40                 MOVAR 0x3f
00000346 fd2f                 CLRR 0x50
00000347 deff                 MOVIA 0x0
00000348 da7f                 ADDIA 0x80
00000349 ff2e                 MOVAR 0x51
0000034a fec1                 MOVR 0x3e, 0x0
0000034b da7f                 ADDIA 0x80
0000034c fbae                 SUBAR 0x51, 0x0
0000034d f6fc                 BTRSS 0x3, 0x2
0000034e c4ae                 LGOTO 0x351; WS281x.o:_00262_DS_=0x351
0000034f fec2                 MOVR 0x3d, 0x0
00000350 fbc0                 SUBAR 0x3f, 0x0
00000351                      WS281x.o:_00262_DS_:
00000351 f3fc                 BTRSC 0x3, 0x0
00000352 c49f                 LGOTO 0x360; WS281x.o:_00187_DS_=0x360
00000353 fec6                 MOVR 0x39, 0x0
00000354 ff42                 MOVAR 0x3d
00000355 fec5                 MOVR 0x3a, 0x0
00000356 ff41                 MOVAR 0x3e
00000357 fec4                 MOVR 0x3b, 0x0
00000358 ff40                 MOVAR 0x3f
00000359 ff31                 MOVAR 0x4e
0000035a fec1                 MOVR 0x3e, 0x0
0000035b ff30                 MOVAR 0x4f
0000035c fec2                 MOVR 0x3d, 0x0
0000035d d617                 LCALL 0x1e8; _WS281x_RGB=0x1e8
0000035e fa11                 INCR 0x6e, 0x1
0000035f c4c7                 LGOTO 0x338; WS281x.o:_00201_DS_=0x338
00000360                      WS281x.o:_00187_DS_:
00000360 fd11                 CLRR 0x6e
00000361                      WS281x.o:_00204_DS_:
00000361 fe8e                 MOVR 0x71, 0x0
00000362 fb91                 SUBAR 0x6e, 0x0
00000363 f3fc                 BTRSC 0x3, 0x0
00000364 c48d                 LGOTO 0x372; WS281x.o:_00188_DS_=0x372
00000365 fec9                 MOVR 0x36, 0x0
00000366 ff42                 MOVAR 0x3d
00000367 fec8                 MOVR 0x37, 0x0
00000368 ff41                 MOVAR 0x3e
00000369 fec7                 MOVR 0x38, 0x0
0000036a ff40                 MOVAR 0x3f
0000036b ff31                 MOVAR 0x4e
0000036c fec1                 MOVR 0x3e, 0x0
0000036d ff30                 MOVAR 0x4f
0000036e fec2                 MOVR 0x3d, 0x0
0000036f d617                 LCALL 0x1e8; _WS281x_RGB=0x1e8
00000370 fa11                 INCR 0x6e, 0x1
00000371 c49e                 LGOTO 0x361; WS281x.o:_00204_DS_=0x361
00000372                      WS281x.o:_00188_DS_:
00000372 fa0e                 INCR 0x71, 0x1
00000373 deea                 MOVIA 0x15
00000374 fb8e                 SUBAR 0x71, 0x0
00000375 f7fc                 BTRSS 0x3, 0x0
00000376 c486                 LGOTO 0x379; WS281x.o:_00190_DS_=0x379
00000377 de9c                 MOVIA 0x63
00000378 ff12                 MOVAR 0x6d
00000379                      WS281x.o:_00190_DS_:
00000379 dee1                 MOVIA 0x1e
0000037a ff10                 MOVAR 0x6f
0000037b fd0f                 CLRR 0x70
0000037c                      WS281x.o:_00206_DS_:
0000037c ffef                 RET
0000037d                      _WS281x_Style_1:
0000037d fe92                 MOVR 0x6d, 0x0
0000037e f2fc                 BTRSC 0x3, 0x2
0000037f c47a                 LGOTO 0x385; WS281x.o:_00129_DS_=0x385
00000380 fe92                 MOVR 0x6d, 0x0
00000381 dbfe                 XORIA 0x1
00000382 f2fc                 BTRSC 0x3, 0x2
00000383 c472                 LGOTO 0x38d; WS281x.o:_00132_DS_=0x38d
00000384 c442                 LGOTO 0x3bd; WS281x.o:_00144_DS_=0x3bd
00000385                      WS281x.o:_00129_DS_:
00000385 fe90                 MOVR 0x6f, 0x0
00000386 ee8f                 IORAR 0x70, 0x0
00000387 f6fc                 BTRSS 0x3, 0x2
00000388 c442                 LGOTO 0x3bd; WS281x.o:_00144_DS_=0x3bd
00000389 fd11                 CLRR 0x6e
0000038a fd0e                 CLRR 0x71
0000038b fa12                 INCR 0x6d, 0x1
0000038c c442                 LGOTO 0x3bd; WS281x.o:_00144_DS_=0x3bd
0000038d                      WS281x.o:_00132_DS_:
0000038d fe90                 MOVR 0x6f, 0x0
0000038e ee8f                 IORAR 0x70, 0x0
0000038f f6fc                 BTRSS 0x3, 0x2
00000390 c442                 LGOTO 0x3bd; WS281x.o:_00144_DS_=0x3bd
00000391 fd11                 CLRR 0x6e
00000392                      WS281x.o:_00142_DS_:
00000392 fe8e                 MOVR 0x71, 0x0
00000393 ed91                 XORAR 0x6e, 0x0
00000394 f6fc                 BTRSS 0x3, 0x2
00000395 c454                 LGOTO 0x3ab; WS281x.o:_00134_DS_=0x3ab
00000396 decd                 MOVIA 0x32
00000397 ff31                 MOVAR 0x4e
00000398 ff30                 MOVAR 0x4f
00000399 d617                 LCALL 0x1e8; _WS281x_RGB=0x1e8
0000039a de9b                 MOVIA 0x64
0000039b ff31                 MOVAR 0x4e
0000039c ff30                 MOVAR 0x4f
0000039d d617                 LCALL 0x1e8; _WS281x_RGB=0x1e8
0000039e de69                 MOVIA 0x96
0000039f ff31                 MOVAR 0x4e
000003a0 ff30                 MOVAR 0x4f
000003a1 d617                 LCALL 0x1e8; _WS281x_RGB=0x1e8
000003a2 de37                 MOVIA 0xc8
000003a3 ff31                 MOVAR 0x4e
000003a4 ff30                 MOVAR 0x4f
000003a5 d617                 LCALL 0x1e8; _WS281x_RGB=0x1e8
000003a6 de00                 MOVIA 0xff
000003a7 ff31                 MOVAR 0x4e
000003a8 ff30                 MOVAR 0x4f
000003a9 d617                 LCALL 0x1e8; _WS281x_RGB=0x1e8
000003aa c450                 LGOTO 0x3af; WS281x.o:_00143_DS_=0x3af
000003ab                      WS281x.o:_00134_DS_:
000003ab deff                 MOVIA 0x0
000003ac ff31                 MOVAR 0x4e
000003ad ff30                 MOVAR 0x4f
000003ae d617                 LCALL 0x1e8; _WS281x_RGB=0x1e8
000003af                      WS281x.o:_00143_DS_:
000003af fa11                 INCR 0x6e, 0x1
000003b0 deeb                 MOVIA 0x14
000003b1 fb91                 SUBAR 0x6e, 0x0
000003b2 f7fc                 BTRSS 0x3, 0x0
000003b3 c46d                 LGOTO 0x392; WS281x.o:_00142_DS_=0x392
000003b4 fa0e                 INCR 0x71, 0x1
000003b5 deef                 MOVIA 0x10
000003b6 fb8e                 SUBAR 0x71, 0x0
000003b7 f7fc                 BTRSS 0x3, 0x0
000003b8 c445                 LGOTO 0x3ba; WS281x.o:_00007_DS_=0x3ba
000003b9 fd12                 CLRR 0x6d
000003ba                      WS281x.o:_00007_DS_:
000003ba decd                 MOVIA 0x32
000003bb ff10                 MOVAR 0x6f
000003bc fd0f                 CLRR 0x70
000003bd                      WS281x.o:_00144_DS_:
000003bd ffef                 RET
000003be                      _WS281x_Style_Process:
000003be f40d                 BTRSS 0x72, 0x7
000003bf c439                 LGOTO 0x3c6; WS281x.o:_00106_DS_=0x3c6
000003c0 e00d                 BCR 0x72, 0x7
000003c1 fd12                 CLRR 0x6d
000003c2 fd43                 CLRR 0x3c
000003c3 def5                 MOVIA 0xa
000003c4 ff10                 MOVAR 0x6f
000003c5 fd0f                 CLRR 0x70
000003c6                      WS281x.o:_00106_DS_:
000003c6 def9                 MOVIA 0x6
000003c7 fb8d                 SUBAR 0x72, 0x0
000003c8 f3fc                 BTRSC 0x3, 0x0
000003c9 c415                 LGOTO 0x3ea; WS281x.o:_00115_DS_=0x3ea
000003ca defc                 MOVIA 0x3
000003cb ff75                 MOVAR 0xa
000003cc fe8d                 MOVR 0x72, 0x0
000003cd da2e                 ADDIA 0xd1
000003ce f3fc                 BTRSC 0x3, 0x0
000003cf fa75                 INCR 0xa, 0x1
000003d0 ff7d                 MOVAR 0x2
000003d1                      WS281x.o:_00124_DS_:
000003d1 c428                 LGOTO 0x3d7; WS281x.o:_00107_DS_=0x3d7
000003d2 c423                 LGOTO 0x3dc; WS281x.o:_00108_DS_=0x3dc
000003d3 c41c                 LGOTO 0x3e3; WS281x.o:_00109_DS_=0x3e3
000003d4 c41a                 LGOTO 0x3e5; WS281x.o:_00110_DS_=0x3e5
000003d5 c418                 LGOTO 0x3e7; WS281x.o:_00111_DS_=0x3e7
000003d6 c416                 LGOTO 0x3e9; WS281x.o:_00112_DS_=0x3e9
000003d7                      WS281x.o:_00107_DS_:
000003d7 deff                 MOVIA 0x0
000003d8 ff31                 MOVAR 0x4e
000003d9 ff30                 MOVAR 0x4f
000003da d60b                 LCALL 0x1f4; _WS281x_Style_All=0x1f4
000003db c415                 LGOTO 0x3ea; WS281x.o:_00115_DS_=0x3ea
000003dc                      WS281x.o:_00108_DS_:
000003dc deff                 MOVIA 0x0
000003dd ff31                 MOVAR 0x4e
000003de de00                 MOVIA 0xff
000003df ff30                 MOVAR 0x4f
000003e0 deff                 MOVIA 0x0
000003e1 d60b                 LCALL 0x1f4; _WS281x_Style_All=0x1f4
000003e2 c415                 LGOTO 0x3ea; WS281x.o:_00115_DS_=0x3ea
000003e3                      WS281x.o:_00109_DS_:
000003e3 d414                 LCALL 0x3eb; _User_Style_Collision_Process=0x3eb
000003e4 c415                 LGOTO 0x3ea; WS281x.o:_00115_DS_=0x3ea
000003e5                      WS281x.o:_00110_DS_:
000003e5 d482                 LCALL 0x37d; _WS281x_Style_1=0x37d
000003e6 c415                 LGOTO 0x3ea; WS281x.o:_00115_DS_=0x3ea
000003e7                      WS281x.o:_00111_DS_:
000003e7 d39f                 LCALL 0x460; _User_Style_Sweep_Process=0x460
000003e8 c415                 LGOTO 0x3ea; WS281x.o:_00115_DS_=0x3ea
000003e9                      WS281x.o:_00112_DS_:
000003e9 d32a                 LCALL 0x4d5; _User_Style_Breath_Process=0x4d5
000003ea                      WS281x.o:_00115_DS_:
000003ea ffef                 RET
000003eb                      _User_Style_Collision_Process:
000003eb defb                 MOVIA 0x4
000003ec fbc3                 SUBAR 0x3c, 0x0
000003ed f3fc                 BTRSC 0x3, 0x0
000003ee c3a3                 LGOTO 0x45c; user_style.o:_00250_DS_=0x45c
000003ef defc                 MOVIA 0x3
000003f0 ff75                 MOVAR 0xa
000003f1 fec3                 MOVR 0x3c, 0x0
000003f2 da09                 ADDIA 0xf6
000003f3 f3fc                 BTRSC 0x3, 0x0
000003f4 fa75                 INCR 0xa, 0x1
000003f5 ff7d                 MOVAR 0x2
000003f6                      user_style.o:_00280_DS_:
000003f6 c405                 LGOTO 0x3fa; user_style.o:_00229_DS_=0x3fa
000003f7 c3ed                 LGOTO 0x412; user_style.o:_00234_DS_=0x412
000003f8 c3d4                 LGOTO 0x42b; user_style.o:_00239_DS_=0x42b
000003f9 c3bb                 LGOTO 0x444; user_style.o:_00244_DS_=0x444
000003fa                      user_style.o:_00229_DS_:
000003fa fe90                 MOVR 0x6f, 0x0
000003fb ee8f                 IORAR 0x70, 0x0
000003fc f6fc                 BTRSS 0x3, 0x2
000003fd c3a3                 LGOTO 0x45c; user_style.o:_00250_DS_=0x45c
000003fe de00                 MOVIA 0xff
000003ff ff49                 MOVAR 0x36
00000400 fd48                 CLRR 0x37
00000401 fd47                 CLRR 0x38
00000402 fd46                 CLRR 0x39
00000403 fd45                 CLRR 0x3a
00000404 fd44                 CLRR 0x3b
00000405 dede                 MOVIA 0x21
00000406 d52c                 LCALL 0x2d3; _WS281x_Style_2=0x2d3
00000407 fe92                 MOVR 0x6d, 0x0
00000408 db9c                 XORIA 0x63
00000409 f6fc                 BTRSS 0x3, 0x2
0000040a c3a3                 LGOTO 0x45c; user_style.o:_00250_DS_=0x45c
0000040b fe9f                 MOVR 0x60, 0x0
0000040c ff10                 MOVAR 0x6f
0000040d fe9e                 MOVR 0x61, 0x0
0000040e ff0f                 MOVAR 0x70
0000040f fd12                 CLRR 0x6d
00000410 fa43                 INCR 0x3c, 0x1
00000411 c3a3                 LGOTO 0x45c; user_style.o:_00250_DS_=0x45c
00000412                      user_style.o:_00234_DS_:
00000412 fe90                 MOVR 0x6f, 0x0
00000413 ee8f                 IORAR 0x70, 0x0
00000414 f6fc                 BTRSS 0x3, 0x2
00000415 c3a3                 LGOTO 0x45c; user_style.o:_00250_DS_=0x45c
00000416 fd49                 CLRR 0x36
00000417 de00                 MOVIA 0xff
00000418 ff48                 MOVAR 0x37
00000419 fd47                 CLRR 0x38
0000041a de00                 MOVIA 0xff
0000041b ff46                 MOVAR 0x39
0000041c fd45                 CLRR 0x3a
0000041d fd44                 CLRR 0x3b
0000041e dedd                 MOVIA 0x22
0000041f d52c                 LCALL 0x2d3; _WS281x_Style_2=0x2d3
00000420 fe92                 MOVR 0x6d, 0x0
00000421 db9c                 XORIA 0x63
00000422 f6fc                 BTRSS 0x3, 0x2
00000423 c3a3                 LGOTO 0x45c; user_style.o:_00250_DS_=0x45c
00000424 fe9f                 MOVR 0x60, 0x0
00000425 ff10                 MOVAR 0x6f
00000426 fe9e                 MOVR 0x61, 0x0
00000427 ff0f                 MOVAR 0x70
00000428 fd12                 CLRR 0x6d
00000429 fa43                 INCR 0x3c, 0x1
0000042a c3a3                 LGOTO 0x45c; user_style.o:_00250_DS_=0x45c
0000042b                      user_style.o:_00239_DS_:
0000042b fe90                 MOVR 0x6f, 0x0
0000042c ee8f                 IORAR 0x70, 0x0
0000042d f6fc                 BTRSS 0x3, 0x2
0000042e c3a3                 LGOTO 0x45c; user_style.o:_00250_DS_=0x45c
0000042f fd49                 CLRR 0x36
00000430 fd48                 CLRR 0x37
00000431 de00                 MOVIA 0xff
00000432 ff47                 MOVAR 0x38
00000433 fd46                 CLRR 0x39
00000434 de00                 MOVIA 0xff
00000435 ff45                 MOVAR 0x3a
00000436 fd44                 CLRR 0x3b
00000437 dede                 MOVIA 0x21
00000438 d52c                 LCALL 0x2d3; _WS281x_Style_2=0x2d3
00000439 fe92                 MOVR 0x6d, 0x0
0000043a db9c                 XORIA 0x63
0000043b f6fc                 BTRSS 0x3, 0x2
0000043c c3a3                 LGOTO 0x45c; user_style.o:_00250_DS_=0x45c
0000043d fe9f                 MOVR 0x60, 0x0
0000043e ff10                 MOVAR 0x6f
0000043f fe9e                 MOVR 0x61, 0x0
00000440 ff0f                 MOVAR 0x70
00000441 fd12                 CLRR 0x6d
00000442 fa43                 INCR 0x3c, 0x1
00000443 c3a3                 LGOTO 0x45c; user_style.o:_00250_DS_=0x45c
00000444                      user_style.o:_00244_DS_:
00000444 fe90                 MOVR 0x6f, 0x0
00000445 ee8f                 IORAR 0x70, 0x0
00000446 f6fc                 BTRSS 0x3, 0x2
00000447 c3a3                 LGOTO 0x45c; user_style.o:_00250_DS_=0x45c
00000448 de00                 MOVIA 0xff
00000449 ff49                 MOVAR 0x36
0000044a ff48                 MOVAR 0x37
0000044b ff47                 MOVAR 0x38
0000044c fd46                 CLRR 0x39
0000044d fd45                 CLRR 0x3a
0000044e de00                 MOVIA 0xff
0000044f ff44                 MOVAR 0x3b
00000450 dedd                 MOVIA 0x22
00000451 d52c                 LCALL 0x2d3; _WS281x_Style_2=0x2d3
00000452 fe92                 MOVR 0x6d, 0x0
00000453 db9c                 XORIA 0x63
00000454 f6fc                 BTRSS 0x3, 0x2
00000455 c3a3                 LGOTO 0x45c; user_style.o:_00250_DS_=0x45c
00000456 fe9f                 MOVR 0x60, 0x0
00000457 ff10                 MOVAR 0x6f
00000458 fe9e                 MOVR 0x61, 0x0
00000459 ff0f                 MOVAR 0x70
0000045a fd12                 CLRR 0x6d
0000045b fd43                 CLRR 0x3c
0000045c                      user_style.o:_00250_DS_:
0000045c ffef                 RET
0000045d                      _User_Style_Collision_Start:
0000045d de7d                 MOVIA 0x82
0000045e ff0d                 MOVAR 0x72
0000045f ffef                 RET
00000460                      _User_Style_Sweep_Process:
00000460 defb                 MOVIA 0x4
00000461 fbc3                 SUBAR 0x3c, 0x0
00000462 f3fc                 BTRSC 0x3, 0x0
00000463 c32e                 LGOTO 0x4d1; user_style.o:_00190_DS_=0x4d1
00000464 defb                 MOVIA 0x4
00000465 ff75                 MOVAR 0xa
00000466 fec3                 MOVR 0x3c, 0x0
00000467 da94                 ADDIA 0x6b
00000468 f3fc                 BTRSC 0x3, 0x0
00000469 fa75                 INCR 0xa, 0x1
0000046a ff7d                 MOVAR 0x2
0000046b                      user_style.o:_00220_DS_:
0000046b c390                 LGOTO 0x46f; user_style.o:_00169_DS_=0x46f
0000046c c378                 LGOTO 0x487; user_style.o:_00174_DS_=0x487
0000046d c35f                 LGOTO 0x4a0; user_style.o:_00179_DS_=0x4a0
0000046e c346                 LGOTO 0x4b9; user_style.o:_00184_DS_=0x4b9
0000046f                      user_style.o:_00169_DS_:
0000046f fe90                 MOVR 0x6f, 0x0
00000470 ee8f                 IORAR 0x70, 0x0
00000471 f6fc                 BTRSS 0x3, 0x2
00000472 c32e                 LGOTO 0x4d1; user_style.o:_00190_DS_=0x4d1
00000473 de00                 MOVIA 0xff
00000474 ff49                 MOVAR 0x36
00000475 fd48                 CLRR 0x37
00000476 fd47                 CLRR 0x38
00000477 fd46                 CLRR 0x39
00000478 fd45                 CLRR 0x3a
00000479 fd44                 CLRR 0x3b
0000047a dede                 MOVIA 0x21
0000047b d52c                 LCALL 0x2d3; _WS281x_Style_2=0x2d3
0000047c fe92                 MOVR 0x6d, 0x0
0000047d db9c                 XORIA 0x63
0000047e f6fc                 BTRSS 0x3, 0x2
0000047f c32e                 LGOTO 0x4d1; user_style.o:_00190_DS_=0x4d1
00000480 fe9f                 MOVR 0x60, 0x0
00000481 ff10                 MOVAR 0x6f
00000482 fe9e                 MOVR 0x61, 0x0
00000483 ff0f                 MOVAR 0x70
00000484 fd12                 CLRR 0x6d
00000485 fa43                 INCR 0x3c, 0x1
00000486 c32e                 LGOTO 0x4d1; user_style.o:_00190_DS_=0x4d1
00000487                      user_style.o:_00174_DS_:
00000487 fe90                 MOVR 0x6f, 0x0
00000488 ee8f                 IORAR 0x70, 0x0
00000489 f6fc                 BTRSS 0x3, 0x2
0000048a c32e                 LGOTO 0x4d1; user_style.o:_00190_DS_=0x4d1
0000048b fd49                 CLRR 0x36
0000048c de00                 MOVIA 0xff
0000048d ff48                 MOVAR 0x37
0000048e fd47                 CLRR 0x38
0000048f de00                 MOVIA 0xff
00000490 ff46                 MOVAR 0x39
00000491 fd45                 CLRR 0x3a
00000492 fd44                 CLRR 0x3b
00000493 dede                 MOVIA 0x21
00000494 d52c                 LCALL 0x2d3; _WS281x_Style_2=0x2d3
00000495 fe92                 MOVR 0x6d, 0x0
00000496 db9c                 XORIA 0x63
00000497 f6fc                 BTRSS 0x3, 0x2
00000498 c32e                 LGOTO 0x4d1; user_style.o:_00190_DS_=0x4d1
00000499 fe9f                 MOVR 0x60, 0x0
0000049a ff10                 MOVAR 0x6f
0000049b fe9e                 MOVR 0x61, 0x0
0000049c ff0f                 MOVAR 0x70
0000049d fd12                 CLRR 0x6d
0000049e fa43                 INCR 0x3c, 0x1
0000049f c32e                 LGOTO 0x4d1; user_style.o:_00190_DS_=0x4d1
000004a0                      user_style.o:_00179_DS_:
000004a0 fe90                 MOVR 0x6f, 0x0
000004a1 ee8f                 IORAR 0x70, 0x0
000004a2 f6fc                 BTRSS 0x3, 0x2
000004a3 c32e                 LGOTO 0x4d1; user_style.o:_00190_DS_=0x4d1
000004a4 fd49                 CLRR 0x36
000004a5 fd48                 CLRR 0x37
000004a6 de00                 MOVIA 0xff
000004a7 ff47                 MOVAR 0x38
000004a8 fd46                 CLRR 0x39
000004a9 de00                 MOVIA 0xff
000004aa ff45                 MOVAR 0x3a
000004ab fd44                 CLRR 0x3b
000004ac dede                 MOVIA 0x21
000004ad d52c                 LCALL 0x2d3; _WS281x_Style_2=0x2d3
000004ae fe92                 MOVR 0x6d, 0x0
000004af db9c                 XORIA 0x63
000004b0 f6fc                 BTRSS 0x3, 0x2
000004b1 c32e                 LGOTO 0x4d1; user_style.o:_00190_DS_=0x4d1
000004b2 fe9f                 MOVR 0x60, 0x0
000004b3 ff10                 MOVAR 0x6f
000004b4 fe9e                 MOVR 0x61, 0x0
000004b5 ff0f                 MOVAR 0x70
000004b6 fd12                 CLRR 0x6d
000004b7 fa43                 INCR 0x3c, 0x1
000004b8 c32e                 LGOTO 0x4d1; user_style.o:_00190_DS_=0x4d1
000004b9                      user_style.o:_00184_DS_:
000004b9 fe90                 MOVR 0x6f, 0x0
000004ba ee8f                 IORAR 0x70, 0x0
000004bb f6fc                 BTRSS 0x3, 0x2
000004bc c32e                 LGOTO 0x4d1; user_style.o:_00190_DS_=0x4d1
000004bd de00                 MOVIA 0xff
000004be ff49                 MOVAR 0x36
000004bf ff48                 MOVAR 0x37
000004c0 ff47                 MOVAR 0x38
000004c1 fd46                 CLRR 0x39
000004c2 fd45                 CLRR 0x3a
000004c3 de00                 MOVIA 0xff
000004c4 ff44                 MOVAR 0x3b
000004c5 dede                 MOVIA 0x21
000004c6 d52c                 LCALL 0x2d3; _WS281x_Style_2=0x2d3
000004c7 fe92                 MOVR 0x6d, 0x0
000004c8 db9c                 XORIA 0x63
000004c9 f6fc                 BTRSS 0x3, 0x2
000004ca c32e                 LGOTO 0x4d1; user_style.o:_00190_DS_=0x4d1
000004cb fe9f                 MOVR 0x60, 0x0
000004cc ff10                 MOVAR 0x6f
000004cd fe9e                 MOVR 0x61, 0x0
000004ce ff0f                 MOVAR 0x70
000004cf fd12                 CLRR 0x6d
000004d0 fd43                 CLRR 0x3c
000004d1                      user_style.o:_00190_DS_:
000004d1 ffef                 RET
000004d2                      _User_Style_Sweep_Start:
000004d2 de7b                 MOVIA 0x84
000004d3 ff0d                 MOVAR 0x72
000004d4 ffef                 RET
000004d5                      _User_Style_Breath_Process:
000004d5 defb                 MOVIA 0x4
000004d6 fbc3                 SUBAR 0x3c, 0x0
000004d7 f3fc                 BTRSC 0x3, 0x0
000004d8 c2cb                 LGOTO 0x534; user_style.o:_00130_DS_=0x534
000004d9 defb                 MOVIA 0x4
000004da ff75                 MOVAR 0xa
000004db fec3                 MOVR 0x3c, 0x0
000004dc da1f                 ADDIA 0xe0
000004dd f3fc                 BTRSC 0x3, 0x0
000004de fa75                 INCR 0xa, 0x1
000004df ff7d                 MOVAR 0x2
000004e0                      user_style.o:_00160_DS_:
000004e0 c31b                 LGOTO 0x4e4; user_style.o:_00109_DS_=0x4e4
000004e1 c307                 LGOTO 0x4f8; user_style.o:_00114_DS_=0x4f8
000004e2 c2f2                 LGOTO 0x50d; user_style.o:_00119_DS_=0x50d
000004e3 c2de                 LGOTO 0x521; user_style.o:_00124_DS_=0x521
000004e4                      user_style.o:_00109_DS_:
000004e4 fe90                 MOVR 0x6f, 0x0
000004e5 ee8f                 IORAR 0x70, 0x0
000004e6 f6fc                 BTRSS 0x3, 0x2
000004e7 c2cb                 LGOTO 0x534; user_style.o:_00130_DS_=0x534
000004e8 de00                 MOVIA 0xff
000004e9 ff49                 MOVAR 0x36
000004ea ff48                 MOVAR 0x37
000004eb fd47                 CLRR 0x38
000004ec d5e2                 LCALL 0x21d; _WS281x_Style_3=0x21d
000004ed fe92                 MOVR 0x6d, 0x0
000004ee db9c                 XORIA 0x63
000004ef f6fc                 BTRSS 0x3, 0x2
000004f0 c2cb                 LGOTO 0x534; user_style.o:_00130_DS_=0x534
000004f1 fe9f                 MOVR 0x60, 0x0
000004f2 ff10                 MOVAR 0x6f
000004f3 fe9e                 MOVR 0x61, 0x0
000004f4 ff0f                 MOVAR 0x70
000004f5 fd12                 CLRR 0x6d
000004f6 fa43                 INCR 0x3c, 0x1
000004f7 c2cb                 LGOTO 0x534; user_style.o:_00130_DS_=0x534
000004f8                      user_style.o:_00114_DS_:
000004f8 fe90                 MOVR 0x6f, 0x0
000004f9 ee8f                 IORAR 0x70, 0x0
000004fa f6fc                 BTRSS 0x3, 0x2
000004fb c2cb                 LGOTO 0x534; user_style.o:_00130_DS_=0x534
000004fc de00                 MOVIA 0xff
000004fd ff49                 MOVAR 0x36
000004fe fd48                 CLRR 0x37
000004ff de00                 MOVIA 0xff
00000500 ff47                 MOVAR 0x38
00000501 d5e2                 LCALL 0x21d; _WS281x_Style_3=0x21d
00000502 fe92                 MOVR 0x6d, 0x0
00000503 db9c                 XORIA 0x63
00000504 f6fc                 BTRSS 0x3, 0x2
00000505 c2cb                 LGOTO 0x534; user_style.o:_00130_DS_=0x534
00000506 fe9f                 MOVR 0x60, 0x0
00000507 ff10                 MOVAR 0x6f
00000508 fe9e                 MOVR 0x61, 0x0
00000509 ff0f                 MOVAR 0x70
0000050a fd12                 CLRR 0x6d
0000050b fa43                 INCR 0x3c, 0x1
0000050c c2cb                 LGOTO 0x534; user_style.o:_00130_DS_=0x534
0000050d                      user_style.o:_00119_DS_:
0000050d fe90                 MOVR 0x6f, 0x0
0000050e ee8f                 IORAR 0x70, 0x0
0000050f f6fc                 BTRSS 0x3, 0x2
00000510 c2cb                 LGOTO 0x534; user_style.o:_00130_DS_=0x534
00000511 fd49                 CLRR 0x36
00000512 de00                 MOVIA 0xff
00000513 ff48                 MOVAR 0x37
00000514 ff47                 MOVAR 0x38
00000515 d5e2                 LCALL 0x21d; _WS281x_Style_3=0x21d
00000516 fe92                 MOVR 0x6d, 0x0
00000517 db9c                 XORIA 0x63
00000518 f6fc                 BTRSS 0x3, 0x2
00000519 c2cb                 LGOTO 0x534; user_style.o:_00130_DS_=0x534
0000051a fe9f                 MOVR 0x60, 0x0
0000051b ff10                 MOVAR 0x6f
0000051c fe9e                 MOVR 0x61, 0x0
0000051d ff0f                 MOVAR 0x70
0000051e fd12                 CLRR 0x6d
0000051f fa43                 INCR 0x3c, 0x1
00000520 c2cb                 LGOTO 0x534; user_style.o:_00130_DS_=0x534
00000521                      user_style.o:_00124_DS_:
00000521 fe90                 MOVR 0x6f, 0x0
00000522 ee8f                 IORAR 0x70, 0x0
00000523 f6fc                 BTRSS 0x3, 0x2
00000524 c2cb                 LGOTO 0x534; user_style.o:_00130_DS_=0x534
00000525 de00                 MOVIA 0xff
00000526 ff49                 MOVAR 0x36
00000527 ff48                 MOVAR 0x37
00000528 ff47                 MOVAR 0x38
00000529 d5e2                 LCALL 0x21d; _WS281x_Style_3=0x21d
0000052a fe92                 MOVR 0x6d, 0x0
0000052b db9c                 XORIA 0x63
0000052c f6fc                 BTRSS 0x3, 0x2
0000052d c2cb                 LGOTO 0x534; user_style.o:_00130_DS_=0x534
0000052e fe9f                 MOVR 0x60, 0x0
0000052f ff10                 MOVAR 0x6f
00000530 fe9e                 MOVR 0x61, 0x0
00000531 ff0f                 MOVAR 0x70
00000532 fd12                 CLRR 0x6d
00000533 fd43                 CLRR 0x3c
00000534                      user_style.o:_00130_DS_:
00000534 ffef                 RET
00000535                      _User_Style_Breath_Start:
00000535 de7a                 MOVIA 0x85
00000536 ff0d                 MOVAR 0x72
00000537 ffef                 RET
00000538                      _INT1_Init:
00000538 ded7                 MOVIA 0x28
00000539 ff67                 MOVAR 0x18
0000053a e471                 BSR 0xe, 0x7
0000053b ffef                 RET
0000053c                      _Timer3_Init:
0000053c fd63                 CLRR 0x1c
0000053d de82                 MOVIA 0x7d
0000053e ffaf                 SFUN 0x10
0000053f defc                 MOVIA 0x3
00000540 ffae                 SFUN 0x11
00000541 defd                 MOVIA 0x2
00000542 ffad                 SFUN 0x12
00000543 defe                 MOVIA 0x1
00000544 ff60                 MOVAR 0x1f
00000545 ffef                 RET
00000546                      _Timer1_Init:
00000546 dedf                 MOVIA 0x20
00000547 ff66                 MOVAR 0x19
00000548 de8e                 MOVIA 0x71
00000549 ffbf                 SFUN 0x0
0000054a defc                 MOVIA 0x3
0000054b ffbe                 SFUN 0x1
0000054c ffbd                 SFUN 0x2
0000054d e671                 BSR 0xe, 0x3
0000054e ffef                 RET
0000054f                      _GPIO_Init:
0000054f de7b                 MOVIA 0x84
00000550 fffa                 IOST 0x5
00000551 de84                 MOVIA 0x7b
00000552 fff6                 IOST 0x9
00000553 e17a                 BCR 0x5, 0x5
00000554 ffef                 RET
00000555                      main.o:__sdcc_interrupt:
00000555 ff3d                 MOVAR 0x42
00000556 eafc                 SWAPR 0x3, 0x0
00000557 fd7c                 CLRR 0x3
00000558 ff3e                 MOVAR 0x41
00000559 fef5                 MOVR 0xa, 0x0
0000055a fd75                 CLRR 0xa
0000055b ff3f                 MOVAR 0x40
0000055c fefb                 MOVR 0x4, 0x0
0000055d ff1a                 MOVAR 0x65
0000055e feb0                 MOVR 0x4f, 0x0
0000055f ff19                 MOVAR 0x66
00000560 feb1                 MOVR 0x4e, 0x0
00000561 ff18                 MOVAR 0x67
00000562 f670                 BTRSS 0xf, 0x3
00000563 c282                 LGOTO 0x57d; main.o:_00110_DS_=0x57d
00000564 d441                 LCALL 0x3be; _WS281x_Style_Process=0x3be
00000565 fe90                 MOVR 0x6f, 0x0
00000566 ee8f                 IORAR 0x70, 0x0
00000567 f2fc                 BTRSC 0x3, 0x2
00000568 c292                 LGOTO 0x56d; main.o:_00106_DS_=0x56d
00000569 de00                 MOVIA 0xff
0000056a fc10                 ADDAR 0x6f, 0x1
0000056b f7fc                 BTRSS 0x3, 0x0
0000056c f90f                 DECR 0x70, 0x1
0000056d                      main.o:_00106_DS_:
0000056d de08                 MOVIA 0xf7
0000056e ff70                 MOVAR 0xf
0000056f fa1c                 INCR 0x63, 0x1
00000570 fe9c                 MOVR 0x63, 0x0
00000571 dbf5                 XORIA 0xa
00000572 f6fc                 BTRSS 0x3, 0x2
00000573 c282                 LGOTO 0x57d; main.o:_00110_DS_=0x57d
00000574 fd1c                 CLRR 0x63
00000575 deff                 MOVIA 0x0
00000576 ff1d                 MOVAR 0x62
00000577 dedf                 MOVIA 0x20
00000578 ff31                 MOVAR 0x4e
00000579 fe9d                 MOVR 0x62, 0x0
0000057a ff30                 MOVAR 0x4f
0000057b deff                 MOVIA 0x0
0000057c d7dc                 LCALL 0x23; _ScanKey=0x23
0000057d                      main.o:_00110_DS_:
0000057d f5e0                 BTRSS 0x1f, 0x4
0000057e c274                 LGOTO 0x58b; main.o:_00114_DS_=0x58b
0000057f fa14                 INCR 0x6b, 0x1
00000580 fa1b                 INCR 0x64, 0x1
00000581 fe9b                 MOVR 0x64, 0x0
00000582 dbf5                 XORIA 0xa
00000583 f6fc                 BTRSS 0x3, 0x2
00000584 c278                 LGOTO 0x587; main.o:_00112_DS_=0x587
00000585 fd1b                 CLRR 0x64
00000586 d626                 LCALL 0x1d9; _IR_Decode_Time_Process=0x1d9
00000587                      main.o:_00112_DS_:
00000587 fee0                 MOVR 0x1f, 0x0
00000588 dd10                 ANDIA 0xef
00000589 dc1f                 IORIA 0xe0
0000058a ff60                 MOVAR 0x1f
0000058b                      main.o:_00114_DS_:
0000058b f470                 BTRSS 0xf, 0x7
0000058c c26f                 LGOTO 0x590; main.o:_00117_DS_=0x590
0000058d d6b8                 LCALL 0x147; _IR_Decode=0x147
0000058e de80                 MOVIA 0x7f
0000058f ff70                 MOVAR 0xf
00000590                      main.o:_00117_DS_:
00000590 fe98                 MOVR 0x67, 0x0
00000591 ff31                 MOVAR 0x4e
00000592 fe99                 MOVR 0x66, 0x0
00000593 ff30                 MOVAR 0x4f
00000594 fe9a                 MOVR 0x65, 0x0
00000595 ff7b                 MOVAR 0x4
00000596 febf                 MOVR 0x40, 0x0
00000597 ff75                 MOVAR 0xa
00000598 fd7c                 CLRR 0x3
00000599 eabe                 SWAPR 0x41, 0x0
0000059a ff7c                 MOVAR 0x3
0000059b ea3d                 SWAPR 0x42, 0x1
0000059c eabd                 SWAPR 0x42, 0x0
0000059d                      main.o:END_OF_INTERRUPT:
0000059d ffee                 RETIE
0000059e                      _main:
0000059e d2b0                 LCALL 0x54f; _GPIO_Init=0x54f
0000059f d7fe                 LCALL 0x1; _ScanKey_Config=0x1
000005a0 d2b9                 LCALL 0x546; _Timer1_Init=0x546
000005a1 d2c3                 LCALL 0x53c; _Timer3_Init=0x53c
000005a2 d2c7                 LCALL 0x538; _INT1_Init=0x538
000005a3 fee0                 MOVR 0x1f, 0x0
000005a4 dd01                 ANDIA 0xfe
000005a5 dc0f                 IORIA 0xf0
000005a6 ff60                 MOVAR 0x1f
000005a7 fffb                 ENI
000005a8 de9b                 MOVIA 0x64
000005a9 ff1f                 MOVAR 0x60
000005aa fd1e                 CLRR 0x61
000005ab de9b                 MOVIA 0x64
000005ac ff10                 MOVAR 0x6f
000005ad fd0f                 CLRR 0x70
000005ae d2ca                 LCALL 0x535; _User_Style_Breath_Start=0x535
000005af                      main.o:_00123_DS_:
000005af c250                 LGOTO 0x5af; main.o:_00123_DS_=0x5af
000005b0 ffef                 RET
000005b1                      __gptrget2:
000005b1 dbff                 XORIA 0x0
000005b2 f2fc                 BTRSC 0x3, 0x2
000005b3 c246                 LGOTO 0x5b9; _gptrget2.o:__dataptrget2=0x5b9
000005b4 db7f                 XORIA 0x80
000005b5 f2fc                 BTRSC 0x3, 0x2
000005b6 c23f                 LGOTO 0x5c0; _gptrget2.o:__codeptrget2=0x5c0
000005b7 fd30                 CLRR 0x4f
000005b8 dfff                 RETIA 0x0
000005b9                      _gptrget2.o:__dataptrget2:
000005b9 feb1                 MOVR 0x4e, 0x0
000005ba ff7b                 MOVAR 0x4
000005bb feff                 MOVR 0x0, 0x0
000005bc ff30                 MOVAR 0x4f
000005bd fa7b                 INCR 0x4, 0x1
000005be feff                 MOVR 0x0, 0x0
000005bf ffef                 RET
000005c0                      _gptrget2.o:__codeptrget2:
000005c0 d21d                 LCALL 0x5e2; __codeptrget1=0x5e2
000005c1 ff32                 MOVAR 0x4d
000005c2 e931                 INCRSZ 0x4e, 0x1
000005c3 f930                 DECR 0x4f, 0x1
000005c4 fa30                 INCR 0x4f, 0x1
000005c5 d21d                 LCALL 0x5e2; __codeptrget1=0x5e2
000005c6 ff33                 MOVAR 0x4c
000005c7 feb2                 MOVR 0x4d, 0x0
000005c8 ff30                 MOVAR 0x4f
000005c9 feb3                 MOVR 0x4c, 0x0
000005ca ffef                 RET
000005cb                      __gptrput2:
000005cb dbff                 XORIA 0x0
000005cc f2fc                 BTRSC 0x3, 0x2
000005cd c230                 LGOTO 0x5cf; _gptrput2.o:__dataptrput2=0x5cf
000005ce ffef                 RET
000005cf                      _gptrput2.o:__dataptrput2:
000005cf feb1                 MOVR 0x4e, 0x0
000005d0 ff7b                 MOVAR 0x4
000005d1 feb3                 MOVR 0x4c, 0x0
000005d2 ff7f                 MOVAR 0x0
000005d3 fa7b                 INCR 0x4, 0x1
000005d4 feb2                 MOVR 0x4d, 0x0
000005d5 ff7f                 MOVAR 0x0
000005d6 ffef                 RET
000005d7                      __gptrget:
000005d7 dbff                 XORIA 0x0
000005d8 f2fc                 BTRSC 0x3, 0x2
000005d9 c221                 LGOTO 0x5de; _gptrget1.o:__dataptrget1=0x5de
000005da db7f                 XORIA 0x80
000005db f2fc                 BTRSC 0x3, 0x2
000005dc c21d                 LGOTO 0x5e2; __codeptrget1=0x5e2
000005dd dfff                 RETIA 0x0
000005de                      _gptrget1.o:__dataptrget1:
000005de feb1                 MOVR 0x4e, 0x0
000005df ff7b                 MOVAR 0x4
000005e0 feff                 MOVR 0x0, 0x0
000005e1 ffef                 RET
000005e2                      __codeptrget1:
000005e2 feb0                 MOVR 0x4f, 0x0
000005e3 ffb8                 SFUN 0x7
000005e4 feb1                 MOVR 0x4e, 0x0
000005e5 fdee                 TABLEA
000005e6 ffef                 RET
000005e7                      __gptrput:
000005e7 dbff                 XORIA 0x0
000005e8 f2fc                 BTRSC 0x3, 0x2
000005e9 c214                 LGOTO 0x5eb; _gptrput1.o:__dataptrput1=0x5eb
000005ea ffef                 RET
000005eb                      _gptrput1.o:__dataptrput1:
000005eb feb1                 MOVR 0x4e, 0x0
000005ec ff7b                 MOVAR 0x4
000005ed feb2                 MOVR 0x4d, 0x0
000005ee ff7f                 MOVAR 0x0
000005ef ffef                 RET
000005f0                      ___cinit_load__:
