00000000 c7fe                 LGOTO 0x1; __nyc_ny8_startup=0x1
00000001                      __nyc_ny8_startup:
00000001 d569                 LCALL 0x296; ___cinit_load__=0x296
00000002 c7c9                 LGOTO 0x36; _main=0x36
00000003                      main.o:_00331_DS_:
00000003 f56f                 BTRSS 0x10, 0x5
00000004 c7fc                 LGOTO 0x3; main.o:_00331_DS_=0x3
00000005 ffef                 RET
00000008 c7f6                 LGOTO 0x9; main.o:__sdcc_interrupt=0x9
00000009                      main.o:__sdcc_interrupt:
00000009 ff3d                 MOVAR 0x42
0000000a eafc                 SWAPR 0x3, 0x0
0000000b fd7c                 CLRR 0x3
0000000c ff3e                 MOVAR 0x41
0000000d fef5                 MOVR 0xa, 0x0
0000000e fd75                 CLRR 0xa
0000000f ff3f                 MOVAR 0x40
00000010 fefb                 MOVR 0x4, 0x0
00000011 e0fc                 BCR 0x3, 0x6
00000012 ff4b                 MOVAR 0x34
00000013 feba                 MOVR 0x45, 0x0
00000014 ff4a                 MOVAR 0x35
00000015 febb                 MOVR 0x44, 0x0
00000016 ff49                 MOVAR 0x36
00000017 f7f0                 BTRSS 0xf, 0x0
00000018 c7dd                 LGOTO 0x22; main.o:_00108_DS_=0x22
00000019 dec8                 MOVIA 0x37
0000001a fc7e                 ADDAR 0x1, 0x1
0000001b fa48                 INCR 0x37, 0x1
0000001c de9b                 MOVIA 0x64
0000001d fbc8                 SUBAR 0x37, 0x0
0000001e f7fc                 BTRSS 0x3, 0x0
0000001f c7dd                 LGOTO 0x22; main.o:_00108_DS_=0x22
00000020 e7c7                 BSR 0x38, 0x0
00000021 fd48                 CLRR 0x37
00000022                      main.o:_00108_DS_:
00000022 f770                 BTRSS 0xf, 0x1
00000023 c7d9                 LGOTO 0x26; main.o:_00110_DS_=0x26
00000024 de02                 MOVIA 0xfd
00000025                      ___cinit_size__:
00000025 ff70                 MOVAR 0xf
00000026                      main.o:_00110_DS_:
00000026 fd70                 CLRR 0xf
00000027 e0fc                 BCR 0x3, 0x6
00000028 fec9                 MOVR 0x36, 0x0
00000029 ff3b                 MOVAR 0x44
0000002a feca                 MOVR 0x35, 0x0
0000002b ff3a                 MOVAR 0x45
0000002c fecb                 MOVR 0x34, 0x0
0000002d ff7b                 MOVAR 0x4
0000002e febf                 MOVR 0x40, 0x0
0000002f ff75                 MOVAR 0xa
00000030 fd7c                 CLRR 0x3
00000031 eabe                 SWAPR 0x41, 0x0
00000032 ff7c                 MOVAR 0x3
00000033 ea3d                 SWAPR 0x42, 0x1
00000034 eabd                 SWAPR 0x42, 0x0
00000035                      main.o:END_OF_INTERRUPT:
00000035 ffee                 RETIE
00000036                      _main:
00000036 d5b0                 LCALL 0x24f; _initSys=0x24f
00000037 d6ef                 LCALL 0x110; _initAD=0x110
00000038                      main.o:_00135_DS_:
00000038 d714                 LCALL 0xeb; _ledShow=0xeb
00000039 fffd                 CLRWDT
0000003a e0fc                 BCR 0x3, 0x6
0000003b f7c7                 BTRSS 0x38, 0x0
0000003c c7c7                 LGOTO 0x38; main.o:_00135_DS_=0x38
0000003d e3c7                 BCR 0x38, 0x0
0000003e f8fa                 COMR 0x5, 0x0
0000003f ff5f                 MOVAR 0x20
00000040 dedf                 MOVIA 0x20
00000041 ef5f                 ANDAR 0x20, 0x1
00000042 fedf                 MOVR 0x20, 0x0
00000043 d779                 LCALL 0x86; _keyRead=0x86
00000044 e0fc                 BCR 0x3, 0x6
00000045 ff5f                 MOVAR 0x20
00000046 dbfe                 XORIA 0x1
00000047 f6fc                 BTRSS 0x3, 0x2
00000048 c7a9                 LGOTO 0x56; main.o:_00118_DS_=0x56
00000049 def8                 MOVIA 0x7
0000004a fbb7                 SUBAR 0x48, 0x0
0000004b f6fc                 BTRSS 0x3, 0x2
0000004c c7b0                 LGOTO 0x4f; main.o:_00172_DS_=0x4f
0000004d de49                 MOVIA 0xb6
0000004e fbb8                 SUBAR 0x47, 0x0
0000004f                      main.o:_00172_DS_:
0000004f f3fc                 BTRSC 0x3, 0x0
00000050 c7a9                 LGOTO 0x56; main.o:_00118_DS_=0x56
00000051 de0b                 MOVIA 0xf4
00000052 e0fc                 BCR 0x3, 0x6
00000053 ff45                 MOVAR 0x3a
00000054 defe                 MOVIA 0x1
00000055 ff44                 MOVAR 0x3b
00000056                      main.o:_00118_DS_:
00000056 deed                 MOVIA 0x12
00000057 e0fc                 BCR 0x3, 0x6
00000058 fbc3                 SUBAR 0x3c, 0x0
00000059 f3fc                 BTRSC 0x3, 0x0
0000005a c7a2                 LGOTO 0x5d; main.o:_00124_DS_=0x5d
0000005b d5f3                 LCALL 0x20c; _checkInAD=0x20c
0000005c c799                 LGOTO 0x66; main.o:_00125_DS_=0x66
0000005d                      main.o:_00124_DS_:
0000005d ded2                 MOVIA 0x2d
0000005e e0fc                 BCR 0x3, 0x6
0000005f fbc3                 SUBAR 0x3c, 0x0
00000060 f3fc                 BTRSC 0x3, 0x0
00000061 c799                 LGOTO 0x66; main.o:_00125_DS_=0x66
00000062 dee8                 MOVIA 0x17
00000063 fbc3                 SUBAR 0x3c, 0x0
00000064 f3fc                 BTRSC 0x3, 0x0
00000065 d695                 LCALL 0x16a; _checkBat=0x16a
00000066                      main.o:_00125_DS_:
00000066 e0fc                 BCR 0x3, 0x6
00000067 fa43                 INCR 0x3c, 0x1
00000068 decc                 MOVIA 0x33
00000069 fbc3                 SUBAR 0x3c, 0x0
0000006a f3fc                 BTRSC 0x3, 0x0
0000006b fd43                 CLRR 0x3c
0000006c d597                 LCALL 0x268; _setLedStep=0x268
0000006d e0fc                 BCR 0x3, 0x6
0000006e fec5                 MOVR 0x3a, 0x0
0000006f eec4                 IORAR 0x3b, 0x0
00000070 f2fc                 BTRSC 0x3, 0x2
00000071 c787                 LGOTO 0x78; main.o:_00132_DS_=0x78
00000072 de00                 MOVIA 0xff
00000073 fc45                 ADDAR 0x3a, 0x1
00000074 f7fc                 BTRSS 0x3, 0x0
00000075 f944                 DECR 0x3b, 0x1
00000076 fd42                 CLRR 0x3d
00000077 c7c7                 LGOTO 0x38; main.o:_00135_DS_=0x38
00000078                      main.o:_00132_DS_:
00000078 e0fc                 BCR 0x3, 0x6
00000079 fd46                 CLRR 0x39
0000007a fec5                 MOVR 0x3a, 0x0
0000007b eec4                 IORAR 0x3b, 0x0
0000007c f6fc                 BTRSS 0x3, 0x2
0000007d c7c7                 LGOTO 0x38; main.o:_00135_DS_=0x38
0000007e fa42                 INCR 0x3d, 0x1
0000007f de36                 MOVIA 0xc9
00000080 fbc2                 SUBAR 0x3d, 0x0
00000081 f7fc                 BTRSS 0x3, 0x0
00000082 c7c7                 LGOTO 0x38; main.o:_00135_DS_=0x38
00000083 d5c4                 LCALL 0x23b; _gotoSleep=0x23b
00000084 c7c7                 LGOTO 0x38; main.o:_00135_DS_=0x38
00000085 ffef                 RET
00000086                      _keyRead:
00000086 e0fc                 BCR 0x3, 0x6
00000087 ff4c                 MOVAR 0x33
00000088 fecc                 MOVR 0x33, 0x0
00000089 f2fc                 BTRSC 0x3, 0x2
0000008a c76c                 LGOTO 0x93; main.o:_00387_DS_=0x93
0000008b fa35                 INCR 0x4a, 0x1
0000008c de9b                 MOVIA 0x64
0000008d fbb5                 SUBAR 0x4a, 0x0
0000008e f7fc                 BTRSS 0x3, 0x0
0000008f c762                 LGOTO 0x9d; main.o:_00388_DS_=0x9d
00000090 de9b                 MOVIA 0x64
00000091 ff35                 MOVAR 0x4a
00000092 c762                 LGOTO 0x9d; main.o:_00388_DS_=0x9d
00000093                      main.o:_00387_DS_:
00000093 def7                 MOVIA 0x8
00000094 e0fc                 BCR 0x3, 0x6
00000095 fbb5                 SUBAR 0x4a, 0x0
00000096 f7fc                 BTRSS 0x3, 0x0
00000097 c764                 LGOTO 0x9b; main.o:_00385_DS_=0x9b
00000098 fd35                 CLRR 0x4a
00000099 defe                 MOVIA 0x1
0000009a c761                 LGOTO 0x9e; main.o:_00389_DS_=0x9e
0000009b                      main.o:_00385_DS_:
0000009b e0fc                 BCR 0x3, 0x6
0000009c fd35                 CLRR 0x4a
0000009d                      main.o:_00388_DS_:
0000009d deff                 MOVIA 0x0
0000009e                      main.o:_00389_DS_:
0000009e ffef                 RET
0000009f                      _LED4ON:
0000009f ffea                 IOSTR 0x5
000000a0 e0fc                 BCR 0x3, 0x6
000000a1 ff4d                 MOVAR 0x32
000000a2 e3cd                 BCR 0x32, 0x0
000000a3 fecd                 MOVR 0x32, 0x0
000000a4 fffa                 IOST 0x5
000000a5 ffe9                 IOSTR 0x6
000000a6 ff4d                 MOVAR 0x32
000000a7 e24d                 BCR 0x32, 0x3
000000a8 fecd                 MOVR 0x32, 0x0
000000a9 fff9                 IOST 0x6
000000aa e3fa                 BCR 0x5, 0x0
000000ab e679                 BSR 0x6, 0x3
000000ac de9b                 MOVIA 0x64
000000ad d6fb                 LCALL 0x104; _delay=0x104
000000ae d724                 LCALL 0xdb; _LedInput=0xdb
000000af ffef                 RET
000000b0                      _LED3ON:
000000b0 ffea                 IOSTR 0x5
000000b1 e0fc                 BCR 0x3, 0x6
000000b2 ff4e                 MOVAR 0x31
000000b3 e3ce                 BCR 0x31, 0x0
000000b4 fece                 MOVR 0x31, 0x0
000000b5 fffa                 IOST 0x5
000000b6 ffe9                 IOSTR 0x6
000000b7 ff4e                 MOVAR 0x31
000000b8 e24e                 BCR 0x31, 0x3
000000b9 fece                 MOVR 0x31, 0x0
000000ba fff9                 IOST 0x6
000000bb e7fa                 BSR 0x5, 0x0
000000bc e279                 BCR 0x6, 0x3
000000bd de9b                 MOVIA 0x64
000000be d6fb                 LCALL 0x104; _delay=0x104
000000bf d724                 LCALL 0xdb; _LedInput=0xdb
000000c0 ffef                 RET
000000c1                      _LED2ON:
000000c1 ffea                 IOSTR 0x5
000000c2 e0fc                 BCR 0x3, 0x6
000000c3 ff4f                 MOVAR 0x30
000000c4 de81                 MOVIA 0x7e
000000c5 ef4f                 ANDAR 0x30, 0x1
000000c6 fecf                 MOVR 0x30, 0x0
000000c7 fffa                 IOST 0x5
000000c8 e47a                 BSR 0x5, 0x7
000000c9 e3fa                 BCR 0x5, 0x0
000000ca de9b                 MOVIA 0x64
000000cb d6fb                 LCALL 0x104; _delay=0x104
000000cc d724                 LCALL 0xdb; _LedInput=0xdb
000000cd ffef                 RET
000000ce                      _LED1ON:
000000ce ffea                 IOSTR 0x5
000000cf e0fc                 BCR 0x3, 0x6
000000d0 ff50                 MOVAR 0x2f
000000d1 de81                 MOVIA 0x7e
000000d2 ef50                 ANDAR 0x2f, 0x1
000000d3 fed0                 MOVR 0x2f, 0x0
000000d4 fffa                 IOST 0x5
000000d5 e7fa                 BSR 0x5, 0x0
000000d6 e07a                 BCR 0x5, 0x7
000000d7 de9b                 MOVIA 0x64
000000d8 d6fb                 LCALL 0x104; _delay=0x104
000000d9 d724                 LCALL 0xdb; _LedInput=0xdb
000000da ffef                 RET
000000db                      _LedInput:
000000db ffea                 IOSTR 0x5
000000dc e0fc                 BCR 0x3, 0x6
000000dd ff52                 MOVAR 0x2d
000000de de7e                 MOVIA 0x81
000000df ee52                 IORAR 0x2d, 0x1
000000e0 fed2                 MOVR 0x2d, 0x0
000000e1 fffa                 IOST 0x5
000000e2 ffe9                 IOSTR 0x6
000000e3 ff52                 MOVAR 0x2d
000000e4 e652                 BSR 0x2d, 0x3
000000e5 fed2                 MOVR 0x2d, 0x0
000000e6 fff9                 IOST 0x6
000000e7 de81                 MOVIA 0x7e
000000e8 ef7a                 ANDAR 0x5, 0x1
000000e9 e279                 BCR 0x6, 0x3
000000ea ffef                 RET
000000eb                      _ledShow:
000000eb d724                 LCALL 0xdb; _LedInput=0xdb
000000ec defa                 MOVIA 0x5
000000ed e0fc                 BCR 0x3, 0x6
000000ee fbc6                 SUBAR 0x39, 0x0
000000ef f3fc                 BTRSC 0x3, 0x0
000000f0 c6fc                 LGOTO 0x103; main.o:_00351_DS_=0x103
000000f1 deff                 MOVIA 0x0
000000f2 ff75                 MOVAR 0xa
000000f3 fec6                 MOVR 0x39, 0x0
000000f4 da07                 ADDIA 0xf8
000000f5 f3fc                 BTRSC 0x3, 0x0
000000f6 fa75                 INCR 0xa, 0x1
000000f7 ff7d                 MOVAR 0x2
000000f8                      main.o:_00357_DS_:
000000f8 c702                 LGOTO 0xfd; main.o:_00345_DS_=0xfd
000000f9 c6fd                 LGOTO 0x102; main.o:_00349_DS_=0x102
000000fa c6fe                 LGOTO 0x101; main.o:_00348_DS_=0x101
000000fb c6ff                 LGOTO 0x100; main.o:_00347_DS_=0x100
000000fc c700                 LGOTO 0xff; main.o:_00346_DS_=0xff
000000fd                      main.o:_00345_DS_:
000000fd d724                 LCALL 0xdb; _LedInput=0xdb
000000fe c6fc                 LGOTO 0x103; main.o:_00351_DS_=0x103
000000ff                      main.o:_00346_DS_:
000000ff d760                 LCALL 0x9f; _LED4ON=0x9f
00000100                      main.o:_00347_DS_:
00000100 d74f                 LCALL 0xb0; _LED3ON=0xb0
00000101                      main.o:_00348_DS_:
00000101 d73e                 LCALL 0xc1; _LED2ON=0xc1
00000102                      main.o:_00349_DS_:
00000102 d731                 LCALL 0xce; _LED1ON=0xce
00000103                      main.o:_00351_DS_:
00000103 ffef                 RET
00000104                      _delay:
00000104 e0fc                 BCR 0x3, 0x6
00000105 ff52                 MOVAR 0x2d
00000106 fd51                 CLRR 0x2e
00000107                      main.o:_00338_DS_:
00000107 e0fc                 BCR 0x3, 0x6
00000108 fed2                 MOVR 0x2d, 0x0
00000109 fbd1                 SUBAR 0x2e, 0x0
0000010a f3fc                 BTRSC 0x3, 0x0
0000010b c6f0                 LGOTO 0x10f; main.o:_00340_DS_=0x10f
0000010c ffff                 NOP
0000010d fa51                 INCR 0x2e, 0x1
0000010e c6f8                 LGOTO 0x107; main.o:_00338_DS_=0x107
0000010f                      main.o:_00340_DS_:
0000010f ffef                 RET
00000110                      _initAD:
00000110 de7b                 MOVIA 0x84
00000111 ff6f                 MOVAR 0x10
00000112 defd                 MOVIA 0x2
00000113 ff6c                 MOVAR 0x13
00000114 deef                 MOVIA 0x10
00000115 ff6e                 MOVAR 0x11
00000116 defc                 MOVIA 0x3
00000117 ff6b                 MOVAR 0x14
00000118 e5ef                 BSR 0x10, 0x4
00000119 de9b                 MOVIA 0x64
0000011a d6fb                 LCALL 0x104; _delay=0x104
0000011b ffef                 RET
0000011c                      _F_AIN4_Convert:
0000011c e0fc                 BCR 0x3, 0x6
0000011d ff56                 MOVAR 0x29
0000011e fd36                 CLRR 0x49
0000011f fd38                 CLRR 0x47
00000120 fd37                 CLRR 0x48
00000121 de6b                 MOVIA 0x94
00000122 ff6f                 MOVAR 0x10
00000123 de37                 MOVIA 0xc8
00000124 d6fb                 LCALL 0x104; _delay=0x104
00000125 defe                 MOVIA 0x1
00000126 e0fc                 BCR 0x3, 0x6
00000127 ff55                 MOVAR 0x2a
00000128                      main.o:_00320_DS_:
00000128 e0fc                 BCR 0x3, 0x6
00000129 fed5                 MOVR 0x2a, 0x0
0000012a fbd6                 SUBAR 0x29, 0x0
0000012b f7fc                 BTRSS 0x3, 0x0
0000012c c6bd                 LGOTO 0x142; main.o:_00322_DS_=0x142
0000012d e4ef                 BSR 0x10, 0x6
0000012e d7fc                 LCALL 0x3; main.o:_00331_DS_=0x3
0000012f def0                 MOVIA 0xf
00000130 efee                 ANDAR 0x11, 0x0
00000131 e0fc                 BCR 0x3, 0x6
00000132 fc36                 ADDAR 0x49, 0x1
00000133 feed                 MOVR 0x12, 0x0
00000134 ff54                 MOVAR 0x2b
00000135 deff                 MOVIA 0x0
00000136 ff53                 MOVAR 0x2c
00000137 fed4                 MOVR 0x2b, 0x0
00000138 fc38                 ADDAR 0x47, 0x1
00000139 fed3                 MOVR 0x2c, 0x0
0000013a f3fc                 BTRSC 0x3, 0x0
0000013b fad3                 INCR 0x2c, 0x0
0000013c f2fc                 BTRSC 0x3, 0x2
0000013d c6c0                 LGOTO 0x13f; main.o:_00001_DS_=0x13f
0000013e fc37                 ADDAR 0x48, 0x1
0000013f                      main.o:_00001_DS_:
0000013f e0fc                 BCR 0x3, 0x6
00000140 fa55                 INCR 0x2a, 0x1
00000141 c6d7                 LGOTO 0x128; main.o:_00320_DS_=0x128
00000142                      main.o:_00322_DS_:
00000142 ffef                 RET
00000143                      _F_AIN2_Convert:
00000143 e0fc                 BCR 0x3, 0x6
00000144 ff5a                 MOVAR 0x25
00000145 fd39                 CLRR 0x46
00000146 fd41                 CLRR 0x3e
00000147 fd40                 CLRR 0x3f
00000148 de6d                 MOVIA 0x92
00000149 ff6f                 MOVAR 0x10
0000014a de37                 MOVIA 0xc8
0000014b d6fb                 LCALL 0x104; _delay=0x104
0000014c defe                 MOVIA 0x1
0000014d e0fc                 BCR 0x3, 0x6
0000014e ff59                 MOVAR 0x26
0000014f                      main.o:_00311_DS_:
0000014f e0fc                 BCR 0x3, 0x6
00000150 fed9                 MOVR 0x26, 0x0
00000151 fbda                 SUBAR 0x25, 0x0
00000152 f7fc                 BTRSS 0x3, 0x0
00000153 c696                 LGOTO 0x169; main.o:_00313_DS_=0x169
00000154 e4ef                 BSR 0x10, 0x6
00000155 d7fc                 LCALL 0x3; main.o:_00331_DS_=0x3
00000156 def0                 MOVIA 0xf
00000157 efee                 ANDAR 0x11, 0x0
00000158 e0fc                 BCR 0x3, 0x6
00000159 fc39                 ADDAR 0x46, 0x1
0000015a feed                 MOVR 0x12, 0x0
0000015b ff58                 MOVAR 0x27
0000015c deff                 MOVIA 0x0
0000015d ff57                 MOVAR 0x28
0000015e fed8                 MOVR 0x27, 0x0
0000015f fc41                 ADDAR 0x3e, 0x1
00000160 fed7                 MOVR 0x28, 0x0
00000161 f3fc                 BTRSC 0x3, 0x0
00000162 fad7                 INCR 0x28, 0x0
00000163 f2fc                 BTRSC 0x3, 0x2
00000164 c699                 LGOTO 0x166; main.o:_00002_DS_=0x166
00000165 fc40                 ADDAR 0x3f, 0x1
00000166                      main.o:_00002_DS_:
00000166 e0fc                 BCR 0x3, 0x6
00000167 fa59                 INCR 0x26, 0x1
00000168 c6b0                 LGOTO 0x14f; main.o:_00311_DS_=0x14f
00000169                      main.o:_00313_DS_:
00000169 ffef                 RET
0000016a                      _checkBat:
0000016a e0fc                 BCR 0x3, 0x6
0000016b fd39                 CLRR 0x46
0000016c fd41                 CLRR 0x3e
0000016d fd40                 CLRR 0x3f
0000016e def7                 MOVIA 0x8
0000016f d6bc                 LCALL 0x143; _F_AIN2_Convert=0x143
00000170 e0fc                 BCR 0x3, 0x6
00000171 eac0                 SWAPR 0x3f, 0x0
00000172 dd0f                 ANDIA 0xf0
00000173 ff40                 MOVAR 0x3f
00000174 eac1                 SWAPR 0x3e, 0x0
00000175 ff41                 MOVAR 0x3e
00000176 ddf0                 ANDIA 0xf
00000177 ee40                 IORAR 0x3f, 0x1
00000178 ed41                 XORAR 0x3e, 0x1
00000179 de0f                 MOVIA 0xf0
0000017a ef39                 ANDAR 0x46, 0x1
0000017b feb9                 MOVR 0x46, 0x0
0000017c ff5c                 MOVAR 0x23
0000017d deff                 MOVIA 0x0
0000017e ff5b                 MOVAR 0x24
0000017f fedc                 MOVR 0x23, 0x0
00000180 fc41                 ADDAR 0x3e, 0x1
00000181 fedb                 MOVR 0x24, 0x0
00000182 f3fc                 BTRSC 0x3, 0x0
00000183 fadb                 INCR 0x24, 0x0
00000184 f2fc                 BTRSC 0x3, 0x2
00000185 c678                 LGOTO 0x187; main.o:_00003_DS_=0x187
00000186 fc40                 ADDAR 0x3f, 0x1
00000187                      main.o:_00003_DS_:
00000187 e3fc                 BCR 0x3, 0x0
00000188 e0fc                 BCR 0x3, 0x6
00000189 ec40                 RRR 0x3f, 0x1
0000018a ec41                 RRR 0x3e, 0x1
0000018b e3fc                 BCR 0x3, 0x0
0000018c ec40                 RRR 0x3f, 0x1
0000018d ec41                 RRR 0x3e, 0x1
0000018e e3fc                 BCR 0x3, 0x0
0000018f ec40                 RRR 0x3f, 0x1
00000190 ec41                 RRR 0x3e, 0x1
00000191 feb2                 MOVR 0x4d, 0x0
00000192 f2fc                 BTRSC 0x3, 0x2
00000193 c667                 LGOTO 0x198; main.o:_00229_DS_=0x198
00000194 dedb                 MOVIA 0x24
00000195 ff41                 MOVAR 0x3e
00000196 defb                 MOVIA 0x4
00000197 ff40                 MOVAR 0x3f
00000198                      main.o:_00229_DS_:
00000198 defc                 MOVIA 0x3
00000199 e0fc                 BCR 0x3, 0x6
0000019a fbc0                 SUBAR 0x3f, 0x0
0000019b f6fc                 BTRSS 0x3, 0x2
0000019c c660                 LGOTO 0x19f; main.o:_00297_DS_=0x19f
0000019d de14                 MOVIA 0xeb
0000019e fbc1                 SUBAR 0x3e, 0x0
0000019f                      main.o:_00297_DS_:
0000019f f3fc                 BTRSC 0x3, 0x0
000001a0 c65a                 LGOTO 0x1a5; main.o:_00257_DS_=0x1a5
000001a1 defe                 MOVIA 0x1
000001a2 e0fc                 BCR 0x3, 0x6
000001a3 ff33                 MOVAR 0x4c
000001a4 c5f4                 LGOTO 0x20b; main.o:_00259_DS_=0x20b
000001a5                      main.o:_00257_DS_:
000001a5 defb                 MOVIA 0x4
000001a6 e0fc                 BCR 0x3, 0x6
000001a7 fbc0                 SUBAR 0x3f, 0x0
000001a8 f6fc                 BTRSS 0x3, 0x2
000001a9 c653                 LGOTO 0x1ac; main.o:_00298_DS_=0x1ac
000001aa dee5                 MOVIA 0x1a
000001ab fbc1                 SUBAR 0x3e, 0x0
000001ac                      main.o:_00298_DS_:
000001ac f3fc                 BTRSC 0x3, 0x0
000001ad c63c                 LGOTO 0x1c3; main.o:_00254_DS_=0x1c3
000001ae e0fc                 BCR 0x3, 0x6
000001af feb3                 MOVR 0x4c, 0x0
000001b0 dbfe                 XORIA 0x1
000001b1 f6fc                 BTRSS 0x3, 0x2
000001b2 c640                 LGOTO 0x1bf; main.o:_00233_DS_=0x1bf
000001b3 defc                 MOVIA 0x3
000001b4 fbc0                 SUBAR 0x3f, 0x0
000001b5 f6fc                 BTRSS 0x3, 0x2
000001b6 c646                 LGOTO 0x1b9; main.o:_00299_DS_=0x1b9
000001b7 de0c                 MOVIA 0xf3
000001b8 fbc1                 SUBAR 0x3e, 0x0
000001b9                      main.o:_00299_DS_:
000001b9 f7fc                 BTRSS 0x3, 0x0
000001ba c5f4                 LGOTO 0x20b; main.o:_00259_DS_=0x20b
000001bb defd                 MOVIA 0x2
000001bc e0fc                 BCR 0x3, 0x6
000001bd ff33                 MOVAR 0x4c
000001be c5f4                 LGOTO 0x20b; main.o:_00259_DS_=0x20b
000001bf                      main.o:_00233_DS_:
000001bf defd                 MOVIA 0x2
000001c0 e0fc                 BCR 0x3, 0x6
000001c1 ff33                 MOVAR 0x4c
000001c2 c5f4                 LGOTO 0x20b; main.o:_00259_DS_=0x20b
000001c3                      main.o:_00254_DS_:
000001c3 defb                 MOVIA 0x4
000001c4 e0fc                 BCR 0x3, 0x6
000001c5 fbc0                 SUBAR 0x3f, 0x0
000001c6 f6fc                 BTRSS 0x3, 0x2
000001c7 c635                 LGOTO 0x1ca; main.o:_00300_DS_=0x1ca
000001c8 deb7                 MOVIA 0x48
000001c9 fbc1                 SUBAR 0x3e, 0x0
000001ca                      main.o:_00300_DS_:
000001ca f3fc                 BTRSC 0x3, 0x0
000001cb c61e                 LGOTO 0x1e1; main.o:_00251_DS_=0x1e1
000001cc e0fc                 BCR 0x3, 0x6
000001cd feb3                 MOVR 0x4c, 0x0
000001ce dbfd                 XORIA 0x2
000001cf f6fc                 BTRSS 0x3, 0x2
000001d0 c622                 LGOTO 0x1dd; main.o:_00238_DS_=0x1dd
000001d1 defb                 MOVIA 0x4
000001d2 fbc0                 SUBAR 0x3f, 0x0
000001d3 f6fc                 BTRSS 0x3, 0x2
000001d4 c628                 LGOTO 0x1d7; main.o:_00301_DS_=0x1d7
000001d5 dedf                 MOVIA 0x20
000001d6 fbc1                 SUBAR 0x3e, 0x0
000001d7                      main.o:_00301_DS_:
000001d7 f7fc                 BTRSS 0x3, 0x0
000001d8 c5f4                 LGOTO 0x20b; main.o:_00259_DS_=0x20b
000001d9 defc                 MOVIA 0x3
000001da e0fc                 BCR 0x3, 0x6
000001db ff33                 MOVAR 0x4c
000001dc c5f4                 LGOTO 0x20b; main.o:_00259_DS_=0x20b
000001dd                      main.o:_00238_DS_:
000001dd defc                 MOVIA 0x3
000001de e0fc                 BCR 0x3, 0x6
000001df ff33                 MOVAR 0x4c
000001e0 c5f4                 LGOTO 0x20b; main.o:_00259_DS_=0x20b
000001e1                      main.o:_00251_DS_:
000001e1 defb                 MOVIA 0x4
000001e2 e0fc                 BCR 0x3, 0x6
000001e3 fbc0                 SUBAR 0x3f, 0x0
000001e4 f6fc                 BTRSS 0x3, 0x2
000001e5 c617                 LGOTO 0x1e8; main.o:_00302_DS_=0x1e8
000001e6 de8b                 MOVIA 0x74
000001e7 fbc1                 SUBAR 0x3e, 0x0
000001e8                      main.o:_00302_DS_:
000001e8 f3fc                 BTRSC 0x3, 0x0
000001e9 c600                 LGOTO 0x1ff; main.o:_00248_DS_=0x1ff
000001ea e0fc                 BCR 0x3, 0x6
000001eb feb3                 MOVR 0x4c, 0x0
000001ec dbfc                 XORIA 0x3
000001ed f6fc                 BTRSS 0x3, 0x2
000001ee c604                 LGOTO 0x1fb; main.o:_00243_DS_=0x1fb
000001ef defb                 MOVIA 0x4
000001f0 fbc0                 SUBAR 0x3f, 0x0
000001f1 f6fc                 BTRSS 0x3, 0x2
000001f2 c60a                 LGOTO 0x1f5; main.o:_00303_DS_=0x1f5
000001f3 deb2                 MOVIA 0x4d
000001f4 fbc1                 SUBAR 0x3e, 0x0
000001f5                      main.o:_00303_DS_:
000001f5 f7fc                 BTRSS 0x3, 0x0
000001f6 c5f4                 LGOTO 0x20b; main.o:_00259_DS_=0x20b
000001f7 defb                 MOVIA 0x4
000001f8 e0fc                 BCR 0x3, 0x6
000001f9 ff33                 MOVAR 0x4c
000001fa c5f4                 LGOTO 0x20b; main.o:_00259_DS_=0x20b
000001fb                      main.o:_00243_DS_:
000001fb defb                 MOVIA 0x4
000001fc e0fc                 BCR 0x3, 0x6
000001fd ff33                 MOVAR 0x4c
000001fe c5f4                 LGOTO 0x20b; main.o:_00259_DS_=0x20b
000001ff                      main.o:_00248_DS_:
000001ff defb                 MOVIA 0x4
00000200 e0fc                 BCR 0x3, 0x6
00000201 fbc0                 SUBAR 0x3f, 0x0
00000202 f6fc                 BTRSS 0x3, 0x2
00000203 c5f9                 LGOTO 0x206; main.o:_00304_DS_=0x206
00000204 de80                 MOVIA 0x7f
00000205 fbc1                 SUBAR 0x3e, 0x0
00000206                      main.o:_00304_DS_:
00000206 f7fc                 BTRSS 0x3, 0x0
00000207 c5f4                 LGOTO 0x20b; main.o:_00259_DS_=0x20b
00000208 defa                 MOVIA 0x5
00000209 e0fc                 BCR 0x3, 0x6
0000020a ff33                 MOVAR 0x4c
0000020b                      main.o:_00259_DS_:
0000020b ffef                 RET
0000020c                      _checkInAD:
0000020c e0fc                 BCR 0x3, 0x6
0000020d fd36                 CLRR 0x49
0000020e fd38                 CLRR 0x47
0000020f fd37                 CLRR 0x48
00000210 def7                 MOVIA 0x8
00000211 d6e3                 LCALL 0x11c; _F_AIN4_Convert=0x11c
00000212 e0fc                 BCR 0x3, 0x6
00000213 eab7                 SWAPR 0x48, 0x0
00000214 dd0f                 ANDIA 0xf0
00000215 ff37                 MOVAR 0x48
00000216 eab8                 SWAPR 0x47, 0x0
00000217 ff38                 MOVAR 0x47
00000218 ddf0                 ANDIA 0xf
00000219 ee37                 IORAR 0x48, 0x1
0000021a ed38                 XORAR 0x47, 0x1
0000021b de0f                 MOVIA 0xf0
0000021c ef36                 ANDAR 0x49, 0x1
0000021d feb6                 MOVR 0x49, 0x0
0000021e ff5e                 MOVAR 0x21
0000021f deff                 MOVIA 0x0
00000220 ff5d                 MOVAR 0x22
00000221 fede                 MOVR 0x21, 0x0
00000222 fc38                 ADDAR 0x47, 0x1
00000223 fedd                 MOVR 0x22, 0x0
00000224 f3fc                 BTRSC 0x3, 0x0
00000225 fadd                 INCR 0x22, 0x0
00000226 f2fc                 BTRSC 0x3, 0x2
00000227 c5d6                 LGOTO 0x229; main.o:_00004_DS_=0x229
00000228 fc37                 ADDAR 0x48, 0x1
00000229                      main.o:_00004_DS_:
00000229 e3fc                 BCR 0x3, 0x0
0000022a e0fc                 BCR 0x3, 0x6
0000022b ec37                 RRR 0x48, 0x1
0000022c ec38                 RRR 0x47, 0x1
0000022d e3fc                 BCR 0x3, 0x0
0000022e ec37                 RRR 0x48, 0x1
0000022f ec38                 RRR 0x47, 0x1
00000230 e3fc                 BCR 0x3, 0x0
00000231 ec37                 RRR 0x48, 0x1
00000232 ec38                 RRR 0x47, 0x1
00000233 feb2                 MOVR 0x4d, 0x0
00000234 f2fc                 BTRSC 0x3, 0x2
00000235 c5c5                 LGOTO 0x23a; main.o:_00223_DS_=0x23a
00000236 de2f                 MOVIA 0xd0
00000237 ff38                 MOVAR 0x47
00000238 def8                 MOVIA 0x7
00000239 ff37                 MOVAR 0x48
0000023a                      main.o:_00223_DS_:
0000023a ffef                 RET
0000023b                      _gotoSleep:
0000023b d724                 LCALL 0xdb; _LedInput=0xdb
0000023c e0fc                 BCR 0x3, 0x6
0000023d fd42                 CLRR 0x3d
0000023e decf                 MOVIA 0x30
0000023f ff6a                 MOVAR 0x15
00000240 def4                 MOVIA 0xb
00000241 ff71                 MOVAR 0xe
00000242 def7                 MOVIA 0x8
00000243 ff77                 MOVAR 0x8
00000244 fd70                 CLRR 0xf
00000245 fffd                 CLRWDT
00000246 fffb                 ENI
00000247 fffe                 SLEEP
00000248 fd6a                 CLRR 0x15
00000249 defe                 MOVIA 0x1
0000024a ff71                 MOVAR 0xe
0000024b fd70                 CLRR 0xf
0000024c de57                 MOVIA 0xa8
0000024d ff77                 MOVAR 0x8
0000024e ffef                 RET
0000024f                      _initSys:
0000024f ffec                 DISI
00000250 de00                 MOVIA 0xff
00000251 fffa                 IOST 0x5
00000252 fff9                 IOST 0x6
00000253 fd79                 CLRR 0x6
00000254 fd7a                 CLRR 0x5
00000255 de00                 MOVIA 0xff
00000256 fff6                 IOST 0x9
00000257 ff73                 MOVAR 0xc
00000258 defe                 MOVIA 0x1
00000259 ff71                 MOVAR 0xe
0000025a fdff                 CLRA
0000025b fff0                 IOST 0xf
0000025c dec8                 MOVIA 0x37
0000025d ff7e                 MOVAR 0x1
0000025e fdff                 CLRA
0000025f fffc                 T0MD
00000260 defe                 MOVIA 0x1
00000261 fff0                 IOST 0xf
00000262 de77                 MOVIA 0x88
00000263 ff77                 MOVAR 0x8
00000264 defe                 MOVIA 0x1
00000265 fff0                 IOST 0xf
00000266 fffb                 ENI
00000267 ffef                 RET
00000268                      _setLedStep:
00000268 def8                 MOVIA 0x7
00000269 e0fc                 BCR 0x3, 0x6
0000026a fbb7                 SUBAR 0x48, 0x0
0000026b f6fc                 BTRSS 0x3, 0x2
0000026c c590                 LGOTO 0x26f; main.o:_00205_DS_=0x26f
0000026d de48                 MOVIA 0xb7
0000026e fbb8                 SUBAR 0x47, 0x0
0000026f                      main.o:_00205_DS_:
0000026f f7fc                 BTRSS 0x3, 0x0
00000270 c57a                 LGOTO 0x285; main.o:_00186_DS_=0x285
00000271 de0b                 MOVIA 0xf4
00000272 e0fc                 BCR 0x3, 0x6
00000273 ff45                 MOVAR 0x3a
00000274 defe                 MOVIA 0x1
00000275 ff44                 MOVAR 0x3b
00000276 fd42                 CLRR 0x3d
00000277 fa34                 INCR 0x4b, 0x1
00000278 dedc                 MOVIA 0x23
00000279 fbb4                 SUBAR 0x4b, 0x0
0000027a f7fc                 BTRSS 0x3, 0x0
0000027b c56a                 LGOTO 0x295; main.o:_00188_DS_=0x295
0000027c fd34                 CLRR 0x4b
0000027d fa46                 INCR 0x39, 0x1
0000027e defa                 MOVIA 0x5
0000027f fbc6                 SUBAR 0x39, 0x0
00000280 f7fc                 BTRSS 0x3, 0x0
00000281 c56a                 LGOTO 0x295; main.o:_00188_DS_=0x295
00000282 feb3                 MOVR 0x4c, 0x0
00000283 ff46                 MOVAR 0x39
00000284 c56a                 LGOTO 0x295; main.o:_00188_DS_=0x295
00000285                      main.o:_00186_DS_:
00000285 def8                 MOVIA 0x7
00000286 e0fc                 BCR 0x3, 0x6
00000287 fbb7                 SUBAR 0x48, 0x0
00000288 f6fc                 BTRSS 0x3, 0x2
00000289 c573                 LGOTO 0x28c; main.o:_00208_DS_=0x28c
0000028a de92                 MOVIA 0x6d
0000028b fbb8                 SUBAR 0x47, 0x0
0000028c                      main.o:_00208_DS_:
0000028c f3fc                 BTRSC 0x3, 0x0
0000028d c56a                 LGOTO 0x295; main.o:_00188_DS_=0x295
0000028e e0fc                 BCR 0x3, 0x6
0000028f fec5                 MOVR 0x3a, 0x0
00000290 eec4                 IORAR 0x3b, 0x0
00000291 f2fc                 BTRSC 0x3, 0x2
00000292 c56a                 LGOTO 0x295; main.o:_00188_DS_=0x295
00000293 feb3                 MOVR 0x4c, 0x0
00000294 ff46                 MOVAR 0x39
00000295                      main.o:_00188_DS_:
00000295 ffef                 RET
00000296                      ___cinit_load__:
