00000000 c7fe                LGOTO    0x1; __nyc_ny8_startup=0x1
00000001                     __nyc_ny8_startup:
00000001 d3b5                LCALL    0x44a; ___cinit_load__=0x44a
00000002 c5fe                LGOTO    0x201; _main=0x201
00000003                     _setMaxDuty:
00000003 e4fc                BSR      STATUS, BK0
00000004 feda                MOVR     0x25, ToAcc
00000005 ff57                MOVAR    0x28
00000006 d0af                LCALL    0x750; _pwmInit=0x750
00000007 ffef                RET
00000008 c410                LGOTO    0x3ef; _isr=0x3ef
00000009                     _chrgCtr:
00000009 de9b                MOVIA    0x64
0000000a e4fc                BSR      STATUS, BK0
0000000b fbce                SUBAR    0x31, ToAcc
0000000c f7fc                BTRSS    STATUS, C
0000000d c7ed                LGOTO    0x12; main.o:_00307_DS_=0x12
0000000e def6                MOVIA    0x9
0000000f ff51                MOVAR    0x2e
00000010 ff52                MOVAR    0x2d
00000011 c7e0                LGOTO    0x1f; main.o:_00308_DS_=0x1f
00000012                     main.o:_00307_DS_:
00000012 def5                MOVIA    0xa
00000013 ff3a                MOVAR    0x45
00000014 e4fc                BSR      STATUS, BK0
00000015 fece                MOVR     0x31, ToAcc
00000016 d2c4                LCALL    0x53b; __divuchar=0x53b
00000017 e4fc                BSR      STATUS, BK0
00000018 ff52                MOVAR    0x2d
00000019 def5                MOVIA    0xa
0000001a ff3a                MOVAR    0x45
0000001b fece                MOVR     0x31, ToAcc
0000001c d225                LCALL    0x5da; __moduchar=0x5da
0000001d e4fc                BSR      STATUS, BK0
0000001e ff51                MOVAR    0x2e
0000001f                     main.o:_00308_DS_:
0000001f e4fc                BSR      STATUS, BK0
00000020 fedd                MOVR     0x22, ToAcc
00000021 f2fc                BTRSC    STATUS, Z
00000022 c7cd                LGOTO    0x32; main.o:_00313_DS_=0x32
00000023 e0fc                BCR      STATUS, BK0
00000024 e581                BSR      0x7e, 0x4
00000025 def5                MOVIA    0xa
00000026 e4fc                BSR      STATUS, BK0
00000027 fbdd                SUBAR    0x22, ToAcc
00000028 f3fc                BTRSC    STATUS, C
00000029 c7d1                LGOTO    0x2e; main.o:_00310_DS_=0x2e
0000002a fd52                CLRR     0x2d
0000002b fedd                MOVR     0x22, ToAcc
0000002c ff51                MOVAR    0x2e
0000002d c7cd                LGOTO    0x32; main.o:_00313_DS_=0x32
0000002e                     main.o:_00310_DS_:
0000002e defe                MOVIA    0x1
0000002f e4fc                BSR      STATUS, BK0
00000030 ff52                MOVAR    0x2d
00000031 fd51                CLRR     0x2e
00000032                     main.o:_00313_DS_:
00000032 e0fc                BCR      STATUS, BK0
00000033 f67a                BTRSS    PORTA, PA3
00000034 c71e                LGOTO    0xe1; main.o:_00353_DS_=0xe1
00000035 e601                BSR      0x7e, 0x3
00000036 e581                BSR      0x7e, 0x4
00000037 e4fc                BSR      STATUS, BK0
00000038 fd5d                CLRR     0x22
00000039 fd5b                CLRR     0x24
0000003a d044                LCALL    0x7bb; _pwmStop=0x7bb
0000003b de9c                MOVIA    0x63
0000003c e4fc                BSR      STATUS, BK0
0000003d fbce                SUBAR    0x31, ToAcc
0000003e f3fc                BTRSC    STATUS, C
0000003f c7b0                LGOTO    0x4f; main.o:_00007_DS_=0x4f
00000040 fece                MOVR     0x31, ToAcc
00000041 fbd0                SUBAR    0x2f, ToAcc
00000042 f7fc                BTRSS    STATUS, C
00000043 c7b0                LGOTO    0x4f; main.o:_00007_DS_=0x4f
00000044 e0fc                BCR      STATUS, BK0
00000045 fe89                MOVR     0x76, ToAcc
00000046 dbfe                XORIA    0x1
00000047 f6fc                BTRSS    STATUS, Z
00000048 c7b0                LGOTO    0x4f; main.o:_00007_DS_=0x4f
00000049 fe88                MOVR     0x77, ToAcc
0000004a dbff                XORIA    0x0
0000004b f6fc                BTRSS    STATUS, Z
0000004c c7b0                LGOTO    0x4f; main.o:_00007_DS_=0x4f
0000004d e4fc                BSR      STATUS, BK0
0000004e fa4e                INCR     0x31, ToReg
0000004f                     main.o:_00007_DS_:
0000004f de9c                MOVIA    0x63
00000050 e4fc                BSR      STATUS, BK0
00000051 fbd0                SUBAR    0x2f, ToAcc
00000052 f3fc                BTRSC    STATUS, C
00000053 c7a8                LGOTO    0x57; main.o:_00344_DS_=0x57
00000054 feca                MOVR     0x35, ToAcc
00000055 f2fc                BTRSC    STATUS, Z
00000056 c788                LGOTO    0x77; main.o:_00345_DS_=0x77
00000057                     main.o:_00344_DS_:
00000057 defb                MOVIA    0x4
00000058 e4fc                BSR      STATUS, BK0
00000059 ff4c                MOVAR    0x33
0000005a fed2                MOVR     0x2d, ToAcc
0000005b dbf6                XORIA    0x9
0000005c f6fc                BTRSS    STATUS, Z
0000005d c6f2                LGOTO    0x10d; main.o:_00009_DS_=0x10d
0000005e fed1                MOVR     0x2e, ToAcc
0000005f dbf6                XORIA    0x9
00000060 f6fc                BTRSS    STATUS, Z
00000061 c6f2                LGOTO    0x10d; main.o:_00009_DS_=0x10d
00000062 de9b                MOVIA    0x64
00000063 fbd0                SUBAR    0x2f, ToAcc
00000064 f7fc                BTRSS    STATUS, C
00000065 c6f2                LGOTO    0x10d; main.o:_00009_DS_=0x10d
00000066 fa55                INCR     0x2a, ToReg
00000067 de36                MOVIA    0xc9
00000068 fbd5                SUBAR    0x2a, ToAcc
00000069 f7fc                BTRSS    STATUS, C
0000006a c6f2                LGOTO    0x10d; main.o:_00009_DS_=0x10d
0000006b d041                LCALL    0x7be; _pwm1Stop=0x7be
0000006c e279                BCR      PORTB, PB3
0000006d ffe9                IOSTR    IOSTB
0000006e e0fc                BCR      STATUS, BK0
0000006f ff59                MOVAR    0x26
00000070 e659                BSR      0x26, 0x3
00000071 fed9                MOVR     0x26, ToAcc
00000072 fff9                IOST     IOSTB
00000073 defe                MOVIA    0x1
00000074 e4fc                BSR      STATUS, BK0
00000075 ff4a                MOVAR    0x35
00000076 c6f2                LGOTO    0x10d; main.o:_00009_DS_=0x10d
00000077                     main.o:_00345_DS_:
00000077 e4fc                BSR      STATUS, BK0
00000078 fd55                CLRR     0x2a
00000079 ffe9                IOSTR    IOSTB
0000007a e0fc                BCR      STATUS, BK0
0000007b ff59                MOVAR    0x26
0000007c e259                BCR      0x26, 0x3
0000007d fed9                MOVR     0x26, ToAcc
0000007e fff9                IOST     IOSTB
0000007f e4fc                BSR      STATUS, BK0
00000080 fecb                MOVR     0x34, ToAcc
00000081 ffbc                SFUN     PWM1DUTY
00000082 d0d9                LCALL    0x726; _pwm1Init=0x726
00000083 def9                MOVIA    0x6
00000084 e4fc                BSR      STATUS, BK0
00000085 fbdf                SUBAR    0x20, ToAcc
00000086 f7fc                BTRSS    STATUS, C
00000087 c6f2                LGOTO    0x10d; main.o:_00009_DS_=0x10d
00000088 deff                MOVIA    0x0
00000089 e0fc                BCR      STATUS, BK0
0000008a fbde                SUBAR    0x21, ToAcc
0000008b f6fc                BTRSS    STATUS, Z
0000008c c770                LGOTO    0x8f; main.o:_00437_DS_=0x8f
0000008d dedd                MOVIA    0x22
0000008e fbdf                SUBAR    0x20, ToAcc
0000008f                     main.o:_00437_DS_:
0000008f f3fc                BTRSC    STATUS, C
00000090 c75e                LGOTO    0xa1; main.o:_00324_DS_=0xa1
00000091 e4fc                BSR      STATUS, BK0
00000092 fec6                MOVR     0x39, ToAcc
00000093 e0fc                BCR      STATUS, BK0
00000094 ff59                MOVAR    0x26
00000095 fd58                CLRR     0x27
00000096 deff                MOVIA    0x0
00000097 fbde                SUBAR    0x21, ToAcc
00000098 f6fc                BTRSS    STATUS, Z
00000099 c763                LGOTO    0x9c; main.o:_00438_DS_=0x9c
0000009a fed9                MOVR     0x26, ToAcc
0000009b fbdf                SUBAR    0x20, ToAcc
0000009c                     main.o:_00438_DS_:
0000009c f7fc                BTRSS    STATUS, C
0000009d c75e                LGOTO    0xa1; main.o:_00324_DS_=0xa1
0000009e e4fc                BSR      STATUS, BK0
0000009f fd47                CLRR     0x38
000000a0 fd45                CLRR     0x3a
000000a1                     main.o:_00324_DS_:
000000a1 deff                MOVIA    0x0
000000a2 e0fc                BCR      STATUS, BK0
000000a3 fbde                SUBAR    0x21, ToAcc
000000a4 f6fc                BTRSS    STATUS, Z
000000a5 c757                LGOTO    0xa8; main.o:_00439_DS_=0xa8
000000a6 dedd                MOVIA    0x22
000000a7 fbdf                SUBAR    0x20, ToAcc
000000a8                     main.o:_00439_DS_:
000000a8 f7fc                BTRSS    STATUS, C
000000a9 c743                LGOTO    0xbc; main.o:_00337_DS_=0xbc
000000aa e4fc                BSR      STATUS, BK0
000000ab fa47                INCR     0x38, ToReg
000000ac fec7                MOVR     0x38, ToAcc
000000ad fbc3                SUBAR    0x3c, ToAcc
000000ae f3fc                BTRSC    STATUS, C
000000af c746                LGOTO    0xb9; main.o:_00329_DS_=0xb9
000000b0 defc                MOVIA    0x3
000000b1 fbcb                SUBAR    0x34, ToAcc
000000b2 f3fc                BTRSC    STATUS, C
000000b3 f94b                DECR     0x34, ToReg
000000b4 fd47                CLRR     0x38
000000b5 dedf                MOVIA    0x20
000000b6 ff46                MOVAR    0x39
000000b7 de05                MOVIA    0xfa
000000b8 ff43                MOVAR    0x3c
000000b9                     main.o:_00329_DS_:
000000b9 e4fc                BSR      STATUS, BK0
000000ba fd45                CLRR     0x3a
000000bb c729                LGOTO    0xd6; main.o:_00338_DS_=0xd6
000000bc                     main.o:_00337_DS_:
000000bc e4fc                BSR      STATUS, BK0
000000bd fec6                MOVR     0x39, ToAcc
000000be e0fc                BCR      STATUS, BK0
000000bf ff59                MOVAR    0x26
000000c0 fd58                CLRR     0x27
000000c1 deff                MOVIA    0x0
000000c2 fbde                SUBAR    0x21, ToAcc
000000c3 f6fc                BTRSS    STATUS, Z
000000c4 c738                LGOTO    0xc7; main.o:_00442_DS_=0xc7
000000c5 fed9                MOVR     0x26, ToAcc
000000c6 fbdf                SUBAR    0x20, ToAcc
000000c7                     main.o:_00442_DS_:
000000c7 f3fc                BTRSC    STATUS, C
000000c8 c729                LGOTO    0xd6; main.o:_00338_DS_=0xd6
000000c9 e4fc                BSR      STATUS, BK0
000000ca fa45                INCR     0x3a, ToReg
000000cb fec5                MOVR     0x3a, ToAcc
000000cc fbc3                SUBAR    0x3c, ToAcc
000000cd f3fc                BTRSC    STATUS, C
000000ce c72b                LGOTO    0xd4; main.o:_00333_DS_=0xd4
000000cf dec3                MOVIA    0x3c
000000d0 fbcb                SUBAR    0x34, ToAcc
000000d1 f7fc                BTRSS    STATUS, C
000000d2 fa4b                INCR     0x34, ToReg
000000d3 fd45                CLRR     0x3a
000000d4                     main.o:_00333_DS_:
000000d4 e4fc                BSR      STATUS, BK0
000000d5 fd47                CLRR     0x38
000000d6                     main.o:_00338_DS_:
000000d6 e4fc                BSR      STATUS, BK0
000000d7 fecb                MOVR     0x34, ToAcc
000000d8 fbc4                SUBAR    0x3b, ToAcc
000000d9 f3fc                BTRSC    STATUS, C
000000da c722                LGOTO    0xdd; main.o:_00340_DS_=0xdd
000000db fa44                INCR     0x3b, ToReg
000000dc c6f2                LGOTO    0x10d; main.o:_00009_DS_=0x10d
000000dd                     main.o:_00340_DS_:
000000dd e4fc                BSR      STATUS, BK0
000000de fecb                MOVR     0x34, ToAcc
000000df ff44                MOVAR    0x3b
000000e0 c6f2                LGOTO    0x10d; main.o:_00009_DS_=0x10d
000000e1                     main.o:_00353_DS_:
000000e1 e4fc                BSR      STATUS, BK0
000000e2 fd42                CLRR     0x3d
000000e3 deeb                MOVIA    0x14
000000e4 ff43                MOVAR    0x3c
000000e5 dede                MOVIA    0x21
000000e6 ff46                MOVAR    0x39
000000e7 fd4a                CLRR     0x35
000000e8 fd4b                CLRR     0x34
000000e9 fd55                CLRR     0x2a
000000ea d041                LCALL    0x7be; _pwm1Stop=0x7be
000000eb e0fc                BCR      STATUS, BK0
000000ec e201                BCR      0x7e, 0x3
000000ed e4fc                BSR      STATUS, BK0
000000ee fed0                MOVR     0x2f, ToAcc
000000ef e0fc                BCR      STATUS, BK0
000000f0 ff59                MOVAR    0x26
000000f1 fd58                CLRR     0x27
000000f2 fa59                INCR     0x26, ToReg
000000f3 f6fc                BTRSS    STATUS, Z
000000f4 c709                LGOTO    0xf6; main.o:_00008_DS_=0xf6
000000f5 fa58                INCR     0x27, ToReg
000000f6                     main.o:_00008_DS_:
000000f6 e4fc                BSR      STATUS, BK0
000000f7 fece                MOVR     0x31, ToAcc
000000f8 e0fc                BCR      STATUS, BK0
000000f9 ff57                MOVAR    0x28
000000fa fed8                MOVR     0x27, ToAcc
000000fb da7f                ADDIA    0x80
000000fc ff56                MOVAR    0x29
000000fd deff                MOVIA    0x0
000000fe da7f                ADDIA    0x80
000000ff fbd6                SUBAR    0x29, ToAcc
00000100 f6fc                BTRSS    STATUS, Z
00000101 c6fb                LGOTO    0x104; main.o:_00446_DS_=0x104
00000102 fed7                MOVR     0x28, ToAcc
00000103 fbd9                SUBAR    0x26, ToAcc
00000104                     main.o:_00446_DS_:
00000104 f3fc                BTRSC    STATUS, C
00000105 c6f2                LGOTO    0x10d; main.o:_00009_DS_=0x10d
00000106 e0fc                BCR      STATUS, BK0
00000107 fe89                MOVR     0x76, ToAcc
00000108 ee88                IORAR    0x77, ToAcc
00000109 f6fc                BTRSS    STATUS, Z
0000010a c6f2                LGOTO    0x10d; main.o:_00009_DS_=0x10d
0000010b e4fc                BSR      STATUS, BK0
0000010c f94e                DECR     0x31, ToReg
0000010d                     main.o:_00009_DS_:
0000010d ffef                RET
0000010e                     _checkBatAD:
0000010e e0fc                BCR      STATUS, BK0
0000010f fd5a                CLRR     0x25
00000110 fd5d                CLRR     0x22
00000111 fd5c                CLRR     0x23
00000112 def7                MOVIA    0x8
00000113 d273                LCALL    0x58c; _F_AIN2_Convert=0x58c
00000114 e0fc                BCR      STATUS, BK0
00000115 eadc                SWAPR    0x23, ToAcc
00000116 dd0f                ANDIA    0xf0
00000117 ff5c                MOVAR    0x23
00000118 eadd                SWAPR    0x22, ToAcc
00000119 ff5d                MOVAR    0x22
0000011a ddf0                ANDIA    0xf
0000011b ee5c                IORAR    0x23, ToReg
0000011c ed5d                XORAR    0x22, ToReg
0000011d de0f                MOVIA    0xf0
0000011e ef5a                ANDAR    0x25, ToReg
0000011f feda                MOVR     0x25, ToAcc
00000120 ff4c                MOVAR    0x33
00000121 ff4e                MOVAR    0x31
00000122 fd4d                CLRR     0x32
00000123 deff                MOVIA    0x0
00000124 ff4b                MOVAR    0x34
00000125 fecc                MOVR     0x33, ToAcc
00000126 fc5d                ADDAR    0x22, ToReg
00000127 fecb                MOVR     0x34, ToAcc
00000128 f3fc                BTRSC    STATUS, C
00000129 facb                INCR     0x34, ToAcc
0000012a f2fc                BTRSC    STATUS, Z
0000012b c6d2                LGOTO    0x12d; main.o:_00004_DS_=0x12d
0000012c fc5c                ADDAR    0x23, ToReg
0000012d                     main.o:_00004_DS_:
0000012d e3fc                BCR      STATUS, C
0000012e e0fc                BCR      STATUS, BK0
0000012f ec5c                RRR      0x23, ToReg
00000130 ec5d                RRR      0x22, ToReg
00000131 e3fc                BCR      STATUS, C
00000132 ec5c                RRR      0x23, ToReg
00000133 ec5d                RRR      0x22, ToReg
00000134 e3fc                BCR      STATUS, C
00000135 ec5c                RRR      0x23, ToReg
00000136 ec5d                RRR      0x22, ToReg
00000137 def9                MOVIA    0x6
00000138 fbdc                SUBAR    0x23, ToAcc
00000139 f6fc                BTRSS    STATUS, Z
0000013a c6c2                LGOTO    0x13d; main.o:_00658_DS_=0x13d
0000013b dedc                MOVIA    0x23
0000013c fbdd                SUBAR    0x22, ToAcc
0000013d                     main.o:_00658_DS_:
0000013d f7fc                BTRSS    STATUS, C
0000013e c6b5                LGOTO    0x14a; main.o:_00603_DS_=0x14a
0000013f e4fc                BSR      STATUS, BK0
00000140 fa49                INCR     0x36, ToReg
00000141 de36                MOVIA    0xc9
00000142 fbc9                SUBAR    0x36, ToAcc
00000143 f7fc                BTRSS    STATUS, C
00000144 c5ff                LGOTO    0x200; main.o:_00605_DS_=0x200
00000145 defe                MOVIA    0x1
00000146 ff48                MOVAR    0x37
00000147 de9b                MOVIA    0x64
00000148 ff50                MOVAR    0x2f
00000149 c5ff                LGOTO    0x200; main.o:_00605_DS_=0x200
0000014a                     main.o:_00603_DS_:
0000014a defb                MOVIA    0x4
0000014b e0fc                BCR      STATUS, BK0
0000014c fbdc                SUBAR    0x23, ToAcc
0000014d f6fc                BTRSS    STATUS, Z
0000014e c6ae                LGOTO    0x151; main.o:_00660_DS_=0x151
0000014f deb3                MOVIA    0x4c
00000150 fbdd                SUBAR    0x22, ToAcc
00000151                     main.o:_00660_DS_:
00000151 f3fc                BTRSC    STATUS, C
00000152 c6a8                LGOTO    0x157; main.o:_00600_DS_=0x157
00000153 e4fc                BSR      STATUS, BK0
00000154 fd50                CLRR     0x2f
00000155 fd49                CLRR     0x36
00000156 c5ff                LGOTO    0x200; main.o:_00605_DS_=0x200
00000157                     main.o:_00600_DS_:
00000157 e4fc                BSR      STATUS, BK0
00000158 fd49                CLRR     0x36
00000159 def9                MOVIA    0x6
0000015a e0fc                BCR      STATUS, BK0
0000015b fbdc                SUBAR    0x23, ToAcc
0000015c f6fc                BTRSS    STATUS, Z
0000015d c69f                LGOTO    0x160; main.o:_00661_DS_=0x160
0000015e defb                MOVIA    0x4
0000015f fbdd                SUBAR    0x22, ToAcc
00000160                     main.o:_00661_DS_:
00000160 f7fc                BTRSS    STATUS, C
00000161 c694                LGOTO    0x16b; main.o:_00570_DS_=0x16b
00000162 e0fc                BCR      STATUS, BK0
00000163 fedd                MOVR     0x22, ToAcc
00000164 ff4e                MOVAR    0x31
00000165 ff4d                MOVAR    0x32
00000166 de9f                MOVIA    0x60
00000167 fccd                ADDAR    0x32, ToAcc
00000168 e4fc                BSR      STATUS, BK0
00000169 ff50                MOVAR    0x2f
0000016a c64f                LGOTO    0x1b0; main.o:_00571_DS_=0x1b0
0000016b                     main.o:_00570_DS_:
0000016b defa                MOVIA    0x5
0000016c e0fc                BCR      STATUS, BK0
0000016d fbdc                SUBAR    0x23, ToAcc
0000016e f6fc                BTRSS    STATUS, Z
0000016f c68d                LGOTO    0x172; main.o:_00662_DS_=0x172
00000170 dea1                MOVIA    0x5e
00000171 fbdd                SUBAR    0x22, ToAcc
00000172                     main.o:_00662_DS_:
00000172 f7fc                BTRSS    STATUS, C
00000173 c673                LGOTO    0x18c; main.o:_00567_DS_=0x18c
00000174 de5d                MOVIA    0xa2
00000175 e0fc                BCR      STATUS, BK0
00000176 fcdd                ADDAR    0x22, ToAcc
00000177 ff4e                MOVAR    0x31
00000178 de05                MOVIA    0xfa
00000179 ff4d                MOVAR    0x32
0000017a fedc                MOVR     0x23, ToAcc
0000017b f3fc                BTRSC    STATUS, C
0000017c fadc                INCR     0x23, ToAcc
0000017d f2fc                BTRSC    STATUS, Z
0000017e c67f                LGOTO    0x180; main.o:_00005_DS_=0x180
0000017f fc4d                ADDAR    0x32, ToReg
00000180                     main.o:_00005_DS_:
00000180 e3fc                BCR      STATUS, C
00000181 e0fc                BCR      STATUS, BK0
00000182 eccd                RRR      0x32, ToAcc
00000183 ff4b                MOVAR    0x34
00000184 ecce                RRR      0x31, ToAcc
00000185 ff4c                MOVAR    0x33
00000186 ff4e                MOVAR    0x31
00000187 deee                MOVIA    0x11
00000188 fcce                ADDAR    0x31, ToAcc
00000189 e4fc                BSR      STATUS, BK0
0000018a ff50                MOVAR    0x2f
0000018b c64f                LGOTO    0x1b0; main.o:_00571_DS_=0x1b0
0000018c                     main.o:_00567_DS_:
0000018c defb                MOVIA    0x4
0000018d e0fc                BCR      STATUS, BK0
0000018e fbdc                SUBAR    0x23, ToAcc
0000018f f6fc                BTRSS    STATUS, Z
00000190 c66c                LGOTO    0x193; main.o:_00663_DS_=0x193
00000191 deb2                MOVIA    0x4d
00000192 fbdd                SUBAR    0x22, ToAcc
00000193                     main.o:_00663_DS_:
00000193 f7fc                BTRSS    STATUS, C
00000194 c651                LGOTO    0x1ae; main.o:_00564_DS_=0x1ae
00000195 de4b                MOVIA    0xb4
00000196 e0fc                BCR      STATUS, BK0
00000197 fcdd                ADDAR    0x22, ToAcc
00000198 ff4e                MOVAR    0x31
00000199 de04                MOVIA    0xfb
0000019a ff4c                MOVAR    0x33
0000019b fedc                MOVR     0x23, ToAcc
0000019c f3fc                BTRSC    STATUS, C
0000019d fadc                INCR     0x23, ToAcc
0000019e f2fc                BTRSC    STATUS, Z
0000019f c65e                LGOTO    0x1a1; main.o:_00006_DS_=0x1a1
000001a0 fc4c                ADDAR    0x33, ToReg
000001a1                     main.o:_00006_DS_:
000001a1 e0fc                BCR      STATUS, BK0
000001a2 eace                SWAPR    0x31, ToAcc
000001a3 ddf0                ANDIA    0xf
000001a4 ff4b                MOVAR    0x34
000001a5 eacc                SWAPR    0x33, ToAcc
000001a6 ff4a                MOVAR    0x35
000001a7 dd0f                ANDIA    0xf0
000001a8 ee4b                IORAR    0x34, ToReg
000001a9 ed4a                XORAR    0x35, ToReg
000001aa fecb                MOVR     0x34, ToAcc
000001ab e4fc                BSR      STATUS, BK0
000001ac ff50                MOVAR    0x2f
000001ad c64f                LGOTO    0x1b0; main.o:_00571_DS_=0x1b0
000001ae                     main.o:_00564_DS_:
000001ae e4fc                BSR      STATUS, BK0
000001af fd50                CLRR     0x2f
000001b0                     main.o:_00571_DS_:
000001b0 e4fc                BSR      STATUS, BK0
000001b1 fecd                MOVR     0x32, ToAcc
000001b2 f2fc                BTRSC    STATUS, Z
000001b3 c62b                LGOTO    0x1d4; main.o:_00582_DS_=0x1d4
000001b4 decd                MOVIA    0x32
000001b5 fbcd                SUBAR    0x32, ToAcc
000001b6 f3fc                BTRSC    STATUS, C
000001b7 c62b                LGOTO    0x1d4; main.o:_00582_DS_=0x1d4
000001b8 dec2                MOVIA    0x3d
000001b9 fbd0                SUBAR    0x2f, ToAcc
000001ba f7fc                BTRSS    STATUS, C
000001bb c637                LGOTO    0x1c8; main.o:_00579_DS_=0x1c8
000001bc dea5                MOVIA    0x5a
000001bd fbd0                SUBAR    0x2f, ToAcc
000001be f3fc                BTRSC    STATUS, C
000001bf c63b                LGOTO    0x1c4; main.o:_00573_DS_=0x1c4
000001c0 de0b                MOVIA    0xf4
000001c1 fcd0                ADDAR    0x2f, ToAcc
000001c2 ff4e                MOVAR    0x31
000001c3 c62b                LGOTO    0x1d4; main.o:_00582_DS_=0x1d4
000001c4                     main.o:_00573_DS_:
000001c4 e4fc                BSR      STATUS, BK0
000001c5 fed0                MOVR     0x2f, ToAcc
000001c6 ff4e                MOVAR    0x31
000001c7 c62b                LGOTO    0x1d4; main.o:_00582_DS_=0x1d4
000001c8                     main.o:_00579_DS_:
000001c8 dee0                MOVIA    0x1f
000001c9 e4fc                BSR      STATUS, BK0
000001ca fbce                SUBAR    0x31, ToAcc
000001cb f7fc                BTRSS    STATUS, C
000001cc c62e                LGOTO    0x1d1; main.o:_00576_DS_=0x1d1
000001cd de09                MOVIA    0xf6
000001ce fcd0                ADDAR    0x2f, ToAcc
000001cf ff4e                MOVAR    0x31
000001d0 c62b                LGOTO    0x1d4; main.o:_00582_DS_=0x1d4
000001d1                     main.o:_00576_DS_:
000001d1 e4fc                BSR      STATUS, BK0
000001d2 fed0                MOVR     0x2f, ToAcc
000001d3 ff4e                MOVAR    0x31
000001d4                     main.o:_00582_DS_:
000001d4 e0fc                BCR      STATUS, BK0
000001d5 f67a                BTRSS    PORTA, PA3
000001d6 c606                LGOTO    0x1f9; main.o:_00596_DS_=0x1f9
000001d7 deae                MOVIA    0x51
000001d8 e4fc                BSR      STATUS, BK0
000001d9 fbd0                SUBAR    0x2f, ToAcc
000001da f7fc                BTRSS    STATUS, C
000001db c620                LGOTO    0x1df; main.o:_00591_DS_=0x1df
000001dc de1d                MOVIA    0xe2
000001dd fc50                ADDAR    0x2f, ToReg
000001de c60d                LGOTO    0x1f2; main.o:_00592_DS_=0x1f2
000001df                     main.o:_00591_DS_:
000001df decc                MOVIA    0x33
000001e0 e4fc                BSR      STATUS, BK0
000001e1 fbd0                SUBAR    0x2f, ToAcc
000001e2 f7fc                BTRSS    STATUS, C
000001e3 c618                LGOTO    0x1e7; main.o:_00588_DS_=0x1e7
000001e4 de18                MOVIA    0xe7
000001e5 fc50                ADDAR    0x2f, ToReg
000001e6 c60d                LGOTO    0x1f2; main.o:_00592_DS_=0x1f2
000001e7                     main.o:_00588_DS_:
000001e7 deef                MOVIA    0x10
000001e8 e4fc                BSR      STATUS, BK0
000001e9 fbd0                SUBAR    0x2f, ToAcc
000001ea f7fc                BTRSS    STATUS, C
000001eb c610                LGOTO    0x1ef; main.o:_00585_DS_=0x1ef
000001ec de0e                MOVIA    0xf1
000001ed fc50                ADDAR    0x2f, ToReg
000001ee c60d                LGOTO    0x1f2; main.o:_00592_DS_=0x1f2
000001ef                     main.o:_00585_DS_:
000001ef defe                MOVIA    0x1
000001f0 e4fc                BSR      STATUS, BK0
000001f1 ff50                MOVAR    0x2f
000001f2                     main.o:_00592_DS_:
000001f2 de9b                MOVIA    0x64
000001f3 e4fc                BSR      STATUS, BK0
000001f4 fbd0                SUBAR    0x2f, ToAcc
000001f5 f7fc                BTRSS    STATUS, C
000001f6 c606                LGOTO    0x1f9; main.o:_00596_DS_=0x1f9
000001f7 de9c                MOVIA    0x63
000001f8 ff50                MOVAR    0x2f
000001f9                     main.o:_00596_DS_:
000001f9 de9a                MOVIA    0x65
000001fa e4fc                BSR      STATUS, BK0
000001fb fbd0                SUBAR    0x2f, ToAcc
000001fc f7fc                BTRSS    STATUS, C
000001fd c5ff                LGOTO    0x200; main.o:_00605_DS_=0x200
000001fe de9b                MOVIA    0x64
000001ff ff50                MOVAR    0x2f
00000200                     main.o:_00605_DS_:
00000200 ffef                RET
00000201                     _main:
00000201 d120                LCALL    0x6df; _initSys=0x6df
00000202 d0bc                LCALL    0x743; _initAD=0x743
00000203 de9b                MOVIA    0x64
00000204 e4fc                BSR      STATUS, BK0
00000205 ff4d                MOVAR    0x32
00000206 e0fc                BCR      STATUS, BK0
00000207 e581                BSR      0x7e, 0x4
00000208 e4fc                BSR      STATUS, BK0
00000209 fd5b                CLRR     0x24
0000020a e0fc                BCR      STATUS, BK0
0000020b f581                BTRSS    0x7e, 0x4
0000020c c5f0                LGOTO    0x20f; main.o:_00010_DS_=0x20f
0000020d e4fc                BSR      STATUS, BK0
0000020e fa5b                INCR     0x24, ToReg
0000020f                     main.o:_00010_DS_:
0000020f def7                MOVIA    0x8
00000210 e4fc                BSR      STATUS, BK0
00000211 ff52                MOVAR    0x2d
00000212 ff54                MOVAR    0x2b
00000213 ff51                MOVAR    0x2e
00000214 def7                MOVIA    0x8
00000215 ff53                MOVAR    0x2c
00000216 de05                MOVIA    0xfa
00000217 d0a2                LCALL    0x75d; _delayms=0x75d
00000218                     main.o:_00209_DS_:
00000218 fffd                CLRWDT
00000219 e0fc                BCR      STATUS, BK0
0000021a f581                BTRSS    0x7e, 0x4
0000021b c5e1                LGOTO    0x21e; main.o:_00161_DS_=0x21e
0000021c d36e                LCALL    0x491; _refreshNub=0x491
0000021d c5e0                LGOTO    0x21f; main.o:_00162_DS_=0x21f
0000021e                     main.o:_00161_DS_:
0000021e d0ca                LCALL    0x735; _setInput=0x735
0000021f                     main.o:_00162_DS_:
0000021f e4fc                BSR      STATUS, BK0
00000220 fedd                MOVR     0x22, ToAcc
00000221 f2fc                BTRSC    STATUS, Z
00000222 c5d2                LGOTO    0x22d; main.o:_00172_DS_=0x22d
00000223 fed9                MOVR     0x26, ToAcc
00000224 fbda                SUBAR    0x25, ToAcc
00000225 f3fc                BTRSC    STATUS, C
00000226 c5d2                LGOTO    0x22d; main.o:_00172_DS_=0x22d
00000227 f959                DECR     0x26, ToReg
00000228 fed9                MOVR     0x26, ToAcc
00000229 ffb3                SFUN     PWM2DUTY
0000022a fed9                MOVR     0x26, ToAcc
0000022b ff4f                MOVAR    0x30
0000022c c5ba                LGOTO    0x245; main.o:_00173_DS_=0x245
0000022d                     main.o:_00172_DS_:
0000022d e4fc                BSR      STATUS, BK0
0000022e fedd                MOVR     0x22, ToAcc
0000022f f2fc                BTRSC    STATUS, Z
00000230 c5ba                LGOTO    0x245; main.o:_00173_DS_=0x245
00000231 ded7                MOVIA    0x28
00000232 fbd7                SUBAR    0x28, ToAcc
00000233 f7fc                BTRSS    STATUS, C
00000234 c5ba                LGOTO    0x245; main.o:_00173_DS_=0x245
00000235 fecf                MOVR     0x30, ToAcc
00000236 fbd7                SUBAR    0x28, ToAcc
00000237 f3fc                BTRSC    STATUS, C
00000238 c5c2                LGOTO    0x23d; main.o:_00166_DS_=0x23d
00000239 f94f                DECR     0x30, ToReg
0000023a fecf                MOVR     0x30, ToAcc
0000023b ffb3                SFUN     PWM2DUTY
0000023c c5ba                LGOTO    0x245; main.o:_00173_DS_=0x245
0000023d                     main.o:_00166_DS_:
0000023d e4fc                BSR      STATUS, BK0
0000023e fed7                MOVR     0x28, ToAcc
0000023f fbcf                SUBAR    0x30, ToAcc
00000240 f3fc                BTRSC    STATUS, C
00000241 c5ba                LGOTO    0x245; main.o:_00173_DS_=0x245
00000242 fa4f                INCR     0x30, ToReg
00000243 fecf                MOVR     0x30, ToAcc
00000244 ffb3                SFUN     PWM2DUTY
00000245                     main.o:_00173_DS_:
00000245 e0fc                BCR      STATUS, BK0
00000246 f781                BTRSS    0x7e, 0x0
00000247 c5e7                LGOTO    0x218; main.o:_00209_DS_=0x218
00000248 e381                BCR      0x7e, 0x0
00000249 e4fc                BSR      STATUS, BK0
0000024a fecd                MOVR     0x32, ToAcc
0000024b f2fc                BTRSC    STATUS, Z
0000024c c5b0                LGOTO    0x24f; main.o:_00178_DS_=0x24f
0000024d f94d                DECR     0x32, ToReg
0000024e d6f1                LCALL    0x10e; _checkBatAD=0x10e
0000024f                     main.o:_00178_DS_:
0000024f defa                MOVIA    0x5
00000250 e4fc                BSR      STATUS, BK0
00000251 fbd0                SUBAR    0x2f, ToAcc
00000252 f3fc                BTRSC    STATUS, C
00000253 c594                LGOTO    0x26b; main.o:_00182_DS_=0x26b
00000254 fedd                MOVR     0x22, ToAcc
00000255 f2fc                BTRSC    STATUS, Z
00000256 c594                LGOTO    0x26b; main.o:_00182_DS_=0x26b
00000257 e0fc                BCR      STATUS, BK0
00000258 fa03                INCR     0x7c, ToReg
00000259 f2fc                BTRSC    STATUS, Z
0000025a fa02                INCR     0x7d, ToReg
0000025b dee8                MOVIA    0x17
0000025c fb82                SUBAR    0x7d, ToAcc
0000025d f6fc                BTRSS    STATUS, Z
0000025e c59e                LGOTO    0x261; main.o:_00296_DS_=0x261
0000025f de8f                MOVIA    0x70
00000260 fb83                SUBAR    0x7c, ToAcc
00000261                     main.o:_00296_DS_:
00000261 f7fc                BTRSS    STATUS, C
00000262 c591                LGOTO    0x26e; main.o:_00183_DS_=0x26e
00000263 e0fc                BCR      STATUS, BK0
00000264 fd03                CLRR     0x7c
00000265 fd02                CLRR     0x7d
00000266 e4fc                BSR      STATUS, BK0
00000267 fd4e                CLRR     0x31
00000268 fd5d                CLRR     0x22
00000269 d044                LCALL    0x7bb; _pwmStop=0x7bb
0000026a c591                LGOTO    0x26e; main.o:_00183_DS_=0x26e
0000026b                     main.o:_00182_DS_:
0000026b e0fc                BCR      STATUS, BK0
0000026c fd03                CLRR     0x7c
0000026d fd02                CLRR     0x7d
0000026e                     main.o:_00183_DS_:
0000026e defa                MOVIA    0x5
0000026f e4fc                BSR      STATUS, BK0
00000270 fbd8                SUBAR    0x27, ToAcc
00000271 f7fc                BTRSS    STATUS, C
00000272 c573                LGOTO    0x28c; main.o:_00188_DS_=0x28c
00000273 fedd                MOVR     0x22, ToAcc
00000274 f2fc                BTRSC    STATUS, Z
00000275 c573                LGOTO    0x28c; main.o:_00188_DS_=0x28c
00000276 e0fc                BCR      STATUS, BK0
00000277 fa05                INCR     0x7a, ToReg
00000278 f2fc                BTRSC    STATUS, Z
00000279 fa04                INCR     0x7b, ToReg
0000027a deff                MOVIA    0x0
0000027b fb84                SUBAR    0x7b, ToAcc
0000027c f6fc                BTRSS    STATUS, Z
0000027d c57f                LGOTO    0x280; main.o:_00298_DS_=0x280
0000027e de04                MOVIA    0xfb
0000027f fb85                SUBAR    0x7a, ToAcc
00000280                     main.o:_00298_DS_:
00000280 f7fc                BTRSS    STATUS, C
00000281 c570                LGOTO    0x28f; main.o:_00189_DS_=0x28f
00000282 e4fc                BSR      STATUS, BK0
00000283 fd58                CLRR     0x27
00000284 e0fc                BCR      STATUS, BK0
00000285 fd05                CLRR     0x7a
00000286 fd04                CLRR     0x7b
00000287 dee6                MOVIA    0x19
00000288 e4fc                BSR      STATUS, BK0
00000289 ff56                MOVAR    0x29
0000028a d04b                LCALL    0x7b4; _powerOff=0x7b4
0000028b c570                LGOTO    0x28f; main.o:_00189_DS_=0x28f
0000028c                     main.o:_00188_DS_:
0000028c e0fc                BCR      STATUS, BK0
0000028d fd05                CLRR     0x7a
0000028e fd04                CLRR     0x7b
0000028f                     main.o:_00189_DS_:
0000028f e4fc                BSR      STATUS, BK0
00000290 fecd                MOVR     0x32, ToAcc
00000291 f2fc                BTRSC    STATUS, Z
00000292 d534                LCALL    0x2cb; _checkOutA=0x2cb
00000293 defc                MOVIA    0x3
00000294 e4fc                BSR      STATUS, BK0
00000295 fbdf                SUBAR    0x20, ToAcc
00000296 f7fc                BTRSS    STATUS, C
00000297 d6f1                LCALL    0x10e; _checkBatAD=0x10e
00000298 d7f6                LCALL    0x9; _chrgCtr=0x9
00000299 e0fc                BCR      STATUS, BK0
0000029a f601                BTRSS    0x7e, 0x3
0000029b d470                LCALL    0x38f; _keyCtr=0x38f
0000029c e4fc                BSR      STATUS, BK0
0000029d fedd                MOVR     0x22, ToAcc
0000029e f6fc                BTRSS    STATUS, Z
0000029f c543                LGOTO    0x2bc; main.o:_00200_DS_=0x2bc
000002a0 fedc                MOVR     0x23, ToAcc
000002a1 f6fc                BTRSS    STATUS, Z
000002a2 c543                LGOTO    0x2bc; main.o:_00200_DS_=0x2bc
000002a3 e0fc                BCR      STATUS, BK0
000002a4 f201                BTRSC    0x7e, 0x3
000002a5 c543                LGOTO    0x2bc; main.o:_00200_DS_=0x2bc
000002a6 e4fc                BSR      STATUS, BK0
000002a7 fedb                MOVR     0x24, ToAcc
000002a8 f6fc                BTRSS    STATUS, Z
000002a9 c543                LGOTO    0x2bc; main.o:_00200_DS_=0x2bc
000002aa fed6                MOVR     0x29, ToAcc
000002ab f6fc                BTRSS    STATUS, Z
000002ac c543                LGOTO    0x2bc; main.o:_00200_DS_=0x2bc
000002ad e0fc                BCR      STATUS, BK0
000002ae e181                BCR      0x7e, 0x4
000002af fa0b                INCR     0x74, ToReg
000002b0 f2fc                BTRSC    STATUS, Z
000002b1 fa0a                INCR     0x75, ToReg
000002b2 deff                MOVIA    0x0
000002b3 fb8a                SUBAR    0x75, ToAcc
000002b4 f6fc                BTRSS    STATUS, Z
000002b5 c547                LGOTO    0x2b8; main.o:_00300_DS_=0x2b8
000002b6 de36                MOVIA    0xc9
000002b7 fb8b                SUBAR    0x74, ToAcc
000002b8                     main.o:_00300_DS_:
000002b8 f7fc                BTRSS    STATUS, C
000002b9 c540                LGOTO    0x2bf; main.o:_00201_DS_=0x2bf
000002ba d29b                LCALL    0x564; _gotoSleep=0x564
000002bb c540                LGOTO    0x2bf; main.o:_00201_DS_=0x2bf
000002bc                     main.o:_00200_DS_:
000002bc e0fc                BCR      STATUS, BK0
000002bd fd0b                CLRR     0x74
000002be fd0a                CLRR     0x75
000002bf                     main.o:_00201_DS_:
000002bf defc                MOVIA    0x3
000002c0 e0fc                BCR      STATUS, BK0
000002c1 fb86                SUBAR    0x79, ToAcc
000002c2 f6fc                BTRSS    STATUS, Z
000002c3 c539                LGOTO    0x2c6; main.o:_00301_DS_=0x2c6
000002c4 de7b                MOVIA    0x84
000002c5 fb87                SUBAR    0x78, ToAcc
000002c6                     main.o:_00301_DS_:
000002c6 f7fc                BTRSS    STATUS, C
000002c7 c5e7                LGOTO    0x218; main.o:_00209_DS_=0x218
000002c8 d04b                LCALL    0x7b4; _powerOff=0x7b4
000002c9 c5e7                LGOTO    0x218; main.o:_00209_DS_=0x218
000002ca ffef                RET
000002cb                     _checkOutA:
000002cb e0fc                BCR      STATUS, BK0
000002cc fd5b                CLRR     0x24
000002cd fd5f                CLRR     0x20
000002ce fd5e                CLRR     0x21
000002cf def7                MOVIA    0x8
000002d0 d24c                LCALL    0x5b3; _F_AIN4_Convert=0x5b3
000002d1 e0fc                BCR      STATUS, BK0
000002d2 eade                SWAPR    0x21, ToAcc
000002d3 dd0f                ANDIA    0xf0
000002d4 ff5e                MOVAR    0x21
000002d5 eadf                SWAPR    0x20, ToAcc
000002d6 ff5f                MOVAR    0x20
000002d7 ddf0                ANDIA    0xf
000002d8 ee5e                IORAR    0x21, ToReg
000002d9 ed5f                XORAR    0x20, ToReg
000002da de0f                MOVIA    0xf0
000002db ef5b                ANDAR    0x24, ToReg
000002dc fedb                MOVR     0x24, ToAcc
000002dd ff47                MOVAR    0x38
000002de ff49                MOVAR    0x36
000002df fd48                CLRR     0x37
000002e0 deff                MOVIA    0x0
000002e1 ff46                MOVAR    0x39
000002e2 fec7                MOVR     0x38, ToAcc
000002e3 fc5f                ADDAR    0x20, ToReg
000002e4 fec6                MOVR     0x39, ToAcc
000002e5 f3fc                BTRSC    STATUS, C
000002e6 fac6                INCR     0x39, ToAcc
000002e7 f2fc                BTRSC    STATUS, Z
000002e8 c515                LGOTO    0x2ea; main.o:_00003_DS_=0x2ea
000002e9 fc5e                ADDAR    0x21, ToReg
000002ea                     main.o:_00003_DS_:
000002ea e3fc                BCR      STATUS, C
000002eb e0fc                BCR      STATUS, BK0
000002ec ec5e                RRR      0x21, ToReg
000002ed ec5f                RRR      0x20, ToReg
000002ee e3fc                BCR      STATUS, C
000002ef ec5e                RRR      0x21, ToReg
000002f0 ec5f                RRR      0x20, ToReg
000002f1 e3fc                BCR      STATUS, C
000002f2 ec5e                RRR      0x21, ToReg
000002f3 ec5f                RRR      0x20, ToReg
000002f4 def9                MOVIA    0x6
000002f5 e4fc                BSR      STATUS, BK0
000002f6 fbdd                SUBAR    0x22, ToAcc
000002f7 f3fc                BTRSC    STATUS, C
000002f8 c4f4                LGOTO    0x30b; main.o:_00705_DS_=0x30b
000002f9 deff                MOVIA    0x0
000002fa e0fc                BCR      STATUS, BK0
000002fb fbde                SUBAR    0x21, ToAcc
000002fc f6fc                BTRSS    STATUS, Z
000002fd c4ff                LGOTO    0x300; main.o:_00759_DS_=0x300
000002fe de36                MOVIA    0xc9
000002ff fbdf                SUBAR    0x20, ToAcc
00000300                     main.o:_00759_DS_:
00000300 f7fc                BTRSS    STATUS, C
00000301 c4f4                LGOTO    0x30b; main.o:_00705_DS_=0x30b
00000302 e4fc                BSR      STATUS, BK0
00000303 fa58                INCR     0x27, ToReg
00000304 def9                MOVIA    0x6
00000305 fbd8                SUBAR    0x27, ToAcc
00000306 f7fc                BTRSS    STATUS, C
00000307 c471                LGOTO    0x38e; main.o:_00708_DS_=0x38e
00000308 defa                MOVIA    0x5
00000309 ff58                MOVAR    0x27
0000030a c471                LGOTO    0x38e; main.o:_00708_DS_=0x38e
0000030b                     main.o:_00705_DS_:
0000030b defe                MOVIA    0x1
0000030c e0fc                BCR      STATUS, BK0
0000030d fbde                SUBAR    0x21, ToAcc
0000030e f6fc                BTRSS    STATUS, Z
0000030f c4ed                LGOTO    0x312; main.o:_00761_DS_=0x312
00000310 de6e                MOVIA    0x91
00000311 fbdf                SUBAR    0x20, ToAcc
00000312                     main.o:_00761_DS_:
00000312 f7fc                BTRSS    STATUS, C
00000313 c4e2                LGOTO    0x31d; main.o:_00702_DS_=0x31d
00000314 e4fc                BSR      STATUS, BK0
00000315 fa58                INCR     0x27, ToReg
00000316 def9                MOVIA    0x6
00000317 fbd8                SUBAR    0x27, ToAcc
00000318 f7fc                BTRSS    STATUS, C
00000319 c471                LGOTO    0x38e; main.o:_00708_DS_=0x38e
0000031a defa                MOVIA    0x5
0000031b ff58                MOVAR    0x27
0000031c c471                LGOTO    0x38e; main.o:_00708_DS_=0x38e
0000031d                     main.o:_00702_DS_:
0000031d ded2                MOVIA    0x2d
0000031e e0fc                BCR      STATUS, BK0
0000031f ff49                MOVAR    0x36
00000320 dee0                MOVIA    0x1f
00000321 e4fc                BSR      STATUS, BK0
00000322 fbd0                SUBAR    0x2f, ToAcc
00000323 f7fc                BTRSS    STATUS, C
00000324 c4d7                LGOTO    0x328; main.o:_00673_DS_=0x328
00000325 decb                MOVIA    0x34
00000326 e0fc                BCR      STATUS, BK0
00000327 ff49                MOVAR    0x36
00000328                     main.o:_00673_DS_:
00000328 e4fc                BSR      STATUS, BK0
00000329 fedd                MOVR     0x22, ToAcc
0000032a dbfe                XORIA    0x1
0000032b f6fc                BTRSS    STATUS, Z
0000032c c4ce                LGOTO    0x331; main.o:_00692_DS_=0x331
0000032d de09                MOVIA    0xf6
0000032e e0fc                BCR      STATUS, BK0
0000032f fc49                ADDAR    0x36, ToReg
00000330 c499                LGOTO    0x366; main.o:_00693_DS_=0x366
00000331                     main.o:_00692_DS_:
00000331 e4fc                BSR      STATUS, BK0
00000332 fedd                MOVR     0x22, ToAcc
00000333 dbfd                XORIA    0x2
00000334 f6fc                BTRSS    STATUS, Z
00000335 c4c5                LGOTO    0x33a; main.o:_00689_DS_=0x33a
00000336 de07                MOVIA    0xf8
00000337 e0fc                BCR      STATUS, BK0
00000338 fc49                ADDAR    0x36, ToReg
00000339 c499                LGOTO    0x366; main.o:_00693_DS_=0x366
0000033a                     main.o:_00689_DS_:
0000033a e4fc                BSR      STATUS, BK0
0000033b fedd                MOVR     0x22, ToAcc
0000033c dbfc                XORIA    0x3
0000033d f6fc                BTRSS    STATUS, Z
0000033e c4bc                LGOTO    0x343; main.o:_00686_DS_=0x343
0000033f de02                MOVIA    0xfd
00000340 e0fc                BCR      STATUS, BK0
00000341 fc49                ADDAR    0x36, ToReg
00000342 c499                LGOTO    0x366; main.o:_00693_DS_=0x366
00000343                     main.o:_00686_DS_:
00000343 e4fc                BSR      STATUS, BK0
00000344 fedd                MOVR     0x22, ToAcc
00000345 dbfb                XORIA    0x4
00000346 f6fc                BTRSS    STATUS, Z
00000347 c4b3                LGOTO    0x34c; main.o:_00683_DS_=0x34c
00000348 e0fc                BCR      STATUS, BK0
00000349 fa49                INCR     0x36, ToReg
0000034a fa49                INCR     0x36, ToReg
0000034b c499                LGOTO    0x366; main.o:_00693_DS_=0x366
0000034c                     main.o:_00683_DS_:
0000034c e4fc                BSR      STATUS, BK0
0000034d fedd                MOVR     0x22, ToAcc
0000034e dbfa                XORIA    0x5
0000034f f6fc                BTRSS    STATUS, Z
00000350 c4aa                LGOTO    0x355; main.o:_00680_DS_=0x355
00000351 def8                MOVIA    0x7
00000352 e0fc                BCR      STATUS, BK0
00000353 fc49                ADDAR    0x36, ToReg
00000354 c499                LGOTO    0x366; main.o:_00693_DS_=0x366
00000355                     main.o:_00680_DS_:
00000355 e4fc                BSR      STATUS, BK0
00000356 fedd                MOVR     0x22, ToAcc
00000357 dbf9                XORIA    0x6
00000358 f6fc                BTRSS    STATUS, Z
00000359 c4a1                LGOTO    0x35e; main.o:_00677_DS_=0x35e
0000035a def0                MOVIA    0xf
0000035b e0fc                BCR      STATUS, BK0
0000035c fc49                ADDAR    0x36, ToReg
0000035d c499                LGOTO    0x366; main.o:_00693_DS_=0x366
0000035e                     main.o:_00677_DS_:
0000035e def8                MOVIA    0x7
0000035f e4fc                BSR      STATUS, BK0
00000360 fbdd                SUBAR    0x22, ToAcc
00000361 f7fc                BTRSS    STATUS, C
00000362 c499                LGOTO    0x366; main.o:_00693_DS_=0x366
00000363 deed                MOVIA    0x12
00000364 e0fc                BCR      STATUS, BK0
00000365 fc49                ADDAR    0x36, ToReg
00000366                     main.o:_00693_DS_:
00000366 e4fc                BSR      STATUS, BK0
00000367 fed8                MOVR     0x27, ToAcc
00000368 f6fc                BTRSS    STATUS, Z
00000369 f958                DECR     0x27, ToReg
0000036a e0fc                BCR      STATUS, BK0
0000036b fec9                MOVR     0x36, ToAcc
0000036c ff48                MOVAR    0x37
0000036d fd47                CLRR     0x38
0000036e fede                MOVR     0x21, ToAcc
0000036f fbc7                SUBAR    0x38, ToAcc
00000370 f6fc                BTRSS    STATUS, Z
00000371 c48b                LGOTO    0x374; main.o:_00765_DS_=0x374
00000372 fedf                MOVR     0x20, ToAcc
00000373 fbc8                SUBAR    0x37, ToAcc
00000374                     main.o:_00765_DS_:
00000374 f3fc                BTRSC    STATUS, C
00000375 c47d                LGOTO    0x382; main.o:_00699_DS_=0x382
00000376 defc                MOVIA    0x3
00000377 ff3a                MOVAR    0x45
00000378 e4fc                BSR      STATUS, BK0
00000379 fedd                MOVR     0x22, ToAcc
0000037a d105                LCALL    0x6fa; __mulchar=0x6fa
0000037b e0fc                BCR      STATUS, BK0
0000037c ff49                MOVAR    0x36
0000037d deb9                MOVIA    0x46
0000037e fcc9                ADDAR    0x36, ToAcc
0000037f e4fc                BSR      STATUS, BK0
00000380 ff57                MOVAR    0x28
00000381 c471                LGOTO    0x38e; main.o:_00708_DS_=0x38e
00000382                     main.o:_00699_DS_:
00000382 deff                MOVIA    0x0
00000383 e0fc                BCR      STATUS, BK0
00000384 fbde                SUBAR    0x21, ToAcc
00000385 f6fc                BTRSS    STATUS, Z
00000386 c476                LGOTO    0x389; main.o:_00766_DS_=0x389
00000387 deb4                MOVIA    0x4b
00000388 fbdf                SUBAR    0x20, ToAcc
00000389                     main.o:_00766_DS_:
00000389 f3fc                BTRSC    STATUS, C
0000038a c471                LGOTO    0x38e; main.o:_00708_DS_=0x38e
0000038b e4fc                BSR      STATUS, BK0
0000038c feda                MOVR     0x25, ToAcc
0000038d ff57                MOVAR    0x28
0000038e                     main.o:_00708_DS_:
0000038e ffef                RET
0000038f                     _keyCtr:
0000038f e0fc                BCR      STATUS, BK0
00000390 f8fa                COMR     PORTA, ToAcc
00000391 ff53                MOVAR    0x2c
00000392 dedf                MOVIA    0x20
00000393 ef53                ANDAR    0x2c, ToReg
00000394 fed3                MOVR     0x2c, ToAcc
00000395 d2ed                LCALL    0x512; _keyRead=0x512
00000396 e0fc                BCR      STATUS, BK0
00000397 ff53                MOVAR    0x2c
00000398 dbfe                XORIA    0x1
00000399 f6fc                BTRSS    STATUS, Z
0000039a c437                LGOTO    0x3c8; main.o:_00499_DS_=0x3c8
0000039b e4fc                BSR      STATUS, BK0
0000039c fd5b                CLRR     0x24
0000039d e0fc                BCR      STATUS, BK0
0000039e fd05                CLRR     0x7a
0000039f fd04                CLRR     0x7b
000003a0 e4fc                BSR      STATUS, BK0
000003a1 fedd                MOVR     0x22, ToAcc
000003a2 f6fc                BTRSS    STATUS, Z
000003a3 c44c                LGOTO    0x3b3; main.o:_00487_DS_=0x3b3
000003a4 e0fc                BCR      STATUS, BK0
000003a5 f581                BTRSS    0x7e, 0x4
000003a6 c453                LGOTO    0x3ac; main.o:_00484_DS_=0x3ac
000003a7 e4fc                BSR      STATUS, BK0
000003a8 fd5b                CLRR     0x24
000003a9 e0fc                BCR      STATUS, BK0
000003aa e181                BCR      0x7e, 0x4
000003ab c44d                LGOTO    0x3b2; main.o:_00485_DS_=0x3b2
000003ac                     main.o:_00484_DS_:
000003ac e4fc                BSR      STATUS, BK0
000003ad fd5e                CLRR     0x21
000003ae defc                MOVIA    0x3
000003af ff5b                MOVAR    0x24
000003b0 e0fc                BCR      STATUS, BK0
000003b1 e581                BSR      0x7e, 0x4
000003b2                     main.o:_00485_DS_:
000003b2 c411                LGOTO    0x3ee; main.o:_00501_DS_=0x3ee
000003b3                     main.o:_00487_DS_:
000003b3 e4fc                BSR      STATUS, BK0
000003b4 fa5d                INCR     0x22, ToReg
000003b5 def4                MOVIA    0xb
000003b6 fbdd                SUBAR    0x22, ToAcc
000003b7 f7fc                BTRSS    STATUS, C
000003b8 c444                LGOTO    0x3bb; main.o:_00489_DS_=0x3bb
000003b9 defe                MOVIA    0x1
000003ba ff5d                MOVAR    0x22
000003bb                     main.o:_00489_DS_:
000003bb defd                MOVIA    0x2
000003bc ff3a                MOVAR    0x45
000003bd e4fc                BSR      STATUS, BK0
000003be fedd                MOVR     0x22, ToAcc
000003bf d105                LCALL    0x6fa; __mulchar=0x6fa
000003c0 e0fc                BCR      STATUS, BK0
000003c1 ff52                MOVAR    0x2d
000003c2 ded9                MOVIA    0x26
000003c3 fcd2                ADDAR    0x2d, ToAcc
000003c4 e4fc                BSR      STATUS, BK0
000003c5 ff5a                MOVAR    0x25
000003c6 d7fc                LCALL    0x3; _setMaxDuty=0x3
000003c7 c411                LGOTO    0x3ee; main.o:_00501_DS_=0x3ee
000003c8                     main.o:_00499_DS_:
000003c8 e0fc                BCR      STATUS, BK0
000003c9 fed3                MOVR     0x2c, ToAcc
000003ca dbfd                XORIA    0x2
000003cb f6fc                BTRSS    STATUS, Z
000003cc c411                LGOTO    0x3ee; main.o:_00501_DS_=0x3ee
000003cd e4fc                BSR      STATUS, BK0
000003ce fedd                MOVR     0x22, ToAcc
000003cf f2fc                BTRSC    STATUS, Z
000003d0 c429                LGOTO    0x3d6; main.o:_00494_DS_=0x3d6
000003d1 fd5d                CLRR     0x22
000003d2 d04b                LCALL    0x7b4; _powerOff=0x7b4
000003d3 e0fc                BCR      STATUS, BK0
000003d4 e181                BCR      0x7e, 0x4
000003d5 c411                LGOTO    0x3ee; main.o:_00501_DS_=0x3ee
000003d6                     main.o:_00494_DS_:
000003d6 e4fc                BSR      STATUS, BK0
000003d7 fed0                MOVR     0x2f, ToAcc
000003d8 f2fc                BTRSC    STATUS, Z
000003d9 c422                LGOTO    0x3dd; main.o:_00490_DS_=0x3dd
000003da fece                MOVR     0x31, ToAcc
000003db f6fc                BTRSS    STATUS, Z
000003dc c41b                LGOTO    0x3e4; main.o:_00491_DS_=0x3e4
000003dd                     main.o:_00490_DS_:
000003dd defc                MOVIA    0x3
000003de e4fc                BSR      STATUS, BK0
000003df ff5b                MOVAR    0x24
000003e0 fd4e                CLRR     0x31
000003e1 e0fc                BCR      STATUS, BK0
000003e2 e581                BSR      0x7e, 0x4
000003e3 c411                LGOTO    0x3ee; main.o:_00501_DS_=0x3ee
000003e4                     main.o:_00491_DS_:
000003e4 defe                MOVIA    0x1
000003e5 e4fc                BSR      STATUS, BK0
000003e6 ff5d                MOVAR    0x22
000003e7 deaf                MOVIA    0x50
000003e8 ffb3                SFUN     PWM2DUTY
000003e9 ff4f                MOVAR    0x30
000003ea ff59                MOVAR    0x26
000003eb ded7                MOVIA    0x28
000003ec ff5a                MOVAR    0x25
000003ed d7fc                LCALL    0x3; _setMaxDuty=0x3
000003ee                     main.o:_00501_DS_:
000003ee ffef                RET
000003ef                     _isr:
000003ef ff3d                MOVAR    0x42
000003f0 eafc                SWAPR    STATUS, ToAcc
000003f1 fd7c                CLRR     STATUS
000003f2 ff3e                MOVAR    0x41
000003f3 fef5                MOVR     PCHBUF, ToAcc
000003f4 fd75                CLRR     PCHBUF
000003f5 ff3f                MOVAR    0x40
000003f6 fefb                MOVR     FSR, ToAcc
000003f7 e0fc                BCR      STATUS, BK0
000003f8 ff1b                MOVAR    0x64
000003f9 feba                MOVR     0x45, ToAcc
000003fa ff1a                MOVAR    0x65
000003fb febb                MOVR     0x44, ToAcc
000003fc ff19                MOVAR    0x66
000003fd f7f0                BTRSS    INTF, T0IF
000003fe c3c9                LGOTO    0x436; main.o:_00121_DS_=0x436
000003ff dec8                MOVIA    0x37
00000400 fc7e                ADDAR    TMR0, ToReg
00000401 fa00                INCR     0x7f, ToReg
00000402 de82                MOVIA    0x7d
00000403 fb80                SUBAR    0x7f, ToAcc
00000404 f7fc                BTRSS    STATUS, C
00000405 c3c9                LGOTO    0x436; main.o:_00121_DS_=0x436
00000406 e781                BSR      0x7e, 0x0
00000407 fd00                CLRR     0x7f
00000408 e4fc                BSR      STATUS, BK0
00000409 fa5f                INCR     0x20, ToReg
0000040a deeb                MOVIA    0x14
0000040b fbdf                SUBAR    0x20, ToAcc
0000040c f7fc                BTRSS    STATUS, C
0000040d c3ed                LGOTO    0x412; main.o:_00108_DS_=0x412
0000040e fd5f                CLRR     0x20
0000040f fed6                MOVR     0x29, ToAcc
00000410 f6fc                BTRSS    STATUS, Z
00000411 f956                DECR     0x29, ToReg
00000412                     main.o:_00108_DS_:
00000412 e0fc                BCR      STATUS, BK0
00000413 fa09                INCR     0x76, ToReg
00000414 f2fc                BTRSC    STATUS, Z
00000415 fa08                INCR     0x77, ToReg
00000416 def4                MOVIA    0xb
00000417 fb88                SUBAR    0x77, ToAcc
00000418 f6fc                BTRSS    STATUS, Z
00000419 c3e3                LGOTO    0x41c; main.o:_00155_DS_=0x41c
0000041a de47                MOVIA    0xb8
0000041b fb89                SUBAR    0x76, ToAcc
0000041c                     main.o:_00155_DS_:
0000041c f7fc                BTRSS    STATUS, C
0000041d c3de                LGOTO    0x421; main.o:_00110_DS_=0x421
0000041e e0fc                BCR      STATUS, BK0
0000041f fd09                CLRR     0x76
00000420 fd08                CLRR     0x77
00000421                     main.o:_00110_DS_:
00000421 e4fc                BSR      STATUS, BK0
00000422 fa5e                INCR     0x21, ToReg
00000423 de9b                MOVIA    0x64
00000424 fbde                SUBAR    0x21, ToAcc
00000425 f7fc                BTRSS    STATUS, C
00000426 c3c9                LGOTO    0x436; main.o:_00121_DS_=0x436
00000427 fd5e                CLRR     0x21
00000428 fedb                MOVR     0x24, ToAcc
00000429 f6fc                BTRSS    STATUS, Z
0000042a f95b                DECR     0x24, ToReg
0000042b fedd                MOVR     0x22, ToAcc
0000042c f2fc                BTRSC    STATUS, Z
0000042d c3cc                LGOTO    0x433; main.o:_00114_DS_=0x433
0000042e e0fc                BCR      STATUS, BK0
0000042f fa07                INCR     0x78, ToReg
00000430 f2fc                BTRSC    STATUS, Z
00000431 fa06                INCR     0x79, ToReg
00000432 c3c9                LGOTO    0x436; main.o:_00121_DS_=0x436
00000433                     main.o:_00114_DS_:
00000433 e0fc                BCR      STATUS, BK0
00000434 fd07                CLRR     0x78
00000435 fd06                CLRR     0x79
00000436                     main.o:_00121_DS_:
00000436 f770                BTRSS    INTF, PABIF
00000437 c3c5                LGOTO    0x43a; main.o:_00123_DS_=0x43a
00000438 de02                MOVIA    0xfd
00000439 ff70                MOVAR    INTF
0000043a                     main.o:_00123_DS_:
0000043a fd70                CLRR     INTF
0000043b e0fc                BCR      STATUS, BK0
0000043c fe99                MOVR     0x66, ToAcc
0000043d ff3b                MOVAR    0x44
0000043e fe9a                MOVR     0x65, ToAcc
0000043f ff3a                MOVAR    0x45
00000440 fe9b                MOVR     0x64, ToAcc
00000441 ff7b                MOVAR    FSR
00000442 febf                MOVR     0x40, ToAcc
00000443 ff75                MOVAR    PCHBUF
00000444 fd7c                CLRR     STATUS
00000445 eabe                SWAPR    0x41, ToAcc
00000446 ff7c                MOVAR    STATUS
00000447 ea3d                SWAPR    0x42, ToReg
00000448 eabd                SWAPR    0x42, ToAcc
00000449                     main.o:END_OF_INTERRUPT:
00000449 ffee                RETIE
0000044a                     ___cinit_load__:
0000044a e0fc                BCR      STATUS, BK0
0000044b fd01                CLRR     0x7e
0000044c fd00                CLRR     0x7f
0000044d fd0b                CLRR     0x74
0000044e fd0a                CLRR     0x75
0000044f fd09                CLRR     0x76
00000450 fd08                CLRR     0x77
00000451 fd07                CLRR     0x78
00000452 fd06                CLRR     0x79
00000453 fd05                CLRR     0x7a
00000454 fd04                CLRR     0x7b
00000455 fd03                CLRR     0x7c
00000456 fd02                CLRR     0x7d
00000457 def9                MOVIA    0x6
00000458 ff17                MOVAR    0x68
00000459 def8                MOVIA    0x7
0000045a ff11                MOVAR    0x6e
0000045b dec0                MOVIA    0x3f
0000045c ff18                MOVAR    0x67
0000045d deb0                MOVIA    0x4f
0000045e ff15                MOVAR    0x6a
0000045f deaf                MOVIA    0x50
00000460 ff0c                MOVAR    0x73
00000461 dea4                MOVIA    0x5b
00000462 ff16                MOVAR    0x69
00000463 de99                MOVIA    0x66
00000464 ff14                MOVAR    0x6b
00000465 de92                MOVIA    0x6d
00000466 ff13                MOVAR    0x6c
00000467 de90                MOVIA    0x6f
00000468 ff0f                MOVAR    0x70
00000469 de8e                MOVIA    0x71
0000046a ff0e                MOVAR    0x71
0000046b de86                MOVIA    0x79
0000046c ff0d                MOVAR    0x72
0000046d de82                MOVIA    0x7d
0000046e ff12                MOVAR    0x6d
0000046f de80                MOVIA    0x7f
00000470 ff10                MOVAR    0x6f
00000471 e4fc                BSR      STATUS, BK0
00000472 fd5f                CLRR     0x20
00000473 fd5e                CLRR     0x21
00000474 fd5d                CLRR     0x22
00000475 fd5c                CLRR     0x23
00000476 fd5b                CLRR     0x24
00000477 fd5a                CLRR     0x25
00000478 fd59                CLRR     0x26
00000479 fd58                CLRR     0x27
0000047a fd57                CLRR     0x28
0000047b fd56                CLRR     0x29
0000047c fd55                CLRR     0x2a
0000047d fd54                CLRR     0x2b
0000047e fd53                CLRR     0x2c
0000047f fd52                CLRR     0x2d
00000480 fd51                CLRR     0x2e
00000481 fd50                CLRR     0x2f
00000482 fd4f                CLRR     0x30
00000483 fd4e                CLRR     0x31
00000484 fd4d                CLRR     0x32
00000485 fd4c                CLRR     0x33
00000486 fd4b                CLRR     0x34
00000487 fd4a                CLRR     0x35
00000488 fd49                CLRR     0x36
00000489 fd48                CLRR     0x37
0000048a fd47                CLRR     0x38
0000048b fd46                CLRR     0x39
0000048c fd45                CLRR     0x3a
0000048d fd44                CLRR     0x3b
0000048e fd43                CLRR     0x3c
0000048f fd42                CLRR     0x3d
00000490 ffef                RET
00000491                     _refreshNub:
00000491 defc                MOVIA    0x3
00000492 e0fc                BCR      STATUS, BK0
00000493 fb86                SUBAR    0x79, ToAcc
00000494 f6fc                BTRSS    STATUS, Z
00000495 c367                LGOTO    0x498; main.o:_00474_DS_=0x498
00000496 de7b                MOVIA    0x84
00000497 fb87                SUBAR    0x78, ToAcc
00000498                     main.o:_00474_DS_:
00000498 f7fc                BTRSS    STATUS, C
00000499 c363                LGOTO    0x49c; main.o:_00452_DS_=0x49c
0000049a d0ca                LCALL    0x735; _setInput=0x735
0000049b c329                LGOTO    0x4d6; main.o:_00460_DS_=0x4d6
0000049c                     main.o:_00452_DS_:
0000049c e4fc                BSR      STATUS, BK0
0000049d fed2                MOVR     0x2d, ToAcc
0000049e ff54                MOVAR    0x2b
0000049f fed1                MOVR     0x2e, ToAcc
000004a0 ff53                MOVAR    0x2c
000004a1 fedd                MOVR     0x22, ToAcc
000004a2 f6fc                BTRSS    STATUS, Z
000004a3 c359                LGOTO    0x4a6; main.o:_00453_DS_=0x4a6
000004a4 fedb                MOVR     0x24, ToAcc
000004a5 f6fc                BTRSS    STATUS, Z
000004a6                     main.o:_00453_DS_:
000004a6 d050                LCALL    0x7af; _showKeyLed=0x7af
000004a7 e4fc                BSR      STATUS, BK0
000004a8 fed6                MOVR     0x29, ToAcc
000004a9 f2fc                BTRSC    STATUS, Z
000004aa c350                LGOTO    0x4af; main.o:_00457_DS_=0x4af
000004ab def4                MOVIA    0xb
000004ac ff54                MOVAR    0x2b
000004ad def3                MOVIA    0xc
000004ae ff53                MOVAR    0x2c
000004af                     main.o:_00457_DS_:
000004af e4fc                BSR      STATUS, BK0
000004b0 fecd                MOVR     0x32, ToAcc
000004b1 f2fc                BTRSC    STATUS, Z
000004b2 c349                LGOTO    0x4b6; main.o:_00459_DS_=0x4b6
000004b3 def7                MOVIA    0x8
000004b4 ff53                MOVAR    0x2c
000004b5 ff54                MOVAR    0x2b
000004b6                     main.o:_00459_DS_:
000004b6 e4fc                BSR      STATUS, BK0
000004b7 fed4                MOVR     0x2b, ToAcc
000004b8 da98                ADDIA    0x67
000004b9 e0fc                BCR      STATUS, BK0
000004ba ff55                MOVAR    0x2a
000004bb deff                MOVIA    0x0
000004bc f3fc                BTRSC    STATUS, C
000004bd dafe                ADDIA    0x1
000004be ff54                MOVAR    0x2b
000004bf fed5                MOVR     0x2a, ToAcc
000004c0 ff3b                MOVAR    0x44
000004c1 fed4                MOVR     0x2b, ToAcc
000004c2 ff3a                MOVAR    0x45
000004c3 deff                MOVIA    0x0
000004c4 d0ec                LCALL    0x713; __gptrget=0x713
000004c5 d15b                LCALL    0x6a4; _showNubShiwei=0x6a4
000004c6 e4fc                BSR      STATUS, BK0
000004c7 fed3                MOVR     0x2c, ToAcc
000004c8 da98                ADDIA    0x67
000004c9 e0fc                BCR      STATUS, BK0
000004ca ff55                MOVAR    0x2a
000004cb deff                MOVIA    0x0
000004cc f3fc                BTRSC    STATUS, C
000004cd dafe                ADDIA    0x1
000004ce ff54                MOVAR    0x2b
000004cf fed5                MOVR     0x2a, ToAcc
000004d0 ff3b                MOVAR    0x44
000004d1 fed4                MOVR     0x2b, ToAcc
000004d2 ff3a                MOVAR    0x45
000004d3 deff                MOVIA    0x0
000004d4 d0ec                LCALL    0x713; __gptrget=0x713
000004d5 d179                LCALL    0x686; _showNubGewei=0x686
000004d6                     main.o:_00460_DS_:
000004d6 ffef                RET
000004d7                     _setOutput:
000004d7 e0fc                BCR      STATUS, BK0
000004d8 ff2b                MOVAR    0x54
000004d9 defe                MOVIA    0x1
000004da fbab                SUBAR    0x54, ToAcc
000004db f7fc                BTRSS    STATUS, C
000004dc c2ee                LGOTO    0x511; number.o:_00307_DS_=0x511
000004dd def9                MOVIA    0x6
000004de fbab                SUBAR    0x54, ToAcc
000004df f3fc                BTRSC    STATUS, C
000004e0 c2ee                LGOTO    0x511; number.o:_00307_DS_=0x511
000004e1 f92b                DECR     0x54, ToReg
000004e2 defb                MOVIA    0x4
000004e3 ff75                MOVAR    PCHBUF
000004e4 feab                MOVR     0x54, ToAcc
000004e5 da16                ADDIA    0xe9
000004e6 f3fc                BTRSC    STATUS, C
000004e7 fa75                INCR     PCHBUF, ToReg
000004e8 ff7d                MOVAR    PCL
000004e9                     number.o:_00317_DS_:
000004e9 c311                LGOTO    0x4ee; number.o:_00301_DS_=0x4ee
000004ea c30a                LGOTO    0x4f5; number.o:_00302_DS_=0x4f5
000004eb c303                LGOTO    0x4fc; number.o:_00303_DS_=0x4fc
000004ec c2fc                LGOTO    0x503; number.o:_00304_DS_=0x503
000004ed c2f4                LGOTO    0x50b; number.o:_00305_DS_=0x50b
000004ee                     number.o:_00301_DS_:
000004ee ffea                IOSTR    IOSTA
000004ef e0fc                BCR      STATUS, BK0
000004f0 ff2b                MOVAR    0x54
000004f1 e0ab                BCR      0x54, 0x6
000004f2 feab                MOVR     0x54, ToAcc
000004f3 fffa                IOST     IOSTA
000004f4 c2ee                LGOTO    0x511; number.o:_00307_DS_=0x511
000004f5                     number.o:_00302_DS_:
000004f5 ffea                IOSTR    IOSTA
000004f6 e0fc                BCR      STATUS, BK0
000004f7 ff2b                MOVAR    0x54
000004f8 e02b                BCR      0x54, 0x7
000004f9 feab                MOVR     0x54, ToAcc
000004fa fffa                IOST     IOSTA
000004fb c2ee                LGOTO    0x511; number.o:_00307_DS_=0x511
000004fc                     number.o:_00303_DS_:
000004fc ffe9                IOSTR    IOSTB
000004fd e0fc                BCR      STATUS, BK0
000004fe ff2b                MOVAR    0x54
000004ff e32b                BCR      0x54, 0x1
00000500 feab                MOVR     0x54, ToAcc
00000501 fff9                IOST     IOSTB
00000502 c2ee                LGOTO    0x511; number.o:_00307_DS_=0x511
00000503                     number.o:_00304_DS_:
00000503 ffe9                IOSTR    IOSTB
00000504 e0fc                BCR      STATUS, BK0
00000505 ff2b                MOVAR    0x54
00000506 de21                MOVIA    0xde
00000507 ef2b                ANDAR    0x54, ToReg
00000508 feab                MOVR     0x54, ToAcc
00000509 fff9                IOST     IOSTB
0000050a c2ee                LGOTO    0x511; number.o:_00307_DS_=0x511
0000050b                     number.o:_00305_DS_:
0000050b ffea                IOSTR    IOSTA
0000050c e0fc                BCR      STATUS, BK0
0000050d ff2b                MOVAR    0x54
0000050e e3ab                BCR      0x54, 0x0
0000050f feab                MOVR     0x54, ToAcc
00000510 fffa                IOST     IOSTA
00000511                     number.o:_00307_DS_:
00000511 ffef                RET
00000512                     _keyRead:
00000512 e0fc                BCR      STATUS, BK0
00000513 ff4f                MOVAR    0x30
00000514 fecf                MOVR     0x30, ToAcc
00000515 f2fc                BTRSC    STATUS, Z
00000516 c2da                LGOTO    0x525; main.o:_00550_DS_=0x525
00000517 e4fc                BSR      STATUS, BK0
00000518 fa5c                INCR     0x23, ToReg
00000519 de37                MOVIA    0xc8
0000051a fbdc                SUBAR    0x23, ToAcc
0000051b f7fc                BTRSS    STATUS, C
0000051c c2c6                LGOTO    0x539; main.o:_00551_DS_=0x539
0000051d de37                MOVIA    0xc8
0000051e ff5c                MOVAR    0x23
0000051f e0fc                BCR      STATUS, BK0
00000520 f301                BTRSC    0x7e, 0x1
00000521 c2c6                LGOTO    0x539; main.o:_00551_DS_=0x539
00000522 e701                BSR      0x7e, 0x1
00000523 defd                MOVIA    0x2
00000524 c2c5                LGOTO    0x53a; main.o:_00552_DS_=0x53a
00000525                     main.o:_00550_DS_:
00000525 de37                MOVIA    0xc8
00000526 e4fc                BSR      STATUS, BK0
00000527 fbdc                SUBAR    0x23, ToAcc
00000528 f7fc                BTRSS    STATUS, C
00000529 c2d0                LGOTO    0x52f; main.o:_00547_DS_=0x52f
0000052a fd5c                CLRR     0x23
0000052b e0fc                BCR      STATUS, BK0
0000052c e301                BCR      0x7e, 0x1
0000052d deff                MOVIA    0x0
0000052e c2c5                LGOTO    0x53a; main.o:_00552_DS_=0x53a
0000052f                     main.o:_00547_DS_:
0000052f defb                MOVIA    0x4
00000530 e4fc                BSR      STATUS, BK0
00000531 fbdc                SUBAR    0x23, ToAcc
00000532 f7fc                BTRSS    STATUS, C
00000533 c2c8                LGOTO    0x537; main.o:_00548_DS_=0x537
00000534 fd5c                CLRR     0x23
00000535 defe                MOVIA    0x1
00000536 c2c5                LGOTO    0x53a; main.o:_00552_DS_=0x53a
00000537                     main.o:_00548_DS_:
00000537 e4fc                BSR      STATUS, BK0
00000538 fd5c                CLRR     0x23
00000539                     main.o:_00551_DS_:
00000539 deff                MOVIA    0x0
0000053a                     main.o:_00552_DS_:
0000053a ffef                RET
0000053b                     __divuchar:
0000053b e0fc                BCR      STATUS, BK0
0000053c ff22                MOVAR    0x5d
0000053d feba                MOVR     0x45, ToAcc
0000053e ff21                MOVAR    0x5e
0000053f fd20                CLRR     0x5f
00000540 defe                MOVIA    0x1
00000541 ff1f                MOVAR    0x60
00000542 fea1                MOVR     0x5e, ToAcc
00000543 f6fc                BTRSS    STATUS, Z
00000544 c2b8                LGOTO    0x547; _divuchar.o:_00107_DS_=0x547
00000545 de00                MOVIA    0xff
00000546 c29c                LGOTO    0x563; _divuchar.o:_00115_DS_=0x563
00000547                     _divuchar.o:_00107_DS_:
00000547 e0fc                BCR      STATUS, BK0
00000548 f021                BTRSC    0x5e, 0x7
00000549 c2b0                LGOTO    0x54f; _divuchar.o:_00112_DS_=0x54f
0000054a e3fc                BCR      STATUS, C
0000054b eb21                RLR      0x5e, ToReg
0000054c e3fc                BCR      STATUS, C
0000054d eb1f                RLR      0x60, ToReg
0000054e c2b8                LGOTO    0x547; _divuchar.o:_00107_DS_=0x547
0000054f                     _divuchar.o:_00112_DS_:
0000054f e0fc                BCR      STATUS, BK0
00000550 fe9f                MOVR     0x60, ToAcc
00000551 f2fc                BTRSC    STATUS, Z
00000552 c29e                LGOTO    0x561; _divuchar.o:_00114_DS_=0x561
00000553 fea1                MOVR     0x5e, ToAcc
00000554 fba2                SUBAR    0x5d, ToAcc
00000555 f7fc                BTRSS    STATUS, C
00000556 c2a4                LGOTO    0x55b; _divuchar.o:_00111_DS_=0x55b
00000557 fe9f                MOVR     0x60, ToAcc
00000558 fc20                ADDAR    0x5f, ToReg
00000559 fea1                MOVR     0x5e, ToAcc
0000055a fb22                SUBAR    0x5d, ToReg
0000055b                     _divuchar.o:_00111_DS_:
0000055b e3fc                BCR      STATUS, C
0000055c e0fc                BCR      STATUS, BK0
0000055d ec21                RRR      0x5e, ToReg
0000055e e3fc                BCR      STATUS, C
0000055f ec1f                RRR      0x60, ToReg
00000560 c2b0                LGOTO    0x54f; _divuchar.o:_00112_DS_=0x54f
00000561                     _divuchar.o:_00114_DS_:
00000561 e0fc                BCR      STATUS, BK0
00000562 fea0                MOVR     0x5f, ToAcc
00000563                     _divuchar.o:_00115_DS_:
00000563 ffef                RET
00000564                     _gotoSleep:
00000564 e0fc                BCR      STATUS, BK0
00000565 fd07                CLRR     0x78
00000566 fd06                CLRR     0x79
00000567 d6f1                LCALL    0x10e; _checkBatAD=0x10e
00000568 d0ca                LCALL    0x735; _setInput=0x735
00000569 e0fc                BCR      STATUS, BK0
0000056a fd09                CLRR     0x76
0000056b fd08                CLRR     0x77
0000056c e181                BCR      0x7e, 0x4
0000056d ded1                MOVIA    0x2e
0000056e fffa                IOST     IOSTA
0000056f fdff                CLRA
00000570 fff9                IOST     IOSTB
00000571 fd79                CLRR     PORTB
00000572 fd7a                CLRR     PORTA
00000573 fd0b                CLRR     0x74
00000574 fd0a                CLRR     0x75
00000575 d044                LCALL    0x7bb; _pwmStop=0x7bb
00000576 d041                LCALL    0x7be; _pwm1Stop=0x7be
00000577 e4fc                BSR      STATUS, BK0
00000578 fd5d                CLRR     0x22
00000579 ded7                MOVIA    0x28
0000057a ff6a                MOVAR    AWUCON
0000057b def4                MOVIA    0xb
0000057c ff71                MOVAR    INTE
0000057d dee7                MOVIA    0x18
0000057e ff77                MOVAR    PCON
0000057f fd70                CLRR     INTF
00000580 fffd                CLRWDT
00000581 fffb                ENI
00000582 fffe                SLEEP
00000583 fd6a                CLRR     AWUCON
00000584 dec1                MOVIA    0x3e
00000585 fffa                IOST     IOSTA
00000586 defe                MOVIA    0x1
00000587 ff71                MOVAR    INTE
00000588 fd70                CLRR     INTF
00000589 de57                MOVIA    0xa8
0000058a ff77                MOVAR    PCON
0000058b ffef                RET
0000058c                     _F_AIN2_Convert:
0000058c e0fc                BCR      STATUS, BK0
0000058d ff41                MOVAR    0x3e
0000058e fd5a                CLRR     0x25
0000058f fd5d                CLRR     0x22
00000590 fd5c                CLRR     0x23
00000591 de6d                MOVIA    0x92
00000592 ff6f                MOVAR    ADMD
00000593 de37                MOVIA    0xc8
00000594 d0a2                LCALL    0x75d; _delayms=0x75d
00000595 defe                MOVIA    0x1
00000596 e0fc                BCR      STATUS, BK0
00000597 ff40                MOVAR    0x3f
00000598                     main.o:_00782_DS_:
00000598 e0fc                BCR      STATUS, BK0
00000599 fec0                MOVR     0x3f, ToAcc
0000059a fbc1                SUBAR    0x3e, ToAcc
0000059b f7fc                BTRSS    STATUS, C
0000059c c24d                LGOTO    0x5b2; main.o:_00784_DS_=0x5b2
0000059d e4ef                BSR      ADMD, START
0000059e d047                LCALL    0x7b8; _F_wait_eoc=0x7b8
0000059f def0                MOVIA    0xf
000005a0 efee                ANDAR    ADR, ToAcc
000005a1 e0fc                BCR      STATUS, BK0
000005a2 fc5a                ADDAR    0x25, ToReg
000005a3 feed                MOVR     ADD, ToAcc
000005a4 ff39                MOVAR    0x46
000005a5 deff                MOVIA    0x0
000005a6 ff38                MOVAR    0x47
000005a7 feb9                MOVR     0x46, ToAcc
000005a8 fc5d                ADDAR    0x22, ToReg
000005a9 feb8                MOVR     0x47, ToAcc
000005aa f3fc                BTRSC    STATUS, C
000005ab fab8                INCR     0x47, ToAcc
000005ac f2fc                BTRSC    STATUS, Z
000005ad c250                LGOTO    0x5af; main.o:_00001_DS_=0x5af
000005ae fc5c                ADDAR    0x23, ToReg
000005af                     main.o:_00001_DS_:
000005af e0fc                BCR      STATUS, BK0
000005b0 fa40                INCR     0x3f, ToReg
000005b1 c267                LGOTO    0x598; main.o:_00782_DS_=0x598
000005b2                     main.o:_00784_DS_:
000005b2 ffef                RET
000005b3                     _F_AIN4_Convert:
000005b3 e0fc                BCR      STATUS, BK0
000005b4 ff45                MOVAR    0x3a
000005b5 fd5b                CLRR     0x24
000005b6 fd5f                CLRR     0x20
000005b7 fd5e                CLRR     0x21
000005b8 de6b                MOVIA    0x94
000005b9 ff6f                MOVAR    ADMD
000005ba de37                MOVIA    0xc8
000005bb d0a2                LCALL    0x75d; _delayms=0x75d
000005bc defe                MOVIA    0x1
000005bd e0fc                BCR      STATUS, BK0
000005be ff44                MOVAR    0x3b
000005bf                     main.o:_00773_DS_:
000005bf e0fc                BCR      STATUS, BK0
000005c0 fec4                MOVR     0x3b, ToAcc
000005c1 fbc5                SUBAR    0x3a, ToAcc
000005c2 f7fc                BTRSS    STATUS, C
000005c3 c226                LGOTO    0x5d9; main.o:_00775_DS_=0x5d9
000005c4 e4ef                BSR      ADMD, START
000005c5 d047                LCALL    0x7b8; _F_wait_eoc=0x7b8
000005c6 def0                MOVIA    0xf
000005c7 efee                ANDAR    ADR, ToAcc
000005c8 e0fc                BCR      STATUS, BK0
000005c9 fc5b                ADDAR    0x24, ToReg
000005ca feed                MOVR     ADD, ToAcc
000005cb ff43                MOVAR    0x3c
000005cc deff                MOVIA    0x0
000005cd ff42                MOVAR    0x3d
000005ce fec3                MOVR     0x3c, ToAcc
000005cf fc5f                ADDAR    0x20, ToReg
000005d0 fec2                MOVR     0x3d, ToAcc
000005d1 f3fc                BTRSC    STATUS, C
000005d2 fac2                INCR     0x3d, ToAcc
000005d3 f2fc                BTRSC    STATUS, Z
000005d4 c229                LGOTO    0x5d6; main.o:_00002_DS_=0x5d6
000005d5 fc5e                ADDAR    0x21, ToReg
000005d6                     main.o:_00002_DS_:
000005d6 e0fc                BCR      STATUS, BK0
000005d7 fa44                INCR     0x3b, ToReg
000005d8 c240                LGOTO    0x5bf; main.o:_00773_DS_=0x5bf
000005d9                     main.o:_00775_DS_:
000005d9 ffef                RET
000005da                     __moduchar:
000005da e0fc                BCR      STATUS, BK0
000005db ff1e                MOVAR    0x61
000005dc feba                MOVR     0x45, ToAcc
000005dd ff1d                MOVAR    0x62
000005de f6fc                BTRSS    STATUS, Z
000005df c21d                LGOTO    0x5e2; _moduchar.o:_00119_DS_=0x5e2
000005e0 de00                MOVIA    0xff
000005e1 c202                LGOTO    0x5fd; _moduchar.o:_00115_DS_=0x5fd
000005e2                     _moduchar.o:_00119_DS_:
000005e2 defe                MOVIA    0x1
000005e3 e0fc                BCR      STATUS, BK0
000005e4 ff1c                MOVAR    0x63
000005e5                     _moduchar.o:_00107_DS_:
000005e5 e0fc                BCR      STATUS, BK0
000005e6 f01d                BTRSC    0x62, 0x7
000005e7 c213                LGOTO    0x5ec; _moduchar.o:_00112_DS_=0x5ec
000005e8 e3fc                BCR      STATUS, C
000005e9 eb1d                RLR      0x62, ToReg
000005ea fa1c                INCR     0x63, ToReg
000005eb c21a                LGOTO    0x5e5; _moduchar.o:_00107_DS_=0x5e5
000005ec                     _moduchar.o:_00112_DS_:
000005ec e0fc                BCR      STATUS, BK0
000005ed fe9c                MOVR     0x63, ToAcc
000005ee f2fc                BTRSC    STATUS, Z
000005ef c204                LGOTO    0x5fb; _moduchar.o:_00114_DS_=0x5fb
000005f0 fe9d                MOVR     0x62, ToAcc
000005f1 fb9e                SUBAR    0x61, ToAcc
000005f2 f7fc                BTRSS    STATUS, C
000005f3 c209                LGOTO    0x5f6; _moduchar.o:_00111_DS_=0x5f6
000005f4 fe9d                MOVR     0x62, ToAcc
000005f5 fb1e                SUBAR    0x61, ToReg
000005f6                     _moduchar.o:_00111_DS_:
000005f6 e3fc                BCR      STATUS, C
000005f7 e0fc                BCR      STATUS, BK0
000005f8 ec1d                RRR      0x62, ToReg
000005f9 f91c                DECR     0x63, ToReg
000005fa c213                LGOTO    0x5ec; _moduchar.o:_00112_DS_=0x5ec
000005fb                     _moduchar.o:_00114_DS_:
000005fb e0fc                BCR      STATUS, BK0
000005fc fe9e                MOVR     0x61, ToAcc
000005fd                     _moduchar.o:_00115_DS_:
000005fd ffef                RET
000005fe                     _setlowOutput:
000005fe e0fc                BCR      STATUS, BK0
000005ff ff2c                MOVAR    0x53
00000600 defe                MOVIA    0x1
00000601 fbac                SUBAR    0x53, ToAcc
00000602 f7fc                BTRSS    STATUS, C
00000603 c1e0                LGOTO    0x61f; number.o:_00286_DS_=0x61f
00000604 def9                MOVIA    0x6
00000605 fbac                SUBAR    0x53, ToAcc
00000606 f3fc                BTRSC    STATUS, C
00000607 c1e0                LGOTO    0x61f; number.o:_00286_DS_=0x61f
00000608 f92c                DECR     0x53, ToReg
00000609 def9                MOVIA    0x6
0000060a ff75                MOVAR    PCHBUF
0000060b feac                MOVR     0x53, ToAcc
0000060c daef                ADDIA    0x10
0000060d f3fc                BTRSC    STATUS, C
0000060e fa75                INCR     PCHBUF, ToReg
0000060f ff7d                MOVAR    PCL
00000610                     number.o:_00296_DS_:
00000610 c1ea                LGOTO    0x615; number.o:_00280_DS_=0x615
00000611 c1e8                LGOTO    0x617; number.o:_00281_DS_=0x617
00000612 c1e6                LGOTO    0x619; number.o:_00282_DS_=0x619
00000613 c1e4                LGOTO    0x61b; number.o:_00283_DS_=0x61b
00000614 c1e1                LGOTO    0x61e; number.o:_00284_DS_=0x61e
00000615                     number.o:_00280_DS_:
00000615 e0fa                BCR      PORTA, PA6
00000616 c1e0                LGOTO    0x61f; number.o:_00286_DS_=0x61f
00000617                     number.o:_00281_DS_:
00000617 e07a                BCR      PORTA, PA7
00000618 c1e0                LGOTO    0x61f; number.o:_00286_DS_=0x61f
00000619                     number.o:_00282_DS_:
00000619 e379                BCR      PORTB, PB1
0000061a c1e0                LGOTO    0x61f; number.o:_00286_DS_=0x61f
0000061b                     number.o:_00283_DS_:
0000061b de21                MOVIA    0xde
0000061c ef79                ANDAR    PORTB, ToReg
0000061d c1e0                LGOTO    0x61f; number.o:_00286_DS_=0x61f
0000061e                     number.o:_00284_DS_:
0000061e e3fa                BCR      PORTA, PA0
0000061f                     number.o:_00286_DS_:
0000061f ffef                RET
00000620                     _setHightOutput:
00000620 e0fc                BCR      STATUS, BK0
00000621 ff2d                MOVAR    0x52
00000622 defe                MOVIA    0x1
00000623 fbad                SUBAR    0x52, ToAcc
00000624 f7fc                BTRSS    STATUS, C
00000625 c1be                LGOTO    0x641; number.o:_00265_DS_=0x641
00000626 def9                MOVIA    0x6
00000627 fbad                SUBAR    0x52, ToAcc
00000628 f3fc                BTRSC    STATUS, C
00000629 c1be                LGOTO    0x641; number.o:_00265_DS_=0x641
0000062a f92d                DECR     0x52, ToReg
0000062b def9                MOVIA    0x6
0000062c ff75                MOVAR    PCHBUF
0000062d fead                MOVR     0x52, ToAcc
0000062e dacd                ADDIA    0x32
0000062f f3fc                BTRSC    STATUS, C
00000630 fa75                INCR     PCHBUF, ToReg
00000631 ff7d                MOVAR    PCL
00000632                     number.o:_00275_DS_:
00000632 c1c8                LGOTO    0x637; number.o:_00259_DS_=0x637
00000633 c1c6                LGOTO    0x639; number.o:_00260_DS_=0x639
00000634 c1c4                LGOTO    0x63b; number.o:_00261_DS_=0x63b
00000635 c1c2                LGOTO    0x63d; number.o:_00262_DS_=0x63d
00000636 c1bf                LGOTO    0x640; number.o:_00263_DS_=0x640
00000637                     number.o:_00259_DS_:
00000637 e4fa                BSR      PORTA, PA6
00000638 c1be                LGOTO    0x641; number.o:_00265_DS_=0x641
00000639                     number.o:_00260_DS_:
00000639 e47a                BSR      PORTA, PA7
0000063a c1be                LGOTO    0x641; number.o:_00265_DS_=0x641
0000063b                     number.o:_00261_DS_:
0000063b e779                BSR      PORTB, PB1
0000063c c1be                LGOTO    0x641; number.o:_00265_DS_=0x641
0000063d                     number.o:_00262_DS_:
0000063d dede                MOVIA    0x21
0000063e ee79                IORAR    PORTB, ToReg
0000063f c1be                LGOTO    0x641; number.o:_00265_DS_=0x641
00000640                     number.o:_00263_DS_:
00000640 e7fa                BSR      PORTA, PA0
00000641                     number.o:_00265_DS_:
00000641 ffef                RET
00000642                     _showNubGewei2:
00000642 e0fc                BCR      STATUS, BK0
00000643 ff30                MOVAR    0x4f
00000644 def8                MOVIA    0x7
00000645 fbb0                SUBAR    0x4f, ToAcc
00000646 f3fc                BTRSC    STATUS, C
00000647 c19c                LGOTO    0x663; number.o:_00184_DS_=0x663
00000648 def9                MOVIA    0x6
00000649 ff75                MOVAR    PCHBUF
0000064a feb0                MOVR     0x4f, ToAcc
0000064b dab0                ADDIA    0x4f
0000064c f3fc                BTRSC    STATUS, C
0000064d fa75                INCR     PCHBUF, ToReg
0000064e ff7d                MOVAR    PCL
0000064f                     number.o:_00190_DS_:
0000064f c1a9                LGOTO    0x656; number.o:_00176_DS_=0x656
00000650 c1a7                LGOTO    0x658; number.o:_00177_DS_=0x658
00000651 c1a5                LGOTO    0x65a; number.o:_00178_DS_=0x65a
00000652 c1a3                LGOTO    0x65c; number.o:_00179_DS_=0x65c
00000653 c1a1                LGOTO    0x65e; number.o:_00180_DS_=0x65e
00000654 c19f                LGOTO    0x660; number.o:_00181_DS_=0x660
00000655 c19d                LGOTO    0x662; number.o:_00182_DS_=0x662
00000656                     number.o:_00176_DS_:
00000656 d078                LCALL    0x787; _A3=0x787
00000657 c19c                LGOTO    0x663; number.o:_00184_DS_=0x663
00000658                     number.o:_00177_DS_:
00000658 d07d                LCALL    0x782; _B3=0x782
00000659 c19c                LGOTO    0x663; number.o:_00184_DS_=0x663
0000065a                     number.o:_00178_DS_:
0000065a d082                LCALL    0x77d; _C3=0x77d
0000065b c19c                LGOTO    0x663; number.o:_00184_DS_=0x663
0000065c                     number.o:_00179_DS_:
0000065c d087                LCALL    0x778; _D3=0x778
0000065d c19c                LGOTO    0x663; number.o:_00184_DS_=0x663
0000065e                     number.o:_00180_DS_:
0000065e d08c                LCALL    0x773; _E3=0x773
0000065f c19c                LGOTO    0x663; number.o:_00184_DS_=0x663
00000660                     number.o:_00181_DS_:
00000660 d091                LCALL    0x76e; _F3=0x76e
00000661 c19c                LGOTO    0x663; number.o:_00184_DS_=0x663
00000662                     number.o:_00182_DS_:
00000662 d096                LCALL    0x769; _G3=0x769
00000663                     number.o:_00184_DS_:
00000663 ffef                RET
00000664                     _showNubShiwei2:
00000664 e0fc                BCR      STATUS, BK0
00000665 ff34                MOVAR    0x4b
00000666 def8                MOVIA    0x7
00000667 fbb4                SUBAR    0x4b, ToAcc
00000668 f3fc                BTRSC    STATUS, C
00000669 c17a                LGOTO    0x685; number.o:_00139_DS_=0x685
0000066a def9                MOVIA    0x6
0000066b ff75                MOVAR    PCHBUF
0000066c feb4                MOVR     0x4b, ToAcc
0000066d da8e                ADDIA    0x71
0000066e f3fc                BTRSC    STATUS, C
0000066f fa75                INCR     PCHBUF, ToReg
00000670 ff7d                MOVAR    PCL
00000671                     number.o:_00145_DS_:
00000671 c187                LGOTO    0x678; number.o:_00131_DS_=0x678
00000672 c185                LGOTO    0x67a; number.o:_00132_DS_=0x67a
00000673 c183                LGOTO    0x67c; number.o:_00133_DS_=0x67c
00000674 c181                LGOTO    0x67e; number.o:_00134_DS_=0x67e
00000675 c17f                LGOTO    0x680; number.o:_00135_DS_=0x680
00000676 c17d                LGOTO    0x682; number.o:_00136_DS_=0x682
00000677 c17b                LGOTO    0x684; number.o:_00137_DS_=0x684
00000678                     number.o:_00131_DS_:
00000678 d055                LCALL    0x7aa; _A2=0x7aa
00000679 c17a                LGOTO    0x685; number.o:_00139_DS_=0x685
0000067a                     number.o:_00132_DS_:
0000067a d05a                LCALL    0x7a5; _B2=0x7a5
0000067b c17a                LGOTO    0x685; number.o:_00139_DS_=0x685
0000067c                     number.o:_00133_DS_:
0000067c d05f                LCALL    0x7a0; _C2=0x7a0
0000067d c17a                LGOTO    0x685; number.o:_00139_DS_=0x685
0000067e                     number.o:_00134_DS_:
0000067e d064                LCALL    0x79b; _D2=0x79b
0000067f c17a                LGOTO    0x685; number.o:_00139_DS_=0x685
00000680                     number.o:_00135_DS_:
00000680 d069                LCALL    0x796; _E2=0x796
00000681 c17a                LGOTO    0x685; number.o:_00139_DS_=0x685
00000682                     number.o:_00136_DS_:
00000682 d06e                LCALL    0x791; _F2=0x791
00000683 c17a                LGOTO    0x685; number.o:_00139_DS_=0x685
00000684                     number.o:_00137_DS_:
00000684 d073                LCALL    0x78c; _G2=0x78c
00000685                     number.o:_00139_DS_:
00000685 ffef                RET
00000686                     _showNubGewei:
00000686 e0fc                BCR      STATUS, BK0
00000687 ff33                MOVAR    0x4c
00000688 fd32                CLRR     0x4d
00000689                     number.o:_00155_DS_:
00000689 def8                MOVIA    0x7
0000068a e0fc                BCR      STATUS, BK0
0000068b fbb2                SUBAR    0x4d, ToAcc
0000068c f3fc                BTRSC    STATUS, C
0000068d c15c                LGOTO    0x6a3; number.o:_00157_DS_=0x6a3
0000068e feb3                MOVR     0x4c, ToAcc
0000068f ff31                MOVAR    0x4e
00000690 feb2                MOVR     0x4d, ToAcc
00000691 d8ff                SUBIA    0x0
00000692 f2fc                BTRSC    STATUS, Z
00000693 c166                LGOTO    0x699; number.o:_00171_DS_=0x699
00000694                     number.o:_00170_DS_:
00000694 e0fc                BCR      STATUS, BK0
00000695 ec31                RRR      0x4e, ToReg
00000696 dafe                ADDIA    0x1
00000697 f7fc                BTRSS    STATUS, C
00000698 c16b                LGOTO    0x694; number.o:_00170_DS_=0x694
00000699                     number.o:_00171_DS_:
00000699 e0fc                BCR      STATUS, BK0
0000069a f7b1                BTRSS    0x4e, 0x0
0000069b c160                LGOTO    0x69f; number.o:_00151_DS_=0x69f
0000069c feb2                MOVR     0x4d, ToAcc
0000069d d1bd                LCALL    0x642; _showNubGewei2=0x642
0000069e c15f                LGOTO    0x6a0; number.o:_00156_DS_=0x6a0
0000069f                     number.o:_00151_DS_:
0000069f d0ca                LCALL    0x735; _setInput=0x735
000006a0                     number.o:_00156_DS_:
000006a0 e0fc                BCR      STATUS, BK0
000006a1 fa32                INCR     0x4d, ToReg
000006a2 c176                LGOTO    0x689; number.o:_00155_DS_=0x689
000006a3                     number.o:_00157_DS_:
000006a3 ffef                RET
000006a4                     _showNubShiwei:
000006a4 e0fc                BCR      STATUS, BK0
000006a5 ff37                MOVAR    0x48
000006a6 fd36                CLRR     0x49
000006a7                     number.o:_00110_DS_:
000006a7 def8                MOVIA    0x7
000006a8 e0fc                BCR      STATUS, BK0
000006a9 fbb6                SUBAR    0x49, ToAcc
000006aa f3fc                BTRSC    STATUS, C
000006ab c13e                LGOTO    0x6c1; number.o:_00112_DS_=0x6c1
000006ac feb7                MOVR     0x48, ToAcc
000006ad ff35                MOVAR    0x4a
000006ae feb6                MOVR     0x49, ToAcc
000006af d8ff                SUBIA    0x0
000006b0 f2fc                BTRSC    STATUS, Z
000006b1 c148                LGOTO    0x6b7; number.o:_00126_DS_=0x6b7
000006b2                     number.o:_00125_DS_:
000006b2 e0fc                BCR      STATUS, BK0
000006b3 ec35                RRR      0x4a, ToReg
000006b4 dafe                ADDIA    0x1
000006b5 f7fc                BTRSS    STATUS, C
000006b6 c14d                LGOTO    0x6b2; number.o:_00125_DS_=0x6b2
000006b7                     number.o:_00126_DS_:
000006b7 e0fc                BCR      STATUS, BK0
000006b8 f7b5                BTRSS    0x4a, 0x0
000006b9 c142                LGOTO    0x6bd; number.o:_00106_DS_=0x6bd
000006ba feb6                MOVR     0x49, ToAcc
000006bb d19b                LCALL    0x664; _showNubShiwei2=0x664
000006bc c141                LGOTO    0x6be; number.o:_00111_DS_=0x6be
000006bd                     number.o:_00106_DS_:
000006bd d0ca                LCALL    0x735; _setInput=0x735
000006be                     number.o:_00111_DS_:
000006be e0fc                BCR      STATUS, BK0
000006bf fa36                INCR     0x49, ToReg
000006c0 c158                LGOTO    0x6a7; number.o:_00110_DS_=0x6a7
000006c1                     number.o:_00112_DS_:
000006c1 ffef                RET
000006c2                     _showNub:
000006c2 e0fc                BCR      STATUS, BK0
000006c3 ff2f                MOVAR    0x50
000006c4 feba                MOVR     0x45, ToAcc
000006c5 ff2e                MOVAR    0x51
000006c6 d0ca                LCALL    0x735; _setInput=0x735
000006c7 dec1                MOVIA    0x3e
000006c8 ef7a                ANDAR    PORTA, ToReg
000006c9 de23                MOVIA    0xdc
000006ca ef79                ANDAR    PORTB, ToReg
000006cb e0fc                BCR      STATUS, BK0
000006cc feaf                MOVR     0x50, ToAcc
000006cd d328                LCALL    0x4d7; _setOutput=0x4d7
000006ce e0fc                BCR      STATUS, BK0
000006cf feaf                MOVR     0x50, ToAcc
000006d0 d1df                LCALL    0x620; _setHightOutput=0x620
000006d1 e0fc                BCR      STATUS, BK0
000006d2 feae                MOVR     0x51, ToAcc
000006d3 d328                LCALL    0x4d7; _setOutput=0x4d7
000006d4 e0fc                BCR      STATUS, BK0
000006d5 feae                MOVR     0x51, ToAcc
000006d6 d201                LCALL    0x5fe; _setlowOutput=0x5fe
000006d7 def5                MOVIA    0xa
000006d8 d0a2                LCALL    0x75d; _delayms=0x75d
000006d9 fffd                CLRWDT
000006da dec1                MOVIA    0x3e
000006db ef7a                ANDAR    PORTA, ToReg
000006dc de23                MOVIA    0xdc
000006dd ef79                ANDAR    PORTB, ToReg
000006de ffef                RET
000006df                     _initSys:
000006df ffec                DISI
000006e0 dec1                MOVIA    0x3e
000006e1 fffa                IOST     IOSTA
000006e2 fdff                CLRA
000006e3 fff9                IOST     IOSTB
000006e4 fd79                CLRR     PORTB
000006e5 e0fc                BCR      STATUS, BK0
000006e6 fd7a                CLRR     PORTA
000006e7 de00                MOVIA    0xff
000006e8 fff6                IOST     APHCON
000006e9 ff73                MOVAR    BPHCON
000006ea ff74                MOVAR    ABPLCON
000006eb defe                MOVIA    0x1
000006ec ff71                MOVAR    INTE
000006ed fdff                CLRA
000006ee fff0                IOST     PCON1
000006ef dec8                MOVIA    0x37
000006f0 ff7e                MOVAR    TMR0
000006f1 defe                MOVIA    0x1
000006f2 fffc                T0MD
000006f3 fff0                IOST     PCON1
000006f4 de77                MOVIA    0x88
000006f5 ff77                MOVAR    PCON
000006f6 defe                MOVIA    0x1
000006f7 fff0                IOST     PCON1
000006f8 fffb                ENI
000006f9 ffef                RET
000006fa                     __mulchar:
000006fa e0fc                BCR      STATUS, BK0
000006fb ff27                MOVAR    0x58
000006fc feba                MOVR     0x45, ToAcc
000006fd ff26                MOVAR    0x59
000006fe fd25                CLRR     0x5a
000006ff def7                MOVIA    0x8
00000700 ff24                MOVAR    0x5b
00000701                     _mulchar.o:_00119_DS_:
00000701 e0fc                BCR      STATUS, BK0
00000702 f7a7                BTRSS    0x58, 0x0
00000703 c0f9                LGOTO    0x706; _mulchar.o:_00114_DS_=0x706
00000704 fea6                MOVR     0x59, ToAcc
00000705 fc25                ADDAR    0x5a, ToReg
00000706                     _mulchar.o:_00114_DS_:
00000706 e3fc                BCR      STATUS, C
00000707 e0fc                BCR      STATUS, BK0
00000708 ec27                RRR      0x58, ToReg
00000709 e3fc                BCR      STATUS, C
0000070a eb26                RLR      0x59, ToReg
0000070b f9a4                DECR     0x5b, ToAcc
0000070c ff23                MOVAR    0x5c
0000070d ff24                MOVAR    0x5b
0000070e fea3                MOVR     0x5c, ToAcc
0000070f f6fc                BTRSS    STATUS, Z
00000710 c0fe                LGOTO    0x701; _mulchar.o:_00119_DS_=0x701
00000711 fea5                MOVR     0x5a, ToAcc
00000712 ffef                RET
00000713                     __gptrget:
00000713 dbff                XORIA    0x0
00000714 f2fc                BTRSC    STATUS, Z
00000715 c0e5                LGOTO    0x71a; _gptrget1.o:__dataptrget1=0x71a
00000716 db7f                XORIA    0x80
00000717 f2fc                BTRSC    STATUS, Z
00000718 c0de                LGOTO    0x721; __codeptrget1=0x721
00000719 dfff                RETIA    0x0
0000071a                     _gptrget1.o:__dataptrget1:
0000071a febb                MOVR     0x44, ToAcc
0000071b ff7b                MOVAR    FSR
0000071c e0fc                BCR      STATUS, BK0
0000071d f03b                BTRSC    0x44, 0x7
0000071e e4fc                BSR      STATUS, BK0
0000071f feff                MOVR     INDF, ToAcc
00000720 ffef                RET
00000721                     __codeptrget1:
00000721 feba                MOVR     0x45, ToAcc
00000722 ffb8                SFUN     TBHP
00000723 febb                MOVR     0x44, ToAcc
00000724 fdee                TABLEA
00000725 ffef                RET
00000726                     _pwm1Init:
00000726 ff9e                SFUNR    T1CR1
00000727 e0fc                BCR      STATUS, BK0
00000728 ff51                MOVAR    0x2e
00000729 f051                BTRSC    0x2e, 0x7
0000072a c0cb                LGOTO    0x734; main.o:_00516_DS_=0x734
0000072b fd66                CLRR     TMRH
0000072c deb9                MOVIA    0x46
0000072d ffbf                SFUN     TMR1
0000072e fdff                CLRA
0000072f ffbd                SFUN     T1CR2
00000730 def7                MOVIA    0x8
00000731 ffbd                SFUN     T1CR2
00000732 de7c                MOVIA    0x83
00000733 ffbe                SFUN     T1CR1
00000734                     main.o:_00516_DS_:
00000734 ffef                RET
00000735                     _setInput:
00000735 ffea                IOSTR    IOSTA
00000736 e0fc                BCR      STATUS, BK0
00000737 ff2a                MOVAR    0x55
00000738 de3e                MOVIA    0xc1
00000739 ee2a                IORAR    0x55, ToReg
0000073a feaa                MOVR     0x55, ToAcc
0000073b fffa                IOST     IOSTA
0000073c ffe9                IOSTR    IOSTB
0000073d ff2a                MOVAR    0x55
0000073e dedc                MOVIA    0x23
0000073f ee2a                IORAR    0x55, ToReg
00000740 feaa                MOVR     0x55, ToAcc
00000741 fff9                IOST     IOSTB
00000742 ffef                RET
00000743                     _initAD:
00000743 de7b                MOVIA    0x84
00000744 ff6f                MOVAR    ADMD
00000745 fd6c                CLRR     ADVREFH
00000746 deef                MOVIA    0x10
00000747 ff6e                MOVAR    ADR
00000748 defc                MOVIA    0x3
00000749 ff6b                MOVAR    ADCR
0000074a dee9                MOVIA    0x16
0000074b ff69                MOVAR    PACON
0000074c e5ef                BSR      ADMD, GCHS
0000074d de9b                MOVIA    0x64
0000074e d0a2                LCALL    0x75d; _delayms=0x75d
0000074f ffef                RET
00000750                     _pwmInit:
00000750 ff95                SFUNR    T2CR1
00000751 e0fc                BCR      STATUS, BK0
00000752 ff50                MOVAR    0x2f
00000753 f050                BTRSC    0x2f, 0x7
00000754 c0a3                LGOTO    0x75c; main.o:_00527_DS_=0x75c
00000755 fd66                CLRR     TMRH
00000756 de9b                MOVIA    0x64
00000757 ffb6                SFUN     TMR2
00000758 defe                MOVIA    0x1
00000759 ffb4                SFUN     T2CR2
0000075a de7c                MOVIA    0x83
0000075b ffb5                SFUN     T2CR1
0000075c                     main.o:_00527_DS_:
0000075c ffef                RET
0000075d                     _delayms:
0000075d e0fc                BCR      STATUS, BK0
0000075e ff29                MOVAR    0x56
0000075f fd28                CLRR     0x57
00000760                     number.o:_00328_DS_:
00000760 e0fc                BCR      STATUS, BK0
00000761 fea9                MOVR     0x56, ToAcc
00000762 fba8                SUBAR    0x57, ToAcc
00000763 f3fc                BTRSC    STATUS, C
00000764 c097                LGOTO    0x768; number.o:_00330_DS_=0x768
00000765 ffff                NOP
00000766 fa28                INCR     0x57, ToReg
00000767 c09f                LGOTO    0x760; number.o:_00328_DS_=0x760
00000768                     number.o:_00330_DS_:
00000768 ffef                RET
00000769                     _G3:
00000769 defa                MOVIA    0x5
0000076a ff3a                MOVAR    0x45
0000076b defe                MOVIA    0x1
0000076c d13d                LCALL    0x6c2; _showNub=0x6c2
0000076d ffef                RET
0000076e                     _F3:
0000076e defb                MOVIA    0x4
0000076f ff3a                MOVAR    0x45
00000770 defe                MOVIA    0x1
00000771 d13d                LCALL    0x6c2; _showNub=0x6c2
00000772 ffef                RET
00000773                     _E3:
00000773 defe                MOVIA    0x1
00000774 ff3a                MOVAR    0x45
00000775 defb                MOVIA    0x4
00000776 d13d                LCALL    0x6c2; _showNub=0x6c2
00000777 ffef                RET
00000778                     _D3:
00000778 defc                MOVIA    0x3
00000779 ff3a                MOVAR    0x45
0000077a defe                MOVIA    0x1
0000077b d13d                LCALL    0x6c2; _showNub=0x6c2
0000077c ffef                RET
0000077d                     _C3:
0000077d defe                MOVIA    0x1
0000077e ff3a                MOVAR    0x45
0000077f defc                MOVIA    0x3
00000780 d13d                LCALL    0x6c2; _showNub=0x6c2
00000781 ffef                RET
00000782                     _B3:
00000782 defd                MOVIA    0x2
00000783 ff3a                MOVAR    0x45
00000784 defe                MOVIA    0x1
00000785 d13d                LCALL    0x6c2; _showNub=0x6c2
00000786 ffef                RET
00000787                     _A3:
00000787 defe                MOVIA    0x1
00000788 ff3a                MOVAR    0x45
00000789 defd                MOVIA    0x2
0000078a d13d                LCALL    0x6c2; _showNub=0x6c2
0000078b ffef                RET
0000078c                     _G2:
0000078c defa                MOVIA    0x5
0000078d ff3a                MOVAR    0x45
0000078e defb                MOVIA    0x4
0000078f d13d                LCALL    0x6c2; _showNub=0x6c2
00000790 ffef                RET
00000791                     _F2:
00000791 defa                MOVIA    0x5
00000792 ff3a                MOVAR    0x45
00000793 defc                MOVIA    0x3
00000794 d13d                LCALL    0x6c2; _showNub=0x6c2
00000795 ffef                RET
00000796                     _E2:
00000796 defa                MOVIA    0x5
00000797 ff3a                MOVAR    0x45
00000798 defd                MOVIA    0x2
00000799 d13d                LCALL    0x6c2; _showNub=0x6c2
0000079a ffef                RET
0000079b                     _D2:
0000079b defb                MOVIA    0x4
0000079c ff3a                MOVAR    0x45
0000079d defd                MOVIA    0x2
0000079e d13d                LCALL    0x6c2; _showNub=0x6c2
0000079f ffef                RET
000007a0                     _C2:
000007a0 defb                MOVIA    0x4
000007a1 ff3a                MOVAR    0x45
000007a2 defc                MOVIA    0x3
000007a3 d13d                LCALL    0x6c2; _showNub=0x6c2
000007a4 ffef                RET
000007a5                     _B2:
000007a5 defc                MOVIA    0x3
000007a6 ff3a                MOVAR    0x45
000007a7 defd                MOVIA    0x2
000007a8 d13d                LCALL    0x6c2; _showNub=0x6c2
000007a9 ffef                RET
000007aa                     _A2:
000007aa defd                MOVIA    0x2
000007ab ff3a                MOVAR    0x45
000007ac defc                MOVIA    0x3
000007ad d13d                LCALL    0x6c2; _showNub=0x6c2
000007ae ffef                RET
000007af                     _showKeyLed:
000007af defe                MOVIA    0x1
000007b0 ff3a                MOVAR    0x45
000007b1 defa                MOVIA    0x5
000007b2 d13d                LCALL    0x6c2; _showNub=0x6c2
000007b3 ffef                RET
000007b4                     _powerOff:
000007b4 e4fc                BSR      STATUS, BK0
000007b5 fd5d                CLRR     0x22
000007b6 d044                LCALL    0x7bb; _pwmStop=0x7bb
000007b7 ffef                RET
000007b8                     _F_wait_eoc:
000007b8 f56f                BTRSS    ADMD, EOC
000007b9 c047                LGOTO    0x7b8; _F_wait_eoc=0x7b8
000007ba ffef                RET
000007bb                     _pwmStop:
000007bb fdff                CLRA
000007bc ffb5                SFUN     T2CR1
000007bd ffef                RET
000007be                     _pwm1Stop:
000007be fdff                CLRA
000007bf ffbe                SFUN     T1CR1
000007c0 ffef                RET

