00000000 c7fe                 LGOTO 0x1; __nyc_ny8_startup=0x1
00000001                      __nyc_ny8_startup:
00000001 d153                 LCALL 0x6ac; ___cinit_load__=0x6ac
00000002 c796                 LGOTO 0x69; _main=0x69
00000003                      main.o:_00896_DS_:
00000003 f56f                 BTRSS 0x10, 0x5
00000004 c7fc                 LGOTO 0x3; main.o:_00896_DS_=0x3
00000005 ffef                 RET
00000008 c7f6                 LGOTO 0x9; main.o:__sdcc_interrupt=0x9
00000009                      main.o:__sdcc_interrupt:
00000009 ff3d                 MOVAR 0x42
0000000a eafc                 SWAPR 0x3, 0x0
0000000b fd7c                 CLRR 0x3
0000000c ff3e                 MOVAR 0x41
0000000d fef5                 MOVR 0xa, 0x0
0000000e fd75                 CLRR 0xa
0000000f ff3f                 MOVAR 0x40
00000010 fefb                 MOVR 0x4, 0x0
00000011 e0fc                 BCR 0x3, 0x6
00000012 ff23                 MOVAR 0x5c
00000013 feba                 MOVR 0x45, 0x0
00000014 ff22                 MOVAR 0x5d
00000015 febb                 MOVR 0x44, 0x0
00000016 ff21                 MOVAR 0x5e
00000017 f7f0                 BTRSS 0xf, 0x0
00000018 c7aa                 LGOTO 0x55; main.o:_00126_DS_=0x55
00000019 dec8                 MOVIA 0x37
0000001a fc7e                 ADDAR 0x1, 0x1
0000001b fa1f                 INCR 0x60, 0x1
0000001c de9b                 MOVIA 0x64
0000001d fb9f                 SUBAR 0x60, 0x0
0000001e f7fc                 BTRSS 0x3, 0x0
0000001f c7aa                 LGOTO 0x55; main.o:_00126_DS_=0x55
00000020 e7a0                 BSR 0x5f, 0x0
00000021 fd1f                 CLRR 0x60
00000022 fe9c                 MOVR 0x63, 0x0
00000023 f2fc                 BTRSC 0x3, 0x2
00000024 c7d7                 LGOTO 0x28; main.o:_00106_DS_=0x28
00000025 fa1a                 INCR 0x65, 0x1
00000026 f2fc                 BTRSC 0x3, 0x2
00000027 fa19                 INCR 0x66, 0x1
00000028                      main.o:_00106_DS_:
00000028 e0fc                 BCR 0x3, 0x6
00000029 fa1e                 INCR 0x61, 0x1
0000002a ded7                 MOVIA 0x28
0000002b fb9e                 SUBAR 0x61, 0x0
0000002c f3fc                 BTRSC 0x3, 0x0
0000002d fd1e                 CLRR 0x61
0000002e fa10                 INCR 0x6f, 0x1
0000002f deeb                 MOVIA 0x14
00000030 fb90                 SUBAR 0x6f, 0x0
00000031 f3fc                 BTRSC 0x3, 0x0
00000032 fd10                 CLRR 0x6f
00000033 fa0f                 INCR 0x70, 0x1
00000034 de9b                 MOVIA 0x64
00000035 fb8f                 SUBAR 0x70, 0x0
00000036 f7fc                 BTRSS 0x3, 0x0
00000037 c7aa                 LGOTO 0x55; main.o:_00126_DS_=0x55
00000038 fd0f                 CLRR 0x70
00000039 f620                 BTRSS 0x5f, 0x3
0000003a c7bb                 LGOTO 0x44; main.o:_00112_DS_=0x44
0000003b fe95                 MOVR 0x6a, 0x0
0000003c dbf9                 XORIA 0x6
0000003d f6fc                 BTRSS 0x3, 0x2
0000003e c7bb                 LGOTO 0x44; main.o:_00112_DS_=0x44
0000003f fa14                 INCR 0x6b, 0x1
00000040 f2fc                 BTRSC 0x3, 0x2
00000041 fa13                 INCR 0x6c, 0x1
00000042 def8                 MOVIA 0x7
00000043 ffbc                 SFUN 0x3
00000044                      main.o:_00112_DS_:
00000044 e0fc                 BCR 0x3, 0x6
00000045 fe8a                 MOVR 0x75, 0x0
00000046 f6fc                 BTRSS 0x3, 0x2
00000047 f90a                 DECR 0x75, 0x1
00000048 fe87                 MOVR 0x78, 0x0
00000049 f6fc                 BTRSS 0x3, 0x2
0000004a f907                 DECR 0x78, 0x1
0000004b                      ___cinit_size__:
0000004b fe9c                 MOVR 0x63, 0x0
0000004c f2fc                 BTRSC 0x3, 0x2
0000004d c7ad                 LGOTO 0x52; main.o:_00119_DS_=0x52
0000004e fa0e                 INCR 0x71, 0x1
0000004f f2fc                 BTRSC 0x3, 0x2
00000050 fa0d                 INCR 0x72, 0x1
00000051 c7aa                 LGOTO 0x55; main.o:_00126_DS_=0x55
00000052                      main.o:_00119_DS_:
00000052 e0fc                 BCR 0x3, 0x6
00000053 fd0e                 CLRR 0x71
00000054 fd0d                 CLRR 0x72
00000055                      main.o:_00126_DS_:
00000055 f770                 BTRSS 0xf, 0x1
00000056 c7a6                 LGOTO 0x59; main.o:_00128_DS_=0x59
00000057 de02                 MOVIA 0xfd
00000058 ff70                 MOVAR 0xf
00000059                      main.o:_00128_DS_:
00000059 fd70                 CLRR 0xf
0000005a e0fc                 BCR 0x3, 0x6
0000005b fea1                 MOVR 0x5e, 0x0
0000005c ff3b                 MOVAR 0x44
0000005d fea2                 MOVR 0x5d, 0x0
0000005e ff3a                 MOVAR 0x45
0000005f fea3                 MOVR 0x5c, 0x0
00000060 ff7b                 MOVAR 0x4
00000061 febf                 MOVR 0x40, 0x0
00000062 ff75                 MOVAR 0xa
00000063 fd7c                 CLRR 0x3
00000064 eabe                 SWAPR 0x41, 0x0
00000065 ff7c                 MOVAR 0x3
00000066 ea3d                 SWAPR 0x42, 0x1
00000067 eabd                 SWAPR 0x42, 0x0
00000068                      main.o:END_OF_INTERRUPT:
00000068 ffee                 RETIE
00000069                      _main:
00000069 d246                 LCALL 0x5b9; _initSys=0x5b9
0000006a d42e                 LCALL 0x3d1; _initAD=0x3d1
0000006b                      main.o:_00168_DS_:
0000006b fffd                 CLRWDT
0000006c d2d9                 LCALL 0x526; _ledShow=0x526
0000006d e0fc                 BCR 0x3, 0x6
0000006e fe9c                 MOVR 0x63, 0x0
0000006f f2fc                 BTRSC 0x3, 0x2
00000070 c77a                 LGOTO 0x85; main.o:_00139_DS_=0x85
00000071 ded7                 MOVIA 0x28
00000072 fb85                 SUBAR 0x7a, 0x0
00000073 f7fc                 BTRSS 0x3, 0x0
00000074 c77a                 LGOTO 0x85; main.o:_00139_DS_=0x85
00000075 fe83                 MOVR 0x7c, 0x0
00000076 fb85                 SUBAR 0x7a, 0x0
00000077 f3fc                 BTRSC 0x3, 0x0
00000078 c782                 LGOTO 0x7d; main.o:_00136_DS_=0x7d
00000079 f903                 DECR 0x7c, 0x1
0000007a fe83                 MOVR 0x7c, 0x0
0000007b ffb3                 SFUN 0xc
0000007c c77a                 LGOTO 0x85; main.o:_00139_DS_=0x85
0000007d                      main.o:_00136_DS_:
0000007d e0fc                 BCR 0x3, 0x6
0000007e fe85                 MOVR 0x7a, 0x0
0000007f fb83                 SUBAR 0x7c, 0x0
00000080 f3fc                 BTRSC 0x3, 0x0
00000081 c77a                 LGOTO 0x85; main.o:_00139_DS_=0x85
00000082 fa03                 INCR 0x7c, 0x1
00000083 fe83                 MOVR 0x7c, 0x0
00000084 ffb3                 SFUN 0xc
00000085                      main.o:_00139_DS_:
00000085 e0fc                 BCR 0x3, 0x6
00000086 f7a0                 BTRSS 0x5f, 0x0
00000087 c794                 LGOTO 0x6b; main.o:_00168_DS_=0x6b
00000088 e3a0                 BCR 0x5f, 0x0
00000089 f620                 BTRSS 0x5f, 0x3
0000008a d221                 LCALL 0x5de; _keyCtr=0x5de
0000008b defa                 MOVIA 0x5
0000008c e0fc                 BCR 0x3, 0x6
0000008d fb90                 SUBAR 0x6f, 0x0
0000008e f3fc                 BTRSC 0x3, 0x0
0000008f c76d                 LGOTO 0x92; main.o:_00153_DS_=0x92
00000090 d5d1                 LCALL 0x22e; _checkBatAD=0x22e
00000091 c759                 LGOTO 0xa6; main.o:_00154_DS_=0xa6
00000092                      main.o:_00153_DS_:
00000092 def6                 MOVIA 0x9
00000093 e0fc                 BCR 0x3, 0x6
00000094 fb90                 SUBAR 0x6f, 0x0
00000095 f7fc                 BTRSS 0x3, 0x0
00000096 c762                 LGOTO 0x9d; main.o:_00149_DS_=0x9d
00000097 def4                 MOVIA 0xb
00000098 fb90                 SUBAR 0x6f, 0x0
00000099 f3fc                 BTRSC 0x3, 0x0
0000009a c762                 LGOTO 0x9d; main.o:_00149_DS_=0x9d
0000009b d6b1                 LCALL 0x14e; _checkOutA=0x14e
0000009c c759                 LGOTO 0xa6; main.o:_00154_DS_=0xa6
0000009d                      main.o:_00149_DS_:
0000009d def1                 MOVIA 0xe
0000009e e0fc                 BCR 0x3, 0x6
0000009f fb90                 SUBAR 0x6f, 0x0
000000a0 f7fc                 BTRSS 0x3, 0x0
000000a1 c759                 LGOTO 0xa6; main.o:_00154_DS_=0xa6
000000a2 deef                 MOVIA 0x10
000000a3 fb90                 SUBAR 0x6f, 0x0
000000a4 f7fc                 BTRSS 0x3, 0x0
000000a5 d5f9                 LCALL 0x206; _checkChrgV=0x206
000000a6                      main.o:_00154_DS_:
000000a6 d417                 LCALL 0x3e8; _chrgCtr=0x3e8
000000a7 e0fc                 BCR 0x3, 0x6
000000a8 fe9c                 MOVR 0x63, 0x0
000000a9 f2fc                 BTRSC 0x3, 0x2
000000aa c74a                 LGOTO 0xb5; main.o:_00156_DS_=0xb5
000000ab fe89                 MOVR 0x76, 0x0
000000ac fb96                 SUBAR 0x69, 0x0
000000ad f3fc                 BTRSC 0x3, 0x0
000000ae c74a                 LGOTO 0xb5; main.o:_00156_DS_=0xb5
000000af de09                 MOVIA 0xf6
000000b0 fc09                 ADDAR 0x76, 0x1
000000b1 fe89                 MOVR 0x76, 0x0
000000b2 ffb3                 SFUN 0xc
000000b3 fe89                 MOVR 0x76, 0x0
000000b4 ff03                 MOVAR 0x7c
000000b5                      main.o:_00156_DS_:
000000b5 e0fc                 BCR 0x3, 0x6
000000b6 fe9c                 MOVR 0x63, 0x0
000000b7 f6fc                 BTRSS 0x3, 0x2
000000b8 c732                 LGOTO 0xcd; main.o:_00161_DS_=0xcd
000000b9 fe9d                 MOVR 0x62, 0x0
000000ba f6fc                 BTRSS 0x3, 0x2
000000bb c732                 LGOTO 0xcd; main.o:_00161_DS_=0xcd
000000bc f27a                 BTRSC 0x5, 0x3
000000bd c732                 LGOTO 0xcd; main.o:_00161_DS_=0xcd
000000be fe8a                 MOVR 0x75, 0x0
000000bf f6fc                 BTRSS 0x3, 0x2
000000c0 c732                 LGOTO 0xcd; main.o:_00161_DS_=0xcd
000000c1 fa12                 INCR 0x6d, 0x1
000000c2 f2fc                 BTRSC 0x3, 0x2
000000c3 fa11                 INCR 0x6e, 0x1
000000c4 def8                 MOVIA 0x7
000000c5 fb91                 SUBAR 0x6e, 0x0
000000c6 f6fc                 BTRSS 0x3, 0x2
000000c7 c735                 LGOTO 0xca; main.o:_00241_DS_=0xca
000000c8 de2e                 MOVIA 0xd1
000000c9 fb92                 SUBAR 0x6d, 0x0
000000ca                      main.o:_00241_DS_:
000000ca f7fc                 BTRSS 0x3, 0x0
000000cb c732                 LGOTO 0xcd; main.o:_00161_DS_=0xcd
000000cc d39b                 LCALL 0x464; _gotoSleep=0x464
000000cd                      main.o:_00161_DS_:
000000cd defc                 MOVIA 0x3
000000ce e0fc                 BCR 0x3, 0x6
000000cf fb8d                 SUBAR 0x72, 0x0
000000d0 f6fc                 BTRSS 0x3, 0x2
000000d1 c72b                 LGOTO 0xd4; main.o:_00242_DS_=0xd4
000000d2 de7b                 MOVIA 0x84
000000d3 fb8e                 SUBAR 0x71, 0x0
000000d4                      main.o:_00242_DS_:
000000d4 f7fc                 BTRSS 0x3, 0x0
000000d5 c794                 LGOTO 0x6b; main.o:_00168_DS_=0x6b
000000d6 d228                 LCALL 0x5d7; _powerOff=0x5d7
000000d7 c794                 LGOTO 0x6b; main.o:_00168_DS_=0x6b
000000d8 ffef                 RET
000000d9                      _F_AIN2_Convert:
000000d9 e0fc                 BCR 0x3, 0x6
000000da ff31                 MOVAR 0x4e
000000db fd57                 CLRR 0x28
000000dc fd59                 CLRR 0x26
000000dd fd58                 CLRR 0x27
000000de de6d                 MOVIA 0x92
000000df ff6f                 MOVAR 0x10
000000e0 de37                 MOVIA 0xc8
000000e1 d423                 LCALL 0x3dc; _delay=0x3dc
000000e2 defe                 MOVIA 0x1
000000e3 e0fc                 BCR 0x3, 0x6
000000e4 ff30                 MOVAR 0x4f
000000e5                      main.o:_00889_DS_:
000000e5 e0fc                 BCR 0x3, 0x6
000000e6 feb0                 MOVR 0x4f, 0x0
000000e7 fbb1                 SUBAR 0x4e, 0x0
000000e8 f7fc                 BTRSS 0x3, 0x0
000000e9 c700                 LGOTO 0xff; main.o:_00891_DS_=0xff
000000ea e4ef                 BSR 0x10, 0x6
000000eb d7fc                 LCALL 0x3; main.o:_00896_DS_=0x3
000000ec def0                 MOVIA 0xf
000000ed efee                 ANDAR 0x11, 0x0
000000ee e0fc                 BCR 0x3, 0x6
000000ef fc57                 ADDAR 0x28, 0x1
000000f0 feed                 MOVR 0x12, 0x0
000000f1 ff2f                 MOVAR 0x50
000000f2 deff                 MOVIA 0x0
000000f3 ff2e                 MOVAR 0x51
000000f4 feaf                 MOVR 0x50, 0x0
000000f5 fc59                 ADDAR 0x26, 0x1
000000f6 feae                 MOVR 0x51, 0x0
000000f7 f3fc                 BTRSC 0x3, 0x0
000000f8 faae                 INCR 0x51, 0x0
000000f9 f2fc                 BTRSC 0x3, 0x2
000000fa c703                 LGOTO 0xfc; main.o:_00001_DS_=0xfc
000000fb fc58                 ADDAR 0x27, 0x1
000000fc                      main.o:_00001_DS_:
000000fc e0fc                 BCR 0x3, 0x6
000000fd fa30                 INCR 0x4f, 0x1
000000fe c71a                 LGOTO 0xe5; main.o:_00889_DS_=0xe5
000000ff                      main.o:_00891_DS_:
000000ff ffef                 RET
00000100                      _F_AIN3_Convert:
00000100 e0fc                 BCR 0x3, 0x6
00000101 ff35                 MOVAR 0x4a
00000102 fd5a                 CLRR 0x25
00000103 fd5c                 CLRR 0x23
00000104 fd5b                 CLRR 0x24
00000105 de6c                 MOVIA 0x93
00000106 ff6f                 MOVAR 0x10
00000107 de37                 MOVIA 0xc8
00000108 d423                 LCALL 0x3dc; _delay=0x3dc
00000109 defe                 MOVIA 0x1
0000010a e0fc                 BCR 0x3, 0x6
0000010b ff34                 MOVAR 0x4b
0000010c                      main.o:_00880_DS_:
0000010c e0fc                 BCR 0x3, 0x6
0000010d feb4                 MOVR 0x4b, 0x0
0000010e fbb5                 SUBAR 0x4a, 0x0
0000010f f7fc                 BTRSS 0x3, 0x0
00000110 c6d9                 LGOTO 0x126; main.o:_00882_DS_=0x126
00000111 e4ef                 BSR 0x10, 0x6
00000112 d7fc                 LCALL 0x3; main.o:_00896_DS_=0x3
00000113 def0                 MOVIA 0xf
00000114 efee                 ANDAR 0x11, 0x0
00000115 e0fc                 BCR 0x3, 0x6
00000116 fc5a                 ADDAR 0x25, 0x1
00000117 feed                 MOVR 0x12, 0x0
00000118 ff33                 MOVAR 0x4c
00000119 deff                 MOVIA 0x0
0000011a ff32                 MOVAR 0x4d
0000011b feb3                 MOVR 0x4c, 0x0
0000011c fc5c                 ADDAR 0x23, 0x1
0000011d feb2                 MOVR 0x4d, 0x0
0000011e f3fc                 BTRSC 0x3, 0x0
0000011f fab2                 INCR 0x4d, 0x0
00000120 f2fc                 BTRSC 0x3, 0x2
00000121 c6dc                 LGOTO 0x123; main.o:_00002_DS_=0x123
00000122 fc5b                 ADDAR 0x24, 0x1
00000123                      main.o:_00002_DS_:
00000123 e0fc                 BCR 0x3, 0x6
00000124 fa34                 INCR 0x4b, 0x1
00000125 c6f3                 LGOTO 0x10c; main.o:_00880_DS_=0x10c
00000126                      main.o:_00882_DS_:
00000126 ffef                 RET
00000127                      _F_AIN4_Convert:
00000127 e0fc                 BCR 0x3, 0x6
00000128 ff39                 MOVAR 0x46
00000129 fd5d                 CLRR 0x22
0000012a fd5f                 CLRR 0x20
0000012b fd5e                 CLRR 0x21
0000012c de6b                 MOVIA 0x94
0000012d ff6f                 MOVAR 0x10
0000012e de37                 MOVIA 0xc8
0000012f d423                 LCALL 0x3dc; _delay=0x3dc
00000130 defe                 MOVIA 0x1
00000131 e0fc                 BCR 0x3, 0x6
00000132 ff38                 MOVAR 0x47
00000133                      main.o:_00871_DS_:
00000133 e0fc                 BCR 0x3, 0x6
00000134 feb8                 MOVR 0x47, 0x0
00000135 fbb9                 SUBAR 0x46, 0x0
00000136 f7fc                 BTRSS 0x3, 0x0
00000137 c6b2                 LGOTO 0x14d; main.o:_00873_DS_=0x14d
00000138 e4ef                 BSR 0x10, 0x6
00000139 d7fc                 LCALL 0x3; main.o:_00896_DS_=0x3
0000013a def0                 MOVIA 0xf
0000013b efee                 ANDAR 0x11, 0x0
0000013c e0fc                 BCR 0x3, 0x6
0000013d fc5d                 ADDAR 0x22, 0x1
0000013e feed                 MOVR 0x12, 0x0
0000013f ff37                 MOVAR 0x48
00000140 deff                 MOVIA 0x0
00000141 ff36                 MOVAR 0x49
00000142 feb7                 MOVR 0x48, 0x0
00000143 fc5f                 ADDAR 0x20, 0x1
00000144 feb6                 MOVR 0x49, 0x0
00000145 f3fc                 BTRSC 0x3, 0x0
00000146 fab6                 INCR 0x49, 0x0
00000147 f2fc                 BTRSC 0x3, 0x2
00000148 c6b5                 LGOTO 0x14a; main.o:_00003_DS_=0x14a
00000149 fc5e                 ADDAR 0x21, 0x1
0000014a                      main.o:_00003_DS_:
0000014a e0fc                 BCR 0x3, 0x6
0000014b fa38                 INCR 0x47, 0x1
0000014c c6cc                 LGOTO 0x133; main.o:_00871_DS_=0x133
0000014d                      main.o:_00873_DS_:
0000014d ffef                 RET
0000014e                      _checkOutA:
0000014e e0fc                 BCR 0x3, 0x6
0000014f fd5d                 CLRR 0x22
00000150 fd5f                 CLRR 0x20
00000151 fd5e                 CLRR 0x21
00000152 def7                 MOVIA 0x8
00000153 d6d8                 LCALL 0x127; _F_AIN4_Convert=0x127
00000154 e0fc                 BCR 0x3, 0x6
00000155 eade                 SWAPR 0x21, 0x0
00000156 dd0f                 ANDIA 0xf0
00000157 ff5e                 MOVAR 0x21
00000158 eadf                 SWAPR 0x20, 0x0
00000159 ff5f                 MOVAR 0x20
0000015a ddf0                 ANDIA 0xf
0000015b ee5e                 IORAR 0x21, 0x1
0000015c ed5f                 XORAR 0x20, 0x1
0000015d de0f                 MOVIA 0xf0
0000015e ef5d                 ANDAR 0x22, 0x1
0000015f fedd                 MOVR 0x22, 0x0
00000160 ff41                 MOVAR 0x3e
00000161 deff                 MOVIA 0x0
00000162 ff40                 MOVAR 0x3f
00000163 fec1                 MOVR 0x3e, 0x0
00000164 fc5f                 ADDAR 0x20, 0x1
00000165 fec0                 MOVR 0x3f, 0x0
00000166 f3fc                 BTRSC 0x3, 0x0
00000167 fac0                 INCR 0x3f, 0x0
00000168 f2fc                 BTRSC 0x3, 0x2
00000169 c694                 LGOTO 0x16b; main.o:_00004_DS_=0x16b
0000016a fc5e                 ADDAR 0x21, 0x1
0000016b                      main.o:_00004_DS_:
0000016b e3fc                 BCR 0x3, 0x0
0000016c e0fc                 BCR 0x3, 0x6
0000016d ec5e                 RRR 0x21, 0x1
0000016e ec5f                 RRR 0x20, 0x1
0000016f e3fc                 BCR 0x3, 0x0
00000170 ec5e                 RRR 0x21, 0x1
00000171 ec5f                 RRR 0x20, 0x1
00000172 e3fc                 BCR 0x3, 0x0
00000173 ec5e                 RRR 0x21, 0x1
00000174 ec5f                 RRR 0x20, 0x1
00000175 e4fc                 BSR 0x3, 0x6
00000176 fedd                 MOVR 0x22, 0x0
00000177 f2fc                 BTRSC 0x3, 0x2
00000178 c681                 LGOTO 0x17e; main.o:_00776_DS_=0x17e
00000179 ded2                 MOVIA 0x2d
0000017a e0fc                 BCR 0x3, 0x6
0000017b ff5f                 MOVAR 0x20
0000017c defe                 MOVIA 0x1
0000017d ff5e                 MOVAR 0x21
0000017e                      main.o:_00776_DS_:
0000017e def9                 MOVIA 0x6
0000017f e0fc                 BCR 0x3, 0x6
00000180 fb9c                 SUBAR 0x63, 0x0
00000181 f3fc                 BTRSC 0x3, 0x0
00000182 c668                 LGOTO 0x197; main.o:_00804_DS_=0x197
00000183 deff                 MOVIA 0x0
00000184 fbde                 SUBAR 0x21, 0x0
00000185 f6fc                 BTRSS 0x3, 0x2
00000186 c676                 LGOTO 0x189; main.o:_00855_DS_=0x189
00000187 de36                 MOVIA 0xc9
00000188 fbdf                 SUBAR 0x20, 0x0
00000189                      main.o:_00855_DS_:
00000189 f7fc                 BTRSS 0x3, 0x0
0000018a c668                 LGOTO 0x197; main.o:_00804_DS_=0x197
0000018b e0fc                 BCR 0x3, 0x6
0000018c fa0b                 INCR 0x74, 0x1
0000018d def9                 MOVIA 0x6
0000018e fb8b                 SUBAR 0x74, 0x0
0000018f f7fc                 BTRSS 0x3, 0x0
00000190 c66c                 LGOTO 0x193; main.o:_00778_DS_=0x193
00000191 defa                 MOVIA 0x5
00000192 ff0b                 MOVAR 0x74
00000193                      main.o:_00778_DS_:
00000193 e0fc                 BCR 0x3, 0x6
00000194 fd02                 CLRR 0x7d
00000195 fd01                 CLRR 0x7e
00000196 c5fa                 LGOTO 0x205; main.o:_00807_DS_=0x205
00000197                      main.o:_00804_DS_:
00000197 defe                 MOVIA 0x1
00000198 e0fc                 BCR 0x3, 0x6
00000199 fbde                 SUBAR 0x21, 0x0
0000019a f6fc                 BTRSS 0x3, 0x2
0000019b c661                 LGOTO 0x19e; main.o:_00857_DS_=0x19e
0000019c de6e                 MOVIA 0x91
0000019d fbdf                 SUBAR 0x20, 0x0
0000019e                      main.o:_00857_DS_:
0000019e f7fc                 BTRSS 0x3, 0x0
0000019f c646                 LGOTO 0x1b9; main.o:_00801_DS_=0x1b9
000001a0 e0fc                 BCR 0x3, 0x6
000001a1 fa0b                 INCR 0x74, 0x1
000001a2 def9                 MOVIA 0x6
000001a3 fb8b                 SUBAR 0x74, 0x0
000001a4 f7fc                 BTRSS 0x3, 0x0
000001a5 c5fa                 LGOTO 0x205; main.o:_00807_DS_=0x205
000001a6 defa                 MOVIA 0x5
000001a7 ff0b                 MOVAR 0x74
000001a8 fa02                 INCR 0x7d, 0x1
000001a9 f2fc                 BTRSC 0x3, 0x2
000001aa fa01                 INCR 0x7e, 0x1
000001ab defe                 MOVIA 0x1
000001ac fb81                 SUBAR 0x7e, 0x0
000001ad f6fc                 BTRSS 0x3, 0x2
000001ae c64e                 LGOTO 0x1b1; main.o:_00859_DS_=0x1b1
000001af de0a                 MOVIA 0xf5
000001b0 fb82                 SUBAR 0x7d, 0x0
000001b1                      main.o:_00859_DS_:
000001b1 f7fc                 BTRSS 0x3, 0x0
000001b2 c5fa                 LGOTO 0x205; main.o:_00807_DS_=0x205
000001b3 de0b                 MOVIA 0xf4
000001b4 e0fc                 BCR 0x3, 0x6
000001b5 ff02                 MOVAR 0x7d
000001b6 defe                 MOVIA 0x1
000001b7 ff01                 MOVAR 0x7e
000001b8 c5fa                 LGOTO 0x205; main.o:_00807_DS_=0x205
000001b9                      main.o:_00801_DS_:
000001b9 deff                 MOVIA 0x0
000001ba e0fc                 BCR 0x3, 0x6
000001bb fbde                 SUBAR 0x21, 0x0
000001bc f6fc                 BTRSS 0x3, 0x2
000001bd c63f                 LGOTO 0x1c0; main.o:_00860_DS_=0x1c0
000001be ded1                 MOVIA 0x2e
000001bf fbdf                 SUBAR 0x20, 0x0
000001c0                      main.o:_00860_DS_:
000001c0 f7fc                 BTRSS 0x3, 0x0
000001c1 c629                 LGOTO 0x1d6; main.o:_00798_DS_=0x1d6
000001c2 e0fc                 BCR 0x3, 0x6
000001c3 fd02                 CLRR 0x7d
000001c4 fd01                 CLRR 0x7e
000001c5 fe8b                 MOVR 0x74, 0x0
000001c6 f6fc                 BTRSS 0x3, 0x2
000001c7 f90b                 DECR 0x74, 0x1
000001c8 def8                 MOVIA 0x7
000001c9 fb9c                 SUBAR 0x63, 0x0
000001ca f3fc                 BTRSC 0x3, 0x0
000001cb c5fa                 LGOTO 0x205; main.o:_00807_DS_=0x205
000001cc defa                 MOVIA 0x5
000001cd ff3a                 MOVAR 0x45
000001ce fe9c                 MOVR 0x63, 0x0
000001cf d1a5                 LCALL 0x65a; __mulchar=0x65a
000001d0 e0fc                 BCR 0x3, 0x6
000001d1 ff41                 MOVAR 0x3e
000001d2 deb9                 MOVIA 0x46
000001d3 fcc1                 ADDAR 0x3e, 0x0
000001d4 ff05                 MOVAR 0x7a
000001d5 c5fa                 LGOTO 0x205; main.o:_00807_DS_=0x205
000001d6                      main.o:_00798_DS_:
000001d6 e0fc                 BCR 0x3, 0x6
000001d7 fd02                 CLRR 0x7d
000001d8 fd01                 CLRR 0x7e
000001d9 fe8b                 MOVR 0x74, 0x0
000001da f6fc                 BTRSS 0x3, 0x2
000001db f90b                 DECR 0x74, 0x1
000001dc deff                 MOVIA 0x0
000001dd fbde                 SUBAR 0x21, 0x0
000001de f6fc                 BTRSS 0x3, 0x2
000001df c61d                 LGOTO 0x1e2; main.o:_00862_DS_=0x1e2
000001e0 ded6                 MOVIA 0x29
000001e1 fbdf                 SUBAR 0x20, 0x0
000001e2                      main.o:_00862_DS_:
000001e2 f7fc                 BTRSS 0x3, 0x0
000001e3 c60c                 LGOTO 0x1f3; main.o:_00792_DS_=0x1f3
000001e4 defb                 MOVIA 0x4
000001e5 e0fc                 BCR 0x3, 0x6
000001e6 fb9c                 SUBAR 0x63, 0x0
000001e7 f3fc                 BTRSC 0x3, 0x0
000001e8 c60c                 LGOTO 0x1f3; main.o:_00792_DS_=0x1f3
000001e9 defa                 MOVIA 0x5
000001ea ff3a                 MOVAR 0x45
000001eb fe9c                 MOVR 0x63, 0x0
000001ec d1a5                 LCALL 0x65a; __mulchar=0x65a
000001ed e0fc                 BCR 0x3, 0x6
000001ee ff41                 MOVAR 0x3e
000001ef deb9                 MOVIA 0x46
000001f0 fcc1                 ADDAR 0x3e, 0x0
000001f1 ff05                 MOVAR 0x7a
000001f2 c600                 LGOTO 0x1ff; main.o:_00793_DS_=0x1ff
000001f3                      main.o:_00792_DS_:
000001f3 deff                 MOVIA 0x0
000001f4 e0fc                 BCR 0x3, 0x6
000001f5 fbde                 SUBAR 0x21, 0x0
000001f6 f6fc                 BTRSS 0x3, 0x2
000001f7 c605                 LGOTO 0x1fa; main.o:_00864_DS_=0x1fa
000001f8 debb                 MOVIA 0x44
000001f9 fbdf                 SUBAR 0x20, 0x0
000001fa                      main.o:_00864_DS_:
000001fa f3fc                 BTRSC 0x3, 0x0
000001fb c600                 LGOTO 0x1ff; main.o:_00793_DS_=0x1ff
000001fc e0fc                 BCR 0x3, 0x6
000001fd fe96                 MOVR 0x69, 0x0
000001fe ff05                 MOVAR 0x7a
000001ff                      main.o:_00793_DS_:
000001ff e0fc                 BCR 0x3, 0x6
00000200 fe9c                 MOVR 0x63, 0x0
00000201 f2fc                 BTRSC 0x3, 0x2
00000202 c5fa                 LGOTO 0x205; main.o:_00807_DS_=0x205
00000203 fe9c                 MOVR 0x63, 0x0
00000204 ff1b                 MOVAR 0x64
00000205                      main.o:_00807_DS_:
00000205 ffef                 RET
00000206                      _checkChrgV:
00000206 e0fc                 BCR 0x3, 0x6
00000207 fd5a                 CLRR 0x25
00000208 fd5c                 CLRR 0x23
00000209 fd5b                 CLRR 0x24
0000020a def7                 MOVIA 0x8
0000020b d6ff                 LCALL 0x100; _F_AIN3_Convert=0x100
0000020c e0fc                 BCR 0x3, 0x6
0000020d eadb                 SWAPR 0x24, 0x0
0000020e dd0f                 ANDIA 0xf0
0000020f ff5b                 MOVAR 0x24
00000210 eadc                 SWAPR 0x23, 0x0
00000211 ff5c                 MOVAR 0x23
00000212 ddf0                 ANDIA 0xf
00000213 ee5b                 IORAR 0x24, 0x1
00000214 ed5c                 XORAR 0x23, 0x1
00000215 de0f                 MOVIA 0xf0
00000216 ef5a                 ANDAR 0x25, 0x1
00000217 feda                 MOVR 0x25, 0x0
00000218 ff43                 MOVAR 0x3c
00000219 deff                 MOVIA 0x0
0000021a ff42                 MOVAR 0x3d
0000021b fec3                 MOVR 0x3c, 0x0
0000021c fc5c                 ADDAR 0x23, 0x1
0000021d fec2                 MOVR 0x3d, 0x0
0000021e f3fc                 BTRSC 0x3, 0x0
0000021f fac2                 INCR 0x3d, 0x0
00000220 f2fc                 BTRSC 0x3, 0x2
00000221 c5dc                 LGOTO 0x223; main.o:_00005_DS_=0x223
00000222 fc5b                 ADDAR 0x24, 0x1
00000223                      main.o:_00005_DS_:
00000223 e3fc                 BCR 0x3, 0x0
00000224 e0fc                 BCR 0x3, 0x6
00000225 ec5b                 RRR 0x24, 0x1
00000226 ec5c                 RRR 0x23, 0x1
00000227 e3fc                 BCR 0x3, 0x0
00000228 ec5b                 RRR 0x24, 0x1
00000229 ec5c                 RRR 0x23, 0x1
0000022a e3fc                 BCR 0x3, 0x0
0000022b ec5b                 RRR 0x24, 0x1
0000022c ec5c                 RRR 0x23, 0x1
0000022d ffef                 RET
0000022e                      _checkBatAD:
0000022e e0fc                 BCR 0x3, 0x6
0000022f fd57                 CLRR 0x28
00000230 fd59                 CLRR 0x26
00000231 fd58                 CLRR 0x27
00000232 def7                 MOVIA 0x8
00000233 d726                 LCALL 0xd9; _F_AIN2_Convert=0xd9
00000234 e0fc                 BCR 0x3, 0x6
00000235 ead8                 SWAPR 0x27, 0x0
00000236 dd0f                 ANDIA 0xf0
00000237 ff58                 MOVAR 0x27
00000238 ead9                 SWAPR 0x26, 0x0
00000239 ff59                 MOVAR 0x26
0000023a ddf0                 ANDIA 0xf
0000023b ee58                 IORAR 0x27, 0x1
0000023c ed59                 XORAR 0x26, 0x1
0000023d de0f                 MOVIA 0xf0
0000023e ef57                 ANDAR 0x28, 0x1
0000023f fed7                 MOVR 0x28, 0x0
00000240 ff45                 MOVAR 0x3a
00000241 deff                 MOVIA 0x0
00000242 ff44                 MOVAR 0x3b
00000243 fec5                 MOVR 0x3a, 0x0
00000244 fc59                 ADDAR 0x26, 0x1
00000245 fec4                 MOVR 0x3b, 0x0
00000246 f3fc                 BTRSC 0x3, 0x0
00000247 fac4                 INCR 0x3b, 0x0
00000248 f2fc                 BTRSC 0x3, 0x2
00000249 c5b4                 LGOTO 0x24b; main.o:_00006_DS_=0x24b
0000024a fc58                 ADDAR 0x27, 0x1
0000024b                      main.o:_00006_DS_:
0000024b e3fc                 BCR 0x3, 0x0
0000024c e0fc                 BCR 0x3, 0x6
0000024d ec58                 RRR 0x27, 0x1
0000024e ec59                 RRR 0x26, 0x1
0000024f e3fc                 BCR 0x3, 0x0
00000250 ec58                 RRR 0x27, 0x1
00000251 ec59                 RRR 0x26, 0x1
00000252 e3fc                 BCR 0x3, 0x0
00000253 ec58                 RRR 0x27, 0x1
00000254 ec59                 RRR 0x26, 0x1
00000255 e4fc                 BSR 0x3, 0x6
00000256 fedd                 MOVR 0x22, 0x0
00000257 f2fc                 BTRSC 0x3, 0x2
00000258 c5a1                 LGOTO 0x25e; main.o:_00532_DS_=0x25e
00000259 def1                 MOVIA 0xe
0000025a e0fc                 BCR 0x3, 0x6
0000025b ff59                 MOVAR 0x26
0000025c def9                 MOVIA 0x6
0000025d ff58                 MOVAR 0x27
0000025e                      main.o:_00532_DS_:
0000025e def9                 MOVIA 0x6
0000025f e0fc                 BCR 0x3, 0x6
00000260 fbd8                 SUBAR 0x27, 0x0
00000261 f6fc                 BTRSS 0x3, 0x2
00000262 c59a                 LGOTO 0x265; main.o:_00738_DS_=0x265
00000263 def0                 MOVIA 0xf
00000264 fbd9                 SUBAR 0x26, 0x0
00000265                      main.o:_00738_DS_:
00000265 f7fc                 BTRSS 0x3, 0x0
00000266 c595                 LGOTO 0x26a; main.o:_00544_DS_=0x26a
00000267 e0fc                 BCR 0x3, 0x6
00000268 fd04                 CLRR 0x7b
00000269 c56a                 LGOTO 0x295; main.o:_00545_DS_=0x295
0000026a                      main.o:_00544_DS_:
0000026a defb                 MOVIA 0x4
0000026b e0fc                 BCR 0x3, 0x6
0000026c fbd8                 SUBAR 0x27, 0x0
0000026d f6fc                 BTRSS 0x3, 0x2
0000026e c58e                 LGOTO 0x271; main.o:_00739_DS_=0x271
0000026f de86                 MOVIA 0x79
00000270 fbd9                 SUBAR 0x26, 0x0
00000271                      main.o:_00739_DS_:
00000271 f3fc                 BTRSC 0x3, 0x0
00000272 c56d                 LGOTO 0x292; main.o:_00541_DS_=0x292
00000273 e0fc                 BCR 0x3, 0x6
00000274 fa04                 INCR 0x7b, 0x1
00000275 def5                 MOVIA 0xa
00000276 fb84                 SUBAR 0x7b, 0x0
00000277 f7fc                 BTRSS 0x3, 0x0
00000278 c42f                 LGOTO 0x3d0; main.o:_00619_DS_=0x3d0
00000279 def5                 MOVIA 0xa
0000027a ff04                 MOVAR 0x7b
0000027b fd15                 CLRR 0x6a
0000027c de86                 MOVIA 0x79
0000027d ff59                 MOVAR 0x26
0000027e defb                 MOVIA 0x4
0000027f ff58                 MOVAR 0x27
00000280 fe9c                 MOVR 0x63, 0x0
00000281 f2fc                 BTRSC 0x3, 0x2
00000282 c575                 LGOTO 0x28a; main.o:_00536_DS_=0x28a
00000283 fa06                 INCR 0x79, 0x1
00000284 fe86                 MOVR 0x79, 0x0
00000285 dbf5                 XORIA 0xa
00000286 f6fc                 BTRSS 0x3, 0x2
00000287 c575                 LGOTO 0x28a; main.o:_00536_DS_=0x28a
00000288 deef                 MOVIA 0x10
00000289 ff07                 MOVAR 0x78
0000028a                      main.o:_00536_DS_:
0000028a def3                 MOVIA 0xc
0000028b e0fc                 BCR 0x3, 0x6
0000028c fb86                 SUBAR 0x79, 0x0
0000028d f7fc                 BTRSS 0x3, 0x0
0000028e c56a                 LGOTO 0x295; main.o:_00545_DS_=0x295
0000028f def4                 MOVIA 0xb
00000290 ff06                 MOVAR 0x79
00000291 c56a                 LGOTO 0x295; main.o:_00545_DS_=0x295
00000292                      main.o:_00541_DS_:
00000292 e0fc                 BCR 0x3, 0x6
00000293 fd04                 CLRR 0x7b
00000294 fd06                 CLRR 0x79
00000295                      main.o:_00545_DS_:
00000295 de78                 MOVIA 0x87
00000296 e0fc                 BCR 0x3, 0x6
00000297 fc59                 ADDAR 0x26, 0x1
00000298 de04                 MOVIA 0xfb
00000299 f3fc                 BTRSC 0x3, 0x0
0000029a de03                 MOVIA 0xfc
0000029b fc58                 ADDAR 0x27, 0x1
0000029c defe                 MOVIA 0x1
0000029d fbd8                 SUBAR 0x27, 0x0
0000029e f6fc                 BTRSS 0x3, 0x2
0000029f c55d                 LGOTO 0x2a2; main.o:_00742_DS_=0x2a2
000002a0 de59                 MOVIA 0xa6
000002a1 fbd9                 SUBAR 0x26, 0x0
000002a2                      main.o:_00742_DS_:
000002a2 f7fc                 BTRSS 0x3, 0x0
000002a3 c557                 LGOTO 0x2a8; main.o:_00617_DS_=0x2a8
000002a4 def8                 MOVIA 0x7
000002a5 e0fc                 BCR 0x3, 0x6
000002a6 ff15                 MOVAR 0x6a
000002a7 c42f                 LGOTO 0x3d0; main.o:_00619_DS_=0x3d0
000002a8                      main.o:_00617_DS_:
000002a8 defe                 MOVIA 0x1
000002a9 e0fc                 BCR 0x3, 0x6
000002aa fbd8                 SUBAR 0x27, 0x0
000002ab f6fc                 BTRSS 0x3, 0x2
000002ac c550                 LGOTO 0x2af; main.o:_00743_DS_=0x2af
000002ad dea0                 MOVIA 0x5f
000002ae fbd9                 SUBAR 0x26, 0x0
000002af                      main.o:_00743_DS_:
000002af f7fc                 BTRSS 0x3, 0x0
000002b0 c50e                 LGOTO 0x2f1; main.o:_00614_DS_=0x2f1
000002b1 e0fc                 BCR 0x3, 0x6
000002b2 fd08                 CLRR 0x77
000002b3 def9                 MOVIA 0x6
000002b4 fb95                 SUBAR 0x6a, 0x0
000002b5 f3fc                 BTRSC 0x3, 0x0
000002b6 c53c                 LGOTO 0x2c3; main.o:_00552_DS_=0x2c3
000002b7 defe                 MOVIA 0x1
000002b8 fbd8                 SUBAR 0x27, 0x0
000002b9 f6fc                 BTRSS 0x3, 0x2
000002ba c542                 LGOTO 0x2bd; main.o:_00745_DS_=0x2bd
000002bb de9b                 MOVIA 0x64
000002bc fbd9                 SUBAR 0x26, 0x0
000002bd                      main.o:_00745_DS_:
000002bd f7fc                 BTRSS 0x3, 0x0
000002be c52c                 LGOTO 0x2d3; main.o:_00553_DS_=0x2d3
000002bf def9                 MOVIA 0x6
000002c0 e0fc                 BCR 0x3, 0x6
000002c1 ff15                 MOVAR 0x6a
000002c2 c52c                 LGOTO 0x2d3; main.o:_00553_DS_=0x2d3
000002c3                      main.o:_00552_DS_:
000002c3 e0fc                 BCR 0x3, 0x6
000002c4 fe94                 MOVR 0x6b, 0x0
000002c5 ee93                 IORAR 0x6c, 0x0
000002c6 f6fc                 BTRSS 0x3, 0x2
000002c7 c52c                 LGOTO 0x2d3; main.o:_00553_DS_=0x2d3
000002c8 defe                 MOVIA 0x1
000002c9 fbd8                 SUBAR 0x27, 0x0
000002ca f6fc                 BTRSS 0x3, 0x2
000002cb c531                 LGOTO 0x2ce; main.o:_00746_DS_=0x2ce
000002cc de73                 MOVIA 0x8c
000002cd fbd9                 SUBAR 0x26, 0x0
000002ce                      main.o:_00746_DS_:
000002ce f3fc                 BTRSC 0x3, 0x0
000002cf c52c                 LGOTO 0x2d3; main.o:_00553_DS_=0x2d3
000002d0 def9                 MOVIA 0x6
000002d1 e0fc                 BCR 0x3, 0x6
000002d2 ff15                 MOVAR 0x6a
000002d3                      main.o:_00553_DS_:
000002d3 e0fc                 BCR 0x3, 0x6
000002d4 fe94                 MOVR 0x6b, 0x0
000002d5 ee93                 IORAR 0x6c, 0x0
000002d6 f2fc                 BTRSC 0x3, 0x2
000002d7 c42f                 LGOTO 0x3d0; main.o:_00619_DS_=0x3d0
000002d8 defe                 MOVIA 0x1
000002d9 fbd8                 SUBAR 0x27, 0x0
000002da f6fc                 BTRSS 0x3, 0x2
000002db c521                 LGOTO 0x2de; main.o:_00747_DS_=0x2de
000002dc de73                 MOVIA 0x8c
000002dd fbd9                 SUBAR 0x26, 0x0
000002de                      main.o:_00747_DS_:
000002de f7fc                 BTRSS 0x3, 0x0
000002df c42f                 LGOTO 0x3d0; main.o:_00619_DS_=0x3d0
000002e0 defd                 MOVIA 0x2
000002e1 e0fc                 BCR 0x3, 0x6
000002e2 fb93                 SUBAR 0x6c, 0x0
000002e3 f6fc                 BTRSS 0x3, 0x2
000002e4 c518                 LGOTO 0x2e7; main.o:_00748_DS_=0x2e7
000002e5 dea6                 MOVIA 0x59
000002e6 fb94                 SUBAR 0x6b, 0x0
000002e7                      main.o:_00748_DS_:
000002e7 f7fc                 BTRSS 0x3, 0x0
000002e8 c42f                 LGOTO 0x3d0; main.o:_00619_DS_=0x3d0
000002e9 dea7                 MOVIA 0x58
000002ea e0fc                 BCR 0x3, 0x6
000002eb ff14                 MOVAR 0x6b
000002ec defd                 MOVIA 0x2
000002ed ff13                 MOVAR 0x6c
000002ee def8                 MOVIA 0x7
000002ef ff15                 MOVAR 0x6a
000002f0 c42f                 LGOTO 0x3d0; main.o:_00619_DS_=0x3d0
000002f1                      main.o:_00614_DS_:
000002f1 defe                 MOVIA 0x1
000002f2 e0fc                 BCR 0x3, 0x6
000002f3 fbd8                 SUBAR 0x27, 0x0
000002f4 f6fc                 BTRSS 0x3, 0x2
000002f5 c507                 LGOTO 0x2f8; main.o:_00749_DS_=0x2f8
000002f6 deb9                 MOVIA 0x46
000002f7 fbd9                 SUBAR 0x26, 0x0
000002f8                      main.o:_00749_DS_:
000002f8 f7fc                 BTRSS 0x3, 0x0
000002f9 c4dd                 LGOTO 0x322; main.o:_00611_DS_=0x322
000002fa e0fc                 BCR 0x3, 0x6
000002fb fe95                 MOVR 0x6a, 0x0
000002fc dbfb                 XORIA 0x4
000002fd f6fc                 BTRSS 0x3, 0x2
000002fe c4f5                 LGOTO 0x30a; main.o:_00561_DS_=0x30a
000002ff defe                 MOVIA 0x1
00000300 fbd8                 SUBAR 0x27, 0x0
00000301 f6fc                 BTRSS 0x3, 0x2
00000302 c4fa                 LGOTO 0x305; main.o:_00750_DS_=0x305
00000303 deb4                 MOVIA 0x4b
00000304 fbd9                 SUBAR 0x26, 0x0
00000305                      main.o:_00750_DS_:
00000305 f7fc                 BTRSS 0x3, 0x0
00000306 c4f5                 LGOTO 0x30a; main.o:_00561_DS_=0x30a
00000307 defa                 MOVIA 0x5
00000308 e0fc                 BCR 0x3, 0x6
00000309 ff15                 MOVAR 0x6a
0000030a                      main.o:_00561_DS_:
0000030a def9                 MOVIA 0x6
0000030b e0fc                 BCR 0x3, 0x6
0000030c fb95                 SUBAR 0x6a, 0x0
0000030d f7fc                 BTRSS 0x3, 0x0
0000030e c4e4                 LGOTO 0x31b; main.o:_00565_DS_=0x31b
0000030f defe                 MOVIA 0x1
00000310 fbd8                 SUBAR 0x27, 0x0
00000311 f6fc                 BTRSS 0x3, 0x2
00000312 c4ea                 LGOTO 0x315; main.o:_00752_DS_=0x315
00000313 de92                 MOVIA 0x6d
00000314 fbd9                 SUBAR 0x26, 0x0
00000315                      main.o:_00752_DS_:
00000315 f3fc                 BTRSC 0x3, 0x0
00000316 c4e1                 LGOTO 0x31e; main.o:_00566_DS_=0x31e
00000317 defa                 MOVIA 0x5
00000318 e0fc                 BCR 0x3, 0x6
00000319 ff15                 MOVAR 0x6a
0000031a c4e1                 LGOTO 0x31e; main.o:_00566_DS_=0x31e
0000031b                      main.o:_00565_DS_:
0000031b defa                 MOVIA 0x5
0000031c e0fc                 BCR 0x3, 0x6
0000031d ff15                 MOVAR 0x6a
0000031e                      main.o:_00566_DS_:
0000031e e0fc                 BCR 0x3, 0x6
0000031f fd14                 CLRR 0x6b
00000320 fd13                 CLRR 0x6c
00000321 c42f                 LGOTO 0x3d0; main.o:_00619_DS_=0x3d0
00000322                      main.o:_00611_DS_:
00000322 defe                 MOVIA 0x1
00000323 e0fc                 BCR 0x3, 0x6
00000324 fbd8                 SUBAR 0x27, 0x0
00000325 f6fc                 BTRSS 0x3, 0x2
00000326 c4d6                 LGOTO 0x329; main.o:_00753_DS_=0x329
00000327 defa                 MOVIA 0x5
00000328 fbd9                 SUBAR 0x26, 0x0
00000329                      main.o:_00753_DS_:
00000329 f7fc                 BTRSS 0x3, 0x0
0000032a c4ac                 LGOTO 0x353; main.o:_00608_DS_=0x353
0000032b e0fc                 BCR 0x3, 0x6
0000032c fe95                 MOVR 0x6a, 0x0
0000032d dbfc                 XORIA 0x3
0000032e f6fc                 BTRSS 0x3, 0x2
0000032f c4c4                 LGOTO 0x33b; main.o:_00570_DS_=0x33b
00000330 defe                 MOVIA 0x1
00000331 fbd8                 SUBAR 0x27, 0x0
00000332 f6fc                 BTRSS 0x3, 0x2
00000333 c4c9                 LGOTO 0x336; main.o:_00754_DS_=0x336
00000334 def5                 MOVIA 0xa
00000335 fbd9                 SUBAR 0x26, 0x0
00000336                      main.o:_00754_DS_:
00000336 f7fc                 BTRSS 0x3, 0x0
00000337 c4c4                 LGOTO 0x33b; main.o:_00570_DS_=0x33b
00000338 defb                 MOVIA 0x4
00000339 e0fc                 BCR 0x3, 0x6
0000033a ff15                 MOVAR 0x6a
0000033b                      main.o:_00570_DS_:
0000033b defa                 MOVIA 0x5
0000033c e0fc                 BCR 0x3, 0x6
0000033d fb95                 SUBAR 0x6a, 0x0
0000033e f7fc                 BTRSS 0x3, 0x0
0000033f c4b3                 LGOTO 0x34c; main.o:_00574_DS_=0x34c
00000340 defe                 MOVIA 0x1
00000341 fbd8                 SUBAR 0x27, 0x0
00000342 f6fc                 BTRSS 0x3, 0x2
00000343 c4b9                 LGOTO 0x346; main.o:_00756_DS_=0x346
00000344 debf                 MOVIA 0x40
00000345 fbd9                 SUBAR 0x26, 0x0
00000346                      main.o:_00756_DS_:
00000346 f3fc                 BTRSC 0x3, 0x0
00000347 c4b0                 LGOTO 0x34f; main.o:_00575_DS_=0x34f
00000348 defb                 MOVIA 0x4
00000349 e0fc                 BCR 0x3, 0x6
0000034a ff15                 MOVAR 0x6a
0000034b c4b0                 LGOTO 0x34f; main.o:_00575_DS_=0x34f
0000034c                      main.o:_00574_DS_:
0000034c defb                 MOVIA 0x4
0000034d e0fc                 BCR 0x3, 0x6
0000034e ff15                 MOVAR 0x6a
0000034f                      main.o:_00575_DS_:
0000034f e0fc                 BCR 0x3, 0x6
00000350 fd14                 CLRR 0x6b
00000351 fd13                 CLRR 0x6c
00000352 c42f                 LGOTO 0x3d0; main.o:_00619_DS_=0x3d0
00000353                      main.o:_00608_DS_:
00000353 deff                 MOVIA 0x0
00000354 e0fc                 BCR 0x3, 0x6
00000355 fbd8                 SUBAR 0x27, 0x0
00000356 f6fc                 BTRSS 0x3, 0x2
00000357 c4a5                 LGOTO 0x35a; main.o:_00757_DS_=0x35a
00000358 de36                 MOVIA 0xc9
00000359 fbd9                 SUBAR 0x26, 0x0
0000035a                      main.o:_00757_DS_:
0000035a f7fc                 BTRSS 0x3, 0x0
0000035b c47b                 LGOTO 0x384; main.o:_00605_DS_=0x384
0000035c e0fc                 BCR 0x3, 0x6
0000035d fe95                 MOVR 0x6a, 0x0
0000035e dbfd                 XORIA 0x2
0000035f f6fc                 BTRSS 0x3, 0x2
00000360 c493                 LGOTO 0x36c; main.o:_00579_DS_=0x36c
00000361 deff                 MOVIA 0x0
00000362 fbd8                 SUBAR 0x27, 0x0
00000363 f6fc                 BTRSS 0x3, 0x2
00000364 c498                 LGOTO 0x367; main.o:_00758_DS_=0x367
00000365 de2c                 MOVIA 0xd3
00000366 fbd9                 SUBAR 0x26, 0x0
00000367                      main.o:_00758_DS_:
00000367 f7fc                 BTRSS 0x3, 0x0
00000368 c493                 LGOTO 0x36c; main.o:_00579_DS_=0x36c
00000369 defc                 MOVIA 0x3
0000036a e0fc                 BCR 0x3, 0x6
0000036b ff15                 MOVAR 0x6a
0000036c                      main.o:_00579_DS_:
0000036c defb                 MOVIA 0x4
0000036d e0fc                 BCR 0x3, 0x6
0000036e fb95                 SUBAR 0x6a, 0x0
0000036f f7fc                 BTRSS 0x3, 0x0
00000370 c482                 LGOTO 0x37d; main.o:_00583_DS_=0x37d
00000371 defe                 MOVIA 0x1
00000372 fbd8                 SUBAR 0x27, 0x0
00000373 f6fc                 BTRSS 0x3, 0x2
00000374 c488                 LGOTO 0x377; main.o:_00760_DS_=0x377
00000375 defb                 MOVIA 0x4
00000376 fbd9                 SUBAR 0x26, 0x0
00000377                      main.o:_00760_DS_:
00000377 f3fc                 BTRSC 0x3, 0x0
00000378 c47f                 LGOTO 0x380; main.o:_00584_DS_=0x380
00000379 defc                 MOVIA 0x3
0000037a e0fc                 BCR 0x3, 0x6
0000037b ff15                 MOVAR 0x6a
0000037c c47f                 LGOTO 0x380; main.o:_00584_DS_=0x380
0000037d                      main.o:_00583_DS_:
0000037d defc                 MOVIA 0x3
0000037e e0fc                 BCR 0x3, 0x6
0000037f ff15                 MOVAR 0x6a
00000380                      main.o:_00584_DS_:
00000380 e0fc                 BCR 0x3, 0x6
00000381 fd14                 CLRR 0x6b
00000382 fd13                 CLRR 0x6c
00000383 c42f                 LGOTO 0x3d0; main.o:_00619_DS_=0x3d0
00000384                      main.o:_00605_DS_:
00000384 deff                 MOVIA 0x0
00000385 e0fc                 BCR 0x3, 0x6
00000386 fbd8                 SUBAR 0x27, 0x0
00000387 f6fc                 BTRSS 0x3, 0x2
00000388 c474                 LGOTO 0x38b; main.o:_00761_DS_=0x38b
00000389 de9a                 MOVIA 0x65
0000038a fbd9                 SUBAR 0x26, 0x0
0000038b                      main.o:_00761_DS_:
0000038b f7fc                 BTRSS 0x3, 0x0
0000038c c44a                 LGOTO 0x3b5; main.o:_00602_DS_=0x3b5
0000038d e0fc                 BCR 0x3, 0x6
0000038e fe95                 MOVR 0x6a, 0x0
0000038f dbfe                 XORIA 0x1
00000390 f6fc                 BTRSS 0x3, 0x2
00000391 c462                 LGOTO 0x39d; main.o:_00588_DS_=0x39d
00000392 deff                 MOVIA 0x0
00000393 fbd8                 SUBAR 0x27, 0x0
00000394 f6fc                 BTRSS 0x3, 0x2
00000395 c467                 LGOTO 0x398; main.o:_00762_DS_=0x398
00000396 de90                 MOVIA 0x6f
00000397 fbd9                 SUBAR 0x26, 0x0
00000398                      main.o:_00762_DS_:
00000398 f7fc                 BTRSS 0x3, 0x0
00000399 c462                 LGOTO 0x39d; main.o:_00588_DS_=0x39d
0000039a defd                 MOVIA 0x2
0000039b e0fc                 BCR 0x3, 0x6
0000039c ff15                 MOVAR 0x6a
0000039d                      main.o:_00588_DS_:
0000039d defc                 MOVIA 0x3
0000039e e0fc                 BCR 0x3, 0x6
0000039f fb95                 SUBAR 0x6a, 0x0
000003a0 f7fc                 BTRSS 0x3, 0x0
000003a1 c451                 LGOTO 0x3ae; main.o:_00592_DS_=0x3ae
000003a2 deff                 MOVIA 0x0
000003a3 fbd8                 SUBAR 0x27, 0x0
000003a4 f6fc                 BTRSS 0x3, 0x2
000003a5 c457                 LGOTO 0x3a8; main.o:_00764_DS_=0x3a8
000003a6 de41                 MOVIA 0xbe
000003a7 fbd9                 SUBAR 0x26, 0x0
000003a8                      main.o:_00764_DS_:
000003a8 f3fc                 BTRSC 0x3, 0x0
000003a9 c44e                 LGOTO 0x3b1; main.o:_00593_DS_=0x3b1
000003aa defd                 MOVIA 0x2
000003ab e0fc                 BCR 0x3, 0x6
000003ac ff15                 MOVAR 0x6a
000003ad c44e                 LGOTO 0x3b1; main.o:_00593_DS_=0x3b1
000003ae                      main.o:_00592_DS_:
000003ae defd                 MOVIA 0x2
000003af e0fc                 BCR 0x3, 0x6
000003b0 ff15                 MOVAR 0x6a
000003b1                      main.o:_00593_DS_:
000003b1 e0fc                 BCR 0x3, 0x6
000003b2 fd14                 CLRR 0x6b
000003b3 fd13                 CLRR 0x6c
000003b4 c42f                 LGOTO 0x3d0; main.o:_00619_DS_=0x3d0
000003b5                      main.o:_00602_DS_:
000003b5 e0fc                 BCR 0x3, 0x6
000003b6 fed9                 MOVR 0x26, 0x0
000003b7 eed8                 IORAR 0x27, 0x0
000003b8 f2fc                 BTRSC 0x3, 0x2
000003b9 c42f                 LGOTO 0x3d0; main.o:_00619_DS_=0x3d0
000003ba defd                 MOVIA 0x2
000003bb fb95                 SUBAR 0x6a, 0x0
000003bc f7fc                 BTRSS 0x3, 0x0
000003bd c435                 LGOTO 0x3ca; main.o:_00597_DS_=0x3ca
000003be deff                 MOVIA 0x0
000003bf fbd8                 SUBAR 0x27, 0x0
000003c0 f6fc                 BTRSS 0x3, 0x2
000003c1 c43b                 LGOTO 0x3c4; main.o:_00766_DS_=0x3c4
000003c2 dea5                 MOVIA 0x5a
000003c3 fbd9                 SUBAR 0x26, 0x0
000003c4                      main.o:_00766_DS_:
000003c4 f3fc                 BTRSC 0x3, 0x0
000003c5 c432                 LGOTO 0x3cd; main.o:_00598_DS_=0x3cd
000003c6 defe                 MOVIA 0x1
000003c7 e0fc                 BCR 0x3, 0x6
000003c8 ff15                 MOVAR 0x6a
000003c9 c432                 LGOTO 0x3cd; main.o:_00598_DS_=0x3cd
000003ca                      main.o:_00597_DS_:
000003ca defe                 MOVIA 0x1
000003cb e0fc                 BCR 0x3, 0x6
000003cc ff15                 MOVAR 0x6a
000003cd                      main.o:_00598_DS_:
000003cd e0fc                 BCR 0x3, 0x6
000003ce fd14                 CLRR 0x6b
000003cf fd13                 CLRR 0x6c
000003d0                      main.o:_00619_DS_:
000003d0 ffef                 RET
000003d1                      _initAD:
000003d1 de7b                 MOVIA 0x84
000003d2 ff6f                 MOVAR 0x10
000003d3 fd6c                 CLRR 0x13
000003d4 deef                 MOVIA 0x10
000003d5 ff6e                 MOVAR 0x11
000003d6 defc                 MOVIA 0x3
000003d7 ff6b                 MOVAR 0x14
000003d8 e5ef                 BSR 0x10, 0x4
000003d9 de9b                 MOVIA 0x64
000003da d423                 LCALL 0x3dc; _delay=0x3dc
000003db ffef                 RET
000003dc                      _delay:
000003dc e0fc                 BCR 0x3, 0x6
000003dd ff47                 MOVAR 0x38
000003de fd46                 CLRR 0x39
000003df                      main.o:_00520_DS_:
000003df e0fc                 BCR 0x3, 0x6
000003e0 fec7                 MOVR 0x38, 0x0
000003e1 fbc6                 SUBAR 0x39, 0x0
000003e2 f3fc                 BTRSC 0x3, 0x0
000003e3 c418                 LGOTO 0x3e7; main.o:_00522_DS_=0x3e7
000003e4 ffff                 NOP
000003e5 fa46                 INCR 0x39, 0x1
000003e6 c420                 LGOTO 0x3df; main.o:_00520_DS_=0x3df
000003e7                      main.o:_00522_DS_:
000003e7 ffef                 RET
000003e8                      _chrgCtr:
000003e8 e0fc                 BCR 0x3, 0x6
000003e9 f27a                 BTRSC 0x5, 0x3
000003ea c40c                 LGOTO 0x3f3; main.o:_00483_DS_=0x3f3
000003eb deff                 MOVIA 0x0
000003ec fbdb                 SUBAR 0x24, 0x0
000003ed f6fc                 BTRSS 0x3, 0x2
000003ee c40e                 LGOTO 0x3f1; main.o:_00513_DS_=0x3f1
000003ef de36                 MOVIA 0xc9
000003f0 fbdc                 SUBAR 0x23, 0x0
000003f1                      main.o:_00513_DS_:
000003f1 f7fc                 BTRSS 0x3, 0x0
000003f2 c3cf                 LGOTO 0x430; main.o:_00484_DS_=0x430
000003f3                      main.o:_00483_DS_:
000003f3 e0fc                 BCR 0x3, 0x6
000003f4 e620                 BSR 0x5f, 0x3
000003f5 fd1c                 CLRR 0x63
000003f6 fd0a                 CLRR 0x75
000003f7 d36f                 LCALL 0x490; _pwmStop=0x490
000003f8 e0fc                 BCR 0x3, 0x6
000003f9 fe95                 MOVR 0x6a, 0x0
000003fa dbf8                 XORIA 0x7
000003fb f6fc                 BTRSS 0x3, 0x2
000003fc c3f3                 LGOTO 0x40c; main.o:_00479_DS_=0x40c
000003fd def9                 MOVIA 0x6
000003fe ff1b                 MOVAR 0x64
000003ff fa08                 INCR 0x77, 0x1
00000400 de9a                 MOVIA 0x65
00000401 fb88                 SUBAR 0x77, 0x0
00000402 f3fc                 BTRSC 0x3, 0x0
00000403 d35f                 LCALL 0x4a0; _pwm1Stop=0x4a0
00000404 e279                 BCR 0x6, 0x3
00000405 ffe9                 IOSTR 0x6
00000406 e0fc                 BCR 0x3, 0x6
00000407 ff48                 MOVAR 0x37
00000408 e648                 BSR 0x37, 0x3
00000409 fec8                 MOVR 0x37, 0x0
0000040a fff9                 IOST 0x6
0000040b c3c2                 LGOTO 0x43d; main.o:_00487_DS_=0x43d
0000040c                      main.o:_00479_DS_:
0000040c ffe9                 IOSTR 0x6
0000040d e0fc                 BCR 0x3, 0x6
0000040e ff48                 MOVAR 0x37
0000040f e248                 BCR 0x37, 0x3
00000410 fec8                 MOVR 0x37, 0x0
00000411 fff9                 IOST 0x6
00000412 fe9e                 MOVR 0x61, 0x0
00000413 f6fc                 BTRSS 0x3, 0x2
00000414 c3e3                 LGOTO 0x41c; main.o:_00471_DS_=0x41c
00000415 fa1b                 INCR 0x64, 0x1
00000416 def8                 MOVIA 0x7
00000417 fb9b                 SUBAR 0x64, 0x0
00000418 f7fc                 BTRSS 0x3, 0x0
00000419 c3e3                 LGOTO 0x41c; main.o:_00471_DS_=0x41c
0000041a f995                 DECR 0x6a, 0x0
0000041b ff1b                 MOVAR 0x64
0000041c                      main.o:_00471_DS_:
0000041c defd                 MOVIA 0x2
0000041d e0fc                 BCR 0x3, 0x6
0000041e fb95                 SUBAR 0x6a, 0x0
0000041f f3fc                 BTRSC 0x3, 0x0
00000420 c3db                 LGOTO 0x424; main.o:_00476_DS_=0x424
00000421 defc                 MOVIA 0x3
00000422 ffbc                 SFUN 0x3
00000423 c3d1                 LGOTO 0x42e; main.o:_00477_DS_=0x42e
00000424                      main.o:_00476_DS_:
00000424 defa                 MOVIA 0x5
00000425 e0fc                 BCR 0x3, 0x6
00000426 fb95                 SUBAR 0x6a, 0x0
00000427 f3fc                 BTRSC 0x3, 0x0
00000428 c3d3                 LGOTO 0x42c; main.o:_00473_DS_=0x42c
00000429 def9                 MOVIA 0x6
0000042a ffbc                 SFUN 0x3
0000042b c3d1                 LGOTO 0x42e; main.o:_00477_DS_=0x42e
0000042c                      main.o:_00473_DS_:
0000042c def8                 MOVIA 0x7
0000042d ffbc                 SFUN 0x3
0000042e                      main.o:_00477_DS_:
0000042e d35c                 LCALL 0x4a3; _pwm1Init=0x4a3
0000042f c3c2                 LGOTO 0x43d; main.o:_00487_DS_=0x43d
00000430                      main.o:_00484_DS_:
00000430 e0fc                 BCR 0x3, 0x6
00000431 fd14                 CLRR 0x6b
00000432 fd13                 CLRR 0x6c
00000433 d35f                 LCALL 0x4a0; _pwm1Stop=0x4a0
00000434 e0fc                 BCR 0x3, 0x6
00000435 fe9c                 MOVR 0x63, 0x0
00000436 f6fc                 BTRSS 0x3, 0x2
00000437 c3c6                 LGOTO 0x439; main.o:_00007_DS_=0x439
00000438 fd1b                 CLRR 0x64
00000439                      main.o:_00007_DS_:
00000439 e0fc                 BCR 0x3, 0x6
0000043a e220                 BCR 0x5f, 0x3
0000043b fd14                 CLRR 0x6b
0000043c fd13                 CLRR 0x6c
0000043d                      main.o:_00487_DS_:
0000043d ffef                 RET
0000043e                      _keyRead:
0000043e e0fc                 BCR 0x3, 0x6
0000043f ff49                 MOVAR 0x36
00000440 fec9                 MOVR 0x36, 0x0
00000441 f2fc                 BTRSC 0x3, 0x2
00000442 c3b0                 LGOTO 0x44f; main.o:_00459_DS_=0x44f
00000443 fa1d                 INCR 0x62, 0x1
00000444 de9b                 MOVIA 0x64
00000445 fb9d                 SUBAR 0x62, 0x0
00000446 f7fc                 BTRSS 0x3, 0x0
00000447 c39d                 LGOTO 0x462; main.o:_00460_DS_=0x462
00000448 de9b                 MOVIA 0x64
00000449 ff1d                 MOVAR 0x62
0000044a f320                 BTRSC 0x5f, 0x1
0000044b c39d                 LGOTO 0x462; main.o:_00460_DS_=0x462
0000044c e720                 BSR 0x5f, 0x1
0000044d defd                 MOVIA 0x2
0000044e c39c                 LGOTO 0x463; main.o:_00461_DS_=0x463
0000044f                      main.o:_00459_DS_:
0000044f de9b                 MOVIA 0x64
00000450 e0fc                 BCR 0x3, 0x6
00000451 fb9d                 SUBAR 0x62, 0x0
00000452 f7fc                 BTRSS 0x3, 0x0
00000453 c3a7                 LGOTO 0x458; main.o:_00456_DS_=0x458
00000454 fd1d                 CLRR 0x62
00000455 e320                 BCR 0x5f, 0x1
00000456 deff                 MOVIA 0x0
00000457 c39c                 LGOTO 0x463; main.o:_00461_DS_=0x463
00000458                      main.o:_00456_DS_:
00000458 def7                 MOVIA 0x8
00000459 e0fc                 BCR 0x3, 0x6
0000045a fb9d                 SUBAR 0x62, 0x0
0000045b f7fc                 BTRSS 0x3, 0x0
0000045c c39f                 LGOTO 0x460; main.o:_00457_DS_=0x460
0000045d fd1d                 CLRR 0x62
0000045e defe                 MOVIA 0x1
0000045f c39c                 LGOTO 0x463; main.o:_00461_DS_=0x463
00000460                      main.o:_00457_DS_:
00000460 e0fc                 BCR 0x3, 0x6
00000461 fd1d                 CLRR 0x62
00000462                      main.o:_00460_DS_:
00000462 deff                 MOVIA 0x0
00000463                      main.o:_00461_DS_:
00000463 ffef                 RET
00000464                      _gotoSleep:
00000464 fd79                 CLRR 0x6
00000465 e0fc                 BCR 0x3, 0x6
00000466 fd7a                 CLRR 0x5
00000467 ffea                 IOSTR 0x5
00000468 ff4a                 MOVAR 0x35
00000469 e4ca                 BSR 0x35, 0x6
0000046a feca                 MOVR 0x35, 0x0
0000046b fffa                 IOST 0x5
0000046c d2e9                 LCALL 0x516; _LedInput=0x516
0000046d e0fc                 BCR 0x3, 0x6
0000046e fd12                 CLRR 0x6d
0000046f fd11                 CLRR 0x6e
00000470 d36f                 LCALL 0x490; _pwmStop=0x490
00000471 d35f                 LCALL 0x4a0; _pwm1Stop=0x4a0
00000472 e0fc                 BCR 0x3, 0x6
00000473 fd1c                 CLRR 0x63
00000474 de67                 MOVIA 0x98
00000475 ff6a                 MOVAR 0x15
00000476 fd18                 CLRR 0x67
00000477 fd17                 CLRR 0x68
00000478 fd1a                 CLRR 0x65
00000479 fd19                 CLRR 0x66
0000047a e2a0                 BCR 0x5f, 0x2
0000047b def4                 MOVIA 0xb
0000047c ff71                 MOVAR 0xe
0000047d dee7                 MOVIA 0x18
0000047e ff77                 MOVAR 0x8
0000047f fd70                 CLRR 0xf
00000480 fffd                 CLRWDT
00000481 fffb                 ENI
00000482 fffe                 SLEEP
00000483 fd6a                 CLRR 0x15
00000484 ffea                 IOSTR 0x5
00000485 ff4a                 MOVAR 0x35
00000486 e0ca                 BCR 0x35, 0x6
00000487 feca                 MOVR 0x35, 0x0
00000488 fffa                 IOST 0x5
00000489 e0f9                 BCR 0x6, 0x6
0000048a defe                 MOVIA 0x1
0000048b ff71                 MOVAR 0xe
0000048c fd70                 CLRR 0xf
0000048d de47                 MOVIA 0xb8
0000048e ff77                 MOVAR 0x8
0000048f ffef                 RET
00000490                      _pwmStop:
00000490 fdff                 CLRA
00000491 ffb5                 SFUN 0xa
00000492 ffef                 RET
00000493                      _pwmInit:
00000493 ff95                 SFUNR 0xa
00000494 e0fc                 BCR 0x3, 0x6
00000495 ff4b                 MOVAR 0x34
00000496 f04b                 BTRSC 0x34, 0x7
00000497 c360                 LGOTO 0x49f; main.o:_00436_DS_=0x49f
00000498 fd66                 CLRR 0x19
00000499 de9b                 MOVIA 0x64
0000049a ffb6                 SFUN 0x9
0000049b fdff                 CLRA
0000049c ffb4                 SFUN 0xb
0000049d de7c                 MOVIA 0x83
0000049e ffb5                 SFUN 0xa
0000049f                      main.o:_00436_DS_:
0000049f ffef                 RET
000004a0                      _pwm1Stop:
000004a0 fdff                 CLRA
000004a1 ffbe                 SFUN 0x1
000004a2 ffef                 RET
000004a3                      _pwm1Init:
000004a3 ff9e                 SFUNR 0x1
000004a4 e0fc                 BCR 0x3, 0x6
000004a5 ff4c                 MOVAR 0x33
000004a6 f04c                 BTRSC 0x33, 0x7
000004a7 c350                 LGOTO 0x4af; main.o:_00425_DS_=0x4af
000004a8 fd66                 CLRR 0x19
000004a9 def3                 MOVIA 0xc
000004aa ffbf                 SFUN 0x0
000004ab fdff                 CLRA
000004ac ffbd                 SFUN 0x2
000004ad de7c                 MOVIA 0x83
000004ae ffbe                 SFUN 0x1
000004af                      main.o:_00425_DS_:
000004af ffef                 RET
000004b0                      _LED6ON:
000004b0 ffea                 IOSTR 0x5
000004b1 e0fc                 BCR 0x3, 0x6
000004b2 ff4d                 MOVAR 0x32
000004b3 e3cd                 BCR 0x32, 0x0
000004b4 fecd                 MOVR 0x32, 0x0
000004b5 fffa                 IOST 0x5
000004b6 ffe9                 IOSTR 0x6
000004b7 ff4d                 MOVAR 0x32
000004b8 e34d                 BCR 0x32, 0x1
000004b9 fecd                 MOVR 0x32, 0x0
000004ba fff9                 IOST 0x6
000004bb e779                 BSR 0x6, 0x1
000004bc e3fa                 BCR 0x5, 0x0
000004bd de9b                 MOVIA 0x64
000004be d423                 LCALL 0x3dc; _delay=0x3dc
000004bf d2e9                 LCALL 0x516; _LedInput=0x516
000004c0 ffef                 RET
000004c1                      _LED5ON:
000004c1 ffea                 IOSTR 0x5
000004c2 e0fc                 BCR 0x3, 0x6
000004c3 ff4e                 MOVAR 0x31
000004c4 e3ce                 BCR 0x31, 0x0
000004c5 fece                 MOVR 0x31, 0x0
000004c6 fffa                 IOST 0x5
000004c7 ffe9                 IOSTR 0x6
000004c8 ff4e                 MOVAR 0x31
000004c9 e34e                 BCR 0x31, 0x1
000004ca fece                 MOVR 0x31, 0x0
000004cb fff9                 IOST 0x6
000004cc e7fa                 BSR 0x5, 0x0
000004cd e379                 BCR 0x6, 0x1
000004ce de9b                 MOVIA 0x64
000004cf d423                 LCALL 0x3dc; _delay=0x3dc
000004d0 d2e9                 LCALL 0x516; _LedInput=0x516
000004d1 ffef                 RET
000004d2                      _LED4ON:
000004d2 ffe9                 IOSTR 0x6
000004d3 e0fc                 BCR 0x3, 0x6
000004d4 ff4f                 MOVAR 0x30
000004d5 e3cf                 BCR 0x30, 0x0
000004d6 fecf                 MOVR 0x30, 0x0
000004d7 fff9                 IOST 0x6
000004d8 ffea                 IOSTR 0x5
000004d9 ff4f                 MOVAR 0x30
000004da e3cf                 BCR 0x30, 0x0
000004db fecf                 MOVR 0x30, 0x0
000004dc fffa                 IOST 0x5
000004dd e7f9                 BSR 0x6, 0x0
000004de e3fa                 BCR 0x5, 0x0
000004df de9b                 MOVIA 0x64
000004e0 d423                 LCALL 0x3dc; _delay=0x3dc
000004e1 d2e9                 LCALL 0x516; _LedInput=0x516
000004e2 ffef                 RET
000004e3                      _LED3ON:
000004e3 ffe9                 IOSTR 0x6
000004e4 e0fc                 BCR 0x3, 0x6
000004e5 ff50                 MOVAR 0x2f
000004e6 e3d0                 BCR 0x2f, 0x0
000004e7 fed0                 MOVR 0x2f, 0x0
000004e8 fff9                 IOST 0x6
000004e9 ffe9                 IOSTR 0x6
000004ea ff50                 MOVAR 0x2f
000004eb e350                 BCR 0x2f, 0x1
000004ec fed0                 MOVR 0x2f, 0x0
000004ed fff9                 IOST 0x6
000004ee e779                 BSR 0x6, 0x1
000004ef e3f9                 BCR 0x6, 0x0
000004f0 de9b                 MOVIA 0x64
000004f1 d423                 LCALL 0x3dc; _delay=0x3dc
000004f2 d2e9                 LCALL 0x516; _LedInput=0x516
000004f3 ffef                 RET
000004f4                      _LED2ON:
000004f4 ffea                 IOSTR 0x5
000004f5 e0fc                 BCR 0x3, 0x6
000004f6 ff51                 MOVAR 0x2e
000004f7 e3d1                 BCR 0x2e, 0x0
000004f8 fed1                 MOVR 0x2e, 0x0
000004f9 fffa                 IOST 0x5
000004fa ffe9                 IOSTR 0x6
000004fb ff51                 MOVAR 0x2e
000004fc e3d1                 BCR 0x2e, 0x0
000004fd fed1                 MOVR 0x2e, 0x0
000004fe fff9                 IOST 0x6
000004ff e7fa                 BSR 0x5, 0x0
00000500 e3f9                 BCR 0x6, 0x0
00000501 de9b                 MOVIA 0x64
00000502 d423                 LCALL 0x3dc; _delay=0x3dc
00000503 d2e9                 LCALL 0x516; _LedInput=0x516
00000504 ffef                 RET
00000505                      _LED1ON:
00000505 ffe9                 IOSTR 0x6
00000506 e0fc                 BCR 0x3, 0x6
00000507 ff52                 MOVAR 0x2d
00000508 e3d2                 BCR 0x2d, 0x0
00000509 fed2                 MOVR 0x2d, 0x0
0000050a fff9                 IOST 0x6
0000050b ffe9                 IOSTR 0x6
0000050c ff52                 MOVAR 0x2d
0000050d e352                 BCR 0x2d, 0x1
0000050e fed2                 MOVR 0x2d, 0x0
0000050f fff9                 IOST 0x6
00000510 e7f9                 BSR 0x6, 0x0
00000511 e379                 BCR 0x6, 0x1
00000512 de9b                 MOVIA 0x64
00000513 d423                 LCALL 0x3dc; _delay=0x3dc
00000514 d2e9                 LCALL 0x516; _LedInput=0x516
00000515 ffef                 RET
00000516                      _LedInput:
00000516 ffea                 IOSTR 0x5
00000517 e0fc                 BCR 0x3, 0x6
00000518 ff53                 MOVAR 0x2c
00000519 e7d3                 BSR 0x2c, 0x0
0000051a fed3                 MOVR 0x2c, 0x0
0000051b fffa                 IOST 0x5
0000051c ffe9                 IOSTR 0x6
0000051d ff53                 MOVAR 0x2c
0000051e defc                 MOVIA 0x3
0000051f ee53                 IORAR 0x2c, 0x1
00000520 fed3                 MOVR 0x2c, 0x0
00000521 fff9                 IOST 0x6
00000522 e3fa                 BCR 0x5, 0x0
00000523 de03                 MOVIA 0xfc
00000524 ef79                 ANDAR 0x6, 0x1
00000525 ffef                 RET
00000526                      _ledShow:
00000526 e4fc                 BSR 0x3, 0x6
00000527 fedf                 MOVR 0x20, 0x0
00000528 eede                 IORAR 0x21, 0x0
00000529 f2fc                 BTRSC 0x3, 0x2
0000052a c2af                 LGOTO 0x550; main.o:_00008_DS_=0x550
0000052b de00                 MOVIA 0xff
0000052c fc5f                 ADDAR 0x20, 0x1
0000052d f7fc                 BTRSS 0x3, 0x0
0000052e f95e                 DECR 0x21, 0x1
0000052f ded7                 MOVIA 0x28
00000530 ff3c                 MOVAR 0x43
00000531 deff                 MOVIA 0x0
00000532 ff3b                 MOVAR 0x44
00000533 fedf                 MOVR 0x20, 0x0
00000534 ff3a                 MOVAR 0x45
00000535 fede                 MOVR 0x21, 0x0
00000536 d18c                 LCALL 0x673; __moduint=0x673
00000537 e0fc                 BCR 0x3, 0x6
00000538 ff54                 MOVAR 0x2b
00000539 feba                 MOVR 0x45, 0x0
0000053a ff55                 MOVAR 0x2a
0000053b deff                 MOVIA 0x0
0000053c fbd4                 SUBAR 0x2b, 0x0
0000053d f6fc                 BTRSS 0x3, 0x2
0000053e c2be                 LGOTO 0x541; main.o:_00384_DS_=0x541
0000053f deeb                 MOVIA 0x14
00000540 fbd5                 SUBAR 0x2a, 0x0
00000541                      main.o:_00384_DS_:
00000541 f3fc                 BTRSC 0x3, 0x0
00000542 c2b9                 LGOTO 0x546; main.o:_00294_DS_=0x546
00000543 e0fc                 BCR 0x3, 0x6
00000544 fd1b                 CLRR 0x64
00000545 c2b6                 LGOTO 0x549; main.o:_00295_DS_=0x549
00000546                      main.o:_00294_DS_:
00000546 e0fc                 BCR 0x3, 0x6
00000547 fe80                 MOVR 0x7f, 0x0
00000548 ff1b                 MOVAR 0x64
00000549                      main.o:_00295_DS_:
00000549 e4fc                 BSR 0x3, 0x6
0000054a fedf                 MOVR 0x20, 0x0
0000054b eede                 IORAR 0x21, 0x0
0000054c f6fc                 BTRSS 0x3, 0x2
0000054d c2af                 LGOTO 0x550; main.o:_00008_DS_=0x550
0000054e e0fc                 BCR 0x3, 0x6
0000054f fd00                 CLRR 0x7f
00000550                      main.o:_00008_DS_:
00000550 defa                 MOVIA 0x5
00000551 e0fc                 BCR 0x3, 0x6
00000552 fb8b                 SUBAR 0x74, 0x0
00000553 f7fc                 BTRSS 0x3, 0x0
00000554 c295                 LGOTO 0x56a; main.o:_00303_DS_=0x56a
00000555 fe9c                 MOVR 0x63, 0x0
00000556 f2fc                 BTRSC 0x3, 0x2
00000557 c295                 LGOTO 0x56a; main.o:_00303_DS_=0x56a
00000558 defe                 MOVIA 0x1
00000559 fb81                 SUBAR 0x7e, 0x0
0000055a f6fc                 BTRSS 0x3, 0x2
0000055b c2a1                 LGOTO 0x55e; main.o:_00386_DS_=0x55e
0000055c de0b                 MOVIA 0xf4
0000055d fb82                 SUBAR 0x7d, 0x0
0000055e                      main.o:_00386_DS_:
0000055e f7fc                 BTRSS 0x3, 0x0
0000055f c295                 LGOTO 0x56a; main.o:_00303_DS_=0x56a
00000560 de0b                 MOVIA 0xf4
00000561 e4fc                 BSR 0x3, 0x6
00000562 ff5f                 MOVAR 0x20
00000563 defe                 MOVIA 0x1
00000564 ff5e                 MOVAR 0x21
00000565 e0fc                 BCR 0x3, 0x6
00000566 fe9c                 MOVR 0x63, 0x0
00000567 ff00                 MOVAR 0x7f
00000568 fd1c                 CLRR 0x63
00000569 d36f                 LCALL 0x490; _pwmStop=0x490
0000056a                      main.o:_00303_DS_:
0000056a e0fc                 BCR 0x3, 0x6
0000056b fe8a                 MOVR 0x75, 0x0
0000056c f2fc                 BTRSC 0x3, 0x2
0000056d c280                 LGOTO 0x57f; main.o:_00311_DS_=0x57f
0000056e fe95                 MOVR 0x6a, 0x0
0000056f f2fc                 BTRSC 0x3, 0x2
00000570 c280                 LGOTO 0x57f; main.o:_00311_DS_=0x57f
00000571 fe8a                 MOVR 0x75, 0x0
00000572 dbf9                 XORIA 0x6
00000573 f6fc                 BTRSS 0x3, 0x2
00000574 c280                 LGOTO 0x57f; main.o:_00311_DS_=0x57f
00000575 def8                 MOVIA 0x7
00000576 fb95                 SUBAR 0x6a, 0x0
00000577 f7fc                 BTRSS 0x3, 0x0
00000578 c283                 LGOTO 0x57c; main.o:_00306_DS_=0x57c
00000579 def9                 MOVIA 0x6
0000057a ff1b                 MOVAR 0x64
0000057b c280                 LGOTO 0x57f; main.o:_00311_DS_=0x57f
0000057c                      main.o:_00306_DS_:
0000057c e0fc                 BCR 0x3, 0x6
0000057d fe95                 MOVR 0x6a, 0x0
0000057e ff1b                 MOVAR 0x64
0000057f                      main.o:_00311_DS_:
0000057f e0fc                 BCR 0x3, 0x6
00000580 fe87                 MOVR 0x78, 0x0
00000581 f2fc                 BTRSC 0x3, 0x2
00000582 c26d                 LGOTO 0x592; main.o:_00317_DS_=0x592
00000583 fe9c                 MOVR 0x63, 0x0
00000584 f2fc                 BTRSC 0x3, 0x2
00000585 c26d                 LGOTO 0x592; main.o:_00317_DS_=0x592
00000586 fe95                 MOVR 0x6a, 0x0
00000587 f6fc                 BTRSS 0x3, 0x2
00000588 c26d                 LGOTO 0x592; main.o:_00317_DS_=0x592
00000589 decd                 MOVIA 0x32
0000058a fb8f                 SUBAR 0x70, 0x0
0000058b f3fc                 BTRSC 0x3, 0x0
0000058c c26f                 LGOTO 0x590; main.o:_00314_DS_=0x590
0000058d fe9c                 MOVR 0x63, 0x0
0000058e ff1b                 MOVAR 0x64
0000058f c26d                 LGOTO 0x592; main.o:_00317_DS_=0x592
00000590                      main.o:_00314_DS_:
00000590 e0fc                 BCR 0x3, 0x6
00000591 fd1b                 CLRR 0x64
00000592                      main.o:_00317_DS_:
00000592 e0fc                 BCR 0x3, 0x6
00000593 fe87                 MOVR 0x78, 0x0
00000594 f6fc                 BTRSS 0x3, 0x2
00000595 c263                 LGOTO 0x59c; main.o:_00321_DS_=0x59c
00000596 fe95                 MOVR 0x6a, 0x0
00000597 f6fc                 BTRSS 0x3, 0x2
00000598 c263                 LGOTO 0x59c; main.o:_00321_DS_=0x59c
00000599 fd1c                 CLRR 0x63
0000059a fd1b                 CLRR 0x64
0000059b d36f                 LCALL 0x490; _pwmStop=0x490
0000059c                      main.o:_00321_DS_:
0000059c d2e9                 LCALL 0x516; _LedInput=0x516
0000059d def8                 MOVIA 0x7
0000059e e0fc                 BCR 0x3, 0x6
0000059f fb9b                 SUBAR 0x64, 0x0
000005a0 f3fc                 BTRSC 0x3, 0x0
000005a1 c247                 LGOTO 0x5b8; main.o:_00331_DS_=0x5b8
000005a2 defa                 MOVIA 0x5
000005a3 ff75                 MOVAR 0xa
000005a4 fe9b                 MOVR 0x64, 0x0
000005a5 da56                 ADDIA 0xa9
000005a6 f3fc                 BTRSC 0x3, 0x0
000005a7 fa75                 INCR 0xa, 0x1
000005a8 ff7d                 MOVAR 0x2
000005a9                      main.o:_00390_DS_:
000005a9 c24f                 LGOTO 0x5b0; main.o:_00323_DS_=0x5b0
000005aa c248                 LGOTO 0x5b7; main.o:_00329_DS_=0x5b7
000005ab c249                 LGOTO 0x5b6; main.o:_00328_DS_=0x5b6
000005ac c24a                 LGOTO 0x5b5; main.o:_00327_DS_=0x5b5
000005ad c24b                 LGOTO 0x5b4; main.o:_00326_DS_=0x5b4
000005ae c24c                 LGOTO 0x5b3; main.o:_00325_DS_=0x5b3
000005af c24d                 LGOTO 0x5b2; main.o:_00324_DS_=0x5b2
000005b0                      main.o:_00323_DS_:
000005b0 d2e9                 LCALL 0x516; _LedInput=0x516
000005b1 c247                 LGOTO 0x5b8; main.o:_00331_DS_=0x5b8
000005b2                      main.o:_00324_DS_:
000005b2 d34f                 LCALL 0x4b0; _LED6ON=0x4b0
000005b3                      main.o:_00325_DS_:
000005b3 d33e                 LCALL 0x4c1; _LED5ON=0x4c1
000005b4                      main.o:_00326_DS_:
000005b4 d32d                 LCALL 0x4d2; _LED4ON=0x4d2
000005b5                      main.o:_00327_DS_:
000005b5 d31c                 LCALL 0x4e3; _LED3ON=0x4e3
000005b6                      main.o:_00328_DS_:
000005b6 d30b                 LCALL 0x4f4; _LED2ON=0x4f4
000005b7                      main.o:_00329_DS_:
000005b7 d2fa                 LCALL 0x505; _LED1ON=0x505
000005b8                      main.o:_00331_DS_:
000005b8 ffef                 RET
000005b9                      _initSys:
000005b9 ffec                 DISI
000005ba de41                 MOVIA 0xbe
000005bb fffa                 IOST 0x5
000005bc fdff                 CLRA
000005bd fff9                 IOST 0x6
000005be fd79                 CLRR 0x6
000005bf e0fc                 BCR 0x3, 0x6
000005c0 fd7a                 CLRR 0x5
000005c1 d2e9                 LCALL 0x516; _LedInput=0x516
000005c2 de80                 MOVIA 0x7f
000005c3 fff6                 IOST 0x9
000005c4 de00                 MOVIA 0xff
000005c5 ff73                 MOVAR 0xc
000005c6 ff74                 MOVAR 0xb
000005c7 defe                 MOVIA 0x1
000005c8 ff71                 MOVAR 0xe
000005c9 fdff                 CLRA
000005ca fff0                 IOST 0xf
000005cb dec8                 MOVIA 0x37
000005cc ff7e                 MOVAR 0x1
000005cd fdff                 CLRA
000005ce fffc                 T0MD
000005cf defe                 MOVIA 0x1
000005d0 fff0                 IOST 0xf
000005d1 de67                 MOVIA 0x98
000005d2 ff77                 MOVAR 0x8
000005d3 defe                 MOVIA 0x1
000005d4 fff0                 IOST 0xf
000005d5 fffb                 ENI
000005d6 ffef                 RET
000005d7                      _powerOff:
000005d7 e0fc                 BCR 0x3, 0x6
000005d8 fd1c                 CLRR 0x63
000005d9 d36f                 LCALL 0x490; _pwmStop=0x490
000005da defa                 MOVIA 0x5
000005db e0fc                 BCR 0x3, 0x6
000005dc ff1b                 MOVAR 0x64
000005dd ffef                 RET
000005de                      _keyCtr:
000005de e0fc                 BCR 0x3, 0x6
000005df f8fa                 COMR 0x5, 0x0
000005e0 ff56                 MOVAR 0x29
000005e1 de7f                 MOVIA 0x80
000005e2 ef56                 ANDAR 0x29, 0x1
000005e3 fed6                 MOVR 0x29, 0x0
000005e4 d3c1                 LCALL 0x43e; _keyRead=0x43e
000005e5 e0fc                 BCR 0x3, 0x6
000005e6 ff56                 MOVAR 0x29
000005e7 dbfe                 XORIA 0x1
000005e8 f6fc                 BTRSS 0x3, 0x2
000005e9 c1c7                 LGOTO 0x638; main.o:_00278_DS_=0x638
000005ea fd1e                 CLRR 0x61
000005eb fd0a                 CLRR 0x75
000005ec fe9c                 MOVR 0x63, 0x0
000005ed f6fc                 BTRSS 0x3, 0x2
000005ee c20c                 LGOTO 0x5f3; main.o:_00248_DS_=0x5f3
000005ef fd0f                 CLRR 0x70
000005f0 def9                 MOVIA 0x6
000005f1 ff0a                 MOVAR 0x75
000005f2 c1a6                 LGOTO 0x659; main.o:_00280_DS_=0x659
000005f3                      main.o:_00248_DS_:
000005f3 e0fc                 BCR 0x3, 0x6
000005f4 fd0c                 CLRR 0x73
000005f5 fa1c                 INCR 0x63, 0x1
000005f6 def8                 MOVIA 0x7
000005f7 fb9c                 SUBAR 0x63, 0x0
000005f8 f7fc                 BTRSS 0x3, 0x0
000005f9 c203                 LGOTO 0x5fc; main.o:_00250_DS_=0x5fc
000005fa defe                 MOVIA 0x1
000005fb ff1c                 MOVAR 0x63
000005fc                      main.o:_00250_DS_:
000005fc def9                 MOVIA 0x6
000005fd e0fc                 BCR 0x3, 0x6
000005fe ff07                 MOVAR 0x78
000005ff fe9c                 MOVR 0x63, 0x0
00000600 dbfe                 XORIA 0x1
00000601 f6fc                 BTRSS 0x3, 0x2
00000602 c1f9                 LGOTO 0x606; main.o:_00266_DS_=0x606
00000603 ded7                 MOVIA 0x28
00000604 ff16                 MOVAR 0x69
00000605 c1d2                 LGOTO 0x62d; main.o:_00267_DS_=0x62d
00000606                      main.o:_00266_DS_:
00000606 e0fc                 BCR 0x3, 0x6
00000607 fe9c                 MOVR 0x63, 0x0
00000608 dbfd                 XORIA 0x2
00000609 f6fc                 BTRSS 0x3, 0x2
0000060a c1f1                 LGOTO 0x60e; main.o:_00263_DS_=0x60e
0000060b ded5                 MOVIA 0x2a
0000060c ff16                 MOVAR 0x69
0000060d c1d2                 LGOTO 0x62d; main.o:_00267_DS_=0x62d
0000060e                      main.o:_00263_DS_:
0000060e e0fc                 BCR 0x3, 0x6
0000060f fe9c                 MOVR 0x63, 0x0
00000610 dbfc                 XORIA 0x3
00000611 f6fc                 BTRSS 0x3, 0x2
00000612 c1e9                 LGOTO 0x616; main.o:_00260_DS_=0x616
00000613 ded3                 MOVIA 0x2c
00000614 ff16                 MOVAR 0x69
00000615 c1d2                 LGOTO 0x62d; main.o:_00267_DS_=0x62d
00000616                      main.o:_00260_DS_:
00000616 e0fc                 BCR 0x3, 0x6
00000617 fe9c                 MOVR 0x63, 0x0
00000618 dbfb                 XORIA 0x4
00000619 f6fc                 BTRSS 0x3, 0x2
0000061a c1e1                 LGOTO 0x61e; main.o:_00257_DS_=0x61e
0000061b ded1                 MOVIA 0x2e
0000061c ff16                 MOVAR 0x69
0000061d c1d2                 LGOTO 0x62d; main.o:_00267_DS_=0x62d
0000061e                      main.o:_00257_DS_:
0000061e e0fc                 BCR 0x3, 0x6
0000061f fe9c                 MOVR 0x63, 0x0
00000620 dbfa                 XORIA 0x5
00000621 f6fc                 BTRSS 0x3, 0x2
00000622 c1d9                 LGOTO 0x626; main.o:_00254_DS_=0x626
00000623 decf                 MOVIA 0x30
00000624 ff16                 MOVAR 0x69
00000625 c1d2                 LGOTO 0x62d; main.o:_00267_DS_=0x62d
00000626                      main.o:_00254_DS_:
00000626 e0fc                 BCR 0x3, 0x6
00000627 fe9c                 MOVR 0x63, 0x0
00000628 dbf9                 XORIA 0x6
00000629 f6fc                 BTRSS 0x3, 0x2
0000062a c1d2                 LGOTO 0x62d; main.o:_00267_DS_=0x62d
0000062b decd                 MOVIA 0x32
0000062c ff16                 MOVAR 0x69
0000062d                      main.o:_00267_DS_:
0000062d e0fc                 BCR 0x3, 0x6
0000062e fe9c                 MOVR 0x63, 0x0
0000062f f2fc                 BTRSC 0x3, 0x2
00000630 c1cb                 LGOTO 0x634; main.o:_00269_DS_=0x634
00000631 fe96                 MOVR 0x69, 0x0
00000632 ffb3                 SFUN 0xc
00000633 d36c                 LCALL 0x493; _pwmInit=0x493
00000634                      main.o:_00269_DS_:
00000634 e0fc                 BCR 0x3, 0x6
00000635 fe9c                 MOVR 0x63, 0x0
00000636 ff1b                 MOVAR 0x64
00000637 c1a6                 LGOTO 0x659; main.o:_00280_DS_=0x659
00000638                      main.o:_00278_DS_:
00000638 e0fc                 BCR 0x3, 0x6
00000639 fed6                 MOVR 0x29, 0x0
0000063a dbfd                 XORIA 0x2
0000063b f6fc                 BTRSS 0x3, 0x2
0000063c c1a6                 LGOTO 0x659; main.o:_00280_DS_=0x659
0000063d fe9c                 MOVR 0x63, 0x0
0000063e f2fc                 BTRSC 0x3, 0x2
0000063f c1bd                 LGOTO 0x642; main.o:_00273_DS_=0x642
00000640 d228                 LCALL 0x5d7; _powerOff=0x5d7
00000641 c1a9                 LGOTO 0x656; main.o:_00274_DS_=0x656
00000642                      main.o:_00273_DS_:
00000642 e0fc                 BCR 0x3, 0x6
00000643 fe95                 MOVR 0x6a, 0x0
00000644 dbf5                 XORIA 0xa
00000645 f6fc                 BTRSS 0x3, 0x2
00000646 c1b5                 LGOTO 0x64a; main.o:_00271_DS_=0x64a
00000647 fd12                 CLRR 0x6d
00000648 fd11                 CLRR 0x6e
00000649 c1a6                 LGOTO 0x659; main.o:_00280_DS_=0x659
0000064a                      main.o:_00271_DS_:
0000064a defe                 MOVIA 0x1
0000064b e0fc                 BCR 0x3, 0x6
0000064c ff1c                 MOVAR 0x63
0000064d dea5                 MOVIA 0x5a
0000064e ffb3                 SFUN 0xc
0000064f ff09                 MOVAR 0x76
00000650 ded7                 MOVIA 0x28
00000651 ff16                 MOVAR 0x69
00000652 d36c                 LCALL 0x493; _pwmInit=0x493
00000653 deef                 MOVIA 0x10
00000654 e0fc                 BCR 0x3, 0x6
00000655 ff07                 MOVAR 0x78
00000656                      main.o:_00274_DS_:
00000656 e0fc                 BCR 0x3, 0x6
00000657 fe9c                 MOVR 0x63, 0x0
00000658 ff1b                 MOVAR 0x64
00000659                      main.o:_00280_DS_:
00000659 ffef                 RET
0000065a                      __mulchar:
0000065a e0fc                 BCR 0x3, 0x6
0000065b ff2d                 MOVAR 0x52
0000065c feba                 MOVR 0x45, 0x0
0000065d ff2c                 MOVAR 0x53
0000065e fd2b                 CLRR 0x54
0000065f def7                 MOVIA 0x8
00000660 ff2a                 MOVAR 0x55
00000661                      _mulchar.o:_00119_DS_:
00000661 e0fc                 BCR 0x3, 0x6
00000662 f7ad                 BTRSS 0x52, 0x0
00000663 c199                 LGOTO 0x666; _mulchar.o:_00114_DS_=0x666
00000664 feac                 MOVR 0x53, 0x0
00000665 fc2b                 ADDAR 0x54, 0x1
00000666                      _mulchar.o:_00114_DS_:
00000666 e3fc                 BCR 0x3, 0x0
00000667 e0fc                 BCR 0x3, 0x6
00000668 ec2d                 RRR 0x52, 0x1
00000669 e3fc                 BCR 0x3, 0x0
0000066a eb2c                 RLR 0x53, 0x1
0000066b f9aa                 DECR 0x55, 0x0
0000066c ff29                 MOVAR 0x56
0000066d ff2a                 MOVAR 0x55
0000066e fea9                 MOVR 0x56, 0x0
0000066f f6fc                 BTRSS 0x3, 0x2
00000670 c19e                 LGOTO 0x661; _mulchar.o:_00119_DS_=0x661
00000671 feab                 MOVR 0x54, 0x0
00000672 ffef                 RET
00000673                      __moduint:
00000673 e0fc                 BCR 0x3, 0x6
00000674 ff27                 MOVAR 0x58
00000675 feba                 MOVR 0x45, 0x0
00000676 ff28                 MOVAR 0x57
00000677 febb                 MOVR 0x44, 0x0
00000678 ff25                 MOVAR 0x5a
00000679 febc                 MOVR 0x43, 0x0
0000067a ff26                 MOVAR 0x59
0000067b eea5                 IORAR 0x5a, 0x0
0000067c f6fc                 BTRSS 0x3, 0x2
0000067d c17e                 LGOTO 0x681; _moduint.o:_00119_DS_=0x681
0000067e de00                 MOVIA 0xff
0000067f ff3a                 MOVAR 0x45
00000680 c154                 LGOTO 0x6ab; _moduint.o:_00115_DS_=0x6ab
00000681                      _moduint.o:_00119_DS_:
00000681 defe                 MOVIA 0x1
00000682 e0fc                 BCR 0x3, 0x6
00000683 ff24                 MOVAR 0x5b
00000684                      _moduint.o:_00107_DS_:
00000684 e0fc                 BCR 0x3, 0x6
00000685 f025                 BTRSC 0x5a, 0x7
00000686 c173                 LGOTO 0x68c; _moduint.o:_00112_DS_=0x68c
00000687 e3fc                 BCR 0x3, 0x0
00000688 eb26                 RLR 0x59, 0x1
00000689 eb25                 RLR 0x5a, 0x1
0000068a fa24                 INCR 0x5b, 0x1
0000068b c17b                 LGOTO 0x684; _moduint.o:_00107_DS_=0x684
0000068c                      _moduint.o:_00112_DS_:
0000068c e0fc                 BCR 0x3, 0x6
0000068d fea4                 MOVR 0x5b, 0x0
0000068e f2fc                 BTRSC 0x3, 0x2
0000068f c158                 LGOTO 0x6a7; _moduint.o:_00114_DS_=0x6a7
00000690 fea5                 MOVR 0x5a, 0x0
00000691 fba7                 SUBAR 0x58, 0x0
00000692 f6fc                 BTRSS 0x3, 0x2
00000693 c169                 LGOTO 0x696; _moduint.o:_00137_DS_=0x696
00000694 fea6                 MOVR 0x59, 0x0
00000695 fba8                 SUBAR 0x57, 0x0
00000696                      _moduint.o:_00137_DS_:
00000696 f7fc                 BTRSS 0x3, 0x0
00000697 c15e                 LGOTO 0x6a1; _moduint.o:_00001_DS_=0x6a1
00000698 e0fc                 BCR 0x3, 0x6
00000699 fea6                 MOVR 0x59, 0x0
0000069a fb28                 SUBAR 0x57, 0x1
0000069b fea5                 MOVR 0x5a, 0x0
0000069c f7fc                 BTRSS 0x3, 0x0
0000069d faa5                 INCR 0x5a, 0x0
0000069e f2fc                 BTRSC 0x3, 0x2
0000069f c15e                 LGOTO 0x6a1; _moduint.o:_00001_DS_=0x6a1
000006a0 fb27                 SUBAR 0x58, 0x1
000006a1                      _moduint.o:_00001_DS_:
000006a1 e3fc                 BCR 0x3, 0x0
000006a2 e0fc                 BCR 0x3, 0x6
000006a3 ec25                 RRR 0x5a, 0x1
000006a4 ec26                 RRR 0x59, 0x1
000006a5 f924                 DECR 0x5b, 0x1
000006a6 c173                 LGOTO 0x68c; _moduint.o:_00112_DS_=0x68c
000006a7                      _moduint.o:_00114_DS_:
000006a7 e0fc                 BCR 0x3, 0x6
000006a8 fea8                 MOVR 0x57, 0x0
000006a9 ff3a                 MOVAR 0x45
000006aa fea7                 MOVR 0x58, 0x0
000006ab                      _moduint.o:_00115_DS_:
000006ab ffef                 RET
000006ac                      ___cinit_load__:
