00000000 c7fe                 LGOTO 0x1; __nyc_ny8_startup=0x1
00000001                      __nyc_ny8_startup:
00000001 d23c                 LCALL 0x5c3; ___cinit_load__=0x5c3
00000002 c79a                 LGOTO 0x65; _main=0x65
00000003                      main.o:_00819_DS_:
00000003 f56f                 BTRSS 0x10, 0x5
00000004 c7fc                 LGOTO 0x3; main.o:_00819_DS_=0x3
00000005 ffef                 RET
00000008 c7f6                 LGOTO 0x9; main.o:__sdcc_interrupt=0x9
00000009                      main.o:__sdcc_interrupt:
00000009 ff3d                 MOVAR 0x42
0000000a eafc                 SWAPR 0x3, 0x0
0000000b fd7c                 CLRR 0x3
0000000c ff3e                 MOVAR 0x41
0000000d fef5                 MOVR 0xa, 0x0
0000000e fd75                 CLRR 0xa
0000000f ff3f                 MOVAR 0x40
00000010 fefb                 MOVR 0x4, 0x0
00000011 e0fc                 BCR 0x3, 0x6
00000012 ff2d                 MOVAR 0x52
00000013 feb8                 MOVR 0x47, 0x0
00000014 ff2c                 MOVAR 0x53
00000015 feb9                 MOVR 0x46, 0x0
00000016 ff2b                 MOVAR 0x54
00000017 f7f0                 BTRSS 0xf, 0x0
00000018 c7ae                 LGOTO 0x51; main.o:_00126_DS_=0x51
00000019 dec8                 MOVIA 0x37
0000001a fc7e                 ADDAR 0x1, 0x1
0000001b fa29                 INCR 0x56, 0x1
0000001c de9b                 MOVIA 0x64
0000001d fba9                 SUBAR 0x56, 0x0
0000001e f7fc                 BTRSS 0x3, 0x0
0000001f c7ae                 LGOTO 0x51; main.o:_00126_DS_=0x51
00000020 e7aa                 BSR 0x55, 0x0
00000021 fd29                 CLRR 0x56
00000022 fa28                 INCR 0x57, 0x1
00000023 ded7                 MOVIA 0x28
00000024 fba8                 SUBAR 0x57, 0x0
00000025 f3fc                 BTRSC 0x3, 0x0
00000026 fd28                 CLRR 0x57
00000027 fa1e                 INCR 0x61, 0x1
00000028 deeb                 MOVIA 0x14
00000029 fb9e                 SUBAR 0x61, 0x0
0000002a f7fc                 BTRSS 0x3, 0x0
0000002b c7cf                 LGOTO 0x30; main.o:_00110_DS_=0x30
0000002c fd1e                 CLRR 0x61
0000002d fe8c                 MOVR 0x73, 0x0
0000002e f6fc                 BTRSS 0x3, 0x2
0000002f f90c                 DECR 0x73, 0x1
00000030                      main.o:_00110_DS_:
00000030 e0fc                 BCR 0x3, 0x6
00000031 fa1d                 INCR 0x62, 0x1
00000032 de9b                 MOVIA 0x64
00000033 fb9d                 SUBAR 0x62, 0x0
00000034 f7fc                 BTRSS 0x3, 0x0
00000035 c7ae                 LGOTO 0x51; main.o:_00126_DS_=0x51
00000036 fd1d                 CLRR 0x62
00000037 f62a                 BTRSS 0x55, 0x3
00000038 c7bf                 LGOTO 0x40; main.o:_00112_DS_=0x40
00000039 fea3                 MOVR 0x5c, 0x0
0000003a dbf9                 XORIA 0x6
0000003b f6fc                 BTRSS 0x3, 0x2
0000003c c7bf                 LGOTO 0x40; main.o:_00112_DS_=0x40
0000003d fa22                 INCR 0x5d, 0x1
0000003e f2fc                 BTRSC 0x3, 0x2
0000003f fa21                 INCR 0x5e, 0x1
00000040                      main.o:_00112_DS_:
00000040 e0fc                 BCR 0x3, 0x6
00000041 fe98                 MOVR 0x67, 0x0
00000042 f6fc                 BTRSS 0x3, 0x2
00000043 f918                 DECR 0x67, 0x1
00000044 fe94                 MOVR 0x6b, 0x0
00000045 f6fc                 BTRSS 0x3, 0x2
00000046 f914                 DECR 0x6b, 0x1
00000047 fea6                 MOVR 0x59, 0x0
00000048 f2fc                 BTRSC 0x3, 0x2
00000049 c7b1                 LGOTO 0x4e; main.o:_00119_DS_=0x4e
0000004a fa1c                 INCR 0x63, 0x1
0000004b f2fc                 BTRSC 0x3, 0x2
0000004c fa1b                 INCR 0x64, 0x1
0000004d c7ae                 LGOTO 0x51; main.o:_00126_DS_=0x51
0000004e                      main.o:_00119_DS_:
0000004e e0fc                 BCR 0x3, 0x6
0000004f fd1c                 CLRR 0x63
00000050 fd1b                 CLRR 0x64
00000051                      main.o:_00126_DS_:
00000051 f770                 BTRSS 0xf, 0x1
00000052 c7aa                 LGOTO 0x55; main.o:_00128_DS_=0x55
00000053 de02                 MOVIA 0xfd
00000054 ff70                 MOVAR 0xf
00000055                      main.o:_00128_DS_:
00000055 fd70                 CLRR 0xf
00000056 e0fc                 BCR 0x3, 0x6
00000057 feab                 MOVR 0x54, 0x0
00000058 ff39                 MOVAR 0x46
00000059 feac                 MOVR 0x53, 0x0
0000005a ff38                 MOVAR 0x47
0000005b                      ___cinit_size__:
0000005b fead                 MOVR 0x52, 0x0
0000005c ff7b                 MOVAR 0x4
0000005d febf                 MOVR 0x40, 0x0
0000005e ff75                 MOVAR 0xa
0000005f fd7c                 CLRR 0x3
00000060 eabe                 SWAPR 0x41, 0x0
00000061 ff7c                 MOVAR 0x3
00000062 ea3d                 SWAPR 0x42, 0x1
00000063 eabd                 SWAPR 0x42, 0x0
00000064                      main.o:END_OF_INTERRUPT:
00000064 ffee                 RETIE
00000065                      _main:
00000065 d2fd                 LCALL 0x502; _initSys=0x502
00000066 d52c                 LCALL 0x2d3; _initAD=0x2d3
00000067                      main.o:_00179_DS_:
00000067 fffd                 CLRWDT
00000068 d351                 LCALL 0x4ae; _ledShow=0x4ae
00000069 e0fc                 BCR 0x3, 0x6
0000006a fea6                 MOVR 0x59, 0x0
0000006b f2fc                 BTRSC 0x3, 0x2
0000006c c77e                 LGOTO 0x81; main.o:_00139_DS_=0x81
0000006d ded2                 MOVIA 0x2d
0000006e fb92                 SUBAR 0x6d, 0x0
0000006f f7fc                 BTRSS 0x3, 0x0
00000070 c77e                 LGOTO 0x81; main.o:_00139_DS_=0x81
00000071 fe90                 MOVR 0x6f, 0x0
00000072 fb92                 SUBAR 0x6d, 0x0
00000073 f3fc                 BTRSC 0x3, 0x0
00000074 c786                 LGOTO 0x79; main.o:_00136_DS_=0x79
00000075 f910                 DECR 0x6f, 0x1
00000076 fe90                 MOVR 0x6f, 0x0
00000077 ffb3                 SFUN 0xc
00000078 c77e                 LGOTO 0x81; main.o:_00139_DS_=0x81
00000079                      main.o:_00136_DS_:
00000079 e0fc                 BCR 0x3, 0x6
0000007a fe92                 MOVR 0x6d, 0x0
0000007b fb90                 SUBAR 0x6f, 0x0
0000007c f3fc                 BTRSC 0x3, 0x0
0000007d c77e                 LGOTO 0x81; main.o:_00139_DS_=0x81
0000007e fa10                 INCR 0x6f, 0x1
0000007f fe90                 MOVR 0x6f, 0x0
00000080 ffb3                 SFUN 0xc
00000081                      main.o:_00139_DS_:
00000081 e0fc                 BCR 0x3, 0x6
00000082 fea6                 MOVR 0x59, 0x0
00000083 f2fc                 BTRSC 0x3, 0x2
00000084 c771                 LGOTO 0x8e; main.o:_00142_DS_=0x8e
00000085 fe97                 MOVR 0x68, 0x0
00000086 fba4                 SUBAR 0x5b, 0x0
00000087 f3fc                 BTRSC 0x3, 0x0
00000088 c771                 LGOTO 0x8e; main.o:_00142_DS_=0x8e
00000089 f917                 DECR 0x68, 0x1
0000008a fe97                 MOVR 0x68, 0x0
0000008b ffb3                 SFUN 0xc
0000008c fe97                 MOVR 0x68, 0x0
0000008d ff10                 MOVAR 0x6f
0000008e                      main.o:_00142_DS_:
0000008e e0fc                 BCR 0x3, 0x6
0000008f f7aa                 BTRSS 0x55, 0x0
00000090 c798                 LGOTO 0x67; main.o:_00179_DS_=0x67
00000091 e3aa                 BCR 0x55, 0x0
00000092 fe94                 MOVR 0x6b, 0x0
00000093 f6fc                 BTRSS 0x3, 0x2
00000094 c752                 LGOTO 0xad; main.o:_00149_DS_=0xad
00000095 fea3                 MOVR 0x5c, 0x0
00000096 f6fc                 BTRSS 0x3, 0x2
00000097 c752                 LGOTO 0xad; main.o:_00149_DS_=0xad
00000098 fea6                 MOVR 0x59, 0x0
00000099 f2fc                 BTRSC 0x3, 0x2
0000009a c752                 LGOTO 0xad; main.o:_00149_DS_=0xad
0000009b fa0a                 INCR 0x75, 0x1
0000009c f2fc                 BTRSC 0x3, 0x2
0000009d fa09                 INCR 0x76, 0x1
0000009e defc                 MOVIA 0x3
0000009f fb89                 SUBAR 0x76, 0x0
000000a0 f6fc                 BTRSS 0x3, 0x2
000000a1 c75b                 LGOTO 0xa4; main.o:_00268_DS_=0xa4
000000a2 de17                 MOVIA 0xe8
000000a3 fb8a                 SUBAR 0x75, 0x0
000000a4                      main.o:_00268_DS_:
000000a4 f7fc                 BTRSS 0x3, 0x0
000000a5 c74f                 LGOTO 0xb0; main.o:_00150_DS_=0xb0
000000a6 e0fc                 BCR 0x3, 0x6
000000a7 fd0a                 CLRR 0x75
000000a8 fd09                 CLRR 0x76
000000a9 fd26                 CLRR 0x59
000000aa fd25                 CLRR 0x5a
000000ab d3e9                 LCALL 0x416; _pwmStop=0x416
000000ac c74f                 LGOTO 0xb0; main.o:_00150_DS_=0xb0
000000ad                      main.o:_00149_DS_:
000000ad e0fc                 BCR 0x3, 0x6
000000ae fd0a                 CLRR 0x75
000000af fd09                 CLRR 0x76
000000b0                      main.o:_00150_DS_:
000000b0 defa                 MOVIA 0x5
000000b1 e0fc                 BCR 0x3, 0x6
000000b2 fb99                 SUBAR 0x66, 0x0
000000b3 f7fc                 BTRSS 0x3, 0x0
000000b4 c734                 LGOTO 0xcb; main.o:_00156_DS_=0xcb
000000b5 fea6                 MOVR 0x59, 0x0
000000b6 f2fc                 BTRSC 0x3, 0x2
000000b7 c734                 LGOTO 0xcb; main.o:_00156_DS_=0xcb
000000b8 fa0e                 INCR 0x71, 0x1
000000b9 f2fc                 BTRSC 0x3, 0x2
000000ba fa0d                 INCR 0x72, 0x1
000000bb defe                 MOVIA 0x1
000000bc fb8d                 SUBAR 0x72, 0x0
000000bd f6fc                 BTRSS 0x3, 0x2
000000be c73e                 LGOTO 0xc1; main.o:_00270_DS_=0xc1
000000bf de0a                 MOVIA 0xf5
000000c0 fb8e                 SUBAR 0x71, 0x0
000000c1                      main.o:_00270_DS_:
000000c1 f7fc                 BTRSS 0x3, 0x0
000000c2 c731                 LGOTO 0xce; main.o:_00157_DS_=0xce
000000c3 e0fc                 BCR 0x3, 0x6
000000c4 fd19                 CLRR 0x66
000000c5 fd0e                 CLRR 0x71
000000c6 fd0d                 CLRR 0x72
000000c7 dee6                 MOVIA 0x19
000000c8 ff0c                 MOVAR 0x73
000000c9 d2e0                 LCALL 0x51f; _powerOff=0x51f
000000ca c731                 LGOTO 0xce; main.o:_00157_DS_=0xce
000000cb                      main.o:_00156_DS_:
000000cb e0fc                 BCR 0x3, 0x6
000000cc fd0e                 CLRR 0x71
000000cd fd0d                 CLRR 0x72
000000ce                      main.o:_00157_DS_:
000000ce e0fc                 BCR 0x3, 0x6
000000cf f62a                 BTRSS 0x55, 0x3
000000d0 d2dc                 LCALL 0x523; _keyCtr=0x523
000000d1                      main.o:_00160_DS_:
000000d1 defc                 MOVIA 0x3
000000d2 e0fc                 BCR 0x3, 0x6
000000d3 fb9e                 SUBAR 0x61, 0x0
000000d4 f3fc                 BTRSC 0x3, 0x0
000000d5 c727                 LGOTO 0xd8; main.o:_00165_DS_=0xd8
000000d6 d5e9                 LCALL 0x216; _checkBatAD=0x216
000000d7 c71e                 LGOTO 0xe1; main.o:_00166_DS_=0xe1
000000d8                      main.o:_00165_DS_:
000000d8 def9                 MOVIA 0x6
000000d9 e0fc                 BCR 0x3, 0x6
000000da fb9e                 SUBAR 0x61, 0x0
000000db f7fc                 BTRSS 0x3, 0x0
000000dc c71e                 LGOTO 0xe1; main.o:_00166_DS_=0xe1
000000dd deec                 MOVIA 0x13
000000de fb9e                 SUBAR 0x61, 0x0
000000df f7fc                 BTRSS 0x3, 0x0
000000e0 d6a5                 LCALL 0x15a; _checkOutA=0x15a
000000e1                      main.o:_00166_DS_:
000000e1 d515                 LCALL 0x2ea; _chrgCtr=0x2ea
000000e2 e0fc                 BCR 0x3, 0x6
000000e3 fea6                 MOVR 0x59, 0x0
000000e4 f6fc                 BTRSS 0x3, 0x2
000000e5 c6ff                 LGOTO 0x100; main.o:_00170_DS_=0x100
000000e6 fea7                 MOVR 0x58, 0x0
000000e7 f6fc                 BTRSS 0x3, 0x2
000000e8 c6ff                 LGOTO 0x100; main.o:_00170_DS_=0x100
000000e9 f27a                 BTRSC 0x5, 0x3
000000ea c6ff                 LGOTO 0x100; main.o:_00170_DS_=0x100
000000eb fe98                 MOVR 0x67, 0x0
000000ec f6fc                 BTRSS 0x3, 0x2
000000ed c6ff                 LGOTO 0x100; main.o:_00170_DS_=0x100
000000ee fe8c                 MOVR 0x73, 0x0
000000ef f6fc                 BTRSS 0x3, 0x2
000000f0 c6ff                 LGOTO 0x100; main.o:_00170_DS_=0x100
000000f1 fe94                 MOVR 0x6b, 0x0
000000f2 f6fc                 BTRSS 0x3, 0x2
000000f3 c6ff                 LGOTO 0x100; main.o:_00170_DS_=0x100
000000f4 fa20                 INCR 0x5f, 0x1
000000f5 f2fc                 BTRSC 0x3, 0x2
000000f6 fa1f                 INCR 0x60, 0x1
000000f7 deff                 MOVIA 0x0
000000f8 fb9f                 SUBAR 0x60, 0x0
000000f9 f6fc                 BTRSS 0x3, 0x2
000000fa c702                 LGOTO 0xfd; main.o:_00274_DS_=0xfd
000000fb deea                 MOVIA 0x15
000000fc fba0                 SUBAR 0x5f, 0x0
000000fd                      main.o:_00274_DS_:
000000fd f7fc                 BTRSS 0x3, 0x0
000000fe c6ff                 LGOTO 0x100; main.o:_00170_DS_=0x100
000000ff d412                 LCALL 0x3ed; _gotoSleep=0x3ed
00000100                      main.o:_00170_DS_:
00000100 defc                 MOVIA 0x3
00000101 e0fc                 BCR 0x3, 0x6
00000102 fb9b                 SUBAR 0x64, 0x0
00000103 f6fc                 BTRSS 0x3, 0x2
00000104 c6f8                 LGOTO 0x107; main.o:_00275_DS_=0x107
00000105 de7b                 MOVIA 0x84
00000106 fb9c                 SUBAR 0x63, 0x0
00000107                      main.o:_00275_DS_:
00000107 f7fc                 BTRSS 0x3, 0x0
00000108 c798                 LGOTO 0x67; main.o:_00179_DS_=0x67
00000109 d2e0                 LCALL 0x51f; _powerOff=0x51f
0000010a c798                 LGOTO 0x67; main.o:_00179_DS_=0x67
0000010b ffef                 RET
0000010c                      _F_AIN2_Convert:
0000010c e0fc                 BCR 0x3, 0x6
0000010d ff36                 MOVAR 0x49
0000010e fd5a                 CLRR 0x25
0000010f fd5c                 CLRR 0x23
00000110 fd5b                 CLRR 0x24
00000111 de6d                 MOVIA 0x92
00000112 ff6f                 MOVAR 0x10
00000113 de37                 MOVIA 0xc8
00000114 d521                 LCALL 0x2de; _delay=0x2de
00000115 defe                 MOVIA 0x1
00000116 e0fc                 BCR 0x3, 0x6
00000117 ff35                 MOVAR 0x4a
00000118                      main.o:_00812_DS_:
00000118 e0fc                 BCR 0x3, 0x6
00000119 feb5                 MOVR 0x4a, 0x0
0000011a fbb6                 SUBAR 0x49, 0x0
0000011b f7fc                 BTRSS 0x3, 0x0
0000011c c6cd                 LGOTO 0x132; main.o:_00814_DS_=0x132
0000011d e4ef                 BSR 0x10, 0x6
0000011e d7fc                 LCALL 0x3; main.o:_00819_DS_=0x3
0000011f def0                 MOVIA 0xf
00000120 efee                 ANDAR 0x11, 0x0
00000121 e0fc                 BCR 0x3, 0x6
00000122 fc5a                 ADDAR 0x25, 0x1
00000123 feed                 MOVR 0x12, 0x0
00000124 ff34                 MOVAR 0x4b
00000125 deff                 MOVIA 0x0
00000126 ff33                 MOVAR 0x4c
00000127 feb4                 MOVR 0x4b, 0x0
00000128 fc5c                 ADDAR 0x23, 0x1
00000129 feb3                 MOVR 0x4c, 0x0
0000012a f3fc                 BTRSC 0x3, 0x0
0000012b fab3                 INCR 0x4c, 0x0
0000012c f2fc                 BTRSC 0x3, 0x2
0000012d c6d0                 LGOTO 0x12f; main.o:_00001_DS_=0x12f
0000012e fc5b                 ADDAR 0x24, 0x1
0000012f                      main.o:_00001_DS_:
0000012f e0fc                 BCR 0x3, 0x6
00000130 fa35                 INCR 0x4a, 0x1
00000131 c6e7                 LGOTO 0x118; main.o:_00812_DS_=0x118
00000132                      main.o:_00814_DS_:
00000132 ffef                 RET
00000133                      _F_AIN4_Convert:
00000133 e0fc                 BCR 0x3, 0x6
00000134 ff42                 MOVAR 0x3d
00000135 fd5d                 CLRR 0x22
00000136 fd5f                 CLRR 0x20
00000137 fd5e                 CLRR 0x21
00000138 de6b                 MOVIA 0x94
00000139 ff6f                 MOVAR 0x10
0000013a de37                 MOVIA 0xc8
0000013b d521                 LCALL 0x2de; _delay=0x2de
0000013c defe                 MOVIA 0x1
0000013d e0fc                 BCR 0x3, 0x6
0000013e ff41                 MOVAR 0x3e
0000013f                      main.o:_00803_DS_:
0000013f e0fc                 BCR 0x3, 0x6
00000140 fec1                 MOVR 0x3e, 0x0
00000141 fbc2                 SUBAR 0x3d, 0x0
00000142 f7fc                 BTRSS 0x3, 0x0
00000143 c6a6                 LGOTO 0x159; main.o:_00805_DS_=0x159
00000144 e4ef                 BSR 0x10, 0x6
00000145 d7fc                 LCALL 0x3; main.o:_00819_DS_=0x3
00000146 def0                 MOVIA 0xf
00000147 efee                 ANDAR 0x11, 0x0
00000148 e0fc                 BCR 0x3, 0x6
00000149 fc5d                 ADDAR 0x22, 0x1
0000014a feed                 MOVR 0x12, 0x0
0000014b ff40                 MOVAR 0x3f
0000014c deff                 MOVIA 0x0
0000014d ff37                 MOVAR 0x48
0000014e fec0                 MOVR 0x3f, 0x0
0000014f fc5f                 ADDAR 0x20, 0x1
00000150 feb7                 MOVR 0x48, 0x0
00000151 f3fc                 BTRSC 0x3, 0x0
00000152 fab7                 INCR 0x48, 0x0
00000153 f2fc                 BTRSC 0x3, 0x2
00000154 c6a9                 LGOTO 0x156; main.o:_00002_DS_=0x156
00000155 fc5e                 ADDAR 0x21, 0x1
00000156                      main.o:_00002_DS_:
00000156 e0fc                 BCR 0x3, 0x6
00000157 fa41                 INCR 0x3e, 0x1
00000158 c6c0                 LGOTO 0x13f; main.o:_00803_DS_=0x13f
00000159                      main.o:_00805_DS_:
00000159 ffef                 RET
0000015a                      _checkOutA:
0000015a e0fc                 BCR 0x3, 0x6
0000015b fd5d                 CLRR 0x22
0000015c fd5f                 CLRR 0x20
0000015d fd5e                 CLRR 0x21
0000015e def7                 MOVIA 0x8
0000015f d6cc                 LCALL 0x133; _F_AIN4_Convert=0x133
00000160 e0fc                 BCR 0x3, 0x6
00000161 eade                 SWAPR 0x21, 0x0
00000162 dd0f                 ANDIA 0xf0
00000163 ff5e                 MOVAR 0x21
00000164 eadf                 SWAPR 0x20, 0x0
00000165 ff5f                 MOVAR 0x20
00000166 ddf0                 ANDIA 0xf
00000167 ee5e                 IORAR 0x21, 0x1
00000168 ed5f                 XORAR 0x20, 0x1
00000169 de0f                 MOVIA 0xf0
0000016a ef5d                 ANDAR 0x22, 0x1
0000016b fedd                 MOVR 0x22, 0x0
0000016c ff44                 MOVAR 0x3b
0000016d ff46                 MOVAR 0x39
0000016e fd45                 CLRR 0x3a
0000016f deff                 MOVIA 0x0
00000170 ff43                 MOVAR 0x3c
00000171 fec4                 MOVR 0x3b, 0x0
00000172 fc5f                 ADDAR 0x20, 0x1
00000173 fec3                 MOVR 0x3c, 0x0
00000174 f3fc                 BTRSC 0x3, 0x0
00000175 fac3                 INCR 0x3c, 0x0
00000176 f2fc                 BTRSC 0x3, 0x2
00000177 c686                 LGOTO 0x179; main.o:_00003_DS_=0x179
00000178 fc5e                 ADDAR 0x21, 0x1
00000179                      main.o:_00003_DS_:
00000179 e3fc                 BCR 0x3, 0x0
0000017a e0fc                 BCR 0x3, 0x6
0000017b ec5e                 RRR 0x21, 0x1
0000017c ec5f                 RRR 0x20, 0x1
0000017d e3fc                 BCR 0x3, 0x0
0000017e ec5e                 RRR 0x21, 0x1
0000017f ec5f                 RRR 0x20, 0x1
00000180 e3fc                 BCR 0x3, 0x0
00000181 ec5e                 RRR 0x21, 0x1
00000182 ec5f                 RRR 0x20, 0x1
00000183 def9                 MOVIA 0x6
00000184 fba6                 SUBAR 0x59, 0x0
00000185 f3fc                 BTRSC 0x3, 0x0
00000186 c667                 LGOTO 0x198; main.o:_00733_DS_=0x198
00000187 deff                 MOVIA 0x0
00000188 fbde                 SUBAR 0x21, 0x0
00000189 f6fc                 BTRSS 0x3, 0x2
0000018a c672                 LGOTO 0x18d; main.o:_00789_DS_=0x18d
0000018b de36                 MOVIA 0xc9
0000018c fbdf                 SUBAR 0x20, 0x0
0000018d                      main.o:_00789_DS_:
0000018d f7fc                 BTRSS 0x3, 0x0
0000018e c667                 LGOTO 0x198; main.o:_00733_DS_=0x198
0000018f e0fc                 BCR 0x3, 0x6
00000190 fa19                 INCR 0x66, 0x1
00000191 def9                 MOVIA 0x6
00000192 fb99                 SUBAR 0x66, 0x0
00000193 f7fc                 BTRSS 0x3, 0x0
00000194 c5f0                 LGOTO 0x20f; main.o:_00734_DS_=0x20f
00000195 defa                 MOVIA 0x5
00000196 ff19                 MOVAR 0x66
00000197 c5f0                 LGOTO 0x20f; main.o:_00734_DS_=0x20f
00000198                      main.o:_00733_DS_:
00000198 defe                 MOVIA 0x1
00000199 e0fc                 BCR 0x3, 0x6
0000019a fbde                 SUBAR 0x21, 0x0
0000019b f6fc                 BTRSS 0x3, 0x2
0000019c c660                 LGOTO 0x19f; main.o:_00791_DS_=0x19f
0000019d de6e                 MOVIA 0x91
0000019e fbdf                 SUBAR 0x20, 0x0
0000019f                      main.o:_00791_DS_:
0000019f f7fc                 BTRSS 0x3, 0x0
000001a0 c655                 LGOTO 0x1aa; main.o:_00730_DS_=0x1aa
000001a1 e0fc                 BCR 0x3, 0x6
000001a2 fa19                 INCR 0x66, 0x1
000001a3 def9                 MOVIA 0x6
000001a4 fb99                 SUBAR 0x66, 0x0
000001a5 f7fc                 BTRSS 0x3, 0x0
000001a6 c5f0                 LGOTO 0x20f; main.o:_00734_DS_=0x20f
000001a7 defa                 MOVIA 0x5
000001a8 ff19                 MOVAR 0x66
000001a9 c5f0                 LGOTO 0x20f; main.o:_00734_DS_=0x20f
000001aa                      main.o:_00730_DS_:
000001aa deff                 MOVIA 0x0
000001ab e0fc                 BCR 0x3, 0x6
000001ac fbde                 SUBAR 0x21, 0x0
000001ad f6fc                 BTRSS 0x3, 0x2
000001ae c64e                 LGOTO 0x1b1; main.o:_00793_DS_=0x1b1
000001af deb1                 MOVIA 0x4e
000001b0 fbdf                 SUBAR 0x20, 0x0
000001b1                      main.o:_00793_DS_:
000001b1 f7fc                 BTRSS 0x3, 0x0
000001b2 c63e                 LGOTO 0x1c1; main.o:_00727_DS_=0x1c1
000001b3 e0fc                 BCR 0x3, 0x6
000001b4 fe99                 MOVR 0x66, 0x0
000001b5 f6fc                 BTRSS 0x3, 0x2
000001b6 f919                 DECR 0x66, 0x1
000001b7 defa                 MOVIA 0x5
000001b8 ff38                 MOVAR 0x47
000001b9 fea6                 MOVR 0x59, 0x0
000001ba d255                 LCALL 0x5aa; __mulchar=0x5aa
000001bb e0fc                 BCR 0x3, 0x6
000001bc ff46                 MOVAR 0x39
000001bd deb9                 MOVIA 0x46
000001be fcc6                 ADDAR 0x39, 0x0
000001bf ff12                 MOVAR 0x6d
000001c0 c5f0                 LGOTO 0x20f; main.o:_00734_DS_=0x20f
000001c1                      main.o:_00727_DS_:
000001c1 ded7                 MOVIA 0x28
000001c2 e0fc                 BCR 0x3, 0x6
000001c3 ff46                 MOVAR 0x39
000001c4 defb                 MOVIA 0x4
000001c5 fba3                 SUBAR 0x5c, 0x0
000001c6 f7fc                 BTRSS 0x3, 0x0
000001c7 c635                 LGOTO 0x1ca; main.o:_00707_DS_=0x1ca
000001c8 ded2                 MOVIA 0x2d
000001c9 ff46                 MOVAR 0x39
000001ca                      main.o:_00707_DS_:
000001ca e0fc                 BCR 0x3, 0x6
000001cb fea6                 MOVR 0x59, 0x0
000001cc dbfe                 XORIA 0x1
000001cd f6fc                 BTRSS 0x3, 0x2
000001ce c62d                 LGOTO 0x1d2; main.o:_00717_DS_=0x1d2
000001cf de04                 MOVIA 0xfb
000001d0 fc46                 ADDAR 0x39, 0x1
000001d1 c616                 LGOTO 0x1e9; main.o:_00718_DS_=0x1e9
000001d2                      main.o:_00717_DS_:
000001d2 e0fc                 BCR 0x3, 0x6
000001d3 fea6                 MOVR 0x59, 0x0
000001d4 dbfb                 XORIA 0x4
000001d5 f6fc                 BTRSS 0x3, 0x2
000001d6 c625                 LGOTO 0x1da; main.o:_00714_DS_=0x1da
000001d7 defa                 MOVIA 0x5
000001d8 fc46                 ADDAR 0x39, 0x1
000001d9 c616                 LGOTO 0x1e9; main.o:_00718_DS_=0x1e9
000001da                      main.o:_00714_DS_:
000001da e0fc                 BCR 0x3, 0x6
000001db fea6                 MOVR 0x59, 0x0
000001dc dbfa                 XORIA 0x5
000001dd f6fc                 BTRSS 0x3, 0x2
000001de c61d                 LGOTO 0x1e2; main.o:_00711_DS_=0x1e2
000001df def5                 MOVIA 0xa
000001e0 fc46                 ADDAR 0x39, 0x1
000001e1 c616                 LGOTO 0x1e9; main.o:_00718_DS_=0x1e9
000001e2                      main.o:_00711_DS_:
000001e2 e0fc                 BCR 0x3, 0x6
000001e3 fea6                 MOVR 0x59, 0x0
000001e4 dbf9                 XORIA 0x6
000001e5 f6fc                 BTRSS 0x3, 0x2
000001e6 c616                 LGOTO 0x1e9; main.o:_00718_DS_=0x1e9
000001e7 deed                 MOVIA 0x12
000001e8 fc46                 ADDAR 0x39, 0x1
000001e9                      main.o:_00718_DS_:
000001e9 e0fc                 BCR 0x3, 0x6
000001ea fe99                 MOVR 0x66, 0x0
000001eb f6fc                 BTRSS 0x3, 0x2
000001ec f919                 DECR 0x66, 0x1
000001ed fec6                 MOVR 0x39, 0x0
000001ee ff45                 MOVAR 0x3a
000001ef fd44                 CLRR 0x3b
000001f0 fede                 MOVR 0x21, 0x0
000001f1 fbc4                 SUBAR 0x3b, 0x0
000001f2 f6fc                 BTRSS 0x3, 0x2
000001f3 c609                 LGOTO 0x1f6; main.o:_00795_DS_=0x1f6
000001f4 fedf                 MOVR 0x20, 0x0
000001f5 fbc5                 SUBAR 0x3a, 0x0
000001f6                      main.o:_00795_DS_:
000001f6 f3fc                 BTRSC 0x3, 0x0
000001f7 c5fc                 LGOTO 0x203; main.o:_00724_DS_=0x203
000001f8 defa                 MOVIA 0x5
000001f9 ff38                 MOVAR 0x47
000001fa e0fc                 BCR 0x3, 0x6
000001fb fea6                 MOVR 0x59, 0x0
000001fc d255                 LCALL 0x5aa; __mulchar=0x5aa
000001fd e0fc                 BCR 0x3, 0x6
000001fe ff46                 MOVAR 0x39
000001ff deb9                 MOVIA 0x46
00000200 fcc6                 ADDAR 0x39, 0x0
00000201 ff12                 MOVAR 0x6d
00000202 c5f0                 LGOTO 0x20f; main.o:_00734_DS_=0x20f
00000203                      main.o:_00724_DS_:
00000203 deff                 MOVIA 0x0
00000204 e0fc                 BCR 0x3, 0x6
00000205 fbde                 SUBAR 0x21, 0x0
00000206 f6fc                 BTRSS 0x3, 0x2
00000207 c5f5                 LGOTO 0x20a; main.o:_00796_DS_=0x20a
00000208 deb4                 MOVIA 0x4b
00000209 fbdf                 SUBAR 0x20, 0x0
0000020a                      main.o:_00796_DS_:
0000020a f3fc                 BTRSC 0x3, 0x0
0000020b c5f0                 LGOTO 0x20f; main.o:_00734_DS_=0x20f
0000020c e0fc                 BCR 0x3, 0x6
0000020d fea4                 MOVR 0x5b, 0x0
0000020e ff12                 MOVAR 0x6d
0000020f                      main.o:_00734_DS_:
0000020f e0fc                 BCR 0x3, 0x6
00000210 fea6                 MOVR 0x59, 0x0
00000211 f2fc                 BTRSC 0x3, 0x2
00000212 c5ea                 LGOTO 0x215; main.o:_00738_DS_=0x215
00000213 fea6                 MOVR 0x59, 0x0
00000214 ff25                 MOVAR 0x5a
00000215                      main.o:_00738_DS_:
00000215 ffef                 RET
00000216                      _checkBatAD:
00000216 e0fc                 BCR 0x3, 0x6
00000217 fd5a                 CLRR 0x25
00000218 fd5c                 CLRR 0x23
00000219 fd5b                 CLRR 0x24
0000021a def7                 MOVIA 0x8
0000021b d6f3                 LCALL 0x10c; _F_AIN2_Convert=0x10c
0000021c e0fc                 BCR 0x3, 0x6
0000021d eadb                 SWAPR 0x24, 0x0
0000021e dd0f                 ANDIA 0xf0
0000021f ff5b                 MOVAR 0x24
00000220 eadc                 SWAPR 0x23, 0x0
00000221 ff5c                 MOVAR 0x23
00000222 ddf0                 ANDIA 0xf
00000223 ee5b                 IORAR 0x24, 0x1
00000224 ed5c                 XORAR 0x23, 0x1
00000225 de0f                 MOVIA 0xf0
00000226 ef5a                 ANDAR 0x25, 0x1
00000227 feda                 MOVR 0x25, 0x0
00000228 ff48                 MOVAR 0x37
00000229 deff                 MOVIA 0x0
0000022a ff47                 MOVAR 0x38
0000022b fec8                 MOVR 0x37, 0x0
0000022c fc5c                 ADDAR 0x23, 0x1
0000022d fec7                 MOVR 0x38, 0x0
0000022e f3fc                 BTRSC 0x3, 0x0
0000022f fac7                 INCR 0x38, 0x0
00000230 f2fc                 BTRSC 0x3, 0x2
00000231 c5cc                 LGOTO 0x233; main.o:_00004_DS_=0x233
00000232 fc5b                 ADDAR 0x24, 0x1
00000233                      main.o:_00004_DS_:
00000233 e3fc                 BCR 0x3, 0x0
00000234 e0fc                 BCR 0x3, 0x6
00000235 ec5b                 RRR 0x24, 0x1
00000236 ec5c                 RRR 0x23, 0x1
00000237 e3fc                 BCR 0x3, 0x0
00000238 ec5b                 RRR 0x24, 0x1
00000239 ec5c                 RRR 0x23, 0x1
0000023a e3fc                 BCR 0x3, 0x0
0000023b ec5b                 RRR 0x24, 0x1
0000023c ec5c                 RRR 0x23, 0x1
0000023d e4fc                 BSR 0x3, 0x6
0000023e fedf                 MOVR 0x20, 0x0
0000023f f2fc                 BTRSC 0x3, 0x2
00000240 c5b9                 LGOTO 0x246; main.o:_00613_DS_=0x246
00000241 def1                 MOVIA 0xe
00000242 e0fc                 BCR 0x3, 0x6
00000243 ff5c                 MOVAR 0x23
00000244 def9                 MOVIA 0x6
00000245 ff5b                 MOVAR 0x24
00000246                      main.o:_00613_DS_:
00000246 def9                 MOVIA 0x6
00000247 e0fc                 BCR 0x3, 0x6
00000248 fbdb                 SUBAR 0x24, 0x0
00000249 f6fc                 BTRSS 0x3, 0x2
0000024a c5b2                 LGOTO 0x24d; main.o:_00687_DS_=0x24d
0000024b dedc                 MOVIA 0x23
0000024c fbdc                 SUBAR 0x23, 0x0
0000024d                      main.o:_00687_DS_:
0000024d f7fc                 BTRSS 0x3, 0x0
0000024e c5ab                 LGOTO 0x254; main.o:_00638_DS_=0x254
0000024f e0fc                 BCR 0x3, 0x6
00000250 fd11                 CLRR 0x6e
00000251 def7                 MOVIA 0x8
00000252 ff23                 MOVAR 0x5c
00000253 c541                 LGOTO 0x2be; main.o:_00639_DS_=0x2be
00000254                      main.o:_00638_DS_:
00000254 defb                 MOVIA 0x4
00000255 e0fc                 BCR 0x3, 0x6
00000256 fbdb                 SUBAR 0x24, 0x0
00000257 f6fc                 BTRSS 0x3, 0x2
00000258 c5a4                 LGOTO 0x25b; main.o:_00688_DS_=0x25b
00000259 de81                 MOVIA 0x7e
0000025a fbdc                 SUBAR 0x23, 0x0
0000025b                      main.o:_00688_DS_:
0000025b f3fc                 BTRSC 0x3, 0x0
0000025c c594                 LGOTO 0x26b; main.o:_00635_DS_=0x26b
0000025d e0fc                 BCR 0x3, 0x6
0000025e fa11                 INCR 0x6e, 0x1
0000025f def5                 MOVIA 0xa
00000260 fb91                 SUBAR 0x6e, 0x0
00000261 f7fc                 BTRSS 0x3, 0x0
00000262 c52d                 LGOTO 0x2d2; main.o:_00646_DS_=0x2d2
00000263 def5                 MOVIA 0xa
00000264 ff11                 MOVAR 0x6e
00000265 fd23                 CLRR 0x5c
00000266 de81                 MOVIA 0x7e
00000267 ff5c                 MOVAR 0x23
00000268 defb                 MOVIA 0x4
00000269 ff5b                 MOVAR 0x24
0000026a c541                 LGOTO 0x2be; main.o:_00639_DS_=0x2be
0000026b                      main.o:_00635_DS_:
0000026b e0fc                 BCR 0x3, 0x6
0000026c fd11                 CLRR 0x6e
0000026d fd13                 CLRR 0x6c
0000026e defb                 MOVIA 0x4
0000026f fbdb                 SUBAR 0x24, 0x0
00000270 f6fc                 BTRSS 0x3, 0x2
00000271 c58b                 LGOTO 0x274; main.o:_00690_DS_=0x274
00000272 de09                 MOVIA 0xf6
00000273 fbdc                 SUBAR 0x23, 0x0
00000274                      main.o:_00690_DS_:
00000274 f3fc                 BTRSC 0x3, 0x0
00000275 c585                 LGOTO 0x27a; main.o:_00632_DS_=0x27a
00000276 defe                 MOVIA 0x1
00000277 e0fc                 BCR 0x3, 0x6
00000278 ff23                 MOVAR 0x5c
00000279 c541                 LGOTO 0x2be; main.o:_00639_DS_=0x2be
0000027a                      main.o:_00632_DS_:
0000027a defa                 MOVIA 0x5
0000027b e0fc                 BCR 0x3, 0x6
0000027c fbdb                 SUBAR 0x24, 0x0
0000027d f6fc                 BTRSS 0x3, 0x2
0000027e c57e                 LGOTO 0x281; main.o:_00691_DS_=0x281
0000027f dec3                 MOVIA 0x3c
00000280 fbdc                 SUBAR 0x23, 0x0
00000281                      main.o:_00691_DS_:
00000281 f3fc                 BTRSC 0x3, 0x0
00000282 c578                 LGOTO 0x287; main.o:_00629_DS_=0x287
00000283 defd                 MOVIA 0x2
00000284 e0fc                 BCR 0x3, 0x6
00000285 ff23                 MOVAR 0x5c
00000286 c541                 LGOTO 0x2be; main.o:_00639_DS_=0x2be
00000287                      main.o:_00629_DS_:
00000287 defa                 MOVIA 0x5
00000288 e0fc                 BCR 0x3, 0x6
00000289 fbdb                 SUBAR 0x24, 0x0
0000028a f6fc                 BTRSS 0x3, 0x2
0000028b c571                 LGOTO 0x28e; main.o:_00692_DS_=0x28e
0000028c de91                 MOVIA 0x6e
0000028d fbdc                 SUBAR 0x23, 0x0
0000028e                      main.o:_00692_DS_:
0000028e f3fc                 BTRSC 0x3, 0x0
0000028f c56b                 LGOTO 0x294; main.o:_00626_DS_=0x294
00000290 defc                 MOVIA 0x3
00000291 e0fc                 BCR 0x3, 0x6
00000292 ff23                 MOVAR 0x5c
00000293 c541                 LGOTO 0x2be; main.o:_00639_DS_=0x2be
00000294                      main.o:_00626_DS_:
00000294 defa                 MOVIA 0x5
00000295 e0fc                 BCR 0x3, 0x6
00000296 fbdb                 SUBAR 0x24, 0x0
00000297 f6fc                 BTRSS 0x3, 0x2
00000298 c564                 LGOTO 0x29b; main.o:_00693_DS_=0x29b
00000299 de55                 MOVIA 0xaa
0000029a fbdc                 SUBAR 0x23, 0x0
0000029b                      main.o:_00693_DS_:
0000029b f3fc                 BTRSC 0x3, 0x0
0000029c c55e                 LGOTO 0x2a1; main.o:_00623_DS_=0x2a1
0000029d defb                 MOVIA 0x4
0000029e e0fc                 BCR 0x3, 0x6
0000029f ff23                 MOVAR 0x5c
000002a0 c541                 LGOTO 0x2be; main.o:_00639_DS_=0x2be
000002a1                      main.o:_00623_DS_:
000002a1 defa                 MOVIA 0x5
000002a2 e0fc                 BCR 0x3, 0x6
000002a3 fbdb                 SUBAR 0x24, 0x0
000002a4 f6fc                 BTRSS 0x3, 0x2
000002a5 c557                 LGOTO 0x2a8; main.o:_00694_DS_=0x2a8
000002a6 de19                 MOVIA 0xe6
000002a7 fbdc                 SUBAR 0x23, 0x0
000002a8                      main.o:_00694_DS_:
000002a8 f3fc                 BTRSC 0x3, 0x0
000002a9 c551                 LGOTO 0x2ae; main.o:_00620_DS_=0x2ae
000002aa defa                 MOVIA 0x5
000002ab e0fc                 BCR 0x3, 0x6
000002ac ff23                 MOVAR 0x5c
000002ad c541                 LGOTO 0x2be; main.o:_00639_DS_=0x2be
000002ae                      main.o:_00620_DS_:
000002ae def9                 MOVIA 0x6
000002af e0fc                 BCR 0x3, 0x6
000002b0 fbdb                 SUBAR 0x24, 0x0
000002b1 f6fc                 BTRSS 0x3, 0x2
000002b2 c54a                 LGOTO 0x2b5; main.o:_00695_DS_=0x2b5
000002b3 defb                 MOVIA 0x4
000002b4 fbdc                 SUBAR 0x23, 0x0
000002b5                      main.o:_00695_DS_:
000002b5 f3fc                 BTRSC 0x3, 0x0
000002b6 c544                 LGOTO 0x2bb; main.o:_00617_DS_=0x2bb
000002b7 def9                 MOVIA 0x6
000002b8 e0fc                 BCR 0x3, 0x6
000002b9 ff23                 MOVAR 0x5c
000002ba c541                 LGOTO 0x2be; main.o:_00639_DS_=0x2be
000002bb                      main.o:_00617_DS_:
000002bb def8                 MOVIA 0x7
000002bc e0fc                 BCR 0x3, 0x6
000002bd ff23                 MOVAR 0x5c
000002be                      main.o:_00639_DS_:
000002be e0fc                 BCR 0x3, 0x6
000002bf fe87                 MOVR 0x78, 0x0
000002c0 f2fc                 BTRSC 0x3, 0x2
000002c1 c539                 LGOTO 0x2c6; main.o:_00640_DS_=0x2c6
000002c2 fea3                 MOVR 0x5c, 0x0
000002c3 fb87                 SUBAR 0x78, 0x0
000002c4 f3fc                 BTRSC 0x3, 0x0
000002c5 c536                 LGOTO 0x2c9; main.o:_00641_DS_=0x2c9
000002c6                      main.o:_00640_DS_:
000002c6 e0fc                 BCR 0x3, 0x6
000002c7 fea3                 MOVR 0x5c, 0x0
000002c8 ff07                 MOVAR 0x78
000002c9                      main.o:_00641_DS_:
000002c9 e0fc                 BCR 0x3, 0x6
000002ca fe98                 MOVR 0x67, 0x0
000002cb f2fc                 BTRSC 0x3, 0x2
000002cc c52d                 LGOTO 0x2d2; main.o:_00646_DS_=0x2d2
000002cd fe87                 MOVR 0x78, 0x0
000002ce f2fc                 BTRSC 0x3, 0x2
000002cf c52d                 LGOTO 0x2d2; main.o:_00646_DS_=0x2d2
000002d0 fe87                 MOVR 0x78, 0x0
000002d1 ff23                 MOVAR 0x5c
000002d2                      main.o:_00646_DS_:
000002d2 ffef                 RET
000002d3                      _initAD:
000002d3 de7b                 MOVIA 0x84
000002d4 ff6f                 MOVAR 0x10
000002d5 fd6c                 CLRR 0x13
000002d6 deef                 MOVIA 0x10
000002d7 ff6e                 MOVAR 0x11
000002d8 defc                 MOVIA 0x3
000002d9 ff6b                 MOVAR 0x14
000002da e5ef                 BSR 0x10, 0x4
000002db de9b                 MOVIA 0x64
000002dc d521                 LCALL 0x2de; _delay=0x2de
000002dd ffef                 RET
000002de                      _delay:
000002de e0fc                 BCR 0x3, 0x6
000002df ff4a                 MOVAR 0x35
000002e0 fd49                 CLRR 0x36
000002e1                      main.o:_00601_DS_:
000002e1 e0fc                 BCR 0x3, 0x6
000002e2 feca                 MOVR 0x35, 0x0
000002e3 fbc9                 SUBAR 0x36, 0x0
000002e4 f3fc                 BTRSC 0x3, 0x0
000002e5 c516                 LGOTO 0x2e9; main.o:_00603_DS_=0x2e9
000002e6 ffff                 NOP
000002e7 fa49                 INCR 0x36, 0x1
000002e8 c51e                 LGOTO 0x2e1; main.o:_00601_DS_=0x2e1
000002e9                      main.o:_00603_DS_:
000002e9 ffef                 RET
000002ea                      _chrgCtr:
000002ea e0fc                 BCR 0x3, 0x6
000002eb f67a                 BTRSS 0x5, 0x3
000002ec c44d                 LGOTO 0x3b2; main.o:_00521_DS_=0x3b2
000002ed e62a                 BSR 0x55, 0x3
000002ee fd26                 CLRR 0x59
000002ef fd18                 CLRR 0x67
000002f0 d3e9                 LCALL 0x416; _pwmStop=0x416
000002f1 def7                 MOVIA 0x8
000002f2 e0fc                 BCR 0x3, 0x6
000002f3 fba3                 SUBAR 0x5c, 0x0
000002f4 f3fc                 BTRSC 0x3, 0x0
000002f5 c506                 LGOTO 0x2f9; main.o:_00514_DS_=0x2f9
000002f6 fe84                 MOVR 0x7b, 0x0
000002f7 f2fc                 BTRSC 0x3, 0x2
000002f8 c4e7                 LGOTO 0x318; main.o:_00515_DS_=0x318
000002f9                      main.o:_00514_DS_:
000002f9 def9                 MOVIA 0x6
000002fa e0fc                 BCR 0x3, 0x6
000002fb ff08                 MOVAR 0x77
000002fc ff25                 MOVAR 0x5a
000002fd fa16                 INCR 0x69, 0x1
000002fe f2fc                 BTRSC 0x3, 0x2
000002ff fa15                 INCR 0x6a, 0x1
00000300 def8                 MOVIA 0x7
00000301 fb95                 SUBAR 0x6a, 0x0
00000302 f6fc                 BTRSS 0x3, 0x2
00000303 c4f9                 LGOTO 0x306; main.o:_00583_DS_=0x306
00000304 de2f                 MOVIA 0xd0
00000305 fb96                 SUBAR 0x69, 0x0
00000306                      main.o:_00583_DS_:
00000306 f7fc                 BTRSS 0x3, 0x0
00000307 c439                 LGOTO 0x3c6; main.o:_00523_DS_=0x3c6
00000308 de2f                 MOVIA 0xd0
00000309 e0fc                 BCR 0x3, 0x6
0000030a ff16                 MOVAR 0x69
0000030b def8                 MOVIA 0x7
0000030c ff15                 MOVAR 0x6a
0000030d defe                 MOVIA 0x1
0000030e ff04                 MOVAR 0x7b
0000030f d3d9                 LCALL 0x426; _pwm1Stop=0x426
00000310 e279                 BCR 0x6, 0x3
00000311 ffe9                 IOSTR 0x6
00000312 e0fc                 BCR 0x3, 0x6
00000313 ff4e                 MOVAR 0x31
00000314 e64e                 BSR 0x31, 0x3
00000315 fece                 MOVR 0x31, 0x0
00000316 fff9                 IOST 0x6
00000317 c439                 LGOTO 0x3c6; main.o:_00523_DS_=0x3c6
00000318                      main.o:_00515_DS_:
00000318 ffe9                 IOSTR 0x6
00000319 e0fc                 BCR 0x3, 0x6
0000031a ff4e                 MOVAR 0x31
0000031b e24e                 BCR 0x31, 0x3
0000031c fece                 MOVR 0x31, 0x0
0000031d fff9                 IOST 0x6
0000031e fd16                 CLRR 0x69
0000031f fd15                 CLRR 0x6a
00000320 defe                 MOVIA 0x1
00000321 fba3                 SUBAR 0x5c, 0x0
00000322 f3fc                 BTRSC 0x3, 0x0
00000323 c4d9                 LGOTO 0x326; main.o:_00481_DS_=0x326
00000324 deec                 MOVIA 0x13
00000325 ff03                 MOVAR 0x7c
00000326                      main.o:_00481_DS_:
00000326 defd                 MOVIA 0x2
00000327 e0fc                 BCR 0x3, 0x6
00000328 fba3                 SUBAR 0x5c, 0x0
00000329 f3fc                 BTRSC 0x3, 0x0
0000032a c4d1                 LGOTO 0x32e; main.o:_00486_DS_=0x32e
0000032b deeb                 MOVIA 0x14
0000032c ff03                 MOVAR 0x7c
0000032d c4c6                 LGOTO 0x339; main.o:_00487_DS_=0x339
0000032e                      main.o:_00486_DS_:
0000032e def9                 MOVIA 0x6
0000032f e0fc                 BCR 0x3, 0x6
00000330 fba3                 SUBAR 0x5c, 0x0
00000331 f3fc                 BTRSC 0x3, 0x0
00000332 c4c9                 LGOTO 0x336; main.o:_00483_DS_=0x336
00000333 dee8                 MOVIA 0x17
00000334 ff03                 MOVAR 0x7c
00000335 c4c6                 LGOTO 0x339; main.o:_00487_DS_=0x339
00000336                      main.o:_00483_DS_:
00000336 dee7                 MOVIA 0x18
00000337 e0fc                 BCR 0x3, 0x6
00000338 ff03                 MOVAR 0x7c
00000339                      main.o:_00487_DS_:
00000339 e0fc                 BCR 0x3, 0x6
0000033a fea8                 MOVR 0x57, 0x0
0000033b f6fc                 BTRSS 0x3, 0x2
0000033c c49c                 LGOTO 0x363; main.o:_00493_DS_=0x363
0000033d def8                 MOVIA 0x7
0000033e fba3                 SUBAR 0x5c, 0x0
0000033f f3fc                 BTRSC 0x3, 0x0
00000340 c49c                 LGOTO 0x363; main.o:_00493_DS_=0x363
00000341 fea3                 MOVR 0x5c, 0x0
00000342 ff4e                 MOVAR 0x31
00000343 fd4d                 CLRR 0x32
00000344 de00                 MOVIA 0xff
00000345 fc4e                 ADDAR 0x31, 0x1
00000346 f3fc                 BTRSC 0x3, 0x0
00000347 c4b6                 LGOTO 0x349; main.o:_00005_DS_=0x349
00000348 f94d                 DECR 0x32, 0x1
00000349                      main.o:_00005_DS_:
00000349 e0fc                 BCR 0x3, 0x6
0000034a fe8b                 MOVR 0x74, 0x0
0000034b ff4c                 MOVAR 0x33
0000034c deff                 MOVIA 0x0
0000034d da7f                 ADDIA 0x80
0000034e ff4b                 MOVAR 0x34
0000034f fecd                 MOVR 0x32, 0x0
00000350 da7f                 ADDIA 0x80
00000351 fbcb                 SUBAR 0x34, 0x0
00000352 f6fc                 BTRSS 0x3, 0x2
00000353 c4a9                 LGOTO 0x356; main.o:_00588_DS_=0x356
00000354 fece                 MOVR 0x31, 0x0
00000355 fbcc                 SUBAR 0x33, 0x0
00000356                      main.o:_00588_DS_:
00000356 f3fc                 BTRSC 0x3, 0x0
00000357 c4a4                 LGOTO 0x35b; main.o:_00489_DS_=0x35b
00000358 e0fc                 BCR 0x3, 0x6
00000359 f9a3                 DECR 0x5c, 0x0
0000035a ff0b                 MOVAR 0x74
0000035b                      main.o:_00489_DS_:
0000035b e0fc                 BCR 0x3, 0x6
0000035c fa25                 INCR 0x5a, 0x1
0000035d def8                 MOVIA 0x7
0000035e fba5                 SUBAR 0x5a, 0x0
0000035f f7fc                 BTRSS 0x3, 0x0
00000360 c49c                 LGOTO 0x363; main.o:_00493_DS_=0x363
00000361 fe8b                 MOVR 0x74, 0x0
00000362 ff25                 MOVAR 0x5a
00000363                      main.o:_00493_DS_:
00000363 e0fc                 BCR 0x3, 0x6
00000364 fea3                 MOVR 0x5c, 0x0
00000365 dbf8                 XORIA 0x7
00000366 f6fc                 BTRSS 0x3, 0x2
00000367 c495                 LGOTO 0x36a; main.o:_00496_DS_=0x36a
00000368 def9                 MOVIA 0x6
00000369 ff25                 MOVAR 0x5a
0000036a                      main.o:_00496_DS_:
0000036a e0fc                 BCR 0x3, 0x6
0000036b fe85                 MOVR 0x7a, 0x0
0000036c fb83                 SUBAR 0x7c, 0x0
0000036d f3fc                 BTRSC 0x3, 0x0
0000036e c48c                 LGOTO 0x373; main.o:_00498_DS_=0x373
0000036f fe83                 MOVR 0x7c, 0x0
00000370 ff05                 MOVAR 0x7a
00000371 ffbc                 SFUN 0x3
00000372 c489                 LGOTO 0x376; main.o:_00499_DS_=0x376
00000373                      main.o:_00498_DS_:
00000373 e0fc                 BCR 0x3, 0x6
00000374 fe86                 MOVR 0x79, 0x0
00000375 ffbc                 SFUN 0x3
00000376                      main.o:_00499_DS_:
00000376 d3d6                 LCALL 0x429; _pwm1Init=0x429
00000377 def9                 MOVIA 0x6
00000378 e0fc                 BCR 0x3, 0x6
00000379 fb9e                 SUBAR 0x61, 0x0
0000037a f7fc                 BTRSS 0x3, 0x0
0000037b c439                 LGOTO 0x3c6; main.o:_00523_DS_=0x3c6
0000037c deff                 MOVIA 0x0
0000037d fbde                 SUBAR 0x21, 0x0
0000037e f6fc                 BTRSS 0x3, 0x2
0000037f c47d                 LGOTO 0x382; main.o:_00592_DS_=0x382
00000380 ded9                 MOVIA 0x26
00000381 fbdf                 SUBAR 0x20, 0x0
00000382                      main.o:_00592_DS_:
00000382 f7fc                 BTRSS 0x3, 0x0
00000383 c46e                 LGOTO 0x391; main.o:_00507_DS_=0x391
00000384 e0fc                 BCR 0x3, 0x6
00000385 fa01                 INCR 0x7e, 0x1
00000386 decc                 MOVIA 0x33
00000387 fb81                 SUBAR 0x7e, 0x0
00000388 f7fc                 BTRSS 0x3, 0x0
00000389 c471                 LGOTO 0x38e; main.o:_00501_DS_=0x38e
0000038a f905                 DECR 0x7a, 0x1
0000038b fd01                 CLRR 0x7e
0000038c dedd                 MOVIA 0x22
0000038d ff00                 MOVAR 0x7f
0000038e                      main.o:_00501_DS_:
0000038e e0fc                 BCR 0x3, 0x6
0000038f fd02                 CLRR 0x7d
00000390 c458                 LGOTO 0x3a7; main.o:_00508_DS_=0x3a7
00000391                      main.o:_00507_DS_:
00000391 e0fc                 BCR 0x3, 0x6
00000392 fe80                 MOVR 0x7f, 0x0
00000393 ff4e                 MOVAR 0x31
00000394 fd4d                 CLRR 0x32
00000395 deff                 MOVIA 0x0
00000396 fbde                 SUBAR 0x21, 0x0
00000397 f6fc                 BTRSS 0x3, 0x2
00000398 c464                 LGOTO 0x39b; main.o:_00594_DS_=0x39b
00000399 fece                 MOVR 0x31, 0x0
0000039a fbdf                 SUBAR 0x20, 0x0
0000039b                      main.o:_00594_DS_:
0000039b f3fc                 BTRSC 0x3, 0x0
0000039c c458                 LGOTO 0x3a7; main.o:_00508_DS_=0x3a7
0000039d e0fc                 BCR 0x3, 0x6
0000039e fa02                 INCR 0x7d, 0x1
0000039f decc                 MOVIA 0x33
000003a0 fb82                 SUBAR 0x7d, 0x0
000003a1 f7fc                 BTRSS 0x3, 0x0
000003a2 c45a                 LGOTO 0x3a5; main.o:_00503_DS_=0x3a5
000003a3 fa05                 INCR 0x7a, 0x1
000003a4 fd02                 CLRR 0x7d
000003a5                      main.o:_00503_DS_:
000003a5 e0fc                 BCR 0x3, 0x6
000003a6 fd01                 CLRR 0x7e
000003a7                      main.o:_00508_DS_:
000003a7 e0fc                 BCR 0x3, 0x6
000003a8 fe85                 MOVR 0x7a, 0x0
000003a9 fb86                 SUBAR 0x79, 0x0
000003aa f3fc                 BTRSC 0x3, 0x0
000003ab c451                 LGOTO 0x3ae; main.o:_00510_DS_=0x3ae
000003ac fa06                 INCR 0x79, 0x1
000003ad c439                 LGOTO 0x3c6; main.o:_00523_DS_=0x3c6
000003ae                      main.o:_00510_DS_:
000003ae e0fc                 BCR 0x3, 0x6
000003af fe85                 MOVR 0x7a, 0x0
000003b0 ff06                 MOVAR 0x79
000003b1 c439                 LGOTO 0x3c6; main.o:_00523_DS_=0x3c6
000003b2                      main.o:_00521_DS_:
000003b2 deda                 MOVIA 0x25
000003b3 e0fc                 BCR 0x3, 0x6
000003b4 ff00                 MOVAR 0x7f
000003b5 fd04                 CLRR 0x7b
000003b6 fd06                 CLRR 0x79
000003b7 fd05                 CLRR 0x7a
000003b8 fd08                 CLRR 0x77
000003b9 fd0b                 CLRR 0x74
000003ba fd22                 CLRR 0x5d
000003bb fd21                 CLRR 0x5e
000003bc d3d9                 LCALL 0x426; _pwm1Stop=0x426
000003bd e0fc                 BCR 0x3, 0x6
000003be fea6                 MOVR 0x59, 0x0
000003bf f6fc                 BTRSS 0x3, 0x2
000003c0 c43d                 LGOTO 0x3c2; main.o:_00006_DS_=0x3c2
000003c1 fd25                 CLRR 0x5a
000003c2                      main.o:_00006_DS_:
000003c2 e0fc                 BCR 0x3, 0x6
000003c3 e22a                 BCR 0x55, 0x3
000003c4 fd22                 CLRR 0x5d
000003c5 fd21                 CLRR 0x5e
000003c6                      main.o:_00523_DS_:
000003c6 ffef                 RET
000003c7                      _keyRead:
000003c7 e0fc                 BCR 0x3, 0x6
000003c8 ff4f                 MOVAR 0x30
000003c9 fecf                 MOVR 0x30, 0x0
000003ca f2fc                 BTRSC 0x3, 0x2
000003cb c427                 LGOTO 0x3d8; main.o:_00471_DS_=0x3d8
000003cc fa27                 INCR 0x58, 0x1
000003cd de9b                 MOVIA 0x64
000003ce fba7                 SUBAR 0x58, 0x0
000003cf f7fc                 BTRSS 0x3, 0x0
000003d0 c414                 LGOTO 0x3eb; main.o:_00472_DS_=0x3eb
000003d1 de9b                 MOVIA 0x64
000003d2 ff27                 MOVAR 0x58
000003d3 f32a                 BTRSC 0x55, 0x1
000003d4 c414                 LGOTO 0x3eb; main.o:_00472_DS_=0x3eb
000003d5 e72a                 BSR 0x55, 0x1
000003d6 defd                 MOVIA 0x2
000003d7 c413                 LGOTO 0x3ec; main.o:_00473_DS_=0x3ec
000003d8                      main.o:_00471_DS_:
000003d8 de9b                 MOVIA 0x64
000003d9 e0fc                 BCR 0x3, 0x6
000003da fba7                 SUBAR 0x58, 0x0
000003db f7fc                 BTRSS 0x3, 0x0
000003dc c41e                 LGOTO 0x3e1; main.o:_00468_DS_=0x3e1
000003dd fd27                 CLRR 0x58
000003de e32a                 BCR 0x55, 0x1
000003df deff                 MOVIA 0x0
000003e0 c413                 LGOTO 0x3ec; main.o:_00473_DS_=0x3ec
000003e1                      main.o:_00468_DS_:
000003e1 defb                 MOVIA 0x4
000003e2 e0fc                 BCR 0x3, 0x6
000003e3 fba7                 SUBAR 0x58, 0x0
000003e4 f7fc                 BTRSS 0x3, 0x0
000003e5 c416                 LGOTO 0x3e9; main.o:_00469_DS_=0x3e9
000003e6 fd27                 CLRR 0x58
000003e7 defe                 MOVIA 0x1
000003e8 c413                 LGOTO 0x3ec; main.o:_00473_DS_=0x3ec
000003e9                      main.o:_00469_DS_:
000003e9 e0fc                 BCR 0x3, 0x6
000003ea fd27                 CLRR 0x58
000003eb                      main.o:_00472_DS_:
000003eb deff                 MOVIA 0x0
000003ec                      main.o:_00473_DS_:
000003ec ffef                 RET
000003ed                      _gotoSleep:
000003ed d361                 LCALL 0x49e; _LedInput=0x49e
000003ee e0fc                 BCR 0x3, 0x6
000003ef fd20                 CLRR 0x5f
000003f0 fd1f                 CLRR 0x60
000003f1 d3e9                 LCALL 0x416; _pwmStop=0x416
000003f2 d3d9                 LCALL 0x426; _pwm1Stop=0x426
000003f3 de37                 MOVIA 0xc8
000003f4 fffa                 IOST 0x5
000003f5 deb9                 MOVIA 0x46
000003f6 e0fc                 BCR 0x3, 0x6
000003f7 ff7a                 MOVAR 0x5
000003f8 dec0                 MOVIA 0x3f
000003f9 fff6                 IOST 0x9
000003fa fd79                 CLRR 0x6
000003fb fd26                 CLRR 0x59
000003fc de77                 MOVIA 0x88
000003fd ff6a                 MOVAR 0x15
000003fe fd76                 CLRR 0x9
000003ff e2aa                 BCR 0x55, 0x2
00000400 defd                 MOVIA 0x2
00000401 ff71                 MOVAR 0xe
00000402 dee7                 MOVIA 0x18
00000403 ff77                 MOVAR 0x8
00000404 fd70                 CLRR 0xf
00000405 fffd                 CLRWDT
00000406 fffb                 ENI
00000407 fffe                 SLEEP
00000408 fd6a                 CLRR 0x15
00000409 de41                 MOVIA 0xbe
0000040a fffa                 IOST 0x5
0000040b fdff                 CLRA
0000040c fff9                 IOST 0x6
0000040d fd7a                 CLRR 0x5
0000040e de80                 MOVIA 0x7f
0000040f fff6                 IOST 0x9
00000410 defe                 MOVIA 0x1
00000411 ff71                 MOVAR 0xe
00000412 fd70                 CLRR 0xf
00000413 de47                 MOVIA 0xb8
00000414 ff77                 MOVAR 0x8
00000415 ffef                 RET
00000416                      _pwmStop:
00000416 fdff                 CLRA
00000417 ffb5                 SFUN 0xa
00000418 ffef                 RET
00000419                      _pwmInit:
00000419 ff95                 SFUNR 0xa
0000041a e0fc                 BCR 0x3, 0x6
0000041b ff50                 MOVAR 0x2f
0000041c f050                 BTRSC 0x2f, 0x7
0000041d c3da                 LGOTO 0x425; main.o:_00448_DS_=0x425
0000041e fd66                 CLRR 0x19
0000041f de9b                 MOVIA 0x64
00000420 ffb6                 SFUN 0x9
00000421 defe                 MOVIA 0x1
00000422 ffb4                 SFUN 0xb
00000423 de7c                 MOVIA 0x83
00000424 ffb5                 SFUN 0xa
00000425                      main.o:_00448_DS_:
00000425 ffef                 RET
00000426                      _pwm1Stop:
00000426 fdff                 CLRA
00000427 ffbe                 SFUN 0x1
00000428 ffef                 RET
00000429                      _pwm1Init:
00000429 ff9e                 SFUNR 0x1
0000042a e0fc                 BCR 0x3, 0x6
0000042b ff51                 MOVAR 0x2e
0000042c f051                 BTRSC 0x2e, 0x7
0000042d c3c8                 LGOTO 0x437; main.o:_00437_DS_=0x437
0000042e fd66                 CLRR 0x19
0000042f decf                 MOVIA 0x30
00000430 ffbf                 SFUN 0x0
00000431 fdff                 CLRA
00000432 ffbd                 SFUN 0x2
00000433 def7                 MOVIA 0x8
00000434 ffbd                 SFUN 0x2
00000435 de7c                 MOVIA 0x83
00000436 ffbe                 SFUN 0x1
00000437                      main.o:_00437_DS_:
00000437 ffef                 RET
00000438                      _LED6ON:
00000438 ffea                 IOSTR 0x5
00000439 e0fc                 BCR 0x3, 0x6
0000043a ff52                 MOVAR 0x2d
0000043b e3d2                 BCR 0x2d, 0x0
0000043c fed2                 MOVR 0x2d, 0x0
0000043d fffa                 IOST 0x5
0000043e ffe9                 IOSTR 0x6
0000043f ff52                 MOVAR 0x2d
00000440 e352                 BCR 0x2d, 0x1
00000441 fed2                 MOVR 0x2d, 0x0
00000442 fff9                 IOST 0x6
00000443 e779                 BSR 0x6, 0x1
00000444 e3fa                 BCR 0x5, 0x0
00000445 de9b                 MOVIA 0x64
00000446 d521                 LCALL 0x2de; _delay=0x2de
00000447 d361                 LCALL 0x49e; _LedInput=0x49e
00000448 ffef                 RET
00000449                      _LED5ON:
00000449 ffea                 IOSTR 0x5
0000044a e0fc                 BCR 0x3, 0x6
0000044b ff53                 MOVAR 0x2c
0000044c e3d3                 BCR 0x2c, 0x0
0000044d fed3                 MOVR 0x2c, 0x0
0000044e fffa                 IOST 0x5
0000044f ffe9                 IOSTR 0x6
00000450 ff53                 MOVAR 0x2c
00000451 e353                 BCR 0x2c, 0x1
00000452 fed3                 MOVR 0x2c, 0x0
00000453 fff9                 IOST 0x6
00000454 e7fa                 BSR 0x5, 0x0
00000455 e379                 BCR 0x6, 0x1
00000456 de9b                 MOVIA 0x64
00000457 d521                 LCALL 0x2de; _delay=0x2de
00000458 d361                 LCALL 0x49e; _LedInput=0x49e
00000459 ffef                 RET
0000045a                      _LED4ON:
0000045a ffe9                 IOSTR 0x6
0000045b e0fc                 BCR 0x3, 0x6
0000045c ff54                 MOVAR 0x2b
0000045d e3d4                 BCR 0x2b, 0x0
0000045e fed4                 MOVR 0x2b, 0x0
0000045f fff9                 IOST 0x6
00000460 ffea                 IOSTR 0x5
00000461 ff54                 MOVAR 0x2b
00000462 e3d4                 BCR 0x2b, 0x0
00000463 fed4                 MOVR 0x2b, 0x0
00000464 fffa                 IOST 0x5
00000465 e7f9                 BSR 0x6, 0x0
00000466 e3fa                 BCR 0x5, 0x0
00000467 de9b                 MOVIA 0x64
00000468 d521                 LCALL 0x2de; _delay=0x2de
00000469 d361                 LCALL 0x49e; _LedInput=0x49e
0000046a ffef                 RET
0000046b                      _LED3ON:
0000046b ffe9                 IOSTR 0x6
0000046c e0fc                 BCR 0x3, 0x6
0000046d ff55                 MOVAR 0x2a
0000046e e3d5                 BCR 0x2a, 0x0
0000046f fed5                 MOVR 0x2a, 0x0
00000470 fff9                 IOST 0x6
00000471 ffe9                 IOSTR 0x6
00000472 ff55                 MOVAR 0x2a
00000473 e355                 BCR 0x2a, 0x1
00000474 fed5                 MOVR 0x2a, 0x0
00000475 fff9                 IOST 0x6
00000476 e779                 BSR 0x6, 0x1
00000477 e3f9                 BCR 0x6, 0x0
00000478 de9b                 MOVIA 0x64
00000479 d521                 LCALL 0x2de; _delay=0x2de
0000047a d361                 LCALL 0x49e; _LedInput=0x49e
0000047b ffef                 RET
0000047c                      _LED2ON:
0000047c ffea                 IOSTR 0x5
0000047d e0fc                 BCR 0x3, 0x6
0000047e ff56                 MOVAR 0x29
0000047f e3d6                 BCR 0x29, 0x0
00000480 fed6                 MOVR 0x29, 0x0
00000481 fffa                 IOST 0x5
00000482 ffe9                 IOSTR 0x6
00000483 ff56                 MOVAR 0x29
00000484 e3d6                 BCR 0x29, 0x0
00000485 fed6                 MOVR 0x29, 0x0
00000486 fff9                 IOST 0x6
00000487 e7fa                 BSR 0x5, 0x0
00000488 e3f9                 BCR 0x6, 0x0
00000489 de9b                 MOVIA 0x64
0000048a d521                 LCALL 0x2de; _delay=0x2de
0000048b d361                 LCALL 0x49e; _LedInput=0x49e
0000048c ffef                 RET
0000048d                      _LED1ON:
0000048d ffe9                 IOSTR 0x6
0000048e e0fc                 BCR 0x3, 0x6
0000048f ff57                 MOVAR 0x28
00000490 e3d7                 BCR 0x28, 0x0
00000491 fed7                 MOVR 0x28, 0x0
00000492 fff9                 IOST 0x6
00000493 ffe9                 IOSTR 0x6
00000494 ff57                 MOVAR 0x28
00000495 e357                 BCR 0x28, 0x1
00000496 fed7                 MOVR 0x28, 0x0
00000497 fff9                 IOST 0x6
00000498 e7f9                 BSR 0x6, 0x0
00000499 e379                 BCR 0x6, 0x1
0000049a de9b                 MOVIA 0x64
0000049b d521                 LCALL 0x2de; _delay=0x2de
0000049c d361                 LCALL 0x49e; _LedInput=0x49e
0000049d ffef                 RET
0000049e                      _LedInput:
0000049e ffea                 IOSTR 0x5
0000049f e0fc                 BCR 0x3, 0x6
000004a0 ff58                 MOVAR 0x27
000004a1 e7d8                 BSR 0x27, 0x0
000004a2 fed8                 MOVR 0x27, 0x0
000004a3 fffa                 IOST 0x5
000004a4 ffe9                 IOSTR 0x6
000004a5 ff58                 MOVAR 0x27
000004a6 defc                 MOVIA 0x3
000004a7 ee58                 IORAR 0x27, 0x1
000004a8 fed8                 MOVR 0x27, 0x0
000004a9 fff9                 IOST 0x6
000004aa e3fa                 BCR 0x5, 0x0
000004ab de03                 MOVIA 0xfc
000004ac ef79                 ANDAR 0x6, 0x1
000004ad ffef                 RET
000004ae                      _ledShow:
000004ae e0fc                 BCR 0x3, 0x6
000004af fe8c                 MOVR 0x73, 0x0
000004b0 f2fc                 BTRSC 0x3, 0x2
000004b1 c343                 LGOTO 0x4bc; main.o:_00334_DS_=0x4bc
000004b2 fea6                 MOVR 0x59, 0x0
000004b3 f6fc                 BTRSS 0x3, 0x2
000004b4 c343                 LGOTO 0x4bc; main.o:_00334_DS_=0x4bc
000004b5 f38c                 BTRSC 0x73, 0x0
000004b6 c346                 LGOTO 0x4b9; main.o:_00331_DS_=0x4b9
000004b7 fd25                 CLRR 0x5a
000004b8 c343                 LGOTO 0x4bc; main.o:_00334_DS_=0x4bc
000004b9                      main.o:_00331_DS_:
000004b9 e0fc                 BCR 0x3, 0x6
000004ba fe8f                 MOVR 0x70, 0x0
000004bb ff25                 MOVAR 0x5a
000004bc                      main.o:_00334_DS_:
000004bc e0fc                 BCR 0x3, 0x6
000004bd fe98                 MOVR 0x67, 0x0
000004be f2fc                 BTRSC 0x3, 0x2
000004bf c32f                 LGOTO 0x4d0; main.o:_00342_DS_=0x4d0
000004c0 fea3                 MOVR 0x5c, 0x0
000004c1 f2fc                 BTRSC 0x3, 0x2
000004c2 c32f                 LGOTO 0x4d0; main.o:_00342_DS_=0x4d0
000004c3 fe98                 MOVR 0x67, 0x0
000004c4 f2fc                 BTRSC 0x3, 0x2
000004c5 c32f                 LGOTO 0x4d0; main.o:_00342_DS_=0x4d0
000004c6 def8                 MOVIA 0x7
000004c7 fba3                 SUBAR 0x5c, 0x0
000004c8 f7fc                 BTRSS 0x3, 0x0
000004c9 c332                 LGOTO 0x4cd; main.o:_00337_DS_=0x4cd
000004ca def9                 MOVIA 0x6
000004cb ff25                 MOVAR 0x5a
000004cc c32f                 LGOTO 0x4d0; main.o:_00342_DS_=0x4d0
000004cd                      main.o:_00337_DS_:
000004cd e0fc                 BCR 0x3, 0x6
000004ce fea3                 MOVR 0x5c, 0x0
000004cf ff25                 MOVAR 0x5a
000004d0                      main.o:_00342_DS_:
000004d0 e0fc                 BCR 0x3, 0x6
000004d1 fe94                 MOVR 0x6b, 0x0
000004d2 f2fc                 BTRSC 0x3, 0x2
000004d3 c31c                 LGOTO 0x4e3; main.o:_00348_DS_=0x4e3
000004d4 fea6                 MOVR 0x59, 0x0
000004d5 f2fc                 BTRSC 0x3, 0x2
000004d6 c31c                 LGOTO 0x4e3; main.o:_00348_DS_=0x4e3
000004d7 fea3                 MOVR 0x5c, 0x0
000004d8 f6fc                 BTRSS 0x3, 0x2
000004d9 c31c                 LGOTO 0x4e3; main.o:_00348_DS_=0x4e3
000004da decd                 MOVIA 0x32
000004db fb9d                 SUBAR 0x62, 0x0
000004dc f3fc                 BTRSC 0x3, 0x0
000004dd c31e                 LGOTO 0x4e1; main.o:_00345_DS_=0x4e1
000004de fea6                 MOVR 0x59, 0x0
000004df ff25                 MOVAR 0x5a
000004e0 c31c                 LGOTO 0x4e3; main.o:_00348_DS_=0x4e3
000004e1                      main.o:_00345_DS_:
000004e1 e0fc                 BCR 0x3, 0x6
000004e2 fd25                 CLRR 0x5a
000004e3                      main.o:_00348_DS_:
000004e3 d361                 LCALL 0x49e; _LedInput=0x49e
000004e4 def6                 MOVIA 0x9
000004e5 e0fc                 BCR 0x3, 0x6
000004e6 fba5                 SUBAR 0x5a, 0x0
000004e7 f3fc                 BTRSC 0x3, 0x0
000004e8 c2fe                 LGOTO 0x501; main.o:_00361_DS_=0x501
000004e9 defb                 MOVIA 0x4
000004ea ff75                 MOVAR 0xa
000004eb fea5                 MOVR 0x5a, 0x0
000004ec da0f                 ADDIA 0xf0
000004ed f3fc                 BTRSC 0x3, 0x0
000004ee fa75                 INCR 0xa, 0x1
000004ef ff7d                 MOVAR 0x2
000004f0                      main.o:_00402_DS_:
000004f0 c306                 LGOTO 0x4f9; main.o:_00351_DS_=0x4f9
000004f1 c2ff                 LGOTO 0x500; main.o:_00359_DS_=0x500
000004f2 c300                 LGOTO 0x4ff; main.o:_00358_DS_=0x4ff
000004f3 c301                 LGOTO 0x4fe; main.o:_00357_DS_=0x4fe
000004f4 c302                 LGOTO 0x4fd; main.o:_00356_DS_=0x4fd
000004f5 c303                 LGOTO 0x4fc; main.o:_00355_DS_=0x4fc
000004f6 c304                 LGOTO 0x4fb; main.o:_00354_DS_=0x4fb
000004f7 c304                 LGOTO 0x4fb; main.o:_00354_DS_=0x4fb
000004f8 c304                 LGOTO 0x4fb; main.o:_00354_DS_=0x4fb
000004f9                      main.o:_00351_DS_:
000004f9 d361                 LCALL 0x49e; _LedInput=0x49e
000004fa c2fe                 LGOTO 0x501; main.o:_00361_DS_=0x501
000004fb                      main.o:_00354_DS_:
000004fb d3c7                 LCALL 0x438; _LED6ON=0x438
000004fc                      main.o:_00355_DS_:
000004fc d3b6                 LCALL 0x449; _LED5ON=0x449
000004fd                      main.o:_00356_DS_:
000004fd d3a5                 LCALL 0x45a; _LED4ON=0x45a
000004fe                      main.o:_00357_DS_:
000004fe d394                 LCALL 0x46b; _LED3ON=0x46b
000004ff                      main.o:_00358_DS_:
000004ff d383                 LCALL 0x47c; _LED2ON=0x47c
00000500                      main.o:_00359_DS_:
00000500 d372                 LCALL 0x48d; _LED1ON=0x48d
00000501                      main.o:_00361_DS_:
00000501 ffef                 RET
00000502                      _initSys:
00000502 ffec                 DISI
00000503 de41                 MOVIA 0xbe
00000504 fffa                 IOST 0x5
00000505 def7                 MOVIA 0x8
00000506 fff9                 IOST 0x6
00000507 fd79                 CLRR 0x6
00000508 e0fc                 BCR 0x3, 0x6
00000509 fd7a                 CLRR 0x5
0000050a d361                 LCALL 0x49e; _LedInput=0x49e
0000050b de80                 MOVIA 0x7f
0000050c fff6                 IOST 0x9
0000050d de00                 MOVIA 0xff
0000050e ff73                 MOVAR 0xc
0000050f ff74                 MOVAR 0xb
00000510 defe                 MOVIA 0x1
00000511 ff71                 MOVAR 0xe
00000512 fdff                 CLRA
00000513 fff0                 IOST 0xf
00000514 dec8                 MOVIA 0x37
00000515 ff7e                 MOVAR 0x1
00000516 defe                 MOVIA 0x1
00000517 fffc                 T0MD
00000518 fff0                 IOST 0xf
00000519 de67                 MOVIA 0x98
0000051a ff77                 MOVAR 0x8
0000051b defe                 MOVIA 0x1
0000051c fff0                 IOST 0xf
0000051d fffb                 ENI
0000051e ffef                 RET
0000051f                      _powerOff:
0000051f e0fc                 BCR 0x3, 0x6
00000520 fd26                 CLRR 0x59
00000521 d3e9                 LCALL 0x416; _pwmStop=0x416
00000522 ffef                 RET
00000523                      _keyCtr:
00000523 e0fc                 BCR 0x3, 0x6
00000524 f8fa                 COMR 0x5, 0x0
00000525 ff59                 MOVAR 0x26
00000526 de7f                 MOVIA 0x80
00000527 ef59                 ANDAR 0x26, 0x1
00000528 fed9                 MOVR 0x26, 0x0
00000529 d438                 LCALL 0x3c7; _keyRead=0x3c7
0000052a e0fc                 BCR 0x3, 0x6
0000052b ff59                 MOVAR 0x26
0000052c dbfe                 XORIA 0x1
0000052d f6fc                 BTRSS 0x3, 0x2
0000052e c27c                 LGOTO 0x583; main.o:_00315_DS_=0x583
0000052f fd28                 CLRR 0x57
00000530 fd18                 CLRR 0x67
00000531 fea6                 MOVR 0x59, 0x0
00000532 f6fc                 BTRSS 0x3, 0x2
00000533 c2c6                 LGOTO 0x539; main.o:_00281_DS_=0x539
00000534 fd1d                 CLRR 0x62
00000535 defc                 MOVIA 0x3
00000536 ff18                 MOVAR 0x67
00000537 fd07                 CLRR 0x78
00000538 c256                 LGOTO 0x5a9; main.o:_00317_DS_=0x5a9
00000539                      main.o:_00281_DS_:
00000539 e0fc                 BCR 0x3, 0x6
0000053a fd1a                 CLRR 0x65
0000053b fa26                 INCR 0x59, 0x1
0000053c def8                 MOVIA 0x7
0000053d fba6                 SUBAR 0x59, 0x0
0000053e f7fc                 BTRSS 0x3, 0x0
0000053f c2bd                 LGOTO 0x542; main.o:_00283_DS_=0x542
00000540 defe                 MOVIA 0x1
00000541 ff26                 MOVAR 0x59
00000542                      main.o:_00283_DS_:
00000542 e0fc                 BCR 0x3, 0x6
00000543 fea3                 MOVR 0x5c, 0x0
00000544 f6fc                 BTRSS 0x3, 0x2
00000545 c2b7                 LGOTO 0x548; main.o:_00285_DS_=0x548
00000546 def5                 MOVIA 0xa
00000547 ff14                 MOVAR 0x6b
00000548                      main.o:_00285_DS_:
00000548 e0fc                 BCR 0x3, 0x6
00000549 fea6                 MOVR 0x59, 0x0
0000054a dbfe                 XORIA 0x1
0000054b f6fc                 BTRSS 0x3, 0x2
0000054c c2ae                 LGOTO 0x551; main.o:_00301_DS_=0x551
0000054d ded2                 MOVIA 0x2d
0000054e ff24                 MOVAR 0x5b
0000054f fd18                 CLRR 0x67
00000550 c287                 LGOTO 0x578; main.o:_00302_DS_=0x578
00000551                      main.o:_00301_DS_:
00000551 e0fc                 BCR 0x3, 0x6
00000552 fea6                 MOVR 0x59, 0x0
00000553 dbfd                 XORIA 0x2
00000554 f6fc                 BTRSS 0x3, 0x2
00000555 c2a6                 LGOTO 0x559; main.o:_00298_DS_=0x559
00000556 dece                 MOVIA 0x31
00000557 ff24                 MOVAR 0x5b
00000558 c287                 LGOTO 0x578; main.o:_00302_DS_=0x578
00000559                      main.o:_00298_DS_:
00000559 e0fc                 BCR 0x3, 0x6
0000055a fea6                 MOVR 0x59, 0x0
0000055b dbfc                 XORIA 0x3
0000055c f6fc                 BTRSS 0x3, 0x2
0000055d c29e                 LGOTO 0x561; main.o:_00295_DS_=0x561
0000055e deca                 MOVIA 0x35
0000055f ff24                 MOVAR 0x5b
00000560 c287                 LGOTO 0x578; main.o:_00302_DS_=0x578
00000561                      main.o:_00295_DS_:
00000561 e0fc                 BCR 0x3, 0x6
00000562 fea6                 MOVR 0x59, 0x0
00000563 dbfb                 XORIA 0x4
00000564 f6fc                 BTRSS 0x3, 0x2
00000565 c296                 LGOTO 0x569; main.o:_00292_DS_=0x569
00000566 dec6                 MOVIA 0x39
00000567 ff24                 MOVAR 0x5b
00000568 c287                 LGOTO 0x578; main.o:_00302_DS_=0x578
00000569                      main.o:_00292_DS_:
00000569 e0fc                 BCR 0x3, 0x6
0000056a fea6                 MOVR 0x59, 0x0
0000056b dbfa                 XORIA 0x5
0000056c f6fc                 BTRSS 0x3, 0x2
0000056d c28e                 LGOTO 0x571; main.o:_00289_DS_=0x571
0000056e dec2                 MOVIA 0x3d
0000056f ff24                 MOVAR 0x5b
00000570 c287                 LGOTO 0x578; main.o:_00302_DS_=0x578
00000571                      main.o:_00289_DS_:
00000571 e0fc                 BCR 0x3, 0x6
00000572 fea6                 MOVR 0x59, 0x0
00000573 dbf9                 XORIA 0x6
00000574 f6fc                 BTRSS 0x3, 0x2
00000575 c287                 LGOTO 0x578; main.o:_00302_DS_=0x578
00000576 debe                 MOVIA 0x41
00000577 ff24                 MOVAR 0x5b
00000578                      main.o:_00302_DS_:
00000578 e0fc                 BCR 0x3, 0x6
00000579 fea6                 MOVR 0x59, 0x0
0000057a f2fc                 BTRSC 0x3, 0x2
0000057b c280                 LGOTO 0x57f; main.o:_00304_DS_=0x57f
0000057c fea4                 MOVR 0x5b, 0x0
0000057d ffb3                 SFUN 0xc
0000057e d3e6                 LCALL 0x419; _pwmInit=0x419
0000057f                      main.o:_00304_DS_:
0000057f e0fc                 BCR 0x3, 0x6
00000580 fea6                 MOVR 0x59, 0x0
00000581 ff25                 MOVAR 0x5a
00000582 c256                 LGOTO 0x5a9; main.o:_00317_DS_=0x5a9
00000583                      main.o:_00315_DS_:
00000583 e0fc                 BCR 0x3, 0x6
00000584 fed9                 MOVR 0x26, 0x0
00000585 dbfd                 XORIA 0x2
00000586 f6fc                 BTRSS 0x3, 0x2
00000587 c256                 LGOTO 0x5a9; main.o:_00317_DS_=0x5a9
00000588 fea6                 MOVR 0x59, 0x0
00000589 f2fc                 BTRSC 0x3, 0x2
0000058a c272                 LGOTO 0x58d; main.o:_00310_DS_=0x58d
0000058b d2e0                 LCALL 0x51f; _powerOff=0x51f
0000058c c259                 LGOTO 0x5a6; main.o:_00311_DS_=0x5a6
0000058d                      main.o:_00310_DS_:
0000058d e0fc                 BCR 0x3, 0x6
0000058e fea3                 MOVR 0x5c, 0x0
0000058f dbf5                 XORIA 0xa
00000590 f6fc                 BTRSS 0x3, 0x2
00000591 c26a                 LGOTO 0x595; main.o:_00306_DS_=0x595
00000592 fd20                 CLRR 0x5f
00000593 fd1f                 CLRR 0x60
00000594 c256                 LGOTO 0x5a9; main.o:_00317_DS_=0x5a9
00000595                      main.o:_00306_DS_:
00000595 e0fc                 BCR 0x3, 0x6
00000596 fd18                 CLRR 0x67
00000597 defe                 MOVIA 0x1
00000598 ff25                 MOVAR 0x5a
00000599 ff26                 MOVAR 0x59
0000059a deb9                 MOVIA 0x46
0000059b ffb3                 SFUN 0xc
0000059c ff17                 MOVAR 0x68
0000059d ded2                 MOVIA 0x2d
0000059e ff24                 MOVAR 0x5b
0000059f d3e6                 LCALL 0x419; _pwmInit=0x419
000005a0 e0fc                 BCR 0x3, 0x6
000005a1 fea3                 MOVR 0x5c, 0x0
000005a2 f6fc                 BTRSS 0x3, 0x2
000005a3 c259                 LGOTO 0x5a6; main.o:_00311_DS_=0x5a6
000005a4 def5                 MOVIA 0xa
000005a5 ff14                 MOVAR 0x6b
000005a6                      main.o:_00311_DS_:
000005a6 e0fc                 BCR 0x3, 0x6
000005a7 fea6                 MOVR 0x59, 0x0
000005a8 ff25                 MOVAR 0x5a
000005a9                      main.o:_00317_DS_:
000005a9 ffef                 RET
000005aa                      __mulchar:
000005aa e0fc                 BCR 0x3, 0x6
000005ab ff32                 MOVAR 0x4d
000005ac feb8                 MOVR 0x47, 0x0
000005ad ff31                 MOVAR 0x4e
000005ae fd30                 CLRR 0x4f
000005af def7                 MOVIA 0x8
000005b0 ff2f                 MOVAR 0x50
000005b1                      _mulchar.o:_00119_DS_:
000005b1 e0fc                 BCR 0x3, 0x6
000005b2 f7b2                 BTRSS 0x4d, 0x0
000005b3 c249                 LGOTO 0x5b6; _mulchar.o:_00114_DS_=0x5b6
000005b4 feb1                 MOVR 0x4e, 0x0
000005b5 fc30                 ADDAR 0x4f, 0x1
000005b6                      _mulchar.o:_00114_DS_:
000005b6 e3fc                 BCR 0x3, 0x0
000005b7 e0fc                 BCR 0x3, 0x6
000005b8 ec32                 RRR 0x4d, 0x1
000005b9 e3fc                 BCR 0x3, 0x0
000005ba eb31                 RLR 0x4e, 0x1
000005bb f9af                 DECR 0x50, 0x0
000005bc ff2e                 MOVAR 0x51
000005bd ff2f                 MOVAR 0x50
000005be feae                 MOVR 0x51, 0x0
000005bf f6fc                 BTRSS 0x3, 0x2
000005c0 c24e                 LGOTO 0x5b1; _mulchar.o:_00119_DS_=0x5b1
000005c1 feb0                 MOVR 0x4f, 0x0
000005c2 ffef                 RET
000005c3                      ___cinit_load__:
