00000000 c7fe                 LGOTO 0x1; __nyc_ny8_startup=0x1
00000001                      __nyc_ny8_startup:
00000001 d380                 LCALL 0x47f; ___cinit_load__=0x47f
00000002 c7cb                 LGOTO 0x34; _main=0x34
00000003                      main.o:_00495_DS_:
00000003 f56f                 BTRSS 0x10, 0x5
00000004 c7fc                 LGOTO 0x3; main.o:_00495_DS_=0x3
00000005 ffef                 RET
00000008 c7f6                 LGOTO 0x9; main.o:__sdcc_interrupt=0x9
00000009                      main.o:__sdcc_interrupt:
00000009 ff5d                 MOVAR 0x22
0000000a eafc                 SWAPR 0x3, 0x0
0000000b fd7c                 CLRR 0x3
0000000c ff5e                 MOVAR 0x21
0000000d fef5                 MOVR 0xa, 0x0
0000000e fd75                 CLRR 0xa
0000000f ff5f                 MOVAR 0x20
00000010 fefb                 MOVR 0x4, 0x0
00000011 ff1a                 MOVAR 0x65
00000012 feda                 MOVR 0x25, 0x0
00000013                      ___cinit_size__:
00000013 ff19                 MOVAR 0x66
00000014 fedb                 MOVR 0x24, 0x0
00000015 ff18                 MOVAR 0x67
00000016 f7f0                 BTRSS 0xf, 0x0
00000017 c7de                 LGOTO 0x21; main.o:_00108_DS_=0x21
00000018 dec8                 MOVIA 0x37
00000019 fc7e                 ADDAR 0x1, 0x1
0000001a fa16                 INCR 0x69, 0x1
0000001b de9b                 MOVIA 0x64
0000001c fb96                 SUBAR 0x69, 0x0
0000001d f7fc                 BTRSS 0x3, 0x0
0000001e c7de                 LGOTO 0x21; main.o:_00108_DS_=0x21
0000001f e797                 BSR 0x68, 0x0
00000020 fd16                 CLRR 0x69
00000021                      main.o:_00108_DS_:
00000021 f770                 BTRSS 0xf, 0x1
00000022 c7da                 LGOTO 0x25; main.o:_00110_DS_=0x25
00000023 de02                 MOVIA 0xfd
00000024 ff70                 MOVAR 0xf
00000025                      main.o:_00110_DS_:
00000025 fd70                 CLRR 0xf
00000026 fe98                 MOVR 0x67, 0x0
00000027 ff5b                 MOVAR 0x24
00000028 fe99                 MOVR 0x66, 0x0
00000029 ff5a                 MOVAR 0x25
0000002a fe9a                 MOVR 0x65, 0x0
0000002b ff7b                 MOVAR 0x4
0000002c fedf                 MOVR 0x20, 0x0
0000002d ff75                 MOVAR 0xa
0000002e fd7c                 CLRR 0x3
0000002f eade                 SWAPR 0x21, 0x0
00000030 ff7c                 MOVAR 0x3
00000031 ea5d                 SWAPR 0x22, 0x1
00000032 eadd                 SWAPR 0x22, 0x0
00000033                      main.o:END_OF_INTERRUPT:
00000033 ffee                 RETIE
00000034                      _main:
00000034 d40d                 LCALL 0x3f2; _initSys=0x3f2
00000035 d6d7                 LCALL 0x128; _initAD=0x128
00000036                      main.o:_00130_DS_:
00000036 fffd                 CLRWDT
00000037 d721                 LCALL 0xde; _modeLedShow=0xde
00000038 f797                 BTRSS 0x68, 0x0
00000039 c7c9                 LGOTO 0x36; main.o:_00130_DS_=0x36
0000003a e397                 BCR 0x68, 0x0
0000003b d4c1                 LCALL 0x33e; _chrgCtr=0x33e
0000003c f217                 BTRSC 0x68, 0x3
0000003d c7c9                 LGOTO 0x36; main.o:_00130_DS_=0x36
0000003e d607                 LCALL 0x1f8; _ADKeyCtr=0x1f8
0000003f f297                 BTRSC 0x68, 0x2
00000040 c7ae                 LGOTO 0x51; main.o:_00125_DS_=0x51
00000041 fe95                 MOVR 0x6a, 0x0
00000042 f2fc                 BTRSC 0x3, 0x2
00000043 c7b9                 LGOTO 0x46; main.o:_00122_DS_=0x46
00000044 d51f                 LCALL 0x2e0; _workCtr=0x2e0
00000045 c7c9                 LGOTO 0x36; main.o:_00130_DS_=0x36
00000046                      main.o:_00122_DS_:
00000046 d41e                 LCALL 0x3e1; _LedInput=0x3e1
00000047 defe                 MOVIA 0x1
00000048 ffbe                 SFUN 0x1
00000049 e3f9                 BCR 0x6, 0x0
0000004a e2f9                 BCR 0x6, 0x2
0000004b fd10                 CLRR 0x6f
0000004c e297                 BCR 0x68, 0x2
0000004d e1f9                 BCR 0x6, 0x4
0000004e e179                 BCR 0x6, 0x5
0000004f e3fa                 BCR 0x5, 0x0
00000050 c7c9                 LGOTO 0x36; main.o:_00130_DS_=0x36
00000051                      main.o:_00125_DS_:
00000051 d56e                 LCALL 0x291; _startCtr=0x291
00000052 c7c9                 LGOTO 0x36; main.o:_00130_DS_=0x36
00000053 ffef                 RET
00000054                      _F_AIN4_Convert:
00000054 ff2f                 MOVAR 0x50
00000055 fd4e                 CLRR 0x31
00000056 fd50                 CLRR 0x2f
00000057 fd4f                 CLRR 0x30
00000058 de6b                 MOVIA 0x94
00000059 ff6f                 MOVAR 0x10
0000005a de37                 MOVIA 0xc8
0000005b d72b                 LCALL 0xd4; _delay=0xd4
0000005c defe                 MOVIA 0x1
0000005d ff2e                 MOVAR 0x51
0000005e                      main.o:_00538_DS_:
0000005e feae                 MOVR 0x51, 0x0
0000005f fbaf                 SUBAR 0x50, 0x0
00000060 f7fc                 BTRSS 0x3, 0x0
00000061 c78c                 LGOTO 0x73; main.o:_00540_DS_=0x73
00000062 e4ef                 BSR 0x10, 0x6
00000063 d7fc                 LCALL 0x3; main.o:_00495_DS_=0x3
00000064 def0                 MOVIA 0xf
00000065 efee                 ANDAR 0x11, 0x0
00000066 fc4e                 ADDAR 0x31, 0x1
00000067 feed                 MOVR 0x12, 0x0
00000068 ff2d                 MOVAR 0x52
00000069 deff                 MOVIA 0x0
0000006a ff2c                 MOVAR 0x53
0000006b fead                 MOVR 0x52, 0x0
0000006c fc50                 ADDAR 0x2f, 0x1
0000006d feac                 MOVR 0x53, 0x0
0000006e f3fc                 BTRSC 0x3, 0x0
0000006f e9ac                 INCRSZ 0x53, 0x0
00000070 fc4f                 ADDAR 0x30, 0x1
00000071 fa2e                 INCR 0x51, 0x1
00000072 c7a1                 LGOTO 0x5e; main.o:_00538_DS_=0x5e
00000073                      main.o:_00540_DS_:
00000073 ffef                 RET
00000074                      _F_AIN3_Convert:
00000074 ff33                 MOVAR 0x4c
00000075 fd51                 CLRR 0x2e
00000076 fd53                 CLRR 0x2c
00000077 fd52                 CLRR 0x2d
00000078 de6c                 MOVIA 0x93
00000079 ff6f                 MOVAR 0x10
0000007a de37                 MOVIA 0xc8
0000007b d72b                 LCALL 0xd4; _delay=0xd4
0000007c defe                 MOVIA 0x1
0000007d ff32                 MOVAR 0x4d
0000007e                      main.o:_00529_DS_:
0000007e feb2                 MOVR 0x4d, 0x0
0000007f fbb3                 SUBAR 0x4c, 0x0
00000080 f7fc                 BTRSS 0x3, 0x0
00000081 c76c                 LGOTO 0x93; main.o:_00531_DS_=0x93
00000082 e4ef                 BSR 0x10, 0x6
00000083 d7fc                 LCALL 0x3; main.o:_00495_DS_=0x3
00000084 def0                 MOVIA 0xf
00000085 efee                 ANDAR 0x11, 0x0
00000086 fc51                 ADDAR 0x2e, 0x1
00000087 feed                 MOVR 0x12, 0x0
00000088 ff31                 MOVAR 0x4e
00000089 deff                 MOVIA 0x0
0000008a ff30                 MOVAR 0x4f
0000008b feb1                 MOVR 0x4e, 0x0
0000008c fc53                 ADDAR 0x2c, 0x1
0000008d feb0                 MOVR 0x4f, 0x0
0000008e f3fc                 BTRSC 0x3, 0x0
0000008f e9b0                 INCRSZ 0x4f, 0x0
00000090 fc52                 ADDAR 0x2d, 0x1
00000091 fa32                 INCR 0x4d, 0x1
00000092 c781                 LGOTO 0x7e; main.o:_00529_DS_=0x7e
00000093                      main.o:_00531_DS_:
00000093 ffef                 RET
00000094                      _F_AIN1_Convert:
00000094 ff37                 MOVAR 0x48
00000095 fd54                 CLRR 0x2b
00000096 fd56                 CLRR 0x29
00000097 fd55                 CLRR 0x2a
00000098 de6e                 MOVIA 0x91
00000099 ff6f                 MOVAR 0x10
0000009a de37                 MOVIA 0xc8
0000009b d72b                 LCALL 0xd4; _delay=0xd4
0000009c defe                 MOVIA 0x1
0000009d ff36                 MOVAR 0x49
0000009e                      main.o:_00520_DS_:
0000009e feb6                 MOVR 0x49, 0x0
0000009f fbb7                 SUBAR 0x48, 0x0
000000a0 f7fc                 BTRSS 0x3, 0x0
000000a1 c74c                 LGOTO 0xb3; main.o:_00522_DS_=0xb3
000000a2 e4ef                 BSR 0x10, 0x6
000000a3 d7fc                 LCALL 0x3; main.o:_00495_DS_=0x3
000000a4 def0                 MOVIA 0xf
000000a5 efee                 ANDAR 0x11, 0x0
000000a6 fc54                 ADDAR 0x2b, 0x1
000000a7 feed                 MOVR 0x12, 0x0
000000a8 ff35                 MOVAR 0x4a
000000a9 deff                 MOVIA 0x0
000000aa ff34                 MOVAR 0x4b
000000ab feb5                 MOVR 0x4a, 0x0
000000ac fc56                 ADDAR 0x29, 0x1
000000ad feb4                 MOVR 0x4b, 0x0
000000ae f3fc                 BTRSC 0x3, 0x0
000000af e9b4                 INCRSZ 0x4b, 0x0
000000b0 fc55                 ADDAR 0x2a, 0x1
000000b1 fa36                 INCR 0x49, 0x1
000000b2 c761                 LGOTO 0x9e; main.o:_00520_DS_=0x9e
000000b3                      main.o:_00522_DS_:
000000b3 ffef                 RET
000000b4                      _F_VDD_Convert:
000000b4 ff3b                 MOVAR 0x44
000000b5 fd57                 CLRR 0x28
000000b6 fd59                 CLRR 0x26
000000b7 fd58                 CLRR 0x27
000000b8 de64                 MOVIA 0x9b
000000b9 ff6f                 MOVAR 0x10
000000ba de37                 MOVIA 0xc8
000000bb d72b                 LCALL 0xd4; _delay=0xd4
000000bc defe                 MOVIA 0x1
000000bd ff3a                 MOVAR 0x45
000000be                      main.o:_00511_DS_:
000000be feba                 MOVR 0x45, 0x0
000000bf fbbb                 SUBAR 0x44, 0x0
000000c0 f7fc                 BTRSS 0x3, 0x0
000000c1 c72c                 LGOTO 0xd3; main.o:_00513_DS_=0xd3
000000c2 e4ef                 BSR 0x10, 0x6
000000c3 d7fc                 LCALL 0x3; main.o:_00495_DS_=0x3
000000c4 def0                 MOVIA 0xf
000000c5 efee                 ANDAR 0x11, 0x0
000000c6 fc57                 ADDAR 0x28, 0x1
000000c7 feed                 MOVR 0x12, 0x0
000000c8 ff39                 MOVAR 0x46
000000c9 deff                 MOVIA 0x0
000000ca ff38                 MOVAR 0x47
000000cb feb9                 MOVR 0x46, 0x0
000000cc fc59                 ADDAR 0x26, 0x1
000000cd feb8                 MOVR 0x47, 0x0
000000ce f3fc                 BTRSC 0x3, 0x0
000000cf e9b8                 INCRSZ 0x47, 0x0
000000d0 fc58                 ADDAR 0x27, 0x1
000000d1 fa3a                 INCR 0x45, 0x1
000000d2 c741                 LGOTO 0xbe; main.o:_00511_DS_=0xbe
000000d3                      main.o:_00513_DS_:
000000d3 ffef                 RET
000000d4                      _delay:
000000d4 ff3d                 MOVAR 0x42
000000d5 fd3c                 CLRR 0x43
000000d6                      main.o:_00502_DS_:
000000d6 febd                 MOVR 0x42, 0x0
000000d7 fbbc                 SUBAR 0x43, 0x0
000000d8 f3fc                 BTRSC 0x3, 0x0
000000d9 c722                 LGOTO 0xdd; main.o:_00504_DS_=0xdd
000000da ffff                 NOP
000000db fa3c                 INCR 0x43, 0x1
000000dc c729                 LGOTO 0xd6; main.o:_00502_DS_=0xd6
000000dd                      main.o:_00504_DS_:
000000dd ffef                 RET
000000de                      _modeLedShow:
000000de d41e                 LCALL 0x3e1; _LedInput=0x3e1
000000df defa                 MOVIA 0x5
000000e0 fb95                 SUBAR 0x6a, 0x0
000000e1 f3fc                 BTRSC 0x3, 0x0
000000e2 c706                 LGOTO 0xf9; main.o:_00463_DS_=0xf9
000000e3 deff                 MOVIA 0x0
000000e4 ff75                 MOVAR 0xa
000000e5 fe95                 MOVR 0x6a, 0x0
000000e6 da15                 ADDIA 0xea
000000e7 f3fc                 BTRSC 0x3, 0x0
000000e8 fa75                 INCR 0xa, 0x1
000000e9 ff7d                 MOVAR 0x2
000000ea                      main.o:_00486_DS_:
000000ea c710                 LGOTO 0xef; main.o:_00458_DS_=0xef
000000eb c708                 LGOTO 0xf7; main.o:_00462_DS_=0xf7
000000ec c70a                 LGOTO 0xf5; main.o:_00461_DS_=0xf5
000000ed c70c                 LGOTO 0xf3; main.o:_00460_DS_=0xf3
000000ee c70e                 LGOTO 0xf1; main.o:_00459_DS_=0xf1
000000ef                      main.o:_00458_DS_:
000000ef d41e                 LCALL 0x3e1; _LedInput=0x3e1
000000f0 c705                 LGOTO 0xfa; main.o:_00464_DS_=0xfa
000000f1                      main.o:_00459_DS_:
000000f1 d42e                 LCALL 0x3d1; _LEDMODE4=0x3d1
000000f2 c705                 LGOTO 0xfa; main.o:_00464_DS_=0xfa
000000f3                      main.o:_00460_DS_:
000000f3 d43e                 LCALL 0x3c1; _LEDMODE3=0x3c1
000000f4 c705                 LGOTO 0xfa; main.o:_00464_DS_=0xfa
000000f5                      main.o:_00461_DS_:
000000f5 d44e                 LCALL 0x3b1; _LEDMODE2=0x3b1
000000f6 c705                 LGOTO 0xfa; main.o:_00464_DS_=0xfa
000000f7                      main.o:_00462_DS_:
000000f7 d45e                 LCALL 0x3a1; _LEDMODE1=0x3a1
000000f8 c705                 LGOTO 0xfa; main.o:_00464_DS_=0xfa
000000f9                      main.o:_00463_DS_:
000000f9 d41e                 LCALL 0x3e1; _LedInput=0x3e1
000000fa                      main.o:_00464_DS_:
000000fa defc                 MOVIA 0x3
000000fb fb92                 SUBAR 0x6d, 0x0
000000fc f3fc                 BTRSC 0x3, 0x0
000000fd c6f1                 LGOTO 0x10e; main.o:_00468_DS_=0x10e
000000fe defe                 MOVIA 0x1
000000ff ff75                 MOVAR 0xa
00000100 fe92                 MOVR 0x6d, 0x0
00000101 dafa                 ADDIA 0x5
00000102 f3fc                 BTRSC 0x3, 0x0
00000103 fa75                 INCR 0xa, 0x1
00000104 ff7d                 MOVAR 0x2
00000105                      main.o:_00488_DS_:
00000105 c6f7                 LGOTO 0x108; main.o:_00465_DS_=0x108
00000106 c6f5                 LGOTO 0x10a; main.o:_00466_DS_=0x10a
00000107 c6f3                 LGOTO 0x10c; main.o:_00467_DS_=0x10c
00000108                      main.o:_00465_DS_:
00000108 d41e                 LCALL 0x3e1; _LedInput=0x3e1
00000109 c6f1                 LGOTO 0x10e; main.o:_00468_DS_=0x10e
0000010a                      main.o:_00466_DS_:
0000010a d47e                 LCALL 0x381; _BATLOW=0x381
0000010b c6f1                 LGOTO 0x10e; main.o:_00468_DS_=0x10e
0000010c                      main.o:_00467_DS_:
0000010c d47e                 LCALL 0x381; _BATLOW=0x381
0000010d d46e                 LCALL 0x391; _BATHIGHT=0x391
0000010e                      main.o:_00468_DS_:
0000010e defb                 MOVIA 0x4
0000010f fb93                 SUBAR 0x6c, 0x0
00000110 f3fc                 BTRSC 0x3, 0x0
00000111 c6d8                 LGOTO 0x127; main.o:_00474_DS_=0x127
00000112 defe                 MOVIA 0x1
00000113 ff75                 MOVAR 0xa
00000114 fe93                 MOVR 0x6c, 0x0
00000115 dae6                 ADDIA 0x19
00000116 f3fc                 BTRSC 0x3, 0x0
00000117 fa75                 INCR 0xa, 0x1
00000118 ff7d                 MOVAR 0x2
00000119                      main.o:_00490_DS_:
00000119 c6e2                 LGOTO 0x11d; main.o:_00469_DS_=0x11d
0000011a c6e0                 LGOTO 0x11f; main.o:_00470_DS_=0x11f
0000011b c6de                 LGOTO 0x121; main.o:_00471_DS_=0x121
0000011c c6db                 LGOTO 0x124; main.o:_00472_DS_=0x124
0000011d                      main.o:_00469_DS_:
0000011d d41e                 LCALL 0x3e1; _LedInput=0x3e1
0000011e c6d8                 LGOTO 0x127; main.o:_00474_DS_=0x127
0000011f                      main.o:_00470_DS_:
0000011f d4ae                 LCALL 0x351; _POWERLOW=0x351
00000120 c6d8                 LGOTO 0x127; main.o:_00474_DS_=0x127
00000121                      main.o:_00471_DS_:
00000121 d4ae                 LCALL 0x351; _POWERLOW=0x351
00000122 d49e                 LCALL 0x361; _POWERMID=0x361
00000123 c6d8                 LGOTO 0x127; main.o:_00474_DS_=0x127
00000124                      main.o:_00472_DS_:
00000124 d4ae                 LCALL 0x351; _POWERLOW=0x351
00000125 d49e                 LCALL 0x361; _POWERMID=0x361
00000126 d48e                 LCALL 0x371; _POWERHIGHT=0x371
00000127                      main.o:_00474_DS_:
00000127 ffef                 RET
00000128                      _initAD:
00000128 de7b                 MOVIA 0x84
00000129 ff6f                 MOVAR 0x10
0000012a defd                 MOVIA 0x2
0000012b ff6c                 MOVAR 0x13
0000012c deef                 MOVIA 0x10
0000012d ff6e                 MOVAR 0x11
0000012e defc                 MOVIA 0x3
0000012f ff6b                 MOVAR 0x14
00000130 e5ef                 BSR 0x10, 0x4
00000131 de9b                 MOVIA 0x64
00000132 d72b                 LCALL 0xd4; _delay=0xd4
00000133 ffef                 RET
00000134                      _keyRead:
00000134 ff3e                 MOVAR 0x41
00000135 febe                 MOVR 0x41, 0x0
00000136 f2fc                 BTRSC 0x3, 0x2
00000137 c6b9                 LGOTO 0x146; main.o:_00447_DS_=0x146
00000138 febe                 MOVR 0x41, 0x0
00000139 ff14                 MOVAR 0x6b
0000013a fa4d                 INCR 0x32, 0x1
0000013b de37                 MOVIA 0xc8
0000013c fbcd                 SUBAR 0x32, 0x0
0000013d f7fc                 BTRSS 0x3, 0x0
0000013e c6a8                 LGOTO 0x157; main.o:_00448_DS_=0x157
0000013f de37                 MOVIA 0xc8
00000140 ff4d                 MOVAR 0x32
00000141 f317                 BTRSC 0x68, 0x1
00000142 c6a8                 LGOTO 0x157; main.o:_00448_DS_=0x157
00000143 e717                 BSR 0x68, 0x1
00000144 defd                 MOVIA 0x2
00000145 c6a7                 LGOTO 0x158; main.o:_00449_DS_=0x158
00000146                      main.o:_00447_DS_:
00000146 de37                 MOVIA 0xc8
00000147 fbcd                 SUBAR 0x32, 0x0
00000148 f7fc                 BTRSS 0x3, 0x0
00000149 c6b1                 LGOTO 0x14e; main.o:_00444_DS_=0x14e
0000014a fd4d                 CLRR 0x32
0000014b e317                 BCR 0x68, 0x1
0000014c deff                 MOVIA 0x0
0000014d c6a7                 LGOTO 0x158; main.o:_00449_DS_=0x158
0000014e                      main.o:_00444_DS_:
0000014e def7                 MOVIA 0x8
0000014f fbcd                 SUBAR 0x32, 0x0
00000150 f7fc                 BTRSS 0x3, 0x0
00000151 c6aa                 LGOTO 0x155; main.o:_00445_DS_=0x155
00000152 fd4d                 CLRR 0x32
00000153 defe                 MOVIA 0x1
00000154 c6a7                 LGOTO 0x158; main.o:_00449_DS_=0x158
00000155                      main.o:_00445_DS_:
00000155 fd4d                 CLRR 0x32
00000156 fd14                 CLRR 0x6b
00000157                      main.o:_00448_DS_:
00000157 deff                 MOVIA 0x0
00000158                      main.o:_00449_DS_:
00000158 ffef                 RET
00000159                      _checkHotAD:
00000159 fd4e                 CLRR 0x31
0000015a fd50                 CLRR 0x2f
0000015b fd4f                 CLRR 0x30
0000015c def7                 MOVIA 0x8
0000015d d7ab                 LCALL 0x54; _F_AIN4_Convert=0x54
0000015e eacf                 SWAPR 0x30, 0x0
0000015f dd0f                 ANDIA 0xf0
00000160 ff4f                 MOVAR 0x30
00000161 ead0                 SWAPR 0x2f, 0x0
00000162 ff50                 MOVAR 0x2f
00000163 ddf0                 ANDIA 0xf
00000164 ee4f                 IORAR 0x30, 0x1
00000165 ed50                 XORAR 0x2f, 0x1
00000166 de0f                 MOVIA 0xf0
00000167 ef4e                 ANDAR 0x31, 0x1
00000168 fece                 MOVR 0x31, 0x0
00000169 ff40                 MOVAR 0x3f
0000016a deff                 MOVIA 0x0
0000016b ff3f                 MOVAR 0x40
0000016c fec0                 MOVR 0x3f, 0x0
0000016d fc50                 ADDAR 0x2f, 0x1
0000016e febf                 MOVR 0x40, 0x0
0000016f f3fc                 BTRSC 0x3, 0x0
00000170 e9bf                 INCRSZ 0x40, 0x0
00000171 fc4f                 ADDAR 0x30, 0x1
00000172 e3fc                 BCR 0x3, 0x0
00000173 ec4f                 RRR 0x30, 0x1
00000174 ec50                 RRR 0x2f, 0x1
00000175 e3fc                 BCR 0x3, 0x0
00000176 ec4f                 RRR 0x30, 0x1
00000177 ec50                 RRR 0x2f, 0x1
00000178 e3fc                 BCR 0x3, 0x0
00000179 ec4f                 RRR 0x30, 0x1
0000017a ec50                 RRR 0x2f, 0x1
0000017b ffef                 RET
0000017c                      _checkTouchAD:
0000017c fd51                 CLRR 0x2e
0000017d fd53                 CLRR 0x2c
0000017e fd52                 CLRR 0x2d
0000017f def7                 MOVIA 0x8
00000180 d78b                 LCALL 0x74; _F_AIN3_Convert=0x74
00000181 ead2                 SWAPR 0x2d, 0x0
00000182 dd0f                 ANDIA 0xf0
00000183 ff52                 MOVAR 0x2d
00000184 ead3                 SWAPR 0x2c, 0x0
00000185 ff53                 MOVAR 0x2c
00000186 ddf0                 ANDIA 0xf
00000187 ee52                 IORAR 0x2d, 0x1
00000188 ed53                 XORAR 0x2c, 0x1
00000189 de0f                 MOVIA 0xf0
0000018a ef51                 ANDAR 0x2e, 0x1
0000018b fed1                 MOVR 0x2e, 0x0
0000018c ff42                 MOVAR 0x3d
0000018d deff                 MOVIA 0x0
0000018e ff41                 MOVAR 0x3e
0000018f fec2                 MOVR 0x3d, 0x0
00000190 fc53                 ADDAR 0x2c, 0x1
00000191 fec1                 MOVR 0x3e, 0x0
00000192 f3fc                 BTRSC 0x3, 0x0
00000193 e9c1                 INCRSZ 0x3e, 0x0
00000194 fc52                 ADDAR 0x2d, 0x1
00000195 e3fc                 BCR 0x3, 0x0
00000196 ec52                 RRR 0x2d, 0x1
00000197 ec53                 RRR 0x2c, 0x1
00000198 e3fc                 BCR 0x3, 0x0
00000199 ec52                 RRR 0x2d, 0x1
0000019a ec53                 RRR 0x2c, 0x1
0000019b e3fc                 BCR 0x3, 0x0
0000019c ec52                 RRR 0x2d, 0x1
0000019d ec53                 RRR 0x2c, 0x1
0000019e ffef                 RET
0000019f                      _checkKeyAD:
0000019f ffea                 IOSTR 0x5
000001a0 ff44                 MOVAR 0x3b
000001a1 e744                 BSR 0x3b, 0x1
000001a2 fec4                 MOVR 0x3b, 0x0
000001a3 fffa                 IOST 0x5
000001a4 fd54                 CLRR 0x2b
000001a5 fd56                 CLRR 0x29
000001a6 fd55                 CLRR 0x2a
000001a7 def7                 MOVIA 0x8
000001a8 d76b                 LCALL 0x94; _F_AIN1_Convert=0x94
000001a9 ead5                 SWAPR 0x2a, 0x0
000001aa dd0f                 ANDIA 0xf0
000001ab ff55                 MOVAR 0x2a
000001ac ead6                 SWAPR 0x29, 0x0
000001ad ff56                 MOVAR 0x29
000001ae ddf0                 ANDIA 0xf
000001af ee55                 IORAR 0x2a, 0x1
000001b0 ed56                 XORAR 0x29, 0x1
000001b1 de0f                 MOVIA 0xf0
000001b2 ef54                 ANDAR 0x2b, 0x1
000001b3 fed4                 MOVR 0x2b, 0x0
000001b4 ff44                 MOVAR 0x3b
000001b5 deff                 MOVIA 0x0
000001b6 ff43                 MOVAR 0x3c
000001b7 fec4                 MOVR 0x3b, 0x0
000001b8 fc56                 ADDAR 0x29, 0x1
000001b9 fec3                 MOVR 0x3c, 0x0
000001ba f3fc                 BTRSC 0x3, 0x0
000001bb e9c3                 INCRSZ 0x3c, 0x0
000001bc fc55                 ADDAR 0x2a, 0x1
000001bd e3fc                 BCR 0x3, 0x0
000001be ec55                 RRR 0x2a, 0x1
000001bf ec56                 RRR 0x29, 0x1
000001c0 e3fc                 BCR 0x3, 0x0
000001c1 ec55                 RRR 0x2a, 0x1
000001c2 ec56                 RRR 0x29, 0x1
000001c3 e3fc                 BCR 0x3, 0x0
000001c4 ec55                 RRR 0x2a, 0x1
000001c5 ec56                 RRR 0x29, 0x1
000001c6 ffef                 RET
000001c7                      _checkBAT:
000001c7 fd57                 CLRR 0x28
000001c8 fd59                 CLRR 0x26
000001c9 fd58                 CLRR 0x27
000001ca def7                 MOVIA 0x8
000001cb d74b                 LCALL 0xb4; _F_VDD_Convert=0xb4
000001cc ead8                 SWAPR 0x27, 0x0
000001cd dd0f                 ANDIA 0xf0
000001ce ff58                 MOVAR 0x27
000001cf ead9                 SWAPR 0x26, 0x0
000001d0 ff59                 MOVAR 0x26
000001d1 ddf0                 ANDIA 0xf
000001d2 ee58                 IORAR 0x27, 0x1
000001d3 ed59                 XORAR 0x26, 0x1
000001d4 de0f                 MOVIA 0xf0
000001d5 ef57                 ANDAR 0x28, 0x1
000001d6 fed7                 MOVR 0x28, 0x0
000001d7 ff46                 MOVAR 0x39
000001d8 deff                 MOVIA 0x0
000001d9 ff45                 MOVAR 0x3a
000001da fec6                 MOVR 0x39, 0x0
000001db fc59                 ADDAR 0x26, 0x1
000001dc fec5                 MOVR 0x3a, 0x0
000001dd f3fc                 BTRSC 0x3, 0x0
000001de e9c5                 INCRSZ 0x3a, 0x0
000001df fc58                 ADDAR 0x27, 0x1
000001e0 e3fc                 BCR 0x3, 0x0
000001e1 ec58                 RRR 0x27, 0x1
000001e2 ec59                 RRR 0x26, 0x1
000001e3 e3fc                 BCR 0x3, 0x0
000001e4 ec58                 RRR 0x27, 0x1
000001e5 ec59                 RRR 0x26, 0x1
000001e6 e3fc                 BCR 0x3, 0x0
000001e7 ec58                 RRR 0x27, 0x1
000001e8 ec59                 RRR 0x26, 0x1
000001e9 ffef                 RET
000001ea                      _PWM1Start:
000001ea ff9e                 SFUNR 0x1
000001eb ff47                 MOVAR 0x38
000001ec f047                 BTRSC 0x38, 0x7
000001ed c608                 LGOTO 0x1f7; main.o:_00409_DS_=0x1f7
000001ee fd66                 CLRR 0x19
000001ef de9b                 MOVIA 0x64
000001f0 ffbf                 SFUN 0x0
000001f1 debd                 MOVIA 0x42
000001f2 ffbc                 SFUN 0x3
000001f3 defb                 MOVIA 0x4
000001f4 ffbd                 SFUN 0x2
000001f5 de7c                 MOVIA 0x83
000001f6 ffbe                 SFUN 0x1
000001f7                      main.o:_00409_DS_:
000001f7 ffef                 RET
000001f8                      _ADKeyCtr:
000001f8 fa0f                 INCR 0x70, 0x1
000001f9 dee0                 MOVIA 0x1f
000001fa fb8f                 SUBAR 0x70, 0x0
000001fb f7fc                 BTRSS 0x3, 0x0
000001fc c600                 LGOTO 0x1ff; main.o:_00275_DS_=0x1ff
000001fd fd0f                 CLRR 0x70
000001fe d638                 LCALL 0x1c7; _checkBAT=0x1c7
000001ff                      main.o:_00275_DS_:
000001ff fe95                 MOVR 0x6a, 0x0
00000200 f2fc                 BTRSC 0x3, 0x2
00000201 c5df                 LGOTO 0x220; main.o:_00285_DS_=0x220
00000202 f297                 BTRSC 0x68, 0x2
00000203 c5df                 LGOTO 0x220; main.o:_00285_DS_=0x220
00000204 defc                 MOVIA 0x3
00000205 fbd8                 SUBAR 0x27, 0x0
00000206 f6fc                 BTRSS 0x3, 0x2
00000207 c5f5                 LGOTO 0x20a; main.o:_00396_DS_=0x20a
00000208 de65                 MOVIA 0x9a
00000209 fbd9                 SUBAR 0x26, 0x0
0000020a                      main.o:_00396_DS_:
0000020a f7fc                 BTRSS 0x3, 0x0
0000020b c5f0                 LGOTO 0x20f; main.o:_00282_DS_=0x20f
0000020c defd                 MOVIA 0x2
0000020d ff12                 MOVAR 0x6d
0000020e c5df                 LGOTO 0x220; main.o:_00285_DS_=0x220
0000020f                      main.o:_00282_DS_:
0000020f fe92                 MOVR 0x6d, 0x0
00000210 dbfd                 XORIA 0x2
00000211 f6fc                 BTRSS 0x3, 0x2
00000212 c5e1                 LGOTO 0x21e; main.o:_00279_DS_=0x21e
00000213 defc                 MOVIA 0x3
00000214 fbd8                 SUBAR 0x27, 0x0
00000215 f6fc                 BTRSS 0x3, 0x2
00000216 c5e6                 LGOTO 0x219; main.o:_00397_DS_=0x219
00000217 de71                 MOVIA 0x8e
00000218 fbd9                 SUBAR 0x26, 0x0
00000219                      main.o:_00397_DS_:
00000219 f3fc                 BTRSC 0x3, 0x0
0000021a c5df                 LGOTO 0x220; main.o:_00285_DS_=0x220
0000021b defe                 MOVIA 0x1
0000021c ff12                 MOVAR 0x6d
0000021d c5df                 LGOTO 0x220; main.o:_00285_DS_=0x220
0000021e                      main.o:_00279_DS_:
0000021e defe                 MOVIA 0x1
0000021f ff12                 MOVAR 0x6d
00000220                      main.o:_00285_DS_:
00000220 fe95                 MOVR 0x6a, 0x0
00000221 f6fc                 BTRSS 0x3, 0x2
00000222 c5d5                 LGOTO 0x22a; main.o:_00288_DS_=0x22a
00000223 f297                 BTRSC 0x68, 0x2
00000224 c5d5                 LGOTO 0x22a; main.o:_00288_DS_=0x22a
00000225 fd13                 CLRR 0x6c
00000226 fd12                 CLRR 0x6d
00000227 e1f9                 BCR 0x6, 0x4
00000228 e179                 BCR 0x6, 0x5
00000229 e3fa                 BCR 0x5, 0x0
0000022a                      main.o:_00288_DS_:
0000022a def4                 MOVIA 0xb
0000022b fb8f                 SUBAR 0x70, 0x0
0000022c f7fc                 BTRSS 0x3, 0x0
0000022d c5cd                 LGOTO 0x232; main.o:_00291_DS_=0x232
0000022e dee6                 MOVIA 0x19
0000022f fb8f                 SUBAR 0x70, 0x0
00000230 f7fc                 BTRSS 0x3, 0x0
00000231 d660                 LCALL 0x19f; _checkKeyAD=0x19f
00000232                      main.o:_00291_DS_:
00000232 deff                 MOVIA 0x0
00000233 fbd5                 SUBAR 0x2a, 0x0
00000234 f6fc                 BTRSS 0x3, 0x2
00000235 c5c7                 LGOTO 0x238; main.o:_00400_DS_=0x238
00000236 de9a                 MOVIA 0x65
00000237 fbd6                 SUBAR 0x29, 0x0
00000238                      main.o:_00400_DS_:
00000238 f7fc                 BTRSS 0x3, 0x0
00000239 c5af                 LGOTO 0x250; main.o:_00297_DS_=0x250
0000023a def7                 MOVIA 0x8
0000023b fbd5                 SUBAR 0x2a, 0x0
0000023c f6fc                 BTRSS 0x3, 0x2
0000023d c5bf                 LGOTO 0x240; main.o:_00401_DS_=0x240
0000023e deff                 MOVIA 0x0
0000023f fbd6                 SUBAR 0x29, 0x0
00000240                      main.o:_00401_DS_:
00000240 f3fc                 BTRSC 0x3, 0x0
00000241 c5af                 LGOTO 0x250; main.o:_00297_DS_=0x250
00000242 def9                 MOVIA 0x6
00000243 fbd5                 SUBAR 0x2a, 0x0
00000244 f6fc                 BTRSS 0x3, 0x2
00000245 c5b7                 LGOTO 0x248; main.o:_00402_DS_=0x248
00000246 defe                 MOVIA 0x1
00000247 fbd6                 SUBAR 0x29, 0x0
00000248                      main.o:_00402_DS_:
00000248 f7fc                 BTRSS 0x3, 0x0
00000249 c5b2                 LGOTO 0x24d; main.o:_00294_DS_=0x24d
0000024a defe                 MOVIA 0x1
0000024b ff48                 MOVAR 0x37
0000024c c5ae                 LGOTO 0x251; main.o:_00298_DS_=0x251
0000024d                      main.o:_00294_DS_:
0000024d defd                 MOVIA 0x2
0000024e ff48                 MOVAR 0x37
0000024f c5ae                 LGOTO 0x251; main.o:_00298_DS_=0x251
00000250                      main.o:_00297_DS_:
00000250 fd48                 CLRR 0x37
00000251                      main.o:_00298_DS_:
00000251 fec8                 MOVR 0x37, 0x0
00000252 d6cb                 LCALL 0x134; _keyRead=0x134
00000253 ff48                 MOVAR 0x37
00000254 dbfe                 XORIA 0x1
00000255 f6fc                 BTRSS 0x3, 0x2
00000256 c586                 LGOTO 0x279; main.o:_00322_DS_=0x279
00000257 fe94                 MOVR 0x6b, 0x0
00000258 dbfe                 XORIA 0x1
00000259 f6fc                 BTRSS 0x3, 0x2
0000025a c591                 LGOTO 0x26e; main.o:_00310_DS_=0x26e
0000025b fe95                 MOVR 0x6a, 0x0
0000025c f6fc                 BTRSS 0x3, 0x2
0000025d c59b                 LGOTO 0x264; main.o:_00303_DS_=0x264
0000025e d41e                 LCALL 0x3e1; _LedInput=0x3e1
0000025f fd15                 CLRR 0x6a
00000260 fd13                 CLRR 0x6c
00000261 fd12                 CLRR 0x6d
00000262 e697                 BSR 0x68, 0x2
00000263 c56f                 LGOTO 0x290; main.o:_00324_DS_=0x290
00000264                      main.o:_00303_DS_:
00000264 fa15                 INCR 0x6a, 0x1
00000265 defa                 MOVIA 0x5
00000266 fb95                 SUBAR 0x6a, 0x0
00000267 f7fc                 BTRSS 0x3, 0x0
00000268 c594                 LGOTO 0x26b; main.o:_00301_DS_=0x26b
00000269 defe                 MOVIA 0x1
0000026a ff15                 MOVAR 0x6a
0000026b                      main.o:_00301_DS_:
0000026b defe                 MOVIA 0x1
0000026c ff13                 MOVAR 0x6c
0000026d c56f                 LGOTO 0x290; main.o:_00324_DS_=0x290
0000026e                      main.o:_00310_DS_:
0000026e fe95                 MOVR 0x6a, 0x0
0000026f f2fc                 BTRSC 0x3, 0x2
00000270 c56f                 LGOTO 0x290; main.o:_00324_DS_=0x290
00000271 fa13                 INCR 0x6c, 0x1
00000272 defb                 MOVIA 0x4
00000273 fb93                 SUBAR 0x6c, 0x0
00000274 f7fc                 BTRSS 0x3, 0x0
00000275 c56f                 LGOTO 0x290; main.o:_00324_DS_=0x290
00000276 defe                 MOVIA 0x1
00000277 ff13                 MOVAR 0x6c
00000278 c56f                 LGOTO 0x290; main.o:_00324_DS_=0x290
00000279                      main.o:_00322_DS_:
00000279 fec8                 MOVR 0x37, 0x0
0000027a dbfd                 XORIA 0x2
0000027b f6fc                 BTRSS 0x3, 0x2
0000027c c56f                 LGOTO 0x290; main.o:_00324_DS_=0x290
0000027d fe94                 MOVR 0x6b, 0x0
0000027e dbfe                 XORIA 0x1
0000027f f6fc                 BTRSS 0x3, 0x2
00000280 c579                 LGOTO 0x286; main.o:_00317_DS_=0x286
00000281 fd15                 CLRR 0x6a
00000282 fd13                 CLRR 0x6c
00000283 e297                 BCR 0x68, 0x2
00000284 fd12                 CLRR 0x6d
00000285 c56f                 LGOTO 0x290; main.o:_00324_DS_=0x290
00000286                      main.o:_00317_DS_:
00000286 fe95                 MOVR 0x6a, 0x0
00000287 f2fc                 BTRSC 0x3, 0x2
00000288 c56f                 LGOTO 0x290; main.o:_00324_DS_=0x290
00000289 fa13                 INCR 0x6c, 0x1
0000028a defb                 MOVIA 0x4
0000028b fb93                 SUBAR 0x6c, 0x0
0000028c f7fc                 BTRSS 0x3, 0x0
0000028d c56f                 LGOTO 0x290; main.o:_00324_DS_=0x290
0000028e defe                 MOVIA 0x1
0000028f ff13                 MOVAR 0x6c
00000290                      main.o:_00324_DS_:
00000290 ffef                 RET
00000291                      _startCtr:
00000291 fa11                 INCR 0x6e, 0x1
00000292 deea                 MOVIA 0x15
00000293 fb91                 SUBAR 0x6e, 0x0
00000294 f7fc                 BTRSS 0x3, 0x0
00000295 c520                 LGOTO 0x2df; main.o:_00269_DS_=0x2df
00000296 fd11                 CLRR 0x6e
00000297 defa                 MOVIA 0x5
00000298 fb90                 SUBAR 0x6f, 0x0
00000299 f3fc                 BTRSC 0x3, 0x0
0000029a c55e                 LGOTO 0x2a1; main.o:_00263_DS_=0x2a1
0000029b fe90                 MOVR 0x6f, 0x0
0000029c d8fa                 SUBIA 0x5
0000029d ff15                 MOVAR 0x6a
0000029e fd12                 CLRR 0x6d
0000029f fd13                 CLRR 0x6c
000002a0 c52e                 LGOTO 0x2d1; main.o:_00264_DS_=0x2d1
000002a1                      main.o:_00263_DS_:
000002a1 fe90                 MOVR 0x6f, 0x0
000002a2 dbfa                 XORIA 0x5
000002a3 f6fc                 BTRSS 0x3, 0x2
000002a4 c555                 LGOTO 0x2aa; main.o:_00260_DS_=0x2aa
000002a5 fd15                 CLRR 0x6a
000002a6 fd12                 CLRR 0x6d
000002a7 defc                 MOVIA 0x3
000002a8 ff13                 MOVAR 0x6c
000002a9 c52e                 LGOTO 0x2d1; main.o:_00264_DS_=0x2d1
000002aa                      main.o:_00260_DS_:
000002aa fe90                 MOVR 0x6f, 0x0
000002ab dbf9                 XORIA 0x6
000002ac f6fc                 BTRSS 0x3, 0x2
000002ad c54c                 LGOTO 0x2b3; main.o:_00257_DS_=0x2b3
000002ae fd15                 CLRR 0x6a
000002af fd13                 CLRR 0x6c
000002b0 defd                 MOVIA 0x2
000002b1 ff12                 MOVAR 0x6d
000002b2 c52e                 LGOTO 0x2d1; main.o:_00264_DS_=0x2d1
000002b3                      main.o:_00257_DS_:
000002b3 fe90                 MOVR 0x6f, 0x0
000002b4 dbf8                 XORIA 0x7
000002b5 f6fc                 BTRSS 0x3, 0x2
000002b6 c540                 LGOTO 0x2bf; main.o:_00254_DS_=0x2bf
000002b7 fd15                 CLRR 0x6a
000002b8 fd12                 CLRR 0x6d
000002b9 fd13                 CLRR 0x6c
000002ba e1f9                 BCR 0x6, 0x4
000002bb e179                 BCR 0x6, 0x5
000002bc e3fa                 BCR 0x5, 0x0
000002bd e7fa                 BSR 0x5, 0x0
000002be c52e                 LGOTO 0x2d1; main.o:_00264_DS_=0x2d1
000002bf                      main.o:_00254_DS_:
000002bf fe90                 MOVR 0x6f, 0x0
000002c0 dbf7                 XORIA 0x8
000002c1 f6fc                 BTRSS 0x3, 0x2
000002c2 c536                 LGOTO 0x2c9; main.o:_00251_DS_=0x2c9
000002c3 e3fa                 BCR 0x5, 0x0
000002c4 e1f9                 BCR 0x6, 0x4
000002c5 e179                 BCR 0x6, 0x5
000002c6 e3fa                 BCR 0x5, 0x0
000002c7 e5f9                 BSR 0x6, 0x4
000002c8 c52e                 LGOTO 0x2d1; main.o:_00264_DS_=0x2d1
000002c9                      main.o:_00251_DS_:
000002c9 fe90                 MOVR 0x6f, 0x0
000002ca dbf6                 XORIA 0x9
000002cb f6fc                 BTRSS 0x3, 0x2
000002cc c52e                 LGOTO 0x2d1; main.o:_00264_DS_=0x2d1
000002cd e1f9                 BCR 0x6, 0x4
000002ce e179                 BCR 0x6, 0x5
000002cf e3fa                 BCR 0x5, 0x0
000002d0 e579                 BSR 0x6, 0x5
000002d1                      main.o:_00264_DS_:
000002d1 fa10                 INCR 0x6f, 0x1
000002d2 def4                 MOVIA 0xb
000002d3 fb90                 SUBAR 0x6f, 0x0
000002d4 f7fc                 BTRSS 0x3, 0x0
000002d5 c520                 LGOTO 0x2df; main.o:_00269_DS_=0x2df
000002d6 e1f9                 BCR 0x6, 0x4
000002d7 e179                 BCR 0x6, 0x5
000002d8 e3fa                 BCR 0x5, 0x0
000002d9 fd10                 CLRR 0x6f
000002da e297                 BCR 0x68, 0x2
000002db defe                 MOVIA 0x1
000002dc ff15                 MOVAR 0x6a
000002dd ff13                 MOVAR 0x6c
000002de fd11                 CLRR 0x6e
000002df                      main.o:_00269_DS_:
000002df ffef                 RET
000002e0                      _workCtr:
000002e0 defa                 MOVIA 0x5
000002e1 fb8f                 SUBAR 0x70, 0x0
000002e2 f7fc                 BTRSS 0x3, 0x0
000002e3 d683                 LCALL 0x17c; _checkTouchAD=0x17c
000002e4 defc                 MOVIA 0x3
000002e5 fbd2                 SUBAR 0x2d, 0x0
000002e6 f6fc                 BTRSS 0x3, 0x2
000002e7 c515                 LGOTO 0x2ea; main.o:_00240_DS_=0x2ea
000002e8 de17                 MOVIA 0xe8
000002e9 fbd3                 SUBAR 0x2c, 0x0
000002ea                      main.o:_00240_DS_:
000002ea f3fc                 BTRSC 0x3, 0x0
000002eb c50f                 LGOTO 0x2f0; main.o:_00197_DS_=0x2f0
000002ec defe                 MOVIA 0x1
000002ed ffbe                 SFUN 0x1
000002ee e2f9                 BCR 0x6, 0x2
000002ef c4e5                 LGOTO 0x31a; main.o:_00198_DS_=0x31a
000002f0                      main.o:_00197_DS_:
000002f0 d615                 LCALL 0x1ea; _PWM1Start=0x1ea
000002f1 fe95                 MOVR 0x6a, 0x0
000002f2 dbfd                 XORIA 0x2
000002f3 f6fc                 BTRSS 0x3, 0x2
000002f4 c4e5                 LGOTO 0x31a; main.o:_00198_DS_=0x31a
000002f5 dee2                 MOVIA 0x1d
000002f6 fb8f                 SUBAR 0x70, 0x0
000002f7 f3fc                 BTRSC 0x3, 0x0
000002f8 d6a6                 LCALL 0x159; _checkHotAD=0x159
000002f9 fed9                 MOVR 0x26, 0x0
000002fa ff5c                 MOVAR 0x23
000002fb fed8                 MOVR 0x27, 0x0
000002fc ff5b                 MOVAR 0x24
000002fd defb                 MOVIA 0x4
000002fe ff5a                 MOVAR 0x25
000002ff deff                 MOVIA 0x0
00000300 d3b4                 LCALL 0x44b; __mulint=0x44b
00000301 ff49                 MOVAR 0x36
00000302 feda                 MOVR 0x25, 0x0
00000303 ff4a                 MOVAR 0x35
00000304 defc                 MOVIA 0x3
00000305 ff5c                 MOVAR 0x23
00000306 deff                 MOVIA 0x0
00000307 ff5b                 MOVAR 0x24
00000308 feca                 MOVR 0x35, 0x0
00000309 ff5a                 MOVAR 0x25
0000030a fec9                 MOVR 0x36, 0x0
0000030b d3f3                 LCALL 0x40c; __divuint=0x40c
0000030c ff49                 MOVAR 0x36
0000030d feda                 MOVR 0x25, 0x0
0000030e ff4a                 MOVAR 0x35
0000030f fed2                 MOVR 0x2d, 0x0
00000310 fbc9                 SUBAR 0x36, 0x0
00000311 f6fc                 BTRSS 0x3, 0x2
00000312 c4ea                 LGOTO 0x315; main.o:_00242_DS_=0x315
00000313 fed3                 MOVR 0x2c, 0x0
00000314 fbca                 SUBAR 0x35, 0x0
00000315                      main.o:_00242_DS_:
00000315 f3fc                 BTRSC 0x3, 0x0
00000316 c4e6                 LGOTO 0x319; main.o:_00192_DS_=0x319
00000317 e2f9                 BCR 0x6, 0x2
00000318 c4e5                 LGOTO 0x31a; main.o:_00198_DS_=0x31a
00000319                      main.o:_00192_DS_:
00000319 e6f9                 BSR 0x6, 0x2
0000031a                      main.o:_00198_DS_:
0000031a defc                 MOVIA 0x3
0000031b fbd2                 SUBAR 0x2d, 0x0
0000031c f6fc                 BTRSS 0x3, 0x2
0000031d c4df                 LGOTO 0x320; main.o:_00243_DS_=0x320
0000031e de16                 MOVIA 0xe9
0000031f fbd3                 SUBAR 0x2c, 0x0
00000320                      main.o:_00243_DS_:
00000320 f7fc                 BTRSS 0x3, 0x0
00000321 c4c5                 LGOTO 0x33a; main.o:_00208_DS_=0x33a
00000322 fe95                 MOVR 0x6a, 0x0
00000323 dbfe                 XORIA 0x1
00000324 f6fc                 BTRSS 0x3, 0x2
00000325 c4d5                 LGOTO 0x32a; main.o:_00205_DS_=0x32a
00000326 e579                 BSR 0x6, 0x5
00000327 e1f9                 BCR 0x6, 0x4
00000328 e3fa                 BCR 0x5, 0x0
00000329 c4c2                 LGOTO 0x33d; main.o:_00210_DS_=0x33d
0000032a                      main.o:_00205_DS_:
0000032a fe95                 MOVR 0x6a, 0x0
0000032b dbfd                 XORIA 0x2
0000032c f6fc                 BTRSS 0x3, 0x2
0000032d c4cd                 LGOTO 0x332; main.o:_00202_DS_=0x332
0000032e e179                 BCR 0x6, 0x5
0000032f e5f9                 BSR 0x6, 0x4
00000330 e3fa                 BCR 0x5, 0x0
00000331 c4c2                 LGOTO 0x33d; main.o:_00210_DS_=0x33d
00000332                      main.o:_00202_DS_:
00000332 defc                 MOVIA 0x3
00000333 fb95                 SUBAR 0x6a, 0x0
00000334 f7fc                 BTRSS 0x3, 0x0
00000335 c4c2                 LGOTO 0x33d; main.o:_00210_DS_=0x33d
00000336 e179                 BCR 0x6, 0x5
00000337 e7fa                 BSR 0x5, 0x0
00000338 e1f9                 BCR 0x6, 0x4
00000339 c4c2                 LGOTO 0x33d; main.o:_00210_DS_=0x33d
0000033a                      main.o:_00208_DS_:
0000033a e179                 BCR 0x6, 0x5
0000033b e3fa                 BCR 0x5, 0x0
0000033c e1f9                 BCR 0x6, 0x4
0000033d                      main.o:_00210_DS_:
0000033d ffef                 RET
0000033e                      _chrgCtr:
0000033e f57a                 BTRSS 0x5, 0x5
0000033f c4bd                 LGOTO 0x342; main.o:_00180_DS_=0x342
00000340 e217                 BCR 0x68, 0x3
00000341 c4af                 LGOTO 0x350; main.o:_00182_DS_=0x350
00000342                      main.o:_00180_DS_:
00000342 e617                 BSR 0x68, 0x3
00000343 fd15                 CLRR 0x6a
00000344 fd13                 CLRR 0x6c
00000345 fa11                 INCR 0x6e, 0x1
00000346 decc                 MOVIA 0x33
00000347 fb91                 SUBAR 0x6e, 0x0
00000348 f7fc                 BTRSS 0x3, 0x0
00000349 c4af                 LGOTO 0x350; main.o:_00182_DS_=0x350
0000034a fd11                 CLRR 0x6e
0000034b fa12                 INCR 0x6d, 0x1
0000034c defc                 MOVIA 0x3
0000034d fb92                 SUBAR 0x6d, 0x0
0000034e f3fc                 BTRSC 0x3, 0x0
0000034f fd12                 CLRR 0x6d
00000350                      main.o:_00182_DS_:
00000350 ffef                 RET
00000351                      _POWERLOW:
00000351 ffea                 IOSTR 0x5
00000352 ff4b                 MOVAR 0x34
00000353 e0cb                 BCR 0x34, 0x6
00000354 fecb                 MOVR 0x34, 0x0
00000355 fffa                 IOST 0x5
00000356 ffe9                 IOSTR 0x6
00000357 ff4b                 MOVAR 0x34
00000358 e3cb                 BCR 0x34, 0x0
00000359 fecb                 MOVR 0x34, 0x0
0000035a fff9                 IOST 0x6
0000035b e4fa                 BSR 0x5, 0x6
0000035c e3f9                 BCR 0x6, 0x0
0000035d de9b                 MOVIA 0x64
0000035e d72b                 LCALL 0xd4; _delay=0xd4
0000035f d41e                 LCALL 0x3e1; _LedInput=0x3e1
00000360 ffef                 RET
00000361                      _POWERMID:
00000361 ffea                 IOSTR 0x5
00000362 ff4b                 MOVAR 0x34
00000363 e04b                 BCR 0x34, 0x7
00000364 fecb                 MOVR 0x34, 0x0
00000365 fffa                 IOST 0x5
00000366 ffe9                 IOSTR 0x6
00000367 ff4b                 MOVAR 0x34
00000368 e3cb                 BCR 0x34, 0x0
00000369 fecb                 MOVR 0x34, 0x0
0000036a fff9                 IOST 0x6
0000036b e47a                 BSR 0x5, 0x7
0000036c e3f9                 BCR 0x6, 0x0
0000036d de9b                 MOVIA 0x64
0000036e d72b                 LCALL 0xd4; _delay=0xd4
0000036f d41e                 LCALL 0x3e1; _LedInput=0x3e1
00000370 ffef                 RET
00000371                      _POWERHIGHT:
00000371 ffe9                 IOSTR 0x6
00000372 ff4b                 MOVAR 0x34
00000373 e34b                 BCR 0x34, 0x1
00000374 fecb                 MOVR 0x34, 0x0
00000375 fff9                 IOST 0x6
00000376 ffe9                 IOSTR 0x6
00000377 ff4b                 MOVAR 0x34
00000378 e3cb                 BCR 0x34, 0x0
00000379 fecb                 MOVR 0x34, 0x0
0000037a fff9                 IOST 0x6
0000037b e779                 BSR 0x6, 0x1
0000037c e3f9                 BCR 0x6, 0x0
0000037d de9b                 MOVIA 0x64
0000037e d72b                 LCALL 0xd4; _delay=0xd4
0000037f d41e                 LCALL 0x3e1; _LedInput=0x3e1
00000380 ffef                 RET
00000381                      _BATLOW:
00000381 ffea                 IOSTR 0x5
00000382 ff4b                 MOVAR 0x34
00000383 e0cb                 BCR 0x34, 0x6
00000384 fecb                 MOVR 0x34, 0x0
00000385 fffa                 IOST 0x5
00000386 ffea                 IOSTR 0x5
00000387 ff4b                 MOVAR 0x34
00000388 e2cb                 BCR 0x34, 0x2
00000389 fecb                 MOVR 0x34, 0x0
0000038a fffa                 IOST 0x5
0000038b e4fa                 BSR 0x5, 0x6
0000038c e2fa                 BCR 0x5, 0x2
0000038d de9b                 MOVIA 0x64
0000038e d72b                 LCALL 0xd4; _delay=0xd4
0000038f d41e                 LCALL 0x3e1; _LedInput=0x3e1
00000390 ffef                 RET
00000391                      _BATHIGHT:
00000391 ffea                 IOSTR 0x5
00000392 ff4b                 MOVAR 0x34
00000393 e04b                 BCR 0x34, 0x7
00000394 fecb                 MOVR 0x34, 0x0
00000395 fffa                 IOST 0x5
00000396 ffea                 IOSTR 0x5
00000397 ff4b                 MOVAR 0x34
00000398 e2cb                 BCR 0x34, 0x2
00000399 fecb                 MOVR 0x34, 0x0
0000039a fffa                 IOST 0x5
0000039b e47a                 BSR 0x5, 0x7
0000039c e2fa                 BCR 0x5, 0x2
0000039d de9b                 MOVIA 0x64
0000039e d72b                 LCALL 0xd4; _delay=0xd4
0000039f d41e                 LCALL 0x3e1; _LedInput=0x3e1
000003a0 ffef                 RET
000003a1                      _LEDMODE1:
000003a1 ffe9                 IOSTR 0x6
000003a2 ff4b                 MOVAR 0x34
000003a3 e34b                 BCR 0x34, 0x1
000003a4 fecb                 MOVR 0x34, 0x0
000003a5 fff9                 IOST 0x6
000003a6 ffea                 IOSTR 0x5
000003a7 ff4b                 MOVAR 0x34
000003a8 e2cb                 BCR 0x34, 0x2
000003a9 fecb                 MOVR 0x34, 0x0
000003aa fffa                 IOST 0x5
000003ab e779                 BSR 0x6, 0x1
000003ac e2fa                 BCR 0x5, 0x2
000003ad de9b                 MOVIA 0x64
000003ae d72b                 LCALL 0xd4; _delay=0xd4
000003af d41e                 LCALL 0x3e1; _LedInput=0x3e1
000003b0 ffef                 RET
000003b1                      _LEDMODE2:
000003b1 ffe9                 IOSTR 0x6
000003b2 ff4b                 MOVAR 0x34
000003b3 e3cb                 BCR 0x34, 0x0
000003b4 fecb                 MOVR 0x34, 0x0
000003b5 fff9                 IOST 0x6
000003b6 ffea                 IOSTR 0x5
000003b7 ff4b                 MOVAR 0x34
000003b8 e0cb                 BCR 0x34, 0x6
000003b9 fecb                 MOVR 0x34, 0x0
000003ba fffa                 IOST 0x5
000003bb e7f9                 BSR 0x6, 0x0
000003bc e0fa                 BCR 0x5, 0x6
000003bd de9b                 MOVIA 0x64
000003be d72b                 LCALL 0xd4; _delay=0xd4
000003bf d41e                 LCALL 0x3e1; _LedInput=0x3e1
000003c0 ffef                 RET
000003c1                      _LEDMODE3:
000003c1 ffe9                 IOSTR 0x6
000003c2 ff4b                 MOVAR 0x34
000003c3 e3cb                 BCR 0x34, 0x0
000003c4 fecb                 MOVR 0x34, 0x0
000003c5 fff9                 IOST 0x6
000003c6 ffea                 IOSTR 0x5
000003c7 ff4b                 MOVAR 0x34
000003c8 e04b                 BCR 0x34, 0x7
000003c9 fecb                 MOVR 0x34, 0x0
000003ca fffa                 IOST 0x5
000003cb e7f9                 BSR 0x6, 0x0
000003cc e07a                 BCR 0x5, 0x7
000003cd de9b                 MOVIA 0x64
000003ce d72b                 LCALL 0xd4; _delay=0xd4
000003cf d41e                 LCALL 0x3e1; _LedInput=0x3e1
000003d0 ffef                 RET
000003d1                      _LEDMODE4:
000003d1 ffea                 IOSTR 0x5
000003d2 ff4b                 MOVAR 0x34
000003d3 e2cb                 BCR 0x34, 0x2
000003d4 fecb                 MOVR 0x34, 0x0
000003d5 fffa                 IOST 0x5
000003d6 ffe9                 IOSTR 0x6
000003d7 ff4b                 MOVAR 0x34
000003d8 e34b                 BCR 0x34, 0x1
000003d9 fecb                 MOVR 0x34, 0x0
000003da fff9                 IOST 0x6
000003db e6fa                 BSR 0x5, 0x2
000003dc e379                 BCR 0x6, 0x1
000003dd de9b                 MOVIA 0x64
000003de d72b                 LCALL 0xd4; _delay=0xd4
000003df d41e                 LCALL 0x3e1; _LedInput=0x3e1
000003e0 ffef                 RET
000003e1                      _LedInput:
000003e1 dec4                 MOVIA 0x3b
000003e2 ef7a                 ANDAR 0x5, 0x1
000003e3 de03                 MOVIA 0xfc
000003e4 ef79                 ANDAR 0x6, 0x1
000003e5 ffea                 IOSTR 0x5
000003e6 ff4c                 MOVAR 0x33
000003e7 de3b                 MOVIA 0xc4
000003e8 ee4c                 IORAR 0x33, 0x1
000003e9 fecc                 MOVR 0x33, 0x0
000003ea fffa                 IOST 0x5
000003eb ffe9                 IOSTR 0x6
000003ec ff4c                 MOVAR 0x33
000003ed defc                 MOVIA 0x3
000003ee ee4c                 IORAR 0x33, 0x1
000003ef fecc                 MOVR 0x33, 0x0
000003f0 fff9                 IOST 0x6
000003f1 ffef                 RET
000003f2                      _initSys:
000003f2 ffec                 DISI
000003f3 dec5                 MOVIA 0x3a
000003f4 fffa                 IOST 0x5
000003f5 fdff                 CLRA
000003f6 fff9                 IOST 0x6
000003f7 fd79                 CLRR 0x6
000003f8 fd7a                 CLRR 0x5
000003f9 de00                 MOVIA 0xff
000003fa fff6                 IOST 0x9
000003fb ff73                 MOVAR 0xc
000003fc defe                 MOVIA 0x1
000003fd ff71                 MOVAR 0xe
000003fe fdff                 CLRA
000003ff fff0                 IOST 0xf
00000400 dec8                 MOVIA 0x37
00000401 ff7e                 MOVAR 0x1
00000402 fdff                 CLRA
00000403 fffc                 T0MD
00000404 defe                 MOVIA 0x1
00000405 fff0                 IOST 0xf
00000406 de77                 MOVIA 0x88
00000407 ff77                 MOVAR 0x8
00000408 defe                 MOVIA 0x1
00000409 fff0                 IOST 0xf
0000040a fffb                 ENI
0000040b ffef                 RET
0000040c                      __divuint:
0000040c ff2a                 MOVAR 0x55
0000040d feda                 MOVR 0x25, 0x0
0000040e ff2b                 MOVAR 0x54
0000040f fedb                 MOVR 0x24, 0x0
00000410 ff28                 MOVAR 0x57
00000411 fedc                 MOVR 0x23, 0x0
00000412 ff29                 MOVAR 0x56
00000413 fd27                 CLRR 0x58
00000414 fd26                 CLRR 0x59
00000415 defe                 MOVIA 0x1
00000416 ff25                 MOVAR 0x5a
00000417 fd24                 CLRR 0x5b
00000418 fea9                 MOVR 0x56, 0x0
00000419 eea8                 IORAR 0x57, 0x0
0000041a f6fc                 BTRSS 0x3, 0x2
0000041b c3e0                 LGOTO 0x41f; _divuint.o:_00107_DS_=0x41f
0000041c de00                 MOVIA 0xff
0000041d ff5a                 MOVAR 0x25
0000041e c3b5                 LGOTO 0x44a; _divuint.o:_00115_DS_=0x44a
0000041f                      _divuint.o:_00107_DS_:
0000041f f028                 BTRSC 0x57, 0x7
00000420 c3d7                 LGOTO 0x428; _divuint.o:_00112_DS_=0x428
00000421 e3fc                 BCR 0x3, 0x0
00000422 eb29                 RLR 0x56, 0x1
00000423 eb28                 RLR 0x57, 0x1
00000424 e3fc                 BCR 0x3, 0x0
00000425 eb25                 RLR 0x5a, 0x1
00000426 eb24                 RLR 0x5b, 0x1
00000427 c3e0                 LGOTO 0x41f; _divuint.o:_00107_DS_=0x41f
00000428                      _divuint.o:_00112_DS_:
00000428 fea5                 MOVR 0x5a, 0x0
00000429 eea4                 IORAR 0x5b, 0x0
0000042a f2fc                 BTRSC 0x3, 0x2
0000042b c3b8                 LGOTO 0x447; _divuint.o:_00114_DS_=0x447
0000042c fea8                 MOVR 0x57, 0x0
0000042d fbaa                 SUBAR 0x55, 0x0
0000042e f6fc                 BTRSS 0x3, 0x2
0000042f c3cd                 LGOTO 0x432; _divuint.o:_00135_DS_=0x432
00000430 fea9                 MOVR 0x56, 0x0
00000431 fbab                 SUBAR 0x54, 0x0
00000432                      _divuint.o:_00135_DS_:
00000432 f7fc                 BTRSS 0x3, 0x0
00000433 c3bf                 LGOTO 0x440; _divuint.o:_00111_DS_=0x440
00000434 fea5                 MOVR 0x5a, 0x0
00000435 fc27                 ADDAR 0x58, 0x1
00000436 fea4                 MOVR 0x5b, 0x0
00000437 f3fc                 BTRSC 0x3, 0x0
00000438 e9a4                 INCRSZ 0x5b, 0x0
00000439 fc26                 ADDAR 0x59, 0x1
0000043a fea9                 MOVR 0x56, 0x0
0000043b fb2b                 SUBAR 0x54, 0x1
0000043c fea8                 MOVR 0x57, 0x0
0000043d f7fc                 BTRSS 0x3, 0x0
0000043e e9a8                 INCRSZ 0x57, 0x0
0000043f fb2a                 SUBAR 0x55, 0x1
00000440                      _divuint.o:_00111_DS_:
00000440 e3fc                 BCR 0x3, 0x0
00000441 ec28                 RRR 0x57, 0x1
00000442 ec29                 RRR 0x56, 0x1
00000443 e3fc                 BCR 0x3, 0x0
00000444 ec24                 RRR 0x5b, 0x1
00000445 ec25                 RRR 0x5a, 0x1
00000446 c3d7                 LGOTO 0x428; _divuint.o:_00112_DS_=0x428
00000447                      _divuint.o:_00114_DS_:
00000447 fea7                 MOVR 0x58, 0x0
00000448 ff5a                 MOVAR 0x25
00000449 fea6                 MOVR 0x59, 0x0
0000044a                      _divuint.o:_00115_DS_:
0000044a ffef                 RET
0000044b                      __mulint:
0000044b ff22                 MOVAR 0x5d
0000044c feda                 MOVR 0x25, 0x0
0000044d ff23                 MOVAR 0x5c
0000044e fedb                 MOVR 0x24, 0x0
0000044f ff20                 MOVAR 0x5f
00000450 fedc                 MOVR 0x23, 0x0
00000451 ff21                 MOVAR 0x5e
00000452 fd1f                 CLRR 0x60
00000453 fd1e                 CLRR 0x61
00000454 def7                 MOVIA 0x8
00000455 ff1d                 MOVAR 0x62
00000456                      _mulint.o:_00119_DS_:
00000456 f7a3                 BTRSS 0x5c, 0x0
00000457 c3a1                 LGOTO 0x45e; _mulint.o:_00109_DS_=0x45e
00000458 fea1                 MOVR 0x5e, 0x0
00000459 fc1f                 ADDAR 0x60, 0x1
0000045a fea0                 MOVR 0x5f, 0x0
0000045b f3fc                 BTRSC 0x3, 0x0
0000045c e9a0                 INCRSZ 0x5f, 0x0
0000045d fc1e                 ADDAR 0x61, 0x1
0000045e                      _mulint.o:_00109_DS_:
0000045e f7a2                 BTRSS 0x5d, 0x0
0000045f c396                 LGOTO 0x469; _mulint.o:_00114_DS_=0x469
00000460 fea1                 MOVR 0x5e, 0x0
00000461 fd1c                 CLRR 0x63
00000462 deff                 MOVIA 0x0
00000463 fc1f                 ADDAR 0x60, 0x1
00000464 fea1                 MOVR 0x5e, 0x0
00000465 ff1b                 MOVAR 0x64
00000466 f3fc                 BTRSC 0x3, 0x0
00000467 e99b                 INCRSZ 0x64, 0x0
00000468 fc1e                 ADDAR 0x61, 0x1
00000469                      _mulint.o:_00114_DS_:
00000469 fea3                 MOVR 0x5c, 0x0
0000046a ff1c                 MOVAR 0x63
0000046b fea2                 MOVR 0x5d, 0x0
0000046c ff1b                 MOVAR 0x64
0000046d e3fc                 BCR 0x3, 0x0
0000046e ec9b                 RRR 0x64, 0x0
0000046f ff22                 MOVAR 0x5d
00000470 ec9c                 RRR 0x63, 0x0
00000471 ff23                 MOVAR 0x5c
00000472 e3fc                 BCR 0x3, 0x0
00000473 eb21                 RLR 0x5e, 0x1
00000474 eb20                 RLR 0x5f, 0x1
00000475 f99d                 DECR 0x62, 0x0
00000476 ff1c                 MOVAR 0x63
00000477 ff1d                 MOVAR 0x62
00000478 fe9c                 MOVR 0x63, 0x0
00000479 f6fc                 BTRSS 0x3, 0x2
0000047a c3a9                 LGOTO 0x456; _mulint.o:_00119_DS_=0x456
0000047b fe9f                 MOVR 0x60, 0x0
0000047c ff5a                 MOVAR 0x25
0000047d fe9e                 MOVR 0x61, 0x0
0000047e ffef                 RET
0000047f                      ___cinit_load__:
