00000000 c7fe                 LGOTO 0x1; __nyc_ny8_startup=0x1
00000001                      __nyc_ny8_startup:
00000001 d0af                 LCALL 0x750; ___cinit_load__=0x750
00000002 c7ad                 LGOTO 0x52; _main=0x52
00000003                      main.o:_00484_DS_:
00000003 f56f                 BTRSS 0x10, 0x5
00000004 c7fc                 LGOTO 0x3; main.o:_00484_DS_=0x3
00000005 ffef                 RET
00000008 c7f6                 LGOTO 0x9; main.o:__sdcc_interrupt=0x9
00000009                      main.o:__sdcc_interrupt:
00000009 ff3d                 MOVAR 0x42
0000000a eafc                 SWAPR 0x3, 0x0
0000000b fd7c                 CLRR 0x3
0000000c ff3e                 MOVAR 0x41
0000000d fef5                 MOVR 0xa, 0x0
0000000e fd75                 CLRR 0xa
0000000f ff3f                 MOVAR 0x40
00000010 fefb                 MOVR 0x4, 0x0
00000011 e0fc                 BCR 0x3, 0x6
00000012 ff19                 MOVAR 0x66
00000013 feb8                 MOVR 0x47, 0x0
00000014 ff18                 MOVAR 0x67
00000015 feb9                 MOVR 0x46, 0x0
00000016 ff17                 MOVAR 0x68
00000017 f7f0                 BTRSS 0xf, 0x0
00000018 c7c3                 LGOTO 0x3c; main.o:_00120_DS_=0x3c
00000019 dec8                 MOVIA 0x37
0000001a fc7e                 ADDAR 0x1, 0x1
0000001b fa16                 INCR 0x69, 0x1
0000001c de9b                 MOVIA 0x64
0000001d fb96                 SUBAR 0x69, 0x0
0000001e f7fc                 BTRSS 0x3, 0x0
0000001f c7c3                 LGOTO 0x3c; main.o:_00120_DS_=0x3c
00000020 defe                 MOVIA 0x1
00000021 ff15                 MOVAR 0x6a
00000022 fd16                 CLRR 0x69
00000023 fa02                 INCR 0x7d, 0x1
00000024 de9a                 MOVIA 0x65
00000025 fb82                 SUBAR 0x7d, 0x0
00000026 f7fc                 BTRSS 0x3, 0x0
00000027 c7c3                 LGOTO 0x3c; main.o:_00120_DS_=0x3c
00000028 fd02                 CLRR 0x7d
00000029 fe8a                 MOVR 0x75, 0x0
0000002a f2fc                 BTRSC 0x3, 0x2
0000002b c7d1                 LGOTO 0x2e; main.o:_00113_DS_=0x2e
0000002c f90a                 DECR 0x75, 0x1
0000002d c7c3                 LGOTO 0x3c; main.o:_00120_DS_=0x3c
0000002e                      main.o:_00113_DS_:
0000002e e0fc                 BCR 0x3, 0x6
0000002f fe8b                 MOVR 0x74, 0x0
00000030 f2fc                 BTRSC 0x3, 0x2
00000031 c7cb                 LGOTO 0x34; main.o:_00110_DS_=0x34
00000032 f90b                 DECR 0x74, 0x1
00000033 c7c3                 LGOTO 0x3c; main.o:_00120_DS_=0x3c
00000034                      main.o:_00110_DS_:
00000034 e4fc                 BSR 0x3, 0x6
00000035 fedf                 MOVR 0x20, 0x0
00000036 f2fc                 BTRSC 0x3, 0x2
00000037 c7c3                 LGOTO 0x3c; main.o:_00120_DS_=0x3c
00000038 e85f                 DECRSZ 0x20, 0x1
00000039 c7c3                 LGOTO 0x3c; main.o:_00120_DS_=0x3c
0000003a defe                 MOVIA 0x1
0000003b ff5d                 MOVAR 0x22
0000003c                      main.o:_00120_DS_:
0000003c f770                 BTRSS 0xf, 0x1
0000003d c7bd                 LGOTO 0x42; main.o:_00122_DS_=0x42
0000003e de02                 MOVIA 0xfd
0000003f ff70                 MOVAR 0xf
00000040 e0fc                 BCR 0x3, 0x6
00000041 fa0f                 INCR 0x70, 0x1
00000042                      main.o:_00122_DS_:
00000042 fd70                 CLRR 0xf
00000043 e0fc                 BCR 0x3, 0x6
00000044 fe97                 MOVR 0x68, 0x0
00000045 ff39                 MOVAR 0x46
00000046 fe98                 MOVR 0x67, 0x0
00000047 ff38                 MOVAR 0x47
00000048 fe99                 MOVR 0x66, 0x0
00000049 ff7b                 MOVAR 0x4
0000004a febf                 MOVR 0x40, 0x0
0000004b ff75                 MOVAR 0xa
0000004c fd7c                 CLRR 0x3
0000004d eabe                 SWAPR 0x41, 0x0
0000004e ff7c                 MOVAR 0x3
0000004f ea3d                 SWAPR 0x42, 0x1
00000050 eabd                 SWAPR 0x42, 0x0
00000051                      main.o:END_OF_INTERRUPT:
00000051 ffee                 RETIE
00000052                      _main:
00000052 d4a9                 LCALL 0x356; _initSys=0x356
00000053 d55b                 LCALL 0x2a4; _initAD=0x2a4
00000054 d4d1                 LCALL 0x32e; _gotoSleep=0x32e
00000055                      main.o:_00181_DS_:
00000055 fffd                 CLRWDT
00000056 e0fc                 BCR 0x3, 0x6
00000057 fe91                 MOVR 0x6e, 0x0
00000058 f2fc                 BTRSC 0x3, 0x2
00000059 c7a3                 LGOTO 0x5c; main.o:_00135_DS_=0x5c
0000005a d488                 LCALL 0x377; _refreshNub=0x377
0000005b c781                 LGOTO 0x7e; main.o:_00136_DS_=0x7e
0000005c                      main.o:_00135_DS_:
0000005c e0fc                 BCR 0x3, 0x6
0000005d fe88                 MOVR 0x77, 0x0
0000005e f2fc                 BTRSC 0x3, 0x2
0000005f                      ___cinit_size__:
0000005f c786                 LGOTO 0x79; main.o:_00131_DS_=0x79
00000060 fe8c                 MOVR 0x73, 0x0
00000061 dbfe                 XORIA 0x1
00000062 f6fc                 BTRSS 0x3, 0x2
00000063 c786                 LGOTO 0x79; main.o:_00131_DS_=0x79
00000064 de9b                 MOVIA 0x64
00000065 fb89                 SUBAR 0x76, 0x0
00000066 f7fc                 BTRSS 0x3, 0x0
00000067 c792                 LGOTO 0x6d; main.o:_00128_DS_=0x6d
00000068 defe                 MOVIA 0x1
00000069 ff14                 MOVAR 0x6b
0000006a fd12                 CLRR 0x6d
0000006b fd13                 CLRR 0x6c
0000006c c788                 LGOTO 0x77; main.o:_00129_DS_=0x77
0000006d                      main.o:_00128_DS_:
0000006d e0fc                 BCR 0x3, 0x6
0000006e fd14                 CLRR 0x6b
0000006f e4fc                 BSR 0x3, 0x6
00000070 fedc                 MOVR 0x23, 0x0
00000071 e0fc                 BCR 0x3, 0x6
00000072 ff13                 MOVAR 0x6c
00000073 e4fc                 BSR 0x3, 0x6
00000074 fedb                 MOVR 0x24, 0x0
00000075 e0fc                 BCR 0x3, 0x6
00000076 ff12                 MOVAR 0x6d
00000077                      main.o:_00129_DS_:
00000077 d488                 LCALL 0x377; _refreshNub=0x377
00000078 c781                 LGOTO 0x7e; main.o:_00136_DS_=0x7e
00000079                      main.o:_00131_DS_:
00000079 e0fc                 BCR 0x3, 0x6
0000007a fd12                 CLRR 0x6d
0000007b fd13                 CLRR 0x6c
0000007c fd14                 CLRR 0x6b
0000007d d370                 LCALL 0x48f; _setInput=0x48f
0000007e                      main.o:_00136_DS_:
0000007e e0fc                 BCR 0x3, 0x6
0000007f fe95                 MOVR 0x6a, 0x0
00000080 f2fc                 BTRSC 0x3, 0x2
00000081 c7aa                 LGOTO 0x55; main.o:_00181_DS_=0x55
00000082 fd15                 CLRR 0x6a
00000083 def5                 MOVIA 0xa
00000084 ff38                 MOVAR 0x47
00000085 fe89                 MOVR 0x76, 0x0
00000086 d192                 LCALL 0x66d; __divuchar=0x66d
00000087 e4fc                 BSR 0x3, 0x6
00000088 ff5c                 MOVAR 0x23
00000089 def5                 MOVIA 0xa
0000008a ff38                 MOVAR 0x47
0000008b e0fc                 BCR 0x3, 0x6
0000008c fe89                 MOVR 0x76, 0x0
0000008d d11f                 LCALL 0x6e0; __moduchar=0x6e0
0000008e e4fc                 BSR 0x3, 0x6
0000008f ff5b                 MOVAR 0x24
00000090 e0fc                 BCR 0x3, 0x6
00000091 fe81                 MOVR 0x7e, 0x0
00000092 ee80                 IORAR 0x7f, 0x0
00000093 f2fc                 BTRSC 0x3, 0x2
00000094 c765                 LGOTO 0x9a; main.o:_00161_DS_=0x9a
00000095 de00                 MOVIA 0xff
00000096 fc01                 ADDAR 0x7e, 0x1
00000097 f7fc                 BTRSS 0x3, 0x0
00000098 f900                 DECR 0x7f, 0x1
00000099 c706                 LGOTO 0xf9; main.o:_00162_DS_=0xf9
0000009a                      main.o:_00161_DS_:
0000009a e0fc                 BCR 0x3, 0x6
0000009b fe8c                 MOVR 0x73, 0x0
0000009c f2fc                 BTRSC 0x3, 0x2
0000009d c706                 LGOTO 0xf9; main.o:_00162_DS_=0xf9
0000009e e4fc                 BSR 0x3, 0x6
0000009f fa58                 INCR 0x27, 0x1
000000a0 dee6                 MOVIA 0x19
000000a1 fbd8                 SUBAR 0x27, 0x0
000000a2 f7fc                 BTRSS 0x3, 0x0
000000a3 c706                 LGOTO 0xf9; main.o:_00162_DS_=0xf9
000000a4 fd58                 CLRR 0x27
000000a5 e0fc                 BCR 0x3, 0x6
000000a6 fd0f                 CLRR 0x70
000000a7 fd5c                 CLRR 0x23
000000a8                      main.o:_00183_DS_:
000000a8 e0fc                 BCR 0x3, 0x6
000000a9 e4fa                 BSR 0x5, 0x6
000000aa defd                 MOVIA 0x2
000000ab d6c9                 LCALL 0x136; _delay=0x136
000000ac d459                 LCALL 0x3a6; _checkIRKey=0x3a6
000000ad e0fc                 BCR 0x3, 0x6
000000ae e0fa                 BCR 0x5, 0x6
000000af defa                 MOVIA 0x5
000000b0 d6c9                 LCALL 0x136; _delay=0x136
000000b1 e0fc                 BCR 0x3, 0x6
000000b2 fa5c                 INCR 0x23, 0x1
000000b3 def5                 MOVIA 0xa
000000b4 fbdc                 SUBAR 0x23, 0x0
000000b5 f7fc                 BTRSS 0x3, 0x0
000000b6 c757                 LGOTO 0xa8; main.o:_00183_DS_=0xa8
000000b7 def9                 MOVIA 0x6
000000b8 fb8f                 SUBAR 0x70, 0x0
000000b9 f7fc                 BTRSS 0x3, 0x0
000000ba c70a                 LGOTO 0xf5; main.o:_00154_DS_=0xf5
000000bb dee1                 MOVIA 0x1e
000000bc d6c9                 LCALL 0x136; _delay=0x136
000000bd e0fc                 BCR 0x3, 0x6
000000be fd5c                 CLRR 0x23
000000bf                      main.o:_00185_DS_:
000000bf e0fc                 BCR 0x3, 0x6
000000c0 e4fa                 BSR 0x5, 0x6
000000c1 defd                 MOVIA 0x2
000000c2 d6c9                 LCALL 0x136; _delay=0x136
000000c3 d459                 LCALL 0x3a6; _checkIRKey=0x3a6
000000c4 e0fc                 BCR 0x3, 0x6
000000c5 e0fa                 BCR 0x5, 0x6
000000c6 defa                 MOVIA 0x5
000000c7 d6c9                 LCALL 0x136; _delay=0x136
000000c8 e0fc                 BCR 0x3, 0x6
000000c9 fa5c                 INCR 0x23, 0x1
000000ca def5                 MOVIA 0xa
000000cb fbdc                 SUBAR 0x23, 0x0
000000cc f7fc                 BTRSS 0x3, 0x0
000000cd c740                 LGOTO 0xbf; main.o:_00185_DS_=0xbf
000000ce e4fc                 BSR 0x3, 0x6
000000cf fede                 MOVR 0x21, 0x0
000000d0 f6fc                 BTRSS 0x3, 0x2
000000d1 c713                 LGOTO 0xec; main.o:_00150_DS_=0xec
000000d2 e0fc                 BCR 0x3, 0x6
000000d3 fe8d                 MOVR 0x72, 0x0
000000d4 dbfe                 XORIA 0x1
000000d5 f6fc                 BTRSS 0x3, 0x2
000000d6 c724                 LGOTO 0xdb; main.o:_00147_DS_=0xdb
000000d7 decd                 MOVIA 0x32
000000d8 ff01                 MOVAR 0x7e
000000d9 fd00                 CLRR 0x7f
000000da c713                 LGOTO 0xec; main.o:_00150_DS_=0xec
000000db                      main.o:_00147_DS_:
000000db e0fc                 BCR 0x3, 0x6
000000dc fe8d                 MOVR 0x72, 0x0
000000dd dbfd                 XORIA 0x2
000000de f6fc                 BTRSS 0x3, 0x2
000000df c71b                 LGOTO 0xe4; main.o:_00144_DS_=0xe4
000000e0 de9b                 MOVIA 0x64
000000e1 ff01                 MOVAR 0x7e
000000e2 fd00                 CLRR 0x7f
000000e3 c713                 LGOTO 0xec; main.o:_00150_DS_=0xec
000000e4                      main.o:_00144_DS_:
000000e4 e0fc                 BCR 0x3, 0x6
000000e5 fe8d                 MOVR 0x72, 0x0
000000e6 dbfc                 XORIA 0x3
000000e7 f6fc                 BTRSS 0x3, 0x2
000000e8 c713                 LGOTO 0xec; main.o:_00150_DS_=0xec
000000e9 de69                 MOVIA 0x96
000000ea ff01                 MOVAR 0x7e
000000eb fd00                 CLRR 0x7f
000000ec                      main.o:_00150_DS_:
000000ec e4fc                 BSR 0x3, 0x6
000000ed fa5e                 INCR 0x21, 0x1
000000ee ded6                 MOVIA 0x29
000000ef fbde                 SUBAR 0x21, 0x0
000000f0 f7fc                 BTRSS 0x3, 0x0
000000f1 c706                 LGOTO 0xf9; main.o:_00162_DS_=0xf9
000000f2 ded7                 MOVIA 0x28
000000f3 ff5e                 MOVAR 0x21
000000f4 c706                 LGOTO 0xf9; main.o:_00162_DS_=0xf9
000000f5                      main.o:_00154_DS_:
000000f5 e4fc                 BSR 0x3, 0x6
000000f6 fd5e                 CLRR 0x21
000000f7 e0fc                 BCR 0x3, 0x6
000000f8 fd10                 CLRR 0x6f
000000f9                      main.o:_00162_DS_:
000000f9 d550                 LCALL 0x2af; _keyCtr=0x2af
000000fa e0fc                 BCR 0x3, 0x6
000000fb fe81                 MOVR 0x7e, 0x0
000000fc ee80                 IORAR 0x7f, 0x0
000000fd f6fc                 BTRSS 0x3, 0x2
000000fe c6f4                 LGOTO 0x10b; main.o:_00166_DS_=0x10b
000000ff fe8e                 MOVR 0x71, 0x0
00000100 f6fc                 BTRSS 0x3, 0x2
00000101 c6f4                 LGOTO 0x10b; main.o:_00166_DS_=0x10b
00000102 e4fc                 BSR 0x3, 0x6
00000103 fa57                 INCR 0x28, 0x1
00000104 deeb                 MOVIA 0x14
00000105 fbd7                 SUBAR 0x28, 0x0
00000106 f7fc                 BTRSS 0x3, 0x0
00000107 c6f2                 LGOTO 0x10d; main.o:_00167_DS_=0x10d
00000108 fd57                 CLRR 0x28
00000109 d69c                 LCALL 0x163; _checkBat=0x163
0000010a c6f2                 LGOTO 0x10d; main.o:_00167_DS_=0x10d
0000010b                      main.o:_00166_DS_:
0000010b e4fc                 BSR 0x3, 0x6
0000010c fd57                 CLRR 0x28
0000010d                      main.o:_00167_DS_:
0000010d d42f                 LCALL 0x3d0; _chrgCtr=0x3d0
0000010e e0fc                 BCR 0x3, 0x6
0000010f fefa                 MOVR 0x5, 0x0
00000110 ff5c                 MOVAR 0x23
00000111 fd5b                 CLRR 0x24
00000112 f8dc                 COMR 0x23, 0x0
00000113 ff5c                 MOVAR 0x23
00000114 f8db                 COMR 0x24, 0x0
00000115 ff5b                 MOVAR 0x24
00000116 f55c                 BTRSS 0x23, 0x5
00000117 c6d1                 LGOTO 0x12e; main.o:_00172_DS_=0x12e
00000118 fe88                 MOVR 0x77, 0x0
00000119 f6fc                 BTRSS 0x3, 0x2
0000011a c6d1                 LGOTO 0x12e; main.o:_00172_DS_=0x12e
0000011b fe8c                 MOVR 0x73, 0x0
0000011c f6fc                 BTRSS 0x3, 0x2
0000011d c6d1                 LGOTO 0x12e; main.o:_00172_DS_=0x12e
0000011e fe8a                 MOVR 0x75, 0x0
0000011f f6fc                 BTRSS 0x3, 0x2
00000120 c6d1                 LGOTO 0x12e; main.o:_00172_DS_=0x12e
00000121 fe8b                 MOVR 0x74, 0x0
00000122 f6fc                 BTRSS 0x3, 0x2
00000123 c6d1                 LGOTO 0x12e; main.o:_00172_DS_=0x12e
00000124 e4fc                 BSR 0x3, 0x6
00000125 fedf                 MOVR 0x20, 0x0
00000126 f6fc                 BTRSS 0x3, 0x2
00000127 c6d1                 LGOTO 0x12e; main.o:_00172_DS_=0x12e
00000128 e0fc                 BCR 0x3, 0x6
00000129 fa06                 INCR 0x79, 0x1
0000012a de9a                 MOVIA 0x65
0000012b fb86                 SUBAR 0x79, 0x0
0000012c f3fc                 BTRSC 0x3, 0x0
0000012d d4d1                 LCALL 0x32e; _gotoSleep=0x32e
0000012e                      main.o:_00172_DS_:
0000012e e4fc                 BSR 0x3, 0x6
0000012f fedd                 MOVR 0x22, 0x0
00000130 f6fc                 BTRSS 0x3, 0x2
00000131 d4d1                 LCALL 0x32e; _gotoSleep=0x32e
00000132 de9b                 MOVIA 0x64
00000133 d6c9                 LCALL 0x136; _delay=0x136
00000134 c7aa                 LGOTO 0x55; main.o:_00181_DS_=0x55
00000135 ffef                 RET
00000136                      _delay:
00000136 e0fc                 BCR 0x3, 0x6
00000137 ff4b                 MOVAR 0x34
00000138 defe                 MOVIA 0x1
00000139 ff4a                 MOVAR 0x35
0000013a                      main.o:_00491_DS_:
0000013a e0fc                 BCR 0x3, 0x6
0000013b feca                 MOVR 0x35, 0x0
0000013c fbcb                 SUBAR 0x34, 0x0
0000013d f7fc                 BTRSS 0x3, 0x0
0000013e c6be                 LGOTO 0x141; main.o:_00493_DS_=0x141
0000013f fa4a                 INCR 0x35, 0x1
00000140 c6c5                 LGOTO 0x13a; main.o:_00491_DS_=0x13a
00000141                      main.o:_00493_DS_:
00000141 ffef                 RET
00000142                      _F_Quarter_VDD_Convert:
00000142 e0fc                 BCR 0x3, 0x6
00000143 ff4f                 MOVAR 0x30
00000144 de69                 MOVIA 0x96
00000145 ff6f                 MOVAR 0x10
00000146 defe                 MOVIA 0x1
00000147 ff4e                 MOVAR 0x31
00000148                      main.o:_00477_DS_:
00000148 e0fc                 BCR 0x3, 0x6
00000149 fece                 MOVR 0x31, 0x0
0000014a fbcf                 SUBAR 0x30, 0x0
0000014b f7fc                 BTRSS 0x3, 0x0
0000014c c69d                 LGOTO 0x162; main.o:_00479_DS_=0x162
0000014d e4ef                 BSR 0x10, 0x6
0000014e d7fc                 LCALL 0x3; main.o:_00484_DS_=0x3
0000014f def0                 MOVIA 0xf
00000150 efee                 ANDAR 0x11, 0x0
00000151 e0fc                 BCR 0x3, 0x6
00000152 fc5d                 ADDAR 0x22, 0x1
00000153 feed                 MOVR 0x12, 0x0
00000154 ff4d                 MOVAR 0x32
00000155 deff                 MOVIA 0x0
00000156 ff4c                 MOVAR 0x33
00000157 fecd                 MOVR 0x32, 0x0
00000158 fc5f                 ADDAR 0x20, 0x1
00000159 fecc                 MOVR 0x33, 0x0
0000015a f3fc                 BTRSC 0x3, 0x0
0000015b facc                 INCR 0x33, 0x0
0000015c f2fc                 BTRSC 0x3, 0x2
0000015d c6a0                 LGOTO 0x15f; main.o:_00001_DS_=0x15f
0000015e fc5e                 ADDAR 0x21, 0x1
0000015f                      main.o:_00001_DS_:
0000015f e0fc                 BCR 0x3, 0x6
00000160 fa4e                 INCR 0x31, 0x1
00000161 c6b7                 LGOTO 0x148; main.o:_00477_DS_=0x148
00000162                      main.o:_00479_DS_:
00000162 ffef                 RET
00000163                      _checkBat:
00000163 e0fc                 BCR 0x3, 0x6
00000164 fd5d                 CLRR 0x22
00000165 fd5f                 CLRR 0x20
00000166 fd5e                 CLRR 0x21
00000167 def7                 MOVIA 0x8
00000168 d6bd                 LCALL 0x142; _F_Quarter_VDD_Convert=0x142
00000169 e0fc                 BCR 0x3, 0x6
0000016a eade                 SWAPR 0x21, 0x0
0000016b dd0f                 ANDIA 0xf0
0000016c ff5e                 MOVAR 0x21
0000016d eadf                 SWAPR 0x20, 0x0
0000016e ff5f                 MOVAR 0x20
0000016f ddf0                 ANDIA 0xf
00000170 ee5e                 IORAR 0x21, 0x1
00000171 ed5f                 XORAR 0x20, 0x1
00000172 de0f                 MOVIA 0xf0
00000173 ef5d                 ANDAR 0x22, 0x1
00000174 fedd                 MOVR 0x22, 0x0
00000175 ff51                 MOVAR 0x2e
00000176 ff53                 MOVAR 0x2c
00000177 fd52                 CLRR 0x2d
00000178 deff                 MOVIA 0x0
00000179 ff50                 MOVAR 0x2f
0000017a fed1                 MOVR 0x2e, 0x0
0000017b fc5f                 ADDAR 0x20, 0x1
0000017c fed0                 MOVR 0x2f, 0x0
0000017d f3fc                 BTRSC 0x3, 0x0
0000017e fad0                 INCR 0x2f, 0x0
0000017f f2fc                 BTRSC 0x3, 0x2
00000180 c67d                 LGOTO 0x182; main.o:_00002_DS_=0x182
00000181 fc5e                 ADDAR 0x21, 0x1
00000182                      main.o:_00002_DS_:
00000182 e3fc                 BCR 0x3, 0x0
00000183 e0fc                 BCR 0x3, 0x6
00000184 ec5e                 RRR 0x21, 0x1
00000185 ec5f                 RRR 0x20, 0x1
00000186 e3fc                 BCR 0x3, 0x0
00000187 ec5e                 RRR 0x21, 0x1
00000188 ec5f                 RRR 0x20, 0x1
00000189 e3fc                 BCR 0x3, 0x0
0000018a ec5e                 RRR 0x21, 0x1
0000018b ec5f                 RRR 0x20, 0x1
0000018c defc                 MOVIA 0x3
0000018d fbde                 SUBAR 0x21, 0x0
0000018e f6fc                 BTRSS 0x3, 0x2
0000018f c66d                 LGOTO 0x192; main.o:_00456_DS_=0x192
00000190 def1                 MOVIA 0xe
00000191 fbdf                 SUBAR 0x20, 0x0
00000192                      main.o:_00456_DS_:
00000192 f7fc                 BTRSS 0x3, 0x0
00000193 c65f                 LGOTO 0x1a0; main.o:_00401_DS_=0x1a0
00000194 e4fc                 BSR 0x3, 0x6
00000195 fa56                 INCR 0x29, 0x1
00000196 de36                 MOVIA 0xc9
00000197 fbd6                 SUBAR 0x29, 0x0
00000198 f7fc                 BTRSS 0x3, 0x0
00000199 c55c                 LGOTO 0x2a3; main.o:_00403_DS_=0x2a3
0000019a defe                 MOVIA 0x1
0000019b e0fc                 BCR 0x3, 0x6
0000019c ff05                 MOVAR 0x7a
0000019d de9b                 MOVIA 0x64
0000019e ff09                 MOVAR 0x76
0000019f c55c                 LGOTO 0x2a3; main.o:_00403_DS_=0x2a3
000001a0                      main.o:_00401_DS_:
000001a0 defd                 MOVIA 0x2
000001a1 e0fc                 BCR 0x3, 0x6
000001a2 fbde                 SUBAR 0x21, 0x0
000001a3 f6fc                 BTRSS 0x3, 0x2
000001a4 c658                 LGOTO 0x1a7; main.o:_00458_DS_=0x1a7
000001a5 ded9                 MOVIA 0x26
000001a6 fbdf                 SUBAR 0x20, 0x0
000001a7                      main.o:_00458_DS_:
000001a7 f3fc                 BTRSC 0x3, 0x0
000001a8 c651                 LGOTO 0x1ae; main.o:_00398_DS_=0x1ae
000001a9 e0fc                 BCR 0x3, 0x6
000001aa fd09                 CLRR 0x76
000001ab e4fc                 BSR 0x3, 0x6
000001ac fd56                 CLRR 0x29
000001ad c55c                 LGOTO 0x2a3; main.o:_00403_DS_=0x2a3
000001ae                      main.o:_00398_DS_:
000001ae e4fc                 BSR 0x3, 0x6
000001af fd56                 CLRR 0x29
000001b0 defd                 MOVIA 0x2
000001b1 e0fc                 BCR 0x3, 0x6
000001b2 fbde                 SUBAR 0x21, 0x0
000001b3 f6fc                 BTRSS 0x3, 0x2
000001b4 c648                 LGOTO 0x1b7; main.o:_00459_DS_=0x1b7
000001b5 de43                 MOVIA 0xbc
000001b6 fbdf                 SUBAR 0x20, 0x0
000001b7                      main.o:_00459_DS_:
000001b7 f7fc                 BTRSS 0x3, 0x0
000001b8 c639                 LGOTO 0x1c6; main.o:_00369_DS_=0x1c6
000001b9 de93                 MOVIA 0x6c
000001ba e0fc                 BCR 0x3, 0x6
000001bb fcdf                 ADDAR 0x20, 0x0
000001bc ff53                 MOVAR 0x2c
000001bd de02                 MOVIA 0xfd
000001be ff52                 MOVAR 0x2d
000001bf fede                 MOVR 0x21, 0x0
000001c0 f3fc                 BTRSC 0x3, 0x0
000001c1 fade                 INCR 0x21, 0x0
000001c2 f2fc                 BTRSC 0x3, 0x2
000001c3 c63a                 LGOTO 0x1c5; main.o:_00003_DS_=0x1c5
000001c4 fc52                 ADDAR 0x2d, 0x1
000001c5                      main.o:_00003_DS_:
000001c5 c5ea                 LGOTO 0x215; main.o:_00370_DS_=0x215
000001c6                      main.o:_00369_DS_:
000001c6 defd                 MOVIA 0x2
000001c7 e0fc                 BCR 0x3, 0x6
000001c8 fbde                 SUBAR 0x21, 0x0
000001c9 f6fc                 BTRSS 0x3, 0x2
000001ca c632                 LGOTO 0x1cd; main.o:_00460_DS_=0x1cd
000001cb de9d                 MOVIA 0x62
000001cc fbdf                 SUBAR 0x20, 0x0
000001cd                      main.o:_00460_DS_:
000001cd f7fc                 BTRSS 0x3, 0x0
000001ce c60f                 LGOTO 0x1f0; main.o:_00366_DS_=0x1f0
000001cf de61                 MOVIA 0x9e
000001d0 e0fc                 BCR 0x3, 0x6
000001d1 fcdf                 ADDAR 0x20, 0x0
000001d2 ff51                 MOVAR 0x2e
000001d3 de02                 MOVIA 0xfd
000001d4 ff50                 MOVAR 0x2f
000001d5 fede                 MOVR 0x21, 0x0
000001d6 f3fc                 BTRSC 0x3, 0x0
000001d7 fade                 INCR 0x21, 0x0
000001d8 f2fc                 BTRSC 0x3, 0x2
000001d9 c624                 LGOTO 0x1db; main.o:_00004_DS_=0x1db
000001da fc50                 ADDAR 0x2f, 0x1
000001db                      main.o:_00004_DS_:
000001db defc                 MOVIA 0x3
000001dc ff3a                 MOVAR 0x45
000001dd deff                 MOVIA 0x0
000001de ff39                 MOVAR 0x46
000001df e0fc                 BCR 0x3, 0x6
000001e0 fed1                 MOVR 0x2e, 0x0
000001e1 ff38                 MOVAR 0x47
000001e2 fed0                 MOVR 0x2f, 0x0
000001e3 d169                 LCALL 0x696; __divuint=0x696
000001e4 e0fc                 BCR 0x3, 0x6
000001e5 ff50                 MOVAR 0x2f
000001e6 feb8                 MOVR 0x47, 0x0
000001e7 ff51                 MOVAR 0x2e
000001e8 def5                 MOVIA 0xa
000001e9 fcd1                 ADDAR 0x2e, 0x0
000001ea ff53                 MOVAR 0x2c
000001eb fd52                 CLRR 0x2d
000001ec eb52                 RLR 0x2d, 0x1
000001ed fed0                 MOVR 0x2f, 0x0
000001ee fc52                 ADDAR 0x2d, 0x1
000001ef c5ea                 LGOTO 0x215; main.o:_00370_DS_=0x215
000001f0                      main.o:_00366_DS_:
000001f0 defd                 MOVIA 0x2
000001f1 e0fc                 BCR 0x3, 0x6
000001f2 fbde                 SUBAR 0x21, 0x0
000001f3 f6fc                 BTRSS 0x3, 0x2
000001f4 c608                 LGOTO 0x1f7; main.o:_00461_DS_=0x1f7
000001f5 ded8                 MOVIA 0x27
000001f6 fbdf                 SUBAR 0x20, 0x0
000001f7                      main.o:_00461_DS_:
000001f7 f7fc                 BTRSS 0x3, 0x0
000001f8 c5ed                 LGOTO 0x212; main.o:_00363_DS_=0x212
000001f9 de25                 MOVIA 0xda
000001fa e0fc                 BCR 0x3, 0x6
000001fb fcdf                 ADDAR 0x20, 0x0
000001fc ff51                 MOVAR 0x2e
000001fd de02                 MOVIA 0xfd
000001fe ff50                 MOVAR 0x2f
000001ff fede                 MOVR 0x21, 0x0
00000200 f3fc                 BTRSC 0x3, 0x0
00000201 fade                 INCR 0x21, 0x0
00000202 f2fc                 BTRSC 0x3, 0x2
00000203 c5fa                 LGOTO 0x205; main.o:_00005_DS_=0x205
00000204 fc50                 ADDAR 0x2f, 0x1
00000205                      main.o:_00005_DS_:
00000205 e3fc                 BCR 0x3, 0x0
00000206 e0fc                 BCR 0x3, 0x6
00000207 ecd0                 RRR 0x2f, 0x0
00000208 ff52                 MOVAR 0x2d
00000209 ecd1                 RRR 0x2e, 0x0
0000020a ff53                 MOVAR 0x2c
0000020b e3fc                 BCR 0x3, 0x0
0000020c ec52                 RRR 0x2d, 0x1
0000020d ec53                 RRR 0x2c, 0x1
0000020e e3fc                 BCR 0x3, 0x0
0000020f ec52                 RRR 0x2d, 0x1
00000210 ec53                 RRR 0x2c, 0x1
00000211 c5ea                 LGOTO 0x215; main.o:_00370_DS_=0x215
00000212                      main.o:_00363_DS_:
00000212 e0fc                 BCR 0x3, 0x6
00000213 fd53                 CLRR 0x2c
00000214 fd52                 CLRR 0x2d
00000215                      main.o:_00370_DS_:
00000215 e0fc                 BCR 0x3, 0x6
00000216 f57a                 BTRSS 0x5, 0x5
00000217 c590                 LGOTO 0x26f; main.o:_00395_DS_=0x26f
00000218 deff                 MOVIA 0x0
00000219 fbd2                 SUBAR 0x2d, 0x0
0000021a f6fc                 BTRSS 0x3, 0x2
0000021b c5e1                 LGOTO 0x21e; main.o:_00462_DS_=0x21e
0000021c def5                 MOVIA 0xa
0000021d fbd3                 SUBAR 0x2c, 0x0
0000021e                      main.o:_00462_DS_:
0000021e f3fc                 BTRSC 0x3, 0x0
0000021f c5da                 LGOTO 0x225; main.o:_00377_DS_=0x225
00000220 defe                 MOVIA 0x1
00000221 e0fc                 BCR 0x3, 0x6
00000222 ff53                 MOVAR 0x2c
00000223 fd52                 CLRR 0x2d
00000224 c5bb                 LGOTO 0x244; main.o:_00007_DS_=0x244
00000225                      main.o:_00377_DS_:
00000225 deff                 MOVIA 0x0
00000226 e0fc                 BCR 0x3, 0x6
00000227 fbd2                 SUBAR 0x2d, 0x0
00000228 f6fc                 BTRSS 0x3, 0x2
00000229 c5d3                 LGOTO 0x22c; main.o:_00463_DS_=0x22c
0000022a deeb                 MOVIA 0x14
0000022b fbd3                 SUBAR 0x2c, 0x0
0000022c                      main.o:_00463_DS_:
0000022c f3fc                 BTRSC 0x3, 0x0
0000022d c5ca                 LGOTO 0x235; main.o:_00374_DS_=0x235
0000022e de09                 MOVIA 0xf6
0000022f e0fc                 BCR 0x3, 0x6
00000230 fc53                 ADDAR 0x2c, 0x1
00000231 f3fc                 BTRSC 0x3, 0x0
00000232 c5cb                 LGOTO 0x234; main.o:_00006_DS_=0x234
00000233 f952                 DECR 0x2d, 0x1
00000234                      main.o:_00006_DS_:
00000234 c5bb                 LGOTO 0x244; main.o:_00007_DS_=0x244
00000235                      main.o:_00374_DS_:
00000235 deff                 MOVIA 0x0
00000236 e0fc                 BCR 0x3, 0x6
00000237 fbd2                 SUBAR 0x2d, 0x0
00000238 f6fc                 BTRSS 0x3, 0x2
00000239 c5c3                 LGOTO 0x23c; main.o:_00464_DS_=0x23c
0000023a de87                 MOVIA 0x78
0000023b fbd3                 SUBAR 0x2c, 0x0
0000023c                      main.o:_00464_DS_:
0000023c f3fc                 BTRSC 0x3, 0x0
0000023d c5bb                 LGOTO 0x244; main.o:_00007_DS_=0x244
0000023e de13                 MOVIA 0xec
0000023f e0fc                 BCR 0x3, 0x6
00000240 fc53                 ADDAR 0x2c, 0x1
00000241 f3fc                 BTRSC 0x3, 0x0
00000242 c5bb                 LGOTO 0x244; main.o:_00007_DS_=0x244
00000243 f952                 DECR 0x2d, 0x1
00000244                      main.o:_00007_DS_:
00000244 deff                 MOVIA 0x0
00000245 e0fc                 BCR 0x3, 0x6
00000246 fbd2                 SUBAR 0x2d, 0x0
00000247 f6fc                 BTRSS 0x3, 0x2
00000248 c5b4                 LGOTO 0x24b; main.o:_00465_DS_=0x24b
00000249 de9b                 MOVIA 0x64
0000024a fbd3                 SUBAR 0x2c, 0x0
0000024b                      main.o:_00465_DS_:
0000024b f7fc                 BTRSS 0x3, 0x0
0000024c c5ae                 LGOTO 0x251; main.o:_00380_DS_=0x251
0000024d de9b                 MOVIA 0x64
0000024e e0fc                 BCR 0x3, 0x6
0000024f ff53                 MOVAR 0x2c
00000250 fd52                 CLRR 0x2d
00000251                      main.o:_00380_DS_:
00000251 e0fc                 BCR 0x3, 0x6
00000252 fe89                 MOVR 0x76, 0x0
00000253 ff51                 MOVAR 0x2e
00000254 fd50                 CLRR 0x2f
00000255 fed2                 MOVR 0x2d, 0x0
00000256 fbd0                 SUBAR 0x2f, 0x0
00000257 f6fc                 BTRSS 0x3, 0x2
00000258 c5a4                 LGOTO 0x25b; main.o:_00466_DS_=0x25b
00000259 fed3                 MOVR 0x2c, 0x0
0000025a fbd1                 SUBAR 0x2e, 0x0
0000025b                      main.o:_00466_DS_:
0000025b f3fc                 BTRSC 0x3, 0x0
0000025c c55c                 LGOTO 0x2a3; main.o:_00403_DS_=0x2a3
0000025d e4fc                 BSR 0x3, 0x6
0000025e fa5a                 INCR 0x25, 0x1
0000025f f2fc                 BTRSC 0x3, 0x2
00000260 fa59                 INCR 0x26, 0x1
00000261 defe                 MOVIA 0x1
00000262 fbd9                 SUBAR 0x26, 0x0
00000263 f6fc                 BTRSS 0x3, 0x2
00000264 c598                 LGOTO 0x267; main.o:_00467_DS_=0x267
00000265 de0a                 MOVIA 0xf5
00000266 fbda                 SUBAR 0x25, 0x0
00000267                      main.o:_00467_DS_:
00000267 f7fc                 BTRSS 0x3, 0x0
00000268 c55c                 LGOTO 0x2a3; main.o:_00403_DS_=0x2a3
00000269 e4fc                 BSR 0x3, 0x6
0000026a fd5a                 CLRR 0x25
0000026b fd59                 CLRR 0x26
0000026c e0fc                 BCR 0x3, 0x6
0000026d fa09                 INCR 0x76, 0x1
0000026e c55c                 LGOTO 0x2a3; main.o:_00403_DS_=0x2a3
0000026f                      main.o:_00395_DS_:
0000026f deff                 MOVIA 0x0
00000270 e0fc                 BCR 0x3, 0x6
00000271 fbd2                 SUBAR 0x2d, 0x0
00000272 f6fc                 BTRSS 0x3, 0x2
00000273 c589                 LGOTO 0x276; main.o:_00468_DS_=0x276
00000274 de9b                 MOVIA 0x64
00000275 fbd3                 SUBAR 0x2c, 0x0
00000276                      main.o:_00468_DS_:
00000276 f7fc                 BTRSS 0x3, 0x0
00000277 c583                 LGOTO 0x27c; main.o:_00386_DS_=0x27c
00000278 de9c                 MOVIA 0x63
00000279 e0fc                 BCR 0x3, 0x6
0000027a ff53                 MOVAR 0x2c
0000027b fd52                 CLRR 0x2d
0000027c                      main.o:_00386_DS_:
0000027c e0fc                 BCR 0x3, 0x6
0000027d fe89                 MOVR 0x76, 0x0
0000027e f2fc                 BTRSC 0x3, 0x2
0000027f c57c                 LGOTO 0x283; main.o:_00387_DS_=0x283
00000280 fe8c                 MOVR 0x73, 0x0
00000281 f6fc                 BTRSS 0x3, 0x2
00000282 c579                 LGOTO 0x286; main.o:_00388_DS_=0x286
00000283                      main.o:_00387_DS_:
00000283 e0fc                 BCR 0x3, 0x6
00000284 fed3                 MOVR 0x2c, 0x0
00000285 ff09                 MOVAR 0x76
00000286                      main.o:_00388_DS_:
00000286 e0fc                 BCR 0x3, 0x6
00000287 fe89                 MOVR 0x76, 0x0
00000288 ff51                 MOVAR 0x2e
00000289 fd50                 CLRR 0x2f
0000028a deff                 MOVIA 0x0
0000028b fbd2                 SUBAR 0x2d, 0x0
0000028c f6fc                 BTRSS 0x3, 0x2
0000028d c56f                 LGOTO 0x290; main.o:_00469_DS_=0x290
0000028e fed1                 MOVR 0x2e, 0x0
0000028f fbd3                 SUBAR 0x2c, 0x0
00000290                      main.o:_00469_DS_:
00000290 f3fc                 BTRSC 0x3, 0x0
00000291 c55c                 LGOTO 0x2a3; main.o:_00403_DS_=0x2a3
00000292 e4fc                 BSR 0x3, 0x6
00000293 fa5a                 INCR 0x25, 0x1
00000294 f2fc                 BTRSC 0x3, 0x2
00000295 fa59                 INCR 0x26, 0x1
00000296 defe                 MOVIA 0x1
00000297 fbd9                 SUBAR 0x26, 0x0
00000298 f6fc                 BTRSS 0x3, 0x2
00000299 c563                 LGOTO 0x29c; main.o:_00470_DS_=0x29c
0000029a de0a                 MOVIA 0xf5
0000029b fbda                 SUBAR 0x25, 0x0
0000029c                      main.o:_00470_DS_:
0000029c f7fc                 BTRSS 0x3, 0x0
0000029d c55c                 LGOTO 0x2a3; main.o:_00403_DS_=0x2a3
0000029e e4fc                 BSR 0x3, 0x6
0000029f fd5a                 CLRR 0x25
000002a0 fd59                 CLRR 0x26
000002a1 e0fc                 BCR 0x3, 0x6
000002a2 f909                 DECR 0x76, 0x1
000002a3                      main.o:_00403_DS_:
000002a3 ffef                 RET
000002a4                      _initAD:
000002a4 de7f                 MOVIA 0x80
000002a5 ff6f                 MOVAR 0x10
000002a6 fd6c                 CLRR 0x13
000002a7 deef                 MOVIA 0x10
000002a8 ff6e                 MOVAR 0x11
000002a9 defc                 MOVIA 0x3
000002aa ff6b                 MOVAR 0x14
000002ab e5ef                 BSR 0x10, 0x4
000002ac decd                 MOVIA 0x32
000002ad d6c9                 LCALL 0x136; _delay=0x136
000002ae ffef                 RET
000002af                      _keyCtr:
000002af e0fc                 BCR 0x3, 0x6
000002b0 f8fa                 COMR 0x5, 0x0
000002b1 ff54                 MOVAR 0x2b
000002b2 de7f                 MOVIA 0x80
000002b3 ef54                 ANDAR 0x2b, 0x1
000002b4 fed4                 MOVR 0x2b, 0x0
000002b5 d50a                 LCALL 0x2f5; _keyRead=0x2f5
000002b6 e0fc                 BCR 0x3, 0x6
000002b7 ff54                 MOVAR 0x2b
000002b8 dbfe                 XORIA 0x1
000002b9 f6fc                 BTRSS 0x3, 0x2
000002ba c52a                 LGOTO 0x2d5; main.o:_00349_DS_=0x2d5
000002bb fe8c                 MOVR 0x73, 0x0
000002bc f2fc                 BTRSC 0x3, 0x2
000002bd c50b                 LGOTO 0x2f4; main.o:_00351_DS_=0x2f4
000002be fe91                 MOVR 0x6e, 0x0
000002bf f6fc                 BTRSS 0x3, 0x2
000002c0 c539                 LGOTO 0x2c6; main.o:_00337_DS_=0x2c6
000002c1 defc                 MOVIA 0x3
000002c2 ff0b                 MOVAR 0x74
000002c3 e4fc                 BSR 0x3, 0x6
000002c4 fd5f                 CLRR 0x20
000002c5 c50b                 LGOTO 0x2f4; main.o:_00351_DS_=0x2f4
000002c6                      main.o:_00337_DS_:
000002c6 e0fc                 BCR 0x3, 0x6
000002c7 fd0b                 CLRR 0x74
000002c8 fa0d                 INCR 0x72, 0x1
000002c9 defb                 MOVIA 0x4
000002ca fb8d                 SUBAR 0x72, 0x0
000002cb f7fc                 BTRSS 0x3, 0x0
000002cc c530                 LGOTO 0x2cf; main.o:_00335_DS_=0x2cf
000002cd defe                 MOVIA 0x1
000002ce ff0d                 MOVAR 0x72
000002cf                      main.o:_00335_DS_:
000002cf defd                 MOVIA 0x2
000002d0 e0fc                 BCR 0x3, 0x6
000002d1 ff0a                 MOVAR 0x75
000002d2 e4fc                 BSR 0x3, 0x6
000002d3 fd5f                 CLRR 0x20
000002d4 c50b                 LGOTO 0x2f4; main.o:_00351_DS_=0x2f4
000002d5                      main.o:_00349_DS_:
000002d5 e0fc                 BCR 0x3, 0x6
000002d6 fed4                 MOVR 0x2b, 0x0
000002d7 dbfd                 XORIA 0x2
000002d8 f6fc                 BTRSS 0x3, 0x2
000002d9 c50b                 LGOTO 0x2f4; main.o:_00351_DS_=0x2f4
000002da fe8c                 MOVR 0x73, 0x0
000002db f2fc                 BTRSC 0x3, 0x2
000002dc c51a                 LGOTO 0x2e5; main.o:_00344_DS_=0x2e5
000002dd fd0c                 CLRR 0x73
000002de fd0d                 CLRR 0x72
000002df fd0b                 CLRR 0x74
000002e0 fd0a                 CLRR 0x75
000002e1 defa                 MOVIA 0x5
000002e2 e4fc                 BSR 0x3, 0x6
000002e3 ff5f                 MOVAR 0x20
000002e4 c50b                 LGOTO 0x2f4; main.o:_00351_DS_=0x2f4
000002e5                      main.o:_00344_DS_:
000002e5 defe                 MOVIA 0x1
000002e6 e0fc                 BCR 0x3, 0x6
000002e7 ff0c                 MOVAR 0x73
000002e8 defc                 MOVIA 0x3
000002e9 ff0b                 MOVAR 0x74
000002ea defd                 MOVIA 0x2
000002eb ff0a                 MOVAR 0x75
000002ec e4fc                 BSR 0x3, 0x6
000002ed fd5f                 CLRR 0x20
000002ee e0fc                 BCR 0x3, 0x6
000002ef fe8d                 MOVR 0x72, 0x0
000002f0 f6fc                 BTRSS 0x3, 0x2
000002f1 c50b                 LGOTO 0x2f4; main.o:_00351_DS_=0x2f4
000002f2 defe                 MOVIA 0x1
000002f3 ff0d                 MOVAR 0x72
000002f4                      main.o:_00351_DS_:
000002f4 ffef                 RET
000002f5                      _keyRead:
000002f5 e0fc                 BCR 0x3, 0x6
000002f6 ff55                 MOVAR 0x2a
000002f7 fed5                 MOVR 0x2a, 0x0
000002f8 f2fc                 BTRSC 0x3, 0x2
000002f9 c4f7                 LGOTO 0x308; main.o:_00327_DS_=0x308
000002fa fa08                 INCR 0x77, 0x1
000002fb de37                 MOVIA 0xc8
000002fc fb88                 SUBAR 0x77, 0x0
000002fd f7fc                 BTRSS 0x3, 0x0
000002fe c4e4                 LGOTO 0x31b; main.o:_00328_DS_=0x31b
000002ff de37                 MOVIA 0xc8
00000300 ff08                 MOVAR 0x77
00000301 fe87                 MOVR 0x78, 0x0
00000302 f6fc                 BTRSS 0x3, 0x2
00000303 c4e4                 LGOTO 0x31b; main.o:_00328_DS_=0x31b
00000304 defe                 MOVIA 0x1
00000305 ff07                 MOVAR 0x78
00000306 defd                 MOVIA 0x2
00000307 c4e3                 LGOTO 0x31c; main.o:_00329_DS_=0x31c
00000308                      main.o:_00327_DS_:
00000308 de37                 MOVIA 0xc8
00000309 e0fc                 BCR 0x3, 0x6
0000030a fb88                 SUBAR 0x77, 0x0
0000030b f7fc                 BTRSS 0x3, 0x0
0000030c c4ee                 LGOTO 0x311; main.o:_00324_DS_=0x311
0000030d fd08                 CLRR 0x77
0000030e fd07                 CLRR 0x78
0000030f deff                 MOVIA 0x0
00000310 c4e3                 LGOTO 0x31c; main.o:_00329_DS_=0x31c
00000311                      main.o:_00324_DS_:
00000311 defb                 MOVIA 0x4
00000312 e0fc                 BCR 0x3, 0x6
00000313 fb88                 SUBAR 0x77, 0x0
00000314 f7fc                 BTRSS 0x3, 0x0
00000315 c4e6                 LGOTO 0x319; main.o:_00325_DS_=0x319
00000316 fd08                 CLRR 0x77
00000317 defe                 MOVIA 0x1
00000318 c4e3                 LGOTO 0x31c; main.o:_00329_DS_=0x31c
00000319                      main.o:_00325_DS_:
00000319 e0fc                 BCR 0x3, 0x6
0000031a fd08                 CLRR 0x77
0000031b                      main.o:_00328_DS_:
0000031b deff                 MOVIA 0x0
0000031c                      main.o:_00329_DS_:
0000031c ffef                 RET
0000031d                      _pwmStop:
0000031d fdff                 CLRA
0000031e ffb5                 SFUN 0xa
0000031f ffef                 RET
00000320                      _pwmInit:
00000320 ff95                 SFUNR 0xa
00000321 e0fc                 BCR 0x3, 0x6
00000322 ff56                 MOVAR 0x29
00000323 f056                 BTRSC 0x29, 0x7
00000324 c4d2                 LGOTO 0x32d; main.o:_00308_DS_=0x32d
00000325 fd66                 CLRR 0x19
00000326 de9b                 MOVIA 0x64
00000327 ffb6                 SFUN 0x9
00000328 ffb3                 SFUN 0xc
00000329 defe                 MOVIA 0x1
0000032a ffb4                 SFUN 0xb
0000032b de7c                 MOVIA 0x83
0000032c ffb5                 SFUN 0xa
0000032d                      main.o:_00308_DS_:
0000032d ffef                 RET
0000032e                      _gotoSleep:
0000032e e4fc                 BSR 0x3, 0x6
0000032f fd5d                 CLRR 0x22
00000330 e0fc                 BCR 0x3, 0x6
00000331 fd01                 CLRR 0x7e
00000332 fd00                 CLRR 0x7f
00000333 d370                 LCALL 0x48f; _setInput=0x48f
00000334 e0fc                 BCR 0x3, 0x6
00000335 fd06                 CLRR 0x79
00000336 fd0c                 CLRR 0x73
00000337 d4e2                 LCALL 0x31d; _pwmStop=0x31d
00000338 de5f                 MOVIA 0xa0
00000339 ff6a                 MOVAR 0x15
0000033a def5                 MOVIA 0xa
0000033b fff9                 IOST 0x6
0000033c e0fc                 BCR 0x3, 0x6
0000033d fd7a                 CLRR 0x5
0000033e fd79                 CLRR 0x6
0000033f defd                 MOVIA 0x2
00000340 ff71                 MOVAR 0xe
00000341 dee7                 MOVIA 0x18
00000342 ff77                 MOVAR 0x8
00000343 fd70                 CLRR 0xf
00000344 fffd                 CLRWDT
00000345 fffb                 ENI
00000346 f17a                 BTRSC 0x5, 0x5
00000347 c4b6                 LGOTO 0x349; main.o:_00301_DS_=0x349
00000348 fffe                 SLEEP
00000349                      main.o:_00301_DS_:
00000349 fd6a                 CLRR 0x15
0000034a de5f                 MOVIA 0xa0
0000034b fffa                 IOST 0x5
0000034c def5                 MOVIA 0xa
0000034d fff9                 IOST 0x6
0000034e e0fc                 BCR 0x3, 0x6
0000034f fd7a                 CLRR 0x5
00000350 defc                 MOVIA 0x3
00000351 ff71                 MOVAR 0xe
00000352 fd70                 CLRR 0xf
00000353 de47                 MOVIA 0xb8
00000354 ff77                 MOVAR 0x8
00000355 ffef                 RET
00000356                      _initSys:
00000356 ffec                 DISI
00000357 de5f                 MOVIA 0xa0
00000358 fffa                 IOST 0x5
00000359 def5                 MOVIA 0xa
0000035a fff9                 IOST 0x6
0000035b fd79                 CLRR 0x6
0000035c e0fc                 BCR 0x3, 0x6
0000035d fd7a                 CLRR 0x5
0000035e def7                 MOVIA 0x8
0000035f ff76                 MOVAR 0x9
00000360 d370                 LCALL 0x48f; _setInput=0x48f
00000361 de80                 MOVIA 0x7f
00000362 fff6                 IOST 0x9
00000363 de08                 MOVIA 0xf7
00000364 ff73                 MOVAR 0xc
00000365 de00                 MOVIA 0xff
00000366 ff74                 MOVAR 0xb
00000367 defc                 MOVIA 0x3
00000368 ff71                 MOVAR 0xe
00000369 fdff                 CLRA
0000036a fff0                 IOST 0xf
0000036b dec8                 MOVIA 0x37
0000036c ff7e                 MOVAR 0x1
0000036d fdff                 CLRA
0000036e fffc                 T0MD
0000036f defe                 MOVIA 0x1
00000370 fff0                 IOST 0xf
00000371 de67                 MOVIA 0x98
00000372 ff77                 MOVAR 0x8
00000373 defe                 MOVIA 0x1
00000374 fff0                 IOST 0xf
00000375 fffb                 ENI
00000376 ffef                 RET
00000377                      _refreshNub:
00000377 e0fc                 BCR 0x3, 0x6
00000378 fe94                 MOVR 0x6b, 0x0
00000379 da55                 ADDIA 0xaa
0000037a ff58                 MOVAR 0x27
0000037b deff                 MOVIA 0x0
0000037c f3fc                 BTRSC 0x3, 0x0
0000037d dafe                 ADDIA 0x1
0000037e ff57                 MOVAR 0x28
0000037f fed8                 MOVR 0x27, 0x0
00000380 ff39                 MOVAR 0x46
00000381 fed7                 MOVR 0x28, 0x0
00000382 ff38                 MOVAR 0x47
00000383 deff                 MOVIA 0x0
00000384 d0c2                 LCALL 0x73d; __gptrget=0x73d
00000385 d230                 LCALL 0x5cf; _showNubBaiwei=0x5cf
00000386 e0fc                 BCR 0x3, 0x6
00000387 fe93                 MOVR 0x6c, 0x0
00000388 da55                 ADDIA 0xaa
00000389 ff58                 MOVAR 0x27
0000038a deff                 MOVIA 0x0
0000038b f3fc                 BTRSC 0x3, 0x0
0000038c dafe                 ADDIA 0x1
0000038d ff57                 MOVAR 0x28
0000038e fed8                 MOVR 0x27, 0x0
0000038f ff39                 MOVAR 0x46
00000390 fed7                 MOVR 0x28, 0x0
00000391 ff38                 MOVAR 0x47
00000392 deff                 MOVIA 0x0
00000393 d0c2                 LCALL 0x73d; __gptrget=0x73d
00000394 d1b0                 LCALL 0x64f; _showNubShiwei=0x64f
00000395 e0fc                 BCR 0x3, 0x6
00000396 fe92                 MOVR 0x6d, 0x0
00000397 da55                 ADDIA 0xaa
00000398 ff58                 MOVAR 0x27
00000399 deff                 MOVIA 0x0
0000039a f3fc                 BTRSC 0x3, 0x0
0000039b dafe                 ADDIA 0x1
0000039c ff57                 MOVAR 0x28
0000039d fed8                 MOVR 0x27, 0x0
0000039e ff39                 MOVAR 0x46
0000039f fed7                 MOVR 0x28, 0x0
000003a0 ff38                 MOVAR 0x47
000003a1 deff                 MOVIA 0x0
000003a2 d0c2                 LCALL 0x73d; __gptrget=0x73d
000003a3 d1f0                 LCALL 0x60f; _showNubGewei=0x60f
000003a4 d370                 LCALL 0x48f; _setInput=0x48f
000003a5 ffef                 RET
000003a6                      _checkIRKey:
000003a6 e0fc                 BCR 0x3, 0x6
000003a7 fe8c                 MOVR 0x73, 0x0
000003a8 f6fc                 BTRSS 0x3, 0x2
000003a9 c453                 LGOTO 0x3ac; main.o:_00275_DS_=0x3ac
000003aa fd10                 CLRR 0x6f
000003ab c430                 LGOTO 0x3cf; main.o:_00287_DS_=0x3cf
000003ac                      main.o:_00275_DS_:
000003ac defd                 MOVIA 0x2
000003ad d6c9                 LCALL 0x136; _delay=0x136
000003ae def4                 MOVIA 0xb
000003af e0fc                 BCR 0x3, 0x6
000003b0 fb8f                 SUBAR 0x70, 0x0
000003b1 f7fc                 BTRSS 0x3, 0x0
000003b2 c430                 LGOTO 0x3cf; main.o:_00287_DS_=0x3cf
000003b3 fe90                 MOVR 0x6f, 0x0
000003b4 f6fc                 BTRSS 0x3, 0x2
000003b5 c430                 LGOTO 0x3cf; main.o:_00287_DS_=0x3cf
000003b6 fe8d                 MOVR 0x72, 0x0
000003b7 dbfe                 XORIA 0x1
000003b8 f6fc                 BTRSS 0x3, 0x2
000003b9 c442                 LGOTO 0x3bd; main.o:_00282_DS_=0x3bd
000003ba decd                 MOVIA 0x32
000003bb ff0e                 MOVAR 0x71
000003bc c433                 LGOTO 0x3cc; main.o:_00283_DS_=0x3cc
000003bd                      main.o:_00282_DS_:
000003bd e0fc                 BCR 0x3, 0x6
000003be fe8d                 MOVR 0x72, 0x0
000003bf dbfd                 XORIA 0x2
000003c0 f6fc                 BTRSS 0x3, 0x2
000003c1 c43a                 LGOTO 0x3c5; main.o:_00279_DS_=0x3c5
000003c2 de9b                 MOVIA 0x64
000003c3 ff0e                 MOVAR 0x71
000003c4 c433                 LGOTO 0x3cc; main.o:_00283_DS_=0x3cc
000003c5                      main.o:_00279_DS_:
000003c5 e0fc                 BCR 0x3, 0x6
000003c6 fe8d                 MOVR 0x72, 0x0
000003c7 dbfc                 XORIA 0x3
000003c8 f6fc                 BTRSS 0x3, 0x2
000003c9 c433                 LGOTO 0x3cc; main.o:_00283_DS_=0x3cc
000003ca de69                 MOVIA 0x96
000003cb ff0e                 MOVAR 0x71
000003cc                      main.o:_00283_DS_:
000003cc defe                 MOVIA 0x1
000003cd e0fc                 BCR 0x3, 0x6
000003ce ff10                 MOVAR 0x6f
000003cf                      main.o:_00287_DS_:
000003cf ffef                 RET
000003d0                      _chrgCtr:
000003d0 e0fc                 BCR 0x3, 0x6
000003d1 fd05                 CLRR 0x7a
000003d2 e6f3                 BSR 0xc, 0x2
000003d3 ffe9                 IOSTR 0x6
000003d4 ff5a                 MOVAR 0x25
000003d5 e2da                 BCR 0x25, 0x2
000003d6 feda                 MOVR 0x25, 0x0
000003d7 fff9                 IOST 0x6
000003d8 fe8e                 MOVR 0x71, 0x0
000003d9 f2fc                 BTRSC 0x3, 0x2
000003da c420                 LGOTO 0x3df; main.o:_00191_DS_=0x3df
000003db d4df                 LCALL 0x320; _pwmInit=0x320
000003dc e0fc                 BCR 0x3, 0x6
000003dd f90e                 DECR 0x71, 0x1
000003de c41e                 LGOTO 0x3e1; main.o:_00192_DS_=0x3e1
000003df                      main.o:_00191_DS_:
000003df d4e2                 LCALL 0x31d; _pwmStop=0x31d
000003e0 e2f9                 BCR 0x6, 0x2
000003e1                      main.o:_00192_DS_:
000003e1 e0fc                 BCR 0x3, 0x6
000003e2 fe8a                 MOVR 0x75, 0x0
000003e3 f2fc                 BTRSC 0x3, 0x2
000003e4 c413                 LGOTO 0x3ec; main.o:_00223_DS_=0x3ec
000003e5 defe                 MOVIA 0x1
000003e6 ff11                 MOVAR 0x6e
000003e7 fd13                 CLRR 0x6c
000003e8 fd14                 CLRR 0x6b
000003e9 fe8d                 MOVR 0x72, 0x0
000003ea ff12                 MOVAR 0x6d
000003eb c37d                 LGOTO 0x482; main.o:_00225_DS_=0x482
000003ec                      main.o:_00223_DS_:
000003ec e0fc                 BCR 0x3, 0x6
000003ed fe8b                 MOVR 0x74, 0x0
000003ee f6fc                 BTRSS 0x3, 0x2
000003ef c40c                 LGOTO 0x3f3; main.o:_00218_DS_=0x3f3
000003f0 fe8e                 MOVR 0x71, 0x0
000003f1 f2fc                 BTRSC 0x3, 0x2
000003f2 c3f1                 LGOTO 0x40e; main.o:_00219_DS_=0x40e
000003f3                      main.o:_00218_DS_:
000003f3 defe                 MOVIA 0x1
000003f4 e0fc                 BCR 0x3, 0x6
000003f5 ff11                 MOVAR 0x6e
000003f6 de9b                 MOVIA 0x64
000003f7 fb89                 SUBAR 0x76, 0x0
000003f8 f7fc                 BTRSS 0x3, 0x0
000003f9 c400                 LGOTO 0x3ff; main.o:_00194_DS_=0x3ff
000003fa defe                 MOVIA 0x1
000003fb ff14                 MOVAR 0x6b
000003fc fd12                 CLRR 0x6d
000003fd fd13                 CLRR 0x6c
000003fe c37d                 LGOTO 0x482; main.o:_00225_DS_=0x482
000003ff                      main.o:_00194_DS_:
000003ff e0fc                 BCR 0x3, 0x6
00000400 fd14                 CLRR 0x6b
00000401 def5                 MOVIA 0xa
00000402 ff38                 MOVAR 0x47
00000403 fe89                 MOVR 0x76, 0x0
00000404 d192                 LCALL 0x66d; __divuchar=0x66d
00000405 e0fc                 BCR 0x3, 0x6
00000406 ff13                 MOVAR 0x6c
00000407 def5                 MOVIA 0xa
00000408 ff38                 MOVAR 0x47
00000409 fe89                 MOVR 0x76, 0x0
0000040a d11f                 LCALL 0x6e0; __moduchar=0x6e0
0000040b e0fc                 BCR 0x3, 0x6
0000040c ff12                 MOVAR 0x6d
0000040d c37d                 LGOTO 0x482; main.o:_00225_DS_=0x482
0000040e                      main.o:_00219_DS_:
0000040e def9                 MOVIA 0x6
0000040f e0fc                 BCR 0x3, 0x6
00000410 fb89                 SUBAR 0x76, 0x0
00000411 f3fc                 BTRSC 0x3, 0x0
00000412 c3b4                 LGOTO 0x44b; main.o:_00214_DS_=0x44b
00000413 e4fc                 BSR 0x3, 0x6
00000414 fedf                 MOVR 0x20, 0x0
00000415 f6fc                 BTRSS 0x3, 0x2
00000416 c3b4                 LGOTO 0x44b; main.o:_00214_DS_=0x44b
00000417 e0fc                 BCR 0x3, 0x6
00000418 f17a                 BTRSC 0x5, 0x5
00000419 c3b4                 LGOTO 0x44b; main.o:_00214_DS_=0x44b
0000041a defe                 MOVIA 0x1
0000041b ff11                 MOVAR 0x6e
0000041c fa04                 INCR 0x7b, 0x1
0000041d f2fc                 BTRSC 0x3, 0x2
0000041e fa03                 INCR 0x7c, 0x1
0000041f defe                 MOVIA 0x1
00000420 fb83                 SUBAR 0x7c, 0x0
00000421 f6fc                 BTRSS 0x3, 0x2
00000422 c3da                 LGOTO 0x425; main.o:_00268_DS_=0x425
00000423 de0a                 MOVIA 0xf5
00000424 fb84                 SUBAR 0x7b, 0x0
00000425                      main.o:_00268_DS_:
00000425 f7fc                 BTRSS 0x3, 0x0
00000426 c3d4                 LGOTO 0x42b; main.o:_00197_DS_=0x42b
00000427 e0fc                 BCR 0x3, 0x6
00000428 fd04                 CLRR 0x7b
00000429 fd03                 CLRR 0x7c
0000042a fd11                 CLRR 0x6e
0000042b                      main.o:_00197_DS_:
0000042b de9b                 MOVIA 0x64
0000042c ff3a                 MOVAR 0x45
0000042d deff                 MOVIA 0x0
0000042e ff39                 MOVAR 0x46
0000042f e0fc                 BCR 0x3, 0x6
00000430 fe84                 MOVR 0x7b, 0x0
00000431 ff38                 MOVAR 0x47
00000432 fe83                 MOVR 0x7c, 0x0
00000433 d0fb                 LCALL 0x704; __moduint=0x704
00000434 e0fc                 BCR 0x3, 0x6
00000435 ff59                 MOVAR 0x26
00000436 feb8                 MOVR 0x47, 0x0
00000437 ff5a                 MOVAR 0x25
00000438 deff                 MOVIA 0x0
00000439 fbd9                 SUBAR 0x26, 0x0
0000043a f6fc                 BTRSS 0x3, 0x2
0000043b c3c1                 LGOTO 0x43e; main.o:_00269_DS_=0x43e
0000043c decd                 MOVIA 0x32
0000043d fbda                 SUBAR 0x25, 0x0
0000043e                      main.o:_00269_DS_:
0000043e f3fc                 BTRSC 0x3, 0x0
0000043f c3b7                 LGOTO 0x448; main.o:_00199_DS_=0x448
00000440 defe                 MOVIA 0x1
00000441 e0fc                 BCR 0x3, 0x6
00000442 ff11                 MOVAR 0x6e
00000443 fd14                 CLRR 0x6b
00000444 fd13                 CLRR 0x6c
00000445 fe89                 MOVR 0x76, 0x0
00000446 ff12                 MOVAR 0x6d
00000447 c37d                 LGOTO 0x482; main.o:_00225_DS_=0x482
00000448                      main.o:_00199_DS_:
00000448 e0fc                 BCR 0x3, 0x6
00000449 fd11                 CLRR 0x6e
0000044a c37d                 LGOTO 0x482; main.o:_00225_DS_=0x482
0000044b                      main.o:_00214_DS_:
0000044b e4fc                 BSR 0x3, 0x6
0000044c fedf                 MOVR 0x20, 0x0
0000044d f2fc                 BTRSC 0x3, 0x2
0000044e c3a8                 LGOTO 0x457; main.o:_00211_DS_=0x457
0000044f defe                 MOVIA 0x1
00000450 e0fc                 BCR 0x3, 0x6
00000451 ff11                 MOVAR 0x6e
00000452 fd14                 CLRR 0x6b
00000453 def5                 MOVIA 0xa
00000454 ff13                 MOVAR 0x6c
00000455 ff12                 MOVAR 0x6d
00000456 c37d                 LGOTO 0x482; main.o:_00225_DS_=0x482
00000457                      main.o:_00211_DS_:
00000457 e0fc                 BCR 0x3, 0x6
00000458 f57a                 BTRSS 0x5, 0x5
00000459 c37f                 LGOTO 0x480; main.o:_00208_DS_=0x480
0000045a defe                 MOVIA 0x1
0000045b ff11                 MOVAR 0x6e
0000045c fe85                 MOVR 0x7a, 0x0
0000045d f2fc                 BTRSC 0x3, 0x2
0000045e c39a                 LGOTO 0x465; main.o:_00205_DS_=0x465
0000045f defe                 MOVIA 0x1
00000460 ff05                 MOVAR 0x7a
00000461 ff14                 MOVAR 0x6b
00000462 fd12                 CLRR 0x6d
00000463 fd13                 CLRR 0x6c
00000464 c37d                 LGOTO 0x482; main.o:_00225_DS_=0x482
00000465                      main.o:_00205_DS_:
00000465 e0fc                 BCR 0x3, 0x6
00000466 fe89                 MOVR 0x76, 0x0
00000467 db9b                 XORIA 0x64
00000468 f6fc                 BTRSS 0x3, 0x2
00000469 c38e                 LGOTO 0x471; main.o:_00202_DS_=0x471
0000046a defe                 MOVIA 0x1
0000046b ff05                 MOVAR 0x7a
0000046c fd14                 CLRR 0x6b
0000046d def6                 MOVIA 0x9
0000046e ff13                 MOVAR 0x6c
0000046f ff12                 MOVAR 0x6d
00000470 c37d                 LGOTO 0x482; main.o:_00225_DS_=0x482
00000471                      main.o:_00202_DS_:
00000471 e0fc                 BCR 0x3, 0x6
00000472 fd14                 CLRR 0x6b
00000473 def5                 MOVIA 0xa
00000474 ff38                 MOVAR 0x47
00000475 fe89                 MOVR 0x76, 0x0
00000476 d192                 LCALL 0x66d; __divuchar=0x66d
00000477 e0fc                 BCR 0x3, 0x6
00000478 ff13                 MOVAR 0x6c
00000479 def5                 MOVIA 0xa
0000047a ff38                 MOVAR 0x47
0000047b fe89                 MOVR 0x76, 0x0
0000047c d11f                 LCALL 0x6e0; __moduchar=0x6e0
0000047d e0fc                 BCR 0x3, 0x6
0000047e ff12                 MOVAR 0x6d
0000047f c37d                 LGOTO 0x482; main.o:_00225_DS_=0x482
00000480                      main.o:_00208_DS_:
00000480 e0fc                 BCR 0x3, 0x6
00000481 fd11                 CLRR 0x6e
00000482                      main.o:_00225_DS_:
00000482 ffef                 RET
00000483                      _delayms:
00000483 e0fc                 BCR 0x3, 0x6
00000484 ff2f                 MOVAR 0x50
00000485 fd2e                 CLRR 0x51
00000486                      number.o:_00400_DS_:
00000486 e0fc                 BCR 0x3, 0x6
00000487 feaf                 MOVR 0x50, 0x0
00000488 fbae                 SUBAR 0x51, 0x0
00000489 f3fc                 BTRSC 0x3, 0x0
0000048a c371                 LGOTO 0x48e; number.o:_00402_DS_=0x48e
0000048b ffff                 NOP
0000048c fa2e                 INCR 0x51, 0x1
0000048d c379                 LGOTO 0x486; number.o:_00400_DS_=0x486
0000048e                      number.o:_00402_DS_:
0000048e ffef                 RET
0000048f                      _setInput:
0000048f e3f9                 BCR 0x6, 0x0
00000490 de1f                 MOVIA 0xe0
00000491 e0fc                 BCR 0x3, 0x6
00000492 ef7a                 ANDAR 0x5, 0x1
00000493 de40                 MOVIA 0xbf
00000494 fffa                 IOST 0x5
00000495 ffe9                 IOSTR 0x6
00000496 ff30                 MOVAR 0x4f
00000497 e7b0                 BSR 0x4f, 0x0
00000498 feb0                 MOVR 0x4f, 0x0
00000499 fff9                 IOST 0x6
0000049a ffef                 RET
0000049b                      _setOutput:
0000049b e0fc                 BCR 0x3, 0x6
0000049c ff31                 MOVAR 0x4e
0000049d defe                 MOVIA 0x1
0000049e fbb1                 SUBAR 0x4e, 0x0
0000049f f7fc                 BTRSS 0x3, 0x0
000004a0 c323                 LGOTO 0x4dc; number.o:_00379_DS_=0x4dc
000004a1 def8                 MOVIA 0x7
000004a2 fbb1                 SUBAR 0x4e, 0x0
000004a3 f3fc                 BTRSC 0x3, 0x0
000004a4 c323                 LGOTO 0x4dc; number.o:_00379_DS_=0x4dc
000004a5 f931                 DECR 0x4e, 0x1
000004a6 defb                 MOVIA 0x4
000004a7 ff75                 MOVAR 0xa
000004a8 feb1                 MOVR 0x4e, 0x0
000004a9 da52                 ADDIA 0xad
000004aa f3fc                 BTRSC 0x3, 0x0
000004ab fa75                 INCR 0xa, 0x1
000004ac ff7d                 MOVAR 0x2
000004ad                      number.o:_00389_DS_:
000004ad c34c                 LGOTO 0x4b3; number.o:_00372_DS_=0x4b3
000004ae c345                 LGOTO 0x4ba; number.o:_00373_DS_=0x4ba
000004af c33e                 LGOTO 0x4c1; number.o:_00374_DS_=0x4c1
000004b0 c337                 LGOTO 0x4c8; number.o:_00375_DS_=0x4c8
000004b1 c330                 LGOTO 0x4cf; number.o:_00376_DS_=0x4cf
000004b2 c329                 LGOTO 0x4d6; number.o:_00377_DS_=0x4d6
000004b3                      number.o:_00372_DS_:
000004b3 ffe9                 IOSTR 0x6
000004b4 e0fc                 BCR 0x3, 0x6
000004b5 ff31                 MOVAR 0x4e
000004b6 e3b1                 BCR 0x4e, 0x0
000004b7 feb1                 MOVR 0x4e, 0x0
000004b8 fff9                 IOST 0x6
000004b9 c323                 LGOTO 0x4dc; number.o:_00379_DS_=0x4dc
000004ba                      number.o:_00373_DS_:
000004ba ffea                 IOSTR 0x5
000004bb e0fc                 BCR 0x3, 0x6
000004bc ff31                 MOVAR 0x4e
000004bd e3b1                 BCR 0x4e, 0x0
000004be feb1                 MOVR 0x4e, 0x0
000004bf fffa                 IOST 0x5
000004c0 c323                 LGOTO 0x4dc; number.o:_00379_DS_=0x4dc
000004c1                      number.o:_00374_DS_:
000004c1 ffea                 IOSTR 0x5
000004c2 e0fc                 BCR 0x3, 0x6
000004c3 ff31                 MOVAR 0x4e
000004c4 e331                 BCR 0x4e, 0x1
000004c5 feb1                 MOVR 0x4e, 0x0
000004c6 fffa                 IOST 0x5
000004c7 c323                 LGOTO 0x4dc; number.o:_00379_DS_=0x4dc
000004c8                      number.o:_00375_DS_:
000004c8 ffea                 IOSTR 0x5
000004c9 e0fc                 BCR 0x3, 0x6
000004ca ff31                 MOVAR 0x4e
000004cb e2b1                 BCR 0x4e, 0x2
000004cc feb1                 MOVR 0x4e, 0x0
000004cd fffa                 IOST 0x5
000004ce c323                 LGOTO 0x4dc; number.o:_00379_DS_=0x4dc
000004cf                      number.o:_00376_DS_:
000004cf ffea                 IOSTR 0x5
000004d0 e0fc                 BCR 0x3, 0x6
000004d1 ff31                 MOVAR 0x4e
000004d2 e231                 BCR 0x4e, 0x3
000004d3 feb1                 MOVR 0x4e, 0x0
000004d4 fffa                 IOST 0x5
000004d5 c323                 LGOTO 0x4dc; number.o:_00379_DS_=0x4dc
000004d6                      number.o:_00377_DS_:
000004d6 ffea                 IOSTR 0x5
000004d7 e0fc                 BCR 0x3, 0x6
000004d8 ff31                 MOVAR 0x4e
000004d9 e1b1                 BCR 0x4e, 0x4
000004da feb1                 MOVR 0x4e, 0x0
000004db fffa                 IOST 0x5
000004dc                      number.o:_00379_DS_:
000004dc ffef                 RET
000004dd                      _setlowOutput:
000004dd e0fc                 BCR 0x3, 0x6
000004de ff32                 MOVAR 0x4d
000004df defe                 MOVIA 0x1
000004e0 fbb2                 SUBAR 0x4d, 0x0
000004e1 f7fc                 BTRSS 0x3, 0x0
000004e2 c2fa                 LGOTO 0x505; number.o:_00357_DS_=0x505
000004e3 def8                 MOVIA 0x7
000004e4 fbb2                 SUBAR 0x4d, 0x0
000004e5 f3fc                 BTRSC 0x3, 0x0
000004e6 c2fa                 LGOTO 0x505; number.o:_00357_DS_=0x505
000004e7 f932                 DECR 0x4d, 0x1
000004e8 defb                 MOVIA 0x4
000004e9 ff75                 MOVAR 0xa
000004ea feb2                 MOVR 0x4d, 0x0
000004eb da10                 ADDIA 0xef
000004ec f3fc                 BTRSC 0x3, 0x0
000004ed fa75                 INCR 0xa, 0x1
000004ee ff7d                 MOVAR 0x2
000004ef                      number.o:_00367_DS_:
000004ef c30a                 LGOTO 0x4f5; number.o:_00350_DS_=0x4f5
000004f0 c308                 LGOTO 0x4f7; number.o:_00351_DS_=0x4f7
000004f1 c305                 LGOTO 0x4fa; number.o:_00352_DS_=0x4fa
000004f2 c302                 LGOTO 0x4fd; number.o:_00353_DS_=0x4fd
000004f3 c2ff                 LGOTO 0x500; number.o:_00354_DS_=0x500
000004f4 c2fc                 LGOTO 0x503; number.o:_00355_DS_=0x503
000004f5                      number.o:_00350_DS_:
000004f5 e3f9                 BCR 0x6, 0x0
000004f6 c2fa                 LGOTO 0x505; number.o:_00357_DS_=0x505
000004f7                      number.o:_00351_DS_:
000004f7 e0fc                 BCR 0x3, 0x6
000004f8 e3fa                 BCR 0x5, 0x0
000004f9 c2fa                 LGOTO 0x505; number.o:_00357_DS_=0x505
000004fa                      number.o:_00352_DS_:
000004fa e0fc                 BCR 0x3, 0x6
000004fb e37a                 BCR 0x5, 0x1
000004fc c2fa                 LGOTO 0x505; number.o:_00357_DS_=0x505
000004fd                      number.o:_00353_DS_:
000004fd e0fc                 BCR 0x3, 0x6
000004fe e2fa                 BCR 0x5, 0x2
000004ff c2fa                 LGOTO 0x505; number.o:_00357_DS_=0x505
00000500                      number.o:_00354_DS_:
00000500 e0fc                 BCR 0x3, 0x6
00000501 e27a                 BCR 0x5, 0x3
00000502 c2fa                 LGOTO 0x505; number.o:_00357_DS_=0x505
00000503                      number.o:_00355_DS_:
00000503 e0fc                 BCR 0x3, 0x6
00000504 e1fa                 BCR 0x5, 0x4
00000505                      number.o:_00357_DS_:
00000505 ffef                 RET
00000506                      _setHightOutput:
00000506 e0fc                 BCR 0x3, 0x6
00000507 ff33                 MOVAR 0x4c
00000508 defe                 MOVIA 0x1
00000509 fbb3                 SUBAR 0x4c, 0x0
0000050a f7fc                 BTRSS 0x3, 0x0
0000050b c2d1                 LGOTO 0x52e; number.o:_00335_DS_=0x52e
0000050c def8                 MOVIA 0x7
0000050d fbb3                 SUBAR 0x4c, 0x0
0000050e f3fc                 BTRSC 0x3, 0x0
0000050f c2d1                 LGOTO 0x52e; number.o:_00335_DS_=0x52e
00000510 f933                 DECR 0x4c, 0x1
00000511 defa                 MOVIA 0x5
00000512 ff75                 MOVAR 0xa
00000513 feb3                 MOVR 0x4c, 0x0
00000514 dae7                 ADDIA 0x18
00000515 f3fc                 BTRSC 0x3, 0x0
00000516 fa75                 INCR 0xa, 0x1
00000517 ff7d                 MOVAR 0x2
00000518                      number.o:_00345_DS_:
00000518 c2e1                 LGOTO 0x51e; number.o:_00328_DS_=0x51e
00000519 c2df                 LGOTO 0x520; number.o:_00329_DS_=0x520
0000051a c2dc                 LGOTO 0x523; number.o:_00330_DS_=0x523
0000051b c2d9                 LGOTO 0x526; number.o:_00331_DS_=0x526
0000051c c2d6                 LGOTO 0x529; number.o:_00332_DS_=0x529
0000051d c2d3                 LGOTO 0x52c; number.o:_00333_DS_=0x52c
0000051e                      number.o:_00328_DS_:
0000051e e7f9                 BSR 0x6, 0x0
0000051f c2d1                 LGOTO 0x52e; number.o:_00335_DS_=0x52e
00000520                      number.o:_00329_DS_:
00000520 e0fc                 BCR 0x3, 0x6
00000521 e7fa                 BSR 0x5, 0x0
00000522 c2d1                 LGOTO 0x52e; number.o:_00335_DS_=0x52e
00000523                      number.o:_00330_DS_:
00000523 e0fc                 BCR 0x3, 0x6
00000524 e77a                 BSR 0x5, 0x1
00000525 c2d1                 LGOTO 0x52e; number.o:_00335_DS_=0x52e
00000526                      number.o:_00331_DS_:
00000526 e0fc                 BCR 0x3, 0x6
00000527 e6fa                 BSR 0x5, 0x2
00000528 c2d1                 LGOTO 0x52e; number.o:_00335_DS_=0x52e
00000529                      number.o:_00332_DS_:
00000529 e0fc                 BCR 0x3, 0x6
0000052a e67a                 BSR 0x5, 0x3
0000052b c2d1                 LGOTO 0x52e; number.o:_00335_DS_=0x52e
0000052c                      number.o:_00333_DS_:
0000052c e0fc                 BCR 0x3, 0x6
0000052d e5fa                 BSR 0x5, 0x4
0000052e                      number.o:_00335_DS_:
0000052e ffef                 RET
0000052f                      _showNub:
0000052f e0fc                 BCR 0x3, 0x6
00000530 ff35                 MOVAR 0x4a
00000531 feb8                 MOVR 0x47, 0x0
00000532 ff34                 MOVAR 0x4b
00000533 d370                 LCALL 0x48f; _setInput=0x48f
00000534 e0fc                 BCR 0x3, 0x6
00000535 feb5                 MOVR 0x4a, 0x0
00000536 d364                 LCALL 0x49b; _setOutput=0x49b
00000537 e0fc                 BCR 0x3, 0x6
00000538 feb5                 MOVR 0x4a, 0x0
00000539 d2f9                 LCALL 0x506; _setHightOutput=0x506
0000053a e0fc                 BCR 0x3, 0x6
0000053b feb4                 MOVR 0x4b, 0x0
0000053c d364                 LCALL 0x49b; _setOutput=0x49b
0000053d e0fc                 BCR 0x3, 0x6
0000053e feb4                 MOVR 0x4b, 0x0
0000053f d322                 LCALL 0x4dd; _setlowOutput=0x4dd
00000540 deeb                 MOVIA 0x14
00000541 d37c                 LCALL 0x483; _delayms=0x483
00000542 fffd                 CLRWDT
00000543 ffef                 RET
00000544                      _G3:
00000544 defe                 MOVIA 0x1
00000545 ff38                 MOVAR 0x47
00000546 defa                 MOVIA 0x5
00000547 d2d0                 LCALL 0x52f; _showNub=0x52f
00000548 ffef                 RET
00000549                      _F3:
00000549 def9                 MOVIA 0x6
0000054a ff38                 MOVAR 0x47
0000054b defb                 MOVIA 0x4
0000054c d2d0                 LCALL 0x52f; _showNub=0x52f
0000054d ffef                 RET
0000054e                      _E3:
0000054e defa                 MOVIA 0x5
0000054f ff38                 MOVAR 0x47
00000550 defb                 MOVIA 0x4
00000551 d2d0                 LCALL 0x52f; _showNub=0x52f
00000552 ffef                 RET
00000553                      _D3:
00000553 defc                 MOVIA 0x3
00000554 ff38                 MOVAR 0x47
00000555 defb                 MOVIA 0x4
00000556 d2d0                 LCALL 0x52f; _showNub=0x52f
00000557 ffef                 RET
00000558                      _C3:
00000558 defd                 MOVIA 0x2
00000559 ff38                 MOVAR 0x47
0000055a defb                 MOVIA 0x4
0000055b d2d0                 LCALL 0x52f; _showNub=0x52f
0000055c ffef                 RET
0000055d                      _B3:
0000055d defe                 MOVIA 0x1
0000055e ff38                 MOVAR 0x47
0000055f defb                 MOVIA 0x4
00000560 d2d0                 LCALL 0x52f; _showNub=0x52f
00000561 ffef                 RET
00000562                      _A3:
00000562 def9                 MOVIA 0x6
00000563 ff38                 MOVAR 0x47
00000564 defc                 MOVIA 0x3
00000565 d2d0                 LCALL 0x52f; _showNub=0x52f
00000566 ffef                 RET
00000567                      _G2:
00000567 defa                 MOVIA 0x5
00000568 ff38                 MOVAR 0x47
00000569 defc                 MOVIA 0x3
0000056a d2d0                 LCALL 0x52f; _showNub=0x52f
0000056b ffef                 RET
0000056c                      _F2:
0000056c defb                 MOVIA 0x4
0000056d ff38                 MOVAR 0x47
0000056e defc                 MOVIA 0x3
0000056f d2d0                 LCALL 0x52f; _showNub=0x52f
00000570 ffef                 RET
00000571                      _E2:
00000571 defd                 MOVIA 0x2
00000572 ff38                 MOVAR 0x47
00000573 defc                 MOVIA 0x3
00000574 d2d0                 LCALL 0x52f; _showNub=0x52f
00000575 ffef                 RET
00000576                      _D2:
00000576 defe                 MOVIA 0x1
00000577 ff38                 MOVAR 0x47
00000578 defc                 MOVIA 0x3
00000579 d2d0                 LCALL 0x52f; _showNub=0x52f
0000057a ffef                 RET
0000057b                      _C2:
0000057b def9                 MOVIA 0x6
0000057c ff38                 MOVAR 0x47
0000057d defd                 MOVIA 0x2
0000057e d2d0                 LCALL 0x52f; _showNub=0x52f
0000057f ffef                 RET
00000580                      _B2:
00000580 defa                 MOVIA 0x5
00000581 ff38                 MOVAR 0x47
00000582 defd                 MOVIA 0x2
00000583 d2d0                 LCALL 0x52f; _showNub=0x52f
00000584 ffef                 RET
00000585                      _A2:
00000585 defb                 MOVIA 0x4
00000586 ff38                 MOVAR 0x47
00000587 defd                 MOVIA 0x2
00000588 d2d0                 LCALL 0x52f; _showNub=0x52f
00000589 ffef                 RET
0000058a                      _G1:
0000058a defc                 MOVIA 0x3
0000058b ff38                 MOVAR 0x47
0000058c defd                 MOVIA 0x2
0000058d d2d0                 LCALL 0x52f; _showNub=0x52f
0000058e ffef                 RET
0000058f                      _F1:
0000058f defe                 MOVIA 0x1
00000590 ff38                 MOVAR 0x47
00000591 defd                 MOVIA 0x2
00000592 d2d0                 LCALL 0x52f; _showNub=0x52f
00000593 ffef                 RET
00000594                      _E1:
00000594 def9                 MOVIA 0x6
00000595 ff38                 MOVAR 0x47
00000596 defe                 MOVIA 0x1
00000597 d2d0                 LCALL 0x52f; _showNub=0x52f
00000598 ffef                 RET
00000599                      _D1:
00000599 defa                 MOVIA 0x5
0000059a ff38                 MOVAR 0x47
0000059b defe                 MOVIA 0x1
0000059c d2d0                 LCALL 0x52f; _showNub=0x52f
0000059d ffef                 RET
0000059e                      _C1:
0000059e defb                 MOVIA 0x4
0000059f ff38                 MOVAR 0x47
000005a0 defe                 MOVIA 0x1
000005a1 d2d0                 LCALL 0x52f; _showNub=0x52f
000005a2 ffef                 RET
000005a3                      _B1:
000005a3 defc                 MOVIA 0x3
000005a4 ff38                 MOVAR 0x47
000005a5 defe                 MOVIA 0x1
000005a6 d2d0                 LCALL 0x52f; _showNub=0x52f
000005a7 ffef                 RET
000005a8                      _A1:
000005a8 defd                 MOVIA 0x2
000005a9 ff38                 MOVAR 0x47
000005aa defe                 MOVIA 0x1
000005ab d2d0                 LCALL 0x52f; _showNub=0x52f
000005ac ffef                 RET
000005ad                      _showNubBaiwei2:
000005ad e0fc                 BCR 0x3, 0x6
000005ae ff36                 MOVAR 0x49
000005af def8                 MOVIA 0x7
000005b0 fbb6                 SUBAR 0x49, 0x0
000005b1 f3fc                 BTRSC 0x3, 0x0
000005b2 c231                 LGOTO 0x5ce; number.o:_00229_DS_=0x5ce
000005b3 defa                 MOVIA 0x5
000005b4 ff75                 MOVAR 0xa
000005b5 feb6                 MOVR 0x49, 0x0
000005b6 da45                 ADDIA 0xba
000005b7 f3fc                 BTRSC 0x3, 0x0
000005b8 fa75                 INCR 0xa, 0x1
000005b9 ff7d                 MOVAR 0x2
000005ba                      number.o:_00235_DS_:
000005ba c23e                 LGOTO 0x5c1; number.o:_00221_DS_=0x5c1
000005bb c23c                 LGOTO 0x5c3; number.o:_00222_DS_=0x5c3
000005bc c23a                 LGOTO 0x5c5; number.o:_00223_DS_=0x5c5
000005bd c238                 LGOTO 0x5c7; number.o:_00224_DS_=0x5c7
000005be c236                 LGOTO 0x5c9; number.o:_00225_DS_=0x5c9
000005bf c234                 LGOTO 0x5cb; number.o:_00226_DS_=0x5cb
000005c0 c232                 LGOTO 0x5cd; number.o:_00227_DS_=0x5cd
000005c1                      number.o:_00221_DS_:
000005c1 d257                 LCALL 0x5a8; _A1=0x5a8
000005c2 c231                 LGOTO 0x5ce; number.o:_00229_DS_=0x5ce
000005c3                      number.o:_00222_DS_:
000005c3 d25c                 LCALL 0x5a3; _B1=0x5a3
000005c4 c231                 LGOTO 0x5ce; number.o:_00229_DS_=0x5ce
000005c5                      number.o:_00223_DS_:
000005c5 d261                 LCALL 0x59e; _C1=0x59e
000005c6 c231                 LGOTO 0x5ce; number.o:_00229_DS_=0x5ce
000005c7                      number.o:_00224_DS_:
000005c7 d266                 LCALL 0x599; _D1=0x599
000005c8 c231                 LGOTO 0x5ce; number.o:_00229_DS_=0x5ce
000005c9                      number.o:_00225_DS_:
000005c9 d26b                 LCALL 0x594; _E1=0x594
000005ca c231                 LGOTO 0x5ce; number.o:_00229_DS_=0x5ce
000005cb                      number.o:_00226_DS_:
000005cb d270                 LCALL 0x58f; _F1=0x58f
000005cc c231                 LGOTO 0x5ce; number.o:_00229_DS_=0x5ce
000005cd                      number.o:_00227_DS_:
000005cd d275                 LCALL 0x58a; _G1=0x58a
000005ce                      number.o:_00229_DS_:
000005ce ffef                 RET
000005cf                      _showNubBaiwei:
000005cf e0fc                 BCR 0x3, 0x6
000005d0 ff41                 MOVAR 0x3e
000005d1 fd40                 CLRR 0x3f
000005d2                      number.o:_00200_DS_:
000005d2 def8                 MOVIA 0x7
000005d3 e0fc                 BCR 0x3, 0x6
000005d4 fbc0                 SUBAR 0x3f, 0x0
000005d5 f3fc                 BTRSC 0x3, 0x0
000005d6 c213                 LGOTO 0x5ec; number.o:_00202_DS_=0x5ec
000005d7 fec1                 MOVR 0x3e, 0x0
000005d8 ff37                 MOVAR 0x48
000005d9 fec0                 MOVR 0x3f, 0x0
000005da d8ff                 SUBIA 0x0
000005db f2fc                 BTRSC 0x3, 0x2
000005dc c21d                 LGOTO 0x5e2; number.o:_00216_DS_=0x5e2
000005dd                      number.o:_00215_DS_:
000005dd e0fc                 BCR 0x3, 0x6
000005de ec37                 RRR 0x48, 0x1
000005df dafe                 ADDIA 0x1
000005e0 f7fc                 BTRSS 0x3, 0x0
000005e1 c222                 LGOTO 0x5dd; number.o:_00215_DS_=0x5dd
000005e2                      number.o:_00216_DS_:
000005e2 e0fc                 BCR 0x3, 0x6
000005e3 f7b7                 BTRSS 0x48, 0x0
000005e4 c217                 LGOTO 0x5e8; number.o:_00196_DS_=0x5e8
000005e5 fec0                 MOVR 0x3f, 0x0
000005e6 d252                 LCALL 0x5ad; _showNubBaiwei2=0x5ad
000005e7 c216                 LGOTO 0x5e9; number.o:_00201_DS_=0x5e9
000005e8                      number.o:_00196_DS_:
000005e8 d370                 LCALL 0x48f; _setInput=0x48f
000005e9                      number.o:_00201_DS_:
000005e9 e0fc                 BCR 0x3, 0x6
000005ea fa40                 INCR 0x3f, 0x1
000005eb c22d                 LGOTO 0x5d2; number.o:_00200_DS_=0x5d2
000005ec                      number.o:_00202_DS_:
000005ec ffef                 RET
000005ed                      _showNubGewei2:
000005ed e0fc                 BCR 0x3, 0x6
000005ee ff42                 MOVAR 0x3d
000005ef def8                 MOVIA 0x7
000005f0 fbc2                 SUBAR 0x3d, 0x0
000005f1 f3fc                 BTRSC 0x3, 0x0
000005f2 c1f1                 LGOTO 0x60e; number.o:_00184_DS_=0x60e
000005f3 defa                 MOVIA 0x5
000005f4 ff75                 MOVAR 0xa
000005f5 fec2                 MOVR 0x3d, 0x0
000005f6 da05                 ADDIA 0xfa
000005f7 f3fc                 BTRSC 0x3, 0x0
000005f8 fa75                 INCR 0xa, 0x1
000005f9 ff7d                 MOVAR 0x2
000005fa                      number.o:_00190_DS_:
000005fa c1fe                 LGOTO 0x601; number.o:_00176_DS_=0x601
000005fb c1fc                 LGOTO 0x603; number.o:_00177_DS_=0x603
000005fc c1fa                 LGOTO 0x605; number.o:_00178_DS_=0x605
000005fd c1f8                 LGOTO 0x607; number.o:_00179_DS_=0x607
000005fe c1f6                 LGOTO 0x609; number.o:_00180_DS_=0x609
000005ff c1f4                 LGOTO 0x60b; number.o:_00181_DS_=0x60b
00000600 c1f2                 LGOTO 0x60d; number.o:_00182_DS_=0x60d
00000601                      number.o:_00176_DS_:
00000601 d29d                 LCALL 0x562; _A3=0x562
00000602 c1f1                 LGOTO 0x60e; number.o:_00184_DS_=0x60e
00000603                      number.o:_00177_DS_:
00000603 d2a2                 LCALL 0x55d; _B3=0x55d
00000604 c1f1                 LGOTO 0x60e; number.o:_00184_DS_=0x60e
00000605                      number.o:_00178_DS_:
00000605 d2a7                 LCALL 0x558; _C3=0x558
00000606 c1f1                 LGOTO 0x60e; number.o:_00184_DS_=0x60e
00000607                      number.o:_00179_DS_:
00000607 d2ac                 LCALL 0x553; _D3=0x553
00000608 c1f1                 LGOTO 0x60e; number.o:_00184_DS_=0x60e
00000609                      number.o:_00180_DS_:
00000609 d2b1                 LCALL 0x54e; _E3=0x54e
0000060a c1f1                 LGOTO 0x60e; number.o:_00184_DS_=0x60e
0000060b                      number.o:_00181_DS_:
0000060b d2b6                 LCALL 0x549; _F3=0x549
0000060c c1f1                 LGOTO 0x60e; number.o:_00184_DS_=0x60e
0000060d                      number.o:_00182_DS_:
0000060d d2bb                 LCALL 0x544; _G3=0x544
0000060e                      number.o:_00184_DS_:
0000060e ffef                 RET
0000060f                      _showNubGewei:
0000060f e0fc                 BCR 0x3, 0x6
00000610 ff45                 MOVAR 0x3a
00000611 fd44                 CLRR 0x3b
00000612                      number.o:_00155_DS_:
00000612 def8                 MOVIA 0x7
00000613 e0fc                 BCR 0x3, 0x6
00000614 fbc4                 SUBAR 0x3b, 0x0
00000615 f3fc                 BTRSC 0x3, 0x0
00000616 c1d3                 LGOTO 0x62c; number.o:_00157_DS_=0x62c
00000617 fec5                 MOVR 0x3a, 0x0
00000618 ff43                 MOVAR 0x3c
00000619 fec4                 MOVR 0x3b, 0x0
0000061a d8ff                 SUBIA 0x0
0000061b f2fc                 BTRSC 0x3, 0x2
0000061c c1dd                 LGOTO 0x622; number.o:_00171_DS_=0x622
0000061d                      number.o:_00170_DS_:
0000061d e0fc                 BCR 0x3, 0x6
0000061e ec43                 RRR 0x3c, 0x1
0000061f dafe                 ADDIA 0x1
00000620 f7fc                 BTRSS 0x3, 0x0
00000621 c1e2                 LGOTO 0x61d; number.o:_00170_DS_=0x61d
00000622                      number.o:_00171_DS_:
00000622 e0fc                 BCR 0x3, 0x6
00000623 f7c3                 BTRSS 0x3c, 0x0
00000624 c1d7                 LGOTO 0x628; number.o:_00151_DS_=0x628
00000625 fec4                 MOVR 0x3b, 0x0
00000626 d212                 LCALL 0x5ed; _showNubGewei2=0x5ed
00000627 c1d6                 LGOTO 0x629; number.o:_00156_DS_=0x629
00000628                      number.o:_00151_DS_:
00000628 d370                 LCALL 0x48f; _setInput=0x48f
00000629                      number.o:_00156_DS_:
00000629 e0fc                 BCR 0x3, 0x6
0000062a fa44                 INCR 0x3b, 0x1
0000062b c1ed                 LGOTO 0x612; number.o:_00155_DS_=0x612
0000062c                      number.o:_00157_DS_:
0000062c ffef                 RET
0000062d                      _showNubShiwei2:
0000062d e0fc                 BCR 0x3, 0x6
0000062e ff46                 MOVAR 0x39
0000062f def8                 MOVIA 0x7
00000630 fbc6                 SUBAR 0x39, 0x0
00000631 f3fc                 BTRSC 0x3, 0x0
00000632 c1b1                 LGOTO 0x64e; number.o:_00139_DS_=0x64e
00000633 def9                 MOVIA 0x6
00000634 ff75                 MOVAR 0xa
00000635 fec6                 MOVR 0x39, 0x0
00000636 dac5                 ADDIA 0x3a
00000637 f3fc                 BTRSC 0x3, 0x0
00000638 fa75                 INCR 0xa, 0x1
00000639 ff7d                 MOVAR 0x2
0000063a                      number.o:_00145_DS_:
0000063a c1be                 LGOTO 0x641; number.o:_00131_DS_=0x641
0000063b c1bc                 LGOTO 0x643; number.o:_00132_DS_=0x643
0000063c c1ba                 LGOTO 0x645; number.o:_00133_DS_=0x645
0000063d c1b8                 LGOTO 0x647; number.o:_00134_DS_=0x647
0000063e c1b6                 LGOTO 0x649; number.o:_00135_DS_=0x649
0000063f c1b4                 LGOTO 0x64b; number.o:_00136_DS_=0x64b
00000640 c1b2                 LGOTO 0x64d; number.o:_00137_DS_=0x64d
00000641                      number.o:_00131_DS_:
00000641 d27a                 LCALL 0x585; _A2=0x585
00000642 c1b1                 LGOTO 0x64e; number.o:_00139_DS_=0x64e
00000643                      number.o:_00132_DS_:
00000643 d27f                 LCALL 0x580; _B2=0x580
00000644 c1b1                 LGOTO 0x64e; number.o:_00139_DS_=0x64e
00000645                      number.o:_00133_DS_:
00000645 d284                 LCALL 0x57b; _C2=0x57b
00000646 c1b1                 LGOTO 0x64e; number.o:_00139_DS_=0x64e
00000647                      number.o:_00134_DS_:
00000647 d289                 LCALL 0x576; _D2=0x576
00000648 c1b1                 LGOTO 0x64e; number.o:_00139_DS_=0x64e
00000649                      number.o:_00135_DS_:
00000649 d28e                 LCALL 0x571; _E2=0x571
0000064a c1b1                 LGOTO 0x64e; number.o:_00139_DS_=0x64e
0000064b                      number.o:_00136_DS_:
0000064b d293                 LCALL 0x56c; _F2=0x56c
0000064c c1b1                 LGOTO 0x64e; number.o:_00139_DS_=0x64e
0000064d                      number.o:_00137_DS_:
0000064d d298                 LCALL 0x567; _G2=0x567
0000064e                      number.o:_00139_DS_:
0000064e ffef                 RET
0000064f                      _showNubShiwei:
0000064f e0fc                 BCR 0x3, 0x6
00000650 ff49                 MOVAR 0x36
00000651 fd48                 CLRR 0x37
00000652                      number.o:_00110_DS_:
00000652 def8                 MOVIA 0x7
00000653 e0fc                 BCR 0x3, 0x6
00000654 fbc8                 SUBAR 0x37, 0x0
00000655 f3fc                 BTRSC 0x3, 0x0
00000656 c193                 LGOTO 0x66c; number.o:_00112_DS_=0x66c
00000657 fec9                 MOVR 0x36, 0x0
00000658 ff47                 MOVAR 0x38
00000659 fec8                 MOVR 0x37, 0x0
0000065a d8ff                 SUBIA 0x0
0000065b f2fc                 BTRSC 0x3, 0x2
0000065c c19d                 LGOTO 0x662; number.o:_00126_DS_=0x662
0000065d                      number.o:_00125_DS_:
0000065d e0fc                 BCR 0x3, 0x6
0000065e ec47                 RRR 0x38, 0x1
0000065f dafe                 ADDIA 0x1
00000660 f7fc                 BTRSS 0x3, 0x0
00000661 c1a2                 LGOTO 0x65d; number.o:_00125_DS_=0x65d
00000662                      number.o:_00126_DS_:
00000662 e0fc                 BCR 0x3, 0x6
00000663 f7c7                 BTRSS 0x38, 0x0
00000664 c197                 LGOTO 0x668; number.o:_00106_DS_=0x668
00000665 fec8                 MOVR 0x37, 0x0
00000666 d1d2                 LCALL 0x62d; _showNubShiwei2=0x62d
00000667 c196                 LGOTO 0x669; number.o:_00111_DS_=0x669
00000668                      number.o:_00106_DS_:
00000668 d370                 LCALL 0x48f; _setInput=0x48f
00000669                      number.o:_00111_DS_:
00000669 e0fc                 BCR 0x3, 0x6
0000066a fa48                 INCR 0x37, 0x1
0000066b c1ad                 LGOTO 0x652; number.o:_00110_DS_=0x652
0000066c                      number.o:_00112_DS_:
0000066c ffef                 RET
0000066d                      __divuchar:
0000066d e0fc                 BCR 0x3, 0x6
0000066e ff2d                 MOVAR 0x52
0000066f feb8                 MOVR 0x47, 0x0
00000670 ff2c                 MOVAR 0x53
00000671 fd2b                 CLRR 0x54
00000672 defe                 MOVIA 0x1
00000673 ff2a                 MOVAR 0x55
00000674 feac                 MOVR 0x53, 0x0
00000675 f6fc                 BTRSS 0x3, 0x2
00000676 c186                 LGOTO 0x679; _divuchar.o:_00107_DS_=0x679
00000677 de00                 MOVIA 0xff
00000678 c16a                 LGOTO 0x695; _divuchar.o:_00115_DS_=0x695
00000679                      _divuchar.o:_00107_DS_:
00000679 e0fc                 BCR 0x3, 0x6
0000067a f02c                 BTRSC 0x53, 0x7
0000067b c17e                 LGOTO 0x681; _divuchar.o:_00112_DS_=0x681
0000067c e3fc                 BCR 0x3, 0x0
0000067d eb2c                 RLR 0x53, 0x1
0000067e e3fc                 BCR 0x3, 0x0
0000067f eb2a                 RLR 0x55, 0x1
00000680 c186                 LGOTO 0x679; _divuchar.o:_00107_DS_=0x679
00000681                      _divuchar.o:_00112_DS_:
00000681 e0fc                 BCR 0x3, 0x6
00000682 feaa                 MOVR 0x55, 0x0
00000683 f2fc                 BTRSC 0x3, 0x2
00000684 c16c                 LGOTO 0x693; _divuchar.o:_00114_DS_=0x693
00000685 feac                 MOVR 0x53, 0x0
00000686 fbad                 SUBAR 0x52, 0x0
00000687 f7fc                 BTRSS 0x3, 0x0
00000688 c172                 LGOTO 0x68d; _divuchar.o:_00111_DS_=0x68d
00000689 feaa                 MOVR 0x55, 0x0
0000068a fc2b                 ADDAR 0x54, 0x1
0000068b feac                 MOVR 0x53, 0x0
0000068c fb2d                 SUBAR 0x52, 0x1
0000068d                      _divuchar.o:_00111_DS_:
0000068d e3fc                 BCR 0x3, 0x0
0000068e e0fc                 BCR 0x3, 0x6
0000068f ec2c                 RRR 0x53, 0x1
00000690 e3fc                 BCR 0x3, 0x0
00000691 ec2a                 RRR 0x55, 0x1
00000692 c17e                 LGOTO 0x681; _divuchar.o:_00112_DS_=0x681
00000693                      _divuchar.o:_00114_DS_:
00000693 e0fc                 BCR 0x3, 0x6
00000694 feab                 MOVR 0x54, 0x0
00000695                      _divuchar.o:_00115_DS_:
00000695 ffef                 RET
00000696                      __divuint:
00000696 e0fc                 BCR 0x3, 0x6
00000697 ff28                 MOVAR 0x57
00000698 feb8                 MOVR 0x47, 0x0
00000699 ff29                 MOVAR 0x56
0000069a feb9                 MOVR 0x46, 0x0
0000069b ff26                 MOVAR 0x59
0000069c feba                 MOVR 0x45, 0x0
0000069d ff27                 MOVAR 0x58
0000069e fd25                 CLRR 0x5a
0000069f fd24                 CLRR 0x5b
000006a0 defe                 MOVIA 0x1
000006a1 ff23                 MOVAR 0x5c
000006a2 fd22                 CLRR 0x5d
000006a3 fea7                 MOVR 0x58, 0x0
000006a4 eea6                 IORAR 0x59, 0x0
000006a5 f6fc                 BTRSS 0x3, 0x2
000006a6 c155                 LGOTO 0x6aa; _divuint.o:_00107_DS_=0x6aa
000006a7 de00                 MOVIA 0xff
000006a8 ff38                 MOVAR 0x47
000006a9 c120                 LGOTO 0x6df; _divuint.o:_00115_DS_=0x6df
000006aa                      _divuint.o:_00107_DS_:
000006aa e0fc                 BCR 0x3, 0x6
000006ab f026                 BTRSC 0x59, 0x7
000006ac c14b                 LGOTO 0x6b4; _divuint.o:_00112_DS_=0x6b4
000006ad e3fc                 BCR 0x3, 0x0
000006ae eb27                 RLR 0x58, 0x1
000006af eb26                 RLR 0x59, 0x1
000006b0 e3fc                 BCR 0x3, 0x0
000006b1 eb23                 RLR 0x5c, 0x1
000006b2 eb22                 RLR 0x5d, 0x1
000006b3 c155                 LGOTO 0x6aa; _divuint.o:_00107_DS_=0x6aa
000006b4                      _divuint.o:_00112_DS_:
000006b4 e0fc                 BCR 0x3, 0x6
000006b5 fea3                 MOVR 0x5c, 0x0
000006b6 eea2                 IORAR 0x5d, 0x0
000006b7 f2fc                 BTRSC 0x3, 0x2
000006b8 c124                 LGOTO 0x6db; _divuint.o:_00114_DS_=0x6db
000006b9 fea6                 MOVR 0x59, 0x0
000006ba fba8                 SUBAR 0x57, 0x0
000006bb f6fc                 BTRSS 0x3, 0x2
000006bc c140                 LGOTO 0x6bf; _divuint.o:_00135_DS_=0x6bf
000006bd fea7                 MOVR 0x58, 0x0
000006be fba9                 SUBAR 0x56, 0x0
000006bf                      _divuint.o:_00135_DS_:
000006bf f7fc                 BTRSS 0x3, 0x0
000006c0 c12c                 LGOTO 0x6d3; _divuint.o:_00002_DS_=0x6d3
000006c1 e0fc                 BCR 0x3, 0x6
000006c2 fea3                 MOVR 0x5c, 0x0
000006c3 fc25                 ADDAR 0x5a, 0x1
000006c4 fea2                 MOVR 0x5d, 0x0
000006c5 f3fc                 BTRSC 0x3, 0x0
000006c6 faa2                 INCR 0x5d, 0x0
000006c7 f2fc                 BTRSC 0x3, 0x2
000006c8 c135                 LGOTO 0x6ca; _divuint.o:_00001_DS_=0x6ca
000006c9 fc24                 ADDAR 0x5b, 0x1
000006ca                      _divuint.o:_00001_DS_:
000006ca e0fc                 BCR 0x3, 0x6
000006cb fea7                 MOVR 0x58, 0x0
000006cc fb29                 SUBAR 0x56, 0x1
000006cd fea6                 MOVR 0x59, 0x0
000006ce f7fc                 BTRSS 0x3, 0x0
000006cf faa6                 INCR 0x59, 0x0
000006d0 f2fc                 BTRSC 0x3, 0x2
000006d1 c12c                 LGOTO 0x6d3; _divuint.o:_00002_DS_=0x6d3
000006d2 fb28                 SUBAR 0x57, 0x1
000006d3                      _divuint.o:_00002_DS_:
000006d3 e3fc                 BCR 0x3, 0x0
000006d4 e0fc                 BCR 0x3, 0x6
000006d5 ec26                 RRR 0x59, 0x1
000006d6 ec27                 RRR 0x58, 0x1
000006d7 e3fc                 BCR 0x3, 0x0
000006d8 ec22                 RRR 0x5d, 0x1
000006d9 ec23                 RRR 0x5c, 0x1
000006da c14b                 LGOTO 0x6b4; _divuint.o:_00112_DS_=0x6b4
000006db                      _divuint.o:_00114_DS_:
000006db e0fc                 BCR 0x3, 0x6
000006dc fea5                 MOVR 0x5a, 0x0
000006dd ff38                 MOVAR 0x47
000006de fea4                 MOVR 0x5b, 0x0
000006df                      _divuint.o:_00115_DS_:
000006df ffef                 RET
000006e0                      __moduchar:
000006e0 e0fc                 BCR 0x3, 0x6
000006e1 ff21                 MOVAR 0x5e
000006e2 feb8                 MOVR 0x47, 0x0
000006e3 ff20                 MOVAR 0x5f
000006e4 f6fc                 BTRSS 0x3, 0x2
000006e5 c117                 LGOTO 0x6e8; _moduchar.o:_00119_DS_=0x6e8
000006e6 de00                 MOVIA 0xff
000006e7 c0fc                 LGOTO 0x703; _moduchar.o:_00115_DS_=0x703
000006e8                      _moduchar.o:_00119_DS_:
000006e8 defe                 MOVIA 0x1
000006e9 e0fc                 BCR 0x3, 0x6
000006ea ff1f                 MOVAR 0x60
000006eb                      _moduchar.o:_00107_DS_:
000006eb e0fc                 BCR 0x3, 0x6
000006ec f020                 BTRSC 0x5f, 0x7
000006ed c10d                 LGOTO 0x6f2; _moduchar.o:_00112_DS_=0x6f2
000006ee e3fc                 BCR 0x3, 0x0
000006ef eb20                 RLR 0x5f, 0x1
000006f0 fa1f                 INCR 0x60, 0x1
000006f1 c114                 LGOTO 0x6eb; _moduchar.o:_00107_DS_=0x6eb
000006f2                      _moduchar.o:_00112_DS_:
000006f2 e0fc                 BCR 0x3, 0x6
000006f3 fe9f                 MOVR 0x60, 0x0
000006f4 f2fc                 BTRSC 0x3, 0x2
000006f5 c0fe                 LGOTO 0x701; _moduchar.o:_00114_DS_=0x701
000006f6 fea0                 MOVR 0x5f, 0x0
000006f7 fba1                 SUBAR 0x5e, 0x0
000006f8 f7fc                 BTRSS 0x3, 0x0
000006f9 c103                 LGOTO 0x6fc; _moduchar.o:_00111_DS_=0x6fc
000006fa fea0                 MOVR 0x5f, 0x0
000006fb fb21                 SUBAR 0x5e, 0x1
000006fc                      _moduchar.o:_00111_DS_:
000006fc e3fc                 BCR 0x3, 0x0
000006fd e0fc                 BCR 0x3, 0x6
000006fe ec20                 RRR 0x5f, 0x1
000006ff f91f                 DECR 0x60, 0x1
00000700 c10d                 LGOTO 0x6f2; _moduchar.o:_00112_DS_=0x6f2
00000701                      _moduchar.o:_00114_DS_:
00000701 e0fc                 BCR 0x3, 0x6
00000702 fea1                 MOVR 0x5e, 0x0
00000703                      _moduchar.o:_00115_DS_:
00000703 ffef                 RET
00000704                      __moduint:
00000704 e0fc                 BCR 0x3, 0x6
00000705 ff1d                 MOVAR 0x62
00000706 feb8                 MOVR 0x47, 0x0
00000707 ff1e                 MOVAR 0x61
00000708 feb9                 MOVR 0x46, 0x0
00000709 ff1b                 MOVAR 0x64
0000070a feba                 MOVR 0x45, 0x0
0000070b ff1c                 MOVAR 0x63
0000070c ee9b                 IORAR 0x64, 0x0
0000070d f6fc                 BTRSS 0x3, 0x2
0000070e c0ed                 LGOTO 0x712; _moduint.o:_00119_DS_=0x712
0000070f de00                 MOVIA 0xff
00000710 ff38                 MOVAR 0x47
00000711 c0c3                 LGOTO 0x73c; _moduint.o:_00115_DS_=0x73c
00000712                      _moduint.o:_00119_DS_:
00000712 defe                 MOVIA 0x1
00000713 e0fc                 BCR 0x3, 0x6
00000714 ff1a                 MOVAR 0x65
00000715                      _moduint.o:_00107_DS_:
00000715 e0fc                 BCR 0x3, 0x6
00000716 f01b                 BTRSC 0x64, 0x7
00000717 c0e2                 LGOTO 0x71d; _moduint.o:_00112_DS_=0x71d
00000718 e3fc                 BCR 0x3, 0x0
00000719 eb1c                 RLR 0x63, 0x1
0000071a eb1b                 RLR 0x64, 0x1
0000071b fa1a                 INCR 0x65, 0x1
0000071c c0ea                 LGOTO 0x715; _moduint.o:_00107_DS_=0x715
0000071d                      _moduint.o:_00112_DS_:
0000071d e0fc                 BCR 0x3, 0x6
0000071e fe9a                 MOVR 0x65, 0x0
0000071f f2fc                 BTRSC 0x3, 0x2
00000720 c0c7                 LGOTO 0x738; _moduint.o:_00114_DS_=0x738
00000721 fe9b                 MOVR 0x64, 0x0
00000722 fb9d                 SUBAR 0x62, 0x0
00000723 f6fc                 BTRSS 0x3, 0x2
00000724 c0d8                 LGOTO 0x727; _moduint.o:_00137_DS_=0x727
00000725 fe9c                 MOVR 0x63, 0x0
00000726 fb9e                 SUBAR 0x61, 0x0
00000727                      _moduint.o:_00137_DS_:
00000727 f7fc                 BTRSS 0x3, 0x0
00000728 c0cd                 LGOTO 0x732; _moduint.o:_00001_DS_=0x732
00000729 e0fc                 BCR 0x3, 0x6
0000072a fe9c                 MOVR 0x63, 0x0
0000072b fb1e                 SUBAR 0x61, 0x1
0000072c fe9b                 MOVR 0x64, 0x0
0000072d f7fc                 BTRSS 0x3, 0x0
0000072e fa9b                 INCR 0x64, 0x0
0000072f f2fc                 BTRSC 0x3, 0x2
00000730 c0cd                 LGOTO 0x732; _moduint.o:_00001_DS_=0x732
00000731 fb1d                 SUBAR 0x62, 0x1
00000732                      _moduint.o:_00001_DS_:
00000732 e3fc                 BCR 0x3, 0x0
00000733 e0fc                 BCR 0x3, 0x6
00000734 ec1b                 RRR 0x64, 0x1
00000735 ec1c                 RRR 0x63, 0x1
00000736 f91a                 DECR 0x65, 0x1
00000737 c0e2                 LGOTO 0x71d; _moduint.o:_00112_DS_=0x71d
00000738                      _moduint.o:_00114_DS_:
00000738 e0fc                 BCR 0x3, 0x6
00000739 fe9e                 MOVR 0x61, 0x0
0000073a ff38                 MOVAR 0x47
0000073b fe9d                 MOVR 0x62, 0x0
0000073c                      _moduint.o:_00115_DS_:
0000073c ffef                 RET
0000073d                      __gptrget:
0000073d dbff                 XORIA 0x0
0000073e f2fc                 BTRSC 0x3, 0x2
0000073f c0bb                 LGOTO 0x744; _gptrget1.o:__dataptrget1=0x744
00000740 db7f                 XORIA 0x80
00000741 f2fc                 BTRSC 0x3, 0x2
00000742 c0b4                 LGOTO 0x74b; __codeptrget1=0x74b
00000743 dfff                 RETIA 0x0
00000744                      _gptrget1.o:__dataptrget1:
00000744 feb9                 MOVR 0x46, 0x0
00000745 ff7b                 MOVAR 0x4
00000746 e0fc                 BCR 0x3, 0x6
00000747 f039                 BTRSC 0x46, 0x7
00000748 e4fc                 BSR 0x3, 0x6
00000749 feff                 MOVR 0x0, 0x0
0000074a ffef                 RET
0000074b                      __codeptrget1:
0000074b feb8                 MOVR 0x47, 0x0
0000074c ffb8                 SFUN 0x7
0000074d feb9                 MOVR 0x46, 0x0
0000074e fdee                 TABLEA
0000074f ffef                 RET
00000750                      ___cinit_load__:
