00000000 c7fe                 LGOTO 0x1; __nyc_ny8_startup=0x1
00000001                      __nyc_ny8_startup:
00000001 d170                 LCALL 0x68f; ___cinit_load__=0x68f
00000002 c791                 LGOTO 0x6e; _main=0x6e
00000003                      main.o:_00913_DS_:
00000003 f56f                 BTRSS 0x10, 0x5
00000004 c7fc                 LGOTO 0x3; main.o:_00913_DS_=0x3
00000005 ffef                 RET
00000008 c7f6                 LGOTO 0x9; main.o:__sdcc_interrupt=0x9
00000009                      main.o:__sdcc_interrupt:
00000009 ff3d                 MOVAR 0x42
0000000a eafc                 SWAPR 0x3, 0x0
0000000b fd7c                 CLRR 0x3
0000000c ff3e                 MOVAR 0x41
0000000d fef5                 MOVR 0xa, 0x0
0000000e fd75                 CLRR 0xa
0000000f ff3f                 MOVAR 0x40
00000010 fefb                 MOVR 0x4, 0x0
00000011 e0fc                 BCR 0x3, 0x6
00000012 ff27                 MOVAR 0x58
00000013 feba                 MOVR 0x45, 0x0
00000014 ff26                 MOVAR 0x59
00000015 febb                 MOVR 0x44, 0x0
00000016 ff25                 MOVAR 0x5a
00000017 f7f0                 BTRSS 0xf, 0x0
00000018 c7a5                 LGOTO 0x5a; main.o:_00128_DS_=0x5a
00000019 dec8                 MOVIA 0x37
0000001a fc7e                 ADDAR 0x1, 0x1
0000001b fa23                 INCR 0x5c, 0x1
0000001c de9b                 MOVIA 0x64
0000001d fba3                 SUBAR 0x5c, 0x0
0000001e f7fc                 BTRSS 0x3, 0x0
0000001f c7a5                 LGOTO 0x5a; main.o:_00128_DS_=0x5a
00000020 e7a4                 BSR 0x5b, 0x0
00000021 fd23                 CLRR 0x5c
00000022 fea0                 MOVR 0x5f, 0x0
00000023 f2fc                 BTRSC 0x3, 0x2
00000024 c7d7                 LGOTO 0x28; main.o:_00106_DS_=0x28
00000025 fa1e                 INCR 0x61, 0x1
00000026 f2fc                 BTRSC 0x3, 0x2
00000027 fa1d                 INCR 0x62, 0x1
00000028                      main.o:_00106_DS_:
00000028 e0fc                 BCR 0x3, 0x6
00000029 fa22                 INCR 0x5d, 0x1
0000002a ded7                 MOVIA 0x28
0000002b fba2                 SUBAR 0x5d, 0x0
0000002c f3fc                 BTRSC 0x3, 0x0
0000002d fd22                 CLRR 0x5d
0000002e fa14                 INCR 0x6b, 0x1
0000002f deeb                 MOVIA 0x14
00000030 fb94                 SUBAR 0x6b, 0x0
00000031 f7fc                 BTRSS 0x3, 0x0
00000032 c7c8                 LGOTO 0x37; main.o:_00112_DS_=0x37
00000033 fd14                 CLRR 0x6b
00000034 fe83                 MOVR 0x7c, 0x0
00000035 f6fc                 BTRSS 0x3, 0x2
00000036 f903                 DECR 0x7c, 0x1
00000037                      main.o:_00112_DS_:
00000037 e0fc                 BCR 0x3, 0x6
00000038 fa13                 INCR 0x6c, 0x1
00000039 de9b                 MOVIA 0x64
0000003a fb93                 SUBAR 0x6c, 0x0
0000003b f7fc                 BTRSS 0x3, 0x0
0000003c c7a5                 LGOTO 0x5a; main.o:_00128_DS_=0x5a
0000003d fd13                 CLRR 0x6c
0000003e f624                 BTRSS 0x5b, 0x3
0000003f c7b6                 LGOTO 0x49; main.o:_00114_DS_=0x49
00000040 fe99                 MOVR 0x66, 0x0
00000041 dbf9                 XORIA 0x6
00000042 f6fc                 BTRSS 0x3, 0x2
00000043 c7b6                 LGOTO 0x49; main.o:_00114_DS_=0x49
00000044 fa18                 INCR 0x67, 0x1
00000045 f2fc                 BTRSC 0x3, 0x2
00000046 fa17                 INCR 0x68, 0x1
00000047 def6                 MOVIA 0x9
00000048 ffbc                 SFUN 0x3
00000049                      main.o:_00114_DS_:
00000049 e0fc                 BCR 0x3, 0x6
0000004a fe8e                 MOVR 0x71, 0x0
0000004b f6fc                 BTRSS 0x3, 0x2
0000004c f90e                 DECR 0x71, 0x1
0000004d fe8b                 MOVR 0x74, 0x0
0000004e f6fc                 BTRSS 0x3, 0x2
0000004f f90b                 DECR 0x74, 0x1
00000050 fea0                 MOVR 0x5f, 0x0
00000051                      ___cinit_size__:
00000051 f2fc                 BTRSC 0x3, 0x2
00000052 c7a8                 LGOTO 0x57; main.o:_00121_DS_=0x57
00000053 fa12                 INCR 0x6d, 0x1
00000054 f2fc                 BTRSC 0x3, 0x2
00000055 fa11                 INCR 0x6e, 0x1
00000056 c7a5                 LGOTO 0x5a; main.o:_00128_DS_=0x5a
00000057                      main.o:_00121_DS_:
00000057 e0fc                 BCR 0x3, 0x6
00000058 fd12                 CLRR 0x6d
00000059 fd11                 CLRR 0x6e
0000005a                      main.o:_00128_DS_:
0000005a f770                 BTRSS 0xf, 0x1
0000005b c7a1                 LGOTO 0x5e; main.o:_00130_DS_=0x5e
0000005c de02                 MOVIA 0xfd
0000005d ff70                 MOVAR 0xf
0000005e                      main.o:_00130_DS_:
0000005e fd70                 CLRR 0xf
0000005f e0fc                 BCR 0x3, 0x6
00000060 fea5                 MOVR 0x5a, 0x0
00000061 ff3b                 MOVAR 0x44
00000062 fea6                 MOVR 0x59, 0x0
00000063 ff3a                 MOVAR 0x45
00000064 fea7                 MOVR 0x58, 0x0
00000065 ff7b                 MOVAR 0x4
00000066 febf                 MOVR 0x40, 0x0
00000067 ff75                 MOVAR 0xa
00000068 fd7c                 CLRR 0x3
00000069 eabe                 SWAPR 0x41, 0x0
0000006a ff7c                 MOVAR 0x3
0000006b ea3d                 SWAPR 0x42, 0x1
0000006c eabd                 SWAPR 0x42, 0x0
0000006d                      main.o:END_OF_INTERRUPT:
0000006d ffee                 RETIE
0000006e                      _main:
0000006e d22d                 LCALL 0x5d2; _initSys=0x5d2
0000006f d403                 LCALL 0x3fc; _initAD=0x3fc
00000070                      main.o:_00184_DS_:
00000070 fffd                 CLRWDT
00000071 d27f                 LCALL 0x580; _ledShow=0x580
00000072 e0fc                 BCR 0x3, 0x6
00000073 fea0                 MOVR 0x5f, 0x0
00000074 f2fc                 BTRSC 0x3, 0x2
00000075 c775                 LGOTO 0x8a; main.o:_00141_DS_=0x8a
00000076 ded7                 MOVIA 0x28
00000077 fb89                 SUBAR 0x76, 0x0
00000078 f7fc                 BTRSS 0x3, 0x0
00000079 c775                 LGOTO 0x8a; main.o:_00141_DS_=0x8a
0000007a fe87                 MOVR 0x78, 0x0
0000007b fb89                 SUBAR 0x76, 0x0
0000007c f3fc                 BTRSC 0x3, 0x0
0000007d c77d                 LGOTO 0x82; main.o:_00138_DS_=0x82
0000007e f907                 DECR 0x78, 0x1
0000007f fe87                 MOVR 0x78, 0x0
00000080 ffb3                 SFUN 0xc
00000081 c775                 LGOTO 0x8a; main.o:_00141_DS_=0x8a
00000082                      main.o:_00138_DS_:
00000082 e0fc                 BCR 0x3, 0x6
00000083 fe89                 MOVR 0x76, 0x0
00000084 fb87                 SUBAR 0x78, 0x0
00000085 f3fc                 BTRSC 0x3, 0x0
00000086 c775                 LGOTO 0x8a; main.o:_00141_DS_=0x8a
00000087 fa07                 INCR 0x78, 0x1
00000088 fe87                 MOVR 0x78, 0x0
00000089 ffb3                 SFUN 0xc
0000008a                      main.o:_00141_DS_:
0000008a e0fc                 BCR 0x3, 0x6
0000008b fea0                 MOVR 0x5f, 0x0
0000008c f2fc                 BTRSC 0x3, 0x2
0000008d c768                 LGOTO 0x97; main.o:_00144_DS_=0x97
0000008e fe8d                 MOVR 0x72, 0x0
0000008f fb9a                 SUBAR 0x65, 0x0
00000090 f3fc                 BTRSC 0x3, 0x0
00000091 c768                 LGOTO 0x97; main.o:_00144_DS_=0x97
00000092 f90d                 DECR 0x72, 0x1
00000093 fe8d                 MOVR 0x72, 0x0
00000094 ffb3                 SFUN 0xc
00000095 fe8d                 MOVR 0x72, 0x0
00000096 ff07                 MOVAR 0x78
00000097                      main.o:_00144_DS_:
00000097 e0fc                 BCR 0x3, 0x6
00000098 f7a4                 BTRSS 0x5b, 0x0
00000099 c78f                 LGOTO 0x70; main.o:_00184_DS_=0x70
0000009a e3a4                 BCR 0x5b, 0x0
0000009b fe8b                 MOVR 0x74, 0x0
0000009c f6fc                 BTRSS 0x3, 0x2
0000009d c749                 LGOTO 0xb6; main.o:_00151_DS_=0xb6
0000009e fe99                 MOVR 0x66, 0x0
0000009f f6fc                 BTRSS 0x3, 0x2
000000a0 c749                 LGOTO 0xb6; main.o:_00151_DS_=0xb6
000000a1 fea0                 MOVR 0x5f, 0x0
000000a2 f2fc                 BTRSC 0x3, 0x2
000000a3 c749                 LGOTO 0xb6; main.o:_00151_DS_=0xb6
000000a4 fa01                 INCR 0x7e, 0x1
000000a5 f2fc                 BTRSC 0x3, 0x2
000000a6 fa00                 INCR 0x7f, 0x1
000000a7 defc                 MOVIA 0x3
000000a8 fb80                 SUBAR 0x7f, 0x0
000000a9 f6fc                 BTRSS 0x3, 0x2
000000aa c752                 LGOTO 0xad; main.o:_00276_DS_=0xad
000000ab de17                 MOVIA 0xe8
000000ac fb81                 SUBAR 0x7e, 0x0
000000ad                      main.o:_00276_DS_:
000000ad f7fc                 BTRSS 0x3, 0x0
000000ae c746                 LGOTO 0xb9; main.o:_00152_DS_=0xb9
000000af e0fc                 BCR 0x3, 0x6
000000b0 fd01                 CLRR 0x7e
000000b1 fd00                 CLRR 0x7f
000000b2 fd20                 CLRR 0x5f
000000b3 fd1f                 CLRR 0x60
000000b4 d315                 LCALL 0x4ea; _pwmStop=0x4ea
000000b5 c746                 LGOTO 0xb9; main.o:_00152_DS_=0xb9
000000b6                      main.o:_00151_DS_:
000000b6 e0fc                 BCR 0x3, 0x6
000000b7 fd01                 CLRR 0x7e
000000b8 fd00                 CLRR 0x7f
000000b9                      main.o:_00152_DS_:
000000b9 defa                 MOVIA 0x5
000000ba e0fc                 BCR 0x3, 0x6
000000bb fb8f                 SUBAR 0x70, 0x0
000000bc f7fc                 BTRSS 0x3, 0x0
000000bd c72b                 LGOTO 0xd4; main.o:_00158_DS_=0xd4
000000be fea0                 MOVR 0x5f, 0x0
000000bf f2fc                 BTRSC 0x3, 0x2
000000c0 c72b                 LGOTO 0xd4; main.o:_00158_DS_=0xd4
000000c1 fa05                 INCR 0x7a, 0x1
000000c2 f2fc                 BTRSC 0x3, 0x2
000000c3 fa04                 INCR 0x7b, 0x1
000000c4 defe                 MOVIA 0x1
000000c5 fb84                 SUBAR 0x7b, 0x0
000000c6 f6fc                 BTRSS 0x3, 0x2
000000c7 c735                 LGOTO 0xca; main.o:_00278_DS_=0xca
000000c8 de0a                 MOVIA 0xf5
000000c9 fb85                 SUBAR 0x7a, 0x0
000000ca                      main.o:_00278_DS_:
000000ca f7fc                 BTRSS 0x3, 0x0
000000cb c728                 LGOTO 0xd7; main.o:_00159_DS_=0xd7
000000cc e0fc                 BCR 0x3, 0x6
000000cd fd0f                 CLRR 0x70
000000ce fd05                 CLRR 0x7a
000000cf fd04                 CLRR 0x7b
000000d0 dee6                 MOVIA 0x19
000000d1 ff03                 MOVAR 0x7c
000000d2 d210                 LCALL 0x5ef; _powerOff=0x5ef
000000d3 c728                 LGOTO 0xd7; main.o:_00159_DS_=0xd7
000000d4                      main.o:_00158_DS_:
000000d4 e0fc                 BCR 0x3, 0x6
000000d5 fd05                 CLRR 0x7a
000000d6 fd04                 CLRR 0x7b
000000d7                      main.o:_00159_DS_:
000000d7 e0fc                 BCR 0x3, 0x6
000000d8 f624                 BTRSS 0x5b, 0x3
000000d9 d20c                 LCALL 0x5f3; _keyCtr=0x5f3
000000da                      main.o:_00162_DS_:
000000da defa                 MOVIA 0x5
000000db e0fc                 BCR 0x3, 0x6
000000dc fb94                 SUBAR 0x6b, 0x0
000000dd f3fc                 BTRSC 0x3, 0x0
000000de c71e                 LGOTO 0xe1; main.o:_00171_DS_=0xe1
000000df d595                 LCALL 0x26a; _checkBatAD=0x26a
000000e0 c70a                 LGOTO 0xf5; main.o:_00172_DS_=0xf5
000000e1                      main.o:_00171_DS_:
000000e1 def6                 MOVIA 0x9
000000e2 e0fc                 BCR 0x3, 0x6
000000e3 fb94                 SUBAR 0x6b, 0x0
000000e4 f7fc                 BTRSS 0x3, 0x0
000000e5 c713                 LGOTO 0xec; main.o:_00167_DS_=0xec
000000e6 def4                 MOVIA 0xb
000000e7 fb94                 SUBAR 0x6b, 0x0
000000e8 f3fc                 BTRSC 0x3, 0x0
000000e9 c713                 LGOTO 0xec; main.o:_00167_DS_=0xec
000000ea d66d                 LCALL 0x192; _checkOutA=0x192
000000eb c70a                 LGOTO 0xf5; main.o:_00172_DS_=0xf5
000000ec                      main.o:_00167_DS_:
000000ec def1                 MOVIA 0xe
000000ed e0fc                 BCR 0x3, 0x6
000000ee fb94                 SUBAR 0x6b, 0x0
000000ef f7fc                 BTRSS 0x3, 0x0
000000f0 c70a                 LGOTO 0xf5; main.o:_00172_DS_=0xf5
000000f1 deef                 MOVIA 0x10
000000f2 fb94                 SUBAR 0x6b, 0x0
000000f3 f7fc                 BTRSS 0x3, 0x0
000000f4 d5bd                 LCALL 0x242; _checkChrgV=0x242
000000f5                      main.o:_00172_DS_:
000000f5 d3ec                 LCALL 0x413; _chrgCtr=0x413
000000f6 e0fc                 BCR 0x3, 0x6
000000f7 fea0                 MOVR 0x5f, 0x0
000000f8 f6fc                 BTRSS 0x3, 0x2
000000f9 c6ee                 LGOTO 0x111; main.o:_00176_DS_=0x111
000000fa fea1                 MOVR 0x5e, 0x0
000000fb f6fc                 BTRSS 0x3, 0x2
000000fc c6ee                 LGOTO 0x111; main.o:_00176_DS_=0x111
000000fd f27a                 BTRSC 0x5, 0x3
000000fe c6ee                 LGOTO 0x111; main.o:_00176_DS_=0x111
000000ff fe8e                 MOVR 0x71, 0x0
00000100 f6fc                 BTRSS 0x3, 0x2
00000101 c6ee                 LGOTO 0x111; main.o:_00176_DS_=0x111
00000102 fe83                 MOVR 0x7c, 0x0
00000103 f6fc                 BTRSS 0x3, 0x2
00000104 c6ee                 LGOTO 0x111; main.o:_00176_DS_=0x111
00000105 fa16                 INCR 0x69, 0x1
00000106 f2fc                 BTRSC 0x3, 0x2
00000107 fa15                 INCR 0x6a, 0x1
00000108 def8                 MOVIA 0x7
00000109 fb95                 SUBAR 0x6a, 0x0
0000010a f6fc                 BTRSS 0x3, 0x2
0000010b c6f1                 LGOTO 0x10e; main.o:_00284_DS_=0x10e
0000010c de2e                 MOVIA 0xd1
0000010d fb96                 SUBAR 0x69, 0x0
0000010e                      main.o:_00284_DS_:
0000010e f7fc                 BTRSS 0x3, 0x0
0000010f c6ee                 LGOTO 0x111; main.o:_00176_DS_=0x111
00000110 d341                 LCALL 0x4be; _gotoSleep=0x4be
00000111                      main.o:_00176_DS_:
00000111 defc                 MOVIA 0x3
00000112 e0fc                 BCR 0x3, 0x6
00000113 fb91                 SUBAR 0x6e, 0x0
00000114 f6fc                 BTRSS 0x3, 0x2
00000115 c6e7                 LGOTO 0x118; main.o:_00285_DS_=0x118
00000116 de7b                 MOVIA 0x84
00000117 fb92                 SUBAR 0x6d, 0x0
00000118                      main.o:_00285_DS_:
00000118 f7fc                 BTRSS 0x3, 0x0
00000119 c78f                 LGOTO 0x70; main.o:_00184_DS_=0x70
0000011a d210                 LCALL 0x5ef; _powerOff=0x5ef
0000011b c78f                 LGOTO 0x70; main.o:_00184_DS_=0x70
0000011c ffef                 RET
0000011d                      _F_AIN2_Convert:
0000011d e0fc                 BCR 0x3, 0x6
0000011e ff30                 MOVAR 0x4f
0000011f fd57                 CLRR 0x28
00000120 fd59                 CLRR 0x26
00000121 fd58                 CLRR 0x27
00000122 de6d                 MOVIA 0x92
00000123 ff6f                 MOVAR 0x10
00000124 de37                 MOVIA 0xc8
00000125 d3f8                 LCALL 0x407; _delay=0x407
00000126 defe                 MOVIA 0x1
00000127 e0fc                 BCR 0x3, 0x6
00000128 ff2f                 MOVAR 0x50
00000129                      main.o:_00906_DS_:
00000129 e0fc                 BCR 0x3, 0x6
0000012a feaf                 MOVR 0x50, 0x0
0000012b fbb0                 SUBAR 0x4f, 0x0
0000012c f7fc                 BTRSS 0x3, 0x0
0000012d c6bc                 LGOTO 0x143; main.o:_00908_DS_=0x143
0000012e e4ef                 BSR 0x10, 0x6
0000012f d7fc                 LCALL 0x3; main.o:_00913_DS_=0x3
00000130 def0                 MOVIA 0xf
00000131 efee                 ANDAR 0x11, 0x0
00000132 e0fc                 BCR 0x3, 0x6
00000133 fc57                 ADDAR 0x28, 0x1
00000134 feed                 MOVR 0x12, 0x0
00000135 ff2e                 MOVAR 0x51
00000136 deff                 MOVIA 0x0
00000137 ff2d                 MOVAR 0x52
00000138 feae                 MOVR 0x51, 0x0
00000139 fc59                 ADDAR 0x26, 0x1
0000013a fead                 MOVR 0x52, 0x0
0000013b f3fc                 BTRSC 0x3, 0x0
0000013c faad                 INCR 0x52, 0x0
0000013d f2fc                 BTRSC 0x3, 0x2
0000013e c6bf                 LGOTO 0x140; main.o:_00001_DS_=0x140
0000013f fc58                 ADDAR 0x27, 0x1
00000140                      main.o:_00001_DS_:
00000140 e0fc                 BCR 0x3, 0x6
00000141 fa2f                 INCR 0x50, 0x1
00000142 c6d6                 LGOTO 0x129; main.o:_00906_DS_=0x129
00000143                      main.o:_00908_DS_:
00000143 ffef                 RET
00000144                      _F_AIN3_Convert:
00000144 e0fc                 BCR 0x3, 0x6
00000145 ff34                 MOVAR 0x4b
00000146 fd5a                 CLRR 0x25
00000147 fd5c                 CLRR 0x23
00000148 fd5b                 CLRR 0x24
00000149 de6c                 MOVIA 0x93
0000014a ff6f                 MOVAR 0x10
0000014b de37                 MOVIA 0xc8
0000014c d3f8                 LCALL 0x407; _delay=0x407
0000014d defe                 MOVIA 0x1
0000014e e0fc                 BCR 0x3, 0x6
0000014f ff33                 MOVAR 0x4c
00000150                      main.o:_00897_DS_:
00000150 e0fc                 BCR 0x3, 0x6
00000151 feb3                 MOVR 0x4c, 0x0
00000152 fbb4                 SUBAR 0x4b, 0x0
00000153 f7fc                 BTRSS 0x3, 0x0
00000154 c695                 LGOTO 0x16a; main.o:_00899_DS_=0x16a
00000155 e4ef                 BSR 0x10, 0x6
00000156 d7fc                 LCALL 0x3; main.o:_00913_DS_=0x3
00000157 def0                 MOVIA 0xf
00000158 efee                 ANDAR 0x11, 0x0
00000159 e0fc                 BCR 0x3, 0x6
0000015a fc5a                 ADDAR 0x25, 0x1
0000015b feed                 MOVR 0x12, 0x0
0000015c ff32                 MOVAR 0x4d
0000015d deff                 MOVIA 0x0
0000015e ff31                 MOVAR 0x4e
0000015f feb2                 MOVR 0x4d, 0x0
00000160 fc5c                 ADDAR 0x23, 0x1
00000161 feb1                 MOVR 0x4e, 0x0
00000162 f3fc                 BTRSC 0x3, 0x0
00000163 fab1                 INCR 0x4e, 0x0
00000164 f2fc                 BTRSC 0x3, 0x2
00000165 c698                 LGOTO 0x167; main.o:_00002_DS_=0x167
00000166 fc5b                 ADDAR 0x24, 0x1
00000167                      main.o:_00002_DS_:
00000167 e0fc                 BCR 0x3, 0x6
00000168 fa33                 INCR 0x4c, 0x1
00000169 c6af                 LGOTO 0x150; main.o:_00897_DS_=0x150
0000016a                      main.o:_00899_DS_:
0000016a ffef                 RET
0000016b                      _F_AIN4_Convert:
0000016b e0fc                 BCR 0x3, 0x6
0000016c ff38                 MOVAR 0x47
0000016d fd5d                 CLRR 0x22
0000016e fd5f                 CLRR 0x20
0000016f fd5e                 CLRR 0x21
00000170 de6b                 MOVIA 0x94
00000171 ff6f                 MOVAR 0x10
00000172 de37                 MOVIA 0xc8
00000173 d3f8                 LCALL 0x407; _delay=0x407
00000174 defe                 MOVIA 0x1
00000175 e0fc                 BCR 0x3, 0x6
00000176 ff37                 MOVAR 0x48
00000177                      main.o:_00888_DS_:
00000177 e0fc                 BCR 0x3, 0x6
00000178 feb7                 MOVR 0x48, 0x0
00000179 fbb8                 SUBAR 0x47, 0x0
0000017a f7fc                 BTRSS 0x3, 0x0
0000017b c66e                 LGOTO 0x191; main.o:_00890_DS_=0x191
0000017c e4ef                 BSR 0x10, 0x6
0000017d d7fc                 LCALL 0x3; main.o:_00913_DS_=0x3
0000017e def0                 MOVIA 0xf
0000017f efee                 ANDAR 0x11, 0x0
00000180 e0fc                 BCR 0x3, 0x6
00000181 fc5d                 ADDAR 0x22, 0x1
00000182 feed                 MOVR 0x12, 0x0
00000183 ff36                 MOVAR 0x49
00000184 deff                 MOVIA 0x0
00000185 ff35                 MOVAR 0x4a
00000186 feb6                 MOVR 0x49, 0x0
00000187 fc5f                 ADDAR 0x20, 0x1
00000188 feb5                 MOVR 0x4a, 0x0
00000189 f3fc                 BTRSC 0x3, 0x0
0000018a fab5                 INCR 0x4a, 0x0
0000018b f2fc                 BTRSC 0x3, 0x2
0000018c c671                 LGOTO 0x18e; main.o:_00003_DS_=0x18e
0000018d fc5e                 ADDAR 0x21, 0x1
0000018e                      main.o:_00003_DS_:
0000018e e0fc                 BCR 0x3, 0x6
0000018f fa37                 INCR 0x48, 0x1
00000190 c688                 LGOTO 0x177; main.o:_00888_DS_=0x177
00000191                      main.o:_00890_DS_:
00000191 ffef                 RET
00000192                      _checkOutA:
00000192 e0fc                 BCR 0x3, 0x6
00000193 fd5d                 CLRR 0x22
00000194 fd5f                 CLRR 0x20
00000195 fd5e                 CLRR 0x21
00000196 def7                 MOVIA 0x8
00000197 d694                 LCALL 0x16b; _F_AIN4_Convert=0x16b
00000198 e0fc                 BCR 0x3, 0x6
00000199 eade                 SWAPR 0x21, 0x0
0000019a dd0f                 ANDIA 0xf0
0000019b ff5e                 MOVAR 0x21
0000019c eadf                 SWAPR 0x20, 0x0
0000019d ff5f                 MOVAR 0x20
0000019e ddf0                 ANDIA 0xf
0000019f ee5e                 IORAR 0x21, 0x1
000001a0 ed5f                 XORAR 0x20, 0x1
000001a1 de0f                 MOVIA 0xf0
000001a2 ef5d                 ANDAR 0x22, 0x1
000001a3 fedd                 MOVR 0x22, 0x0
000001a4 ff40                 MOVAR 0x3f
000001a5 deff                 MOVIA 0x0
000001a6 ff39                 MOVAR 0x46
000001a7 fec0                 MOVR 0x3f, 0x0
000001a8 fc5f                 ADDAR 0x20, 0x1
000001a9 feb9                 MOVR 0x46, 0x0
000001aa f3fc                 BTRSC 0x3, 0x0
000001ab fab9                 INCR 0x46, 0x0
000001ac f2fc                 BTRSC 0x3, 0x2
000001ad c650                 LGOTO 0x1af; main.o:_00004_DS_=0x1af
000001ae fc5e                 ADDAR 0x21, 0x1
000001af                      main.o:_00004_DS_:
000001af e3fc                 BCR 0x3, 0x0
000001b0 e0fc                 BCR 0x3, 0x6
000001b1 ec5e                 RRR 0x21, 0x1
000001b2 ec5f                 RRR 0x20, 0x1
000001b3 e3fc                 BCR 0x3, 0x0
000001b4 ec5e                 RRR 0x21, 0x1
000001b5 ec5f                 RRR 0x20, 0x1
000001b6 e3fc                 BCR 0x3, 0x0
000001b7 ec5e                 RRR 0x21, 0x1
000001b8 ec5f                 RRR 0x20, 0x1
000001b9 e4fc                 BSR 0x3, 0x6
000001ba fede                 MOVR 0x21, 0x0
000001bb f2fc                 BTRSC 0x3, 0x2
000001bc c63d                 LGOTO 0x1c2; main.o:_00798_DS_=0x1c2
000001bd ded2                 MOVIA 0x2d
000001be e0fc                 BCR 0x3, 0x6
000001bf ff5f                 MOVAR 0x20
000001c0 defe                 MOVIA 0x1
000001c1 ff5e                 MOVAR 0x21
000001c2                      main.o:_00798_DS_:
000001c2 def9                 MOVIA 0x6
000001c3 e0fc                 BCR 0x3, 0x6
000001c4 fba0                 SUBAR 0x5f, 0x0
000001c5 f3fc                 BTRSC 0x3, 0x0
000001c6 c625                 LGOTO 0x1da; main.o:_00825_DS_=0x1da
000001c7 deff                 MOVIA 0x0
000001c8 fbde                 SUBAR 0x21, 0x0
000001c9 f6fc                 BTRSS 0x3, 0x2
000001ca c632                 LGOTO 0x1cd; main.o:_00873_DS_=0x1cd
000001cb de36                 MOVIA 0xc9
000001cc fbdf                 SUBAR 0x20, 0x0
000001cd                      main.o:_00873_DS_:
000001cd f7fc                 BTRSS 0x3, 0x0
000001ce c625                 LGOTO 0x1da; main.o:_00825_DS_=0x1da
000001cf e0fc                 BCR 0x3, 0x6
000001d0 fa0f                 INCR 0x70, 0x1
000001d1 def9                 MOVIA 0x6
000001d2 fb8f                 SUBAR 0x70, 0x0
000001d3 f7fc                 BTRSS 0x3, 0x0
000001d4 c5be                 LGOTO 0x241; main.o:_00828_DS_=0x241
000001d5 defa                 MOVIA 0x5
000001d6 ff0f                 MOVAR 0x70
000001d7 fea0                 MOVR 0x5f, 0x0
000001d8 ff06                 MOVAR 0x79
000001d9 c5be                 LGOTO 0x241; main.o:_00828_DS_=0x241
000001da                      main.o:_00825_DS_:
000001da defe                 MOVIA 0x1
000001db e0fc                 BCR 0x3, 0x6
000001dc fbde                 SUBAR 0x21, 0x0
000001dd f6fc                 BTRSS 0x3, 0x2
000001de c61e                 LGOTO 0x1e1; main.o:_00875_DS_=0x1e1
000001df de6e                 MOVIA 0x91
000001e0 fbdf                 SUBAR 0x20, 0x0
000001e1                      main.o:_00875_DS_:
000001e1 f7fc                 BTRSS 0x3, 0x0
000001e2 c611                 LGOTO 0x1ee; main.o:_00822_DS_=0x1ee
000001e3 e0fc                 BCR 0x3, 0x6
000001e4 fa0f                 INCR 0x70, 0x1
000001e5 def9                 MOVIA 0x6
000001e6 fb8f                 SUBAR 0x70, 0x0
000001e7 f7fc                 BTRSS 0x3, 0x0
000001e8 c5be                 LGOTO 0x241; main.o:_00828_DS_=0x241
000001e9 defa                 MOVIA 0x5
000001ea ff0f                 MOVAR 0x70
000001eb fea0                 MOVR 0x5f, 0x0
000001ec ff06                 MOVAR 0x79
000001ed c5be                 LGOTO 0x241; main.o:_00828_DS_=0x241
000001ee                      main.o:_00822_DS_:
000001ee deff                 MOVIA 0x0
000001ef e0fc                 BCR 0x3, 0x6
000001f0 fbde                 SUBAR 0x21, 0x0
000001f1 f6fc                 BTRSS 0x3, 0x2
000001f2 c60a                 LGOTO 0x1f5; main.o:_00877_DS_=0x1f5
000001f3 ded1                 MOVIA 0x2e
000001f4 fbdf                 SUBAR 0x20, 0x0
000001f5                      main.o:_00877_DS_:
000001f5 f7fc                 BTRSS 0x3, 0x0
000001f6 c5eb                 LGOTO 0x214; main.o:_00819_DS_=0x214
000001f7 e0fc                 BCR 0x3, 0x6
000001f8 fe8f                 MOVR 0x70, 0x0
000001f9 f6fc                 BTRSS 0x3, 0x2
000001fa f90f                 DECR 0x70, 0x1
000001fb defb                 MOVIA 0x4
000001fc fba0                 SUBAR 0x5f, 0x0
000001fd f3fc                 BTRSC 0x3, 0x0
000001fe c5f6                 LGOTO 0x209; main.o:_00806_DS_=0x209
000001ff defa                 MOVIA 0x5
00000200 ff3a                 MOVAR 0x45
00000201 fea0                 MOVR 0x5f, 0x0
00000202 d189                 LCALL 0x676; __mulchar=0x676
00000203 e0fc                 BCR 0x3, 0x6
00000204 ff40                 MOVAR 0x3f
00000205 deb9                 MOVIA 0x46
00000206 fcc0                 ADDAR 0x3f, 0x0
00000207 ff09                 MOVAR 0x76
00000208 c5be                 LGOTO 0x241; main.o:_00828_DS_=0x241
00000209                      main.o:_00806_DS_:
00000209 defa                 MOVIA 0x5
0000020a ff3a                 MOVAR 0x45
0000020b e0fc                 BCR 0x3, 0x6
0000020c fea0                 MOVR 0x5f, 0x0
0000020d d189                 LCALL 0x676; __mulchar=0x676
0000020e e0fc                 BCR 0x3, 0x6
0000020f ff40                 MOVAR 0x3f
00000210 deb9                 MOVIA 0x46
00000211 fcc0                 ADDAR 0x3f, 0x0
00000212 ff09                 MOVAR 0x76
00000213 c5be                 LGOTO 0x241; main.o:_00828_DS_=0x241
00000214                      main.o:_00819_DS_:
00000214 e0fc                 BCR 0x3, 0x6
00000215 fe8f                 MOVR 0x70, 0x0
00000216 f6fc                 BTRSS 0x3, 0x2
00000217 f90f                 DECR 0x70, 0x1
00000218 deff                 MOVIA 0x0
00000219 fbde                 SUBAR 0x21, 0x0
0000021a f6fc                 BTRSS 0x3, 0x2
0000021b c5e1                 LGOTO 0x21e; main.o:_00879_DS_=0x21e
0000021c ded6                 MOVIA 0x29
0000021d fbdf                 SUBAR 0x20, 0x0
0000021e                      main.o:_00879_DS_:
0000021e f7fc                 BTRSS 0x3, 0x0
0000021f c5d0                 LGOTO 0x22f; main.o:_00813_DS_=0x22f
00000220 defb                 MOVIA 0x4
00000221 e0fc                 BCR 0x3, 0x6
00000222 fba0                 SUBAR 0x5f, 0x0
00000223 f3fc                 BTRSC 0x3, 0x0
00000224 c5d0                 LGOTO 0x22f; main.o:_00813_DS_=0x22f
00000225 defa                 MOVIA 0x5
00000226 ff3a                 MOVAR 0x45
00000227 fea0                 MOVR 0x5f, 0x0
00000228 d189                 LCALL 0x676; __mulchar=0x676
00000229 e0fc                 BCR 0x3, 0x6
0000022a ff40                 MOVAR 0x3f
0000022b deb9                 MOVIA 0x46
0000022c fcc0                 ADDAR 0x3f, 0x0
0000022d ff09                 MOVAR 0x76
0000022e c5c4                 LGOTO 0x23b; main.o:_00814_DS_=0x23b
0000022f                      main.o:_00813_DS_:
0000022f deff                 MOVIA 0x0
00000230 e0fc                 BCR 0x3, 0x6
00000231 fbde                 SUBAR 0x21, 0x0
00000232 f6fc                 BTRSS 0x3, 0x2
00000233 c5c9                 LGOTO 0x236; main.o:_00881_DS_=0x236
00000234 debb                 MOVIA 0x44
00000235 fbdf                 SUBAR 0x20, 0x0
00000236                      main.o:_00881_DS_:
00000236 f3fc                 BTRSC 0x3, 0x0
00000237 c5c4                 LGOTO 0x23b; main.o:_00814_DS_=0x23b
00000238 e0fc                 BCR 0x3, 0x6
00000239 fe9a                 MOVR 0x65, 0x0
0000023a ff09                 MOVAR 0x76
0000023b                      main.o:_00814_DS_:
0000023b e0fc                 BCR 0x3, 0x6
0000023c fea0                 MOVR 0x5f, 0x0
0000023d f2fc                 BTRSC 0x3, 0x2
0000023e c5be                 LGOTO 0x241; main.o:_00828_DS_=0x241
0000023f fea0                 MOVR 0x5f, 0x0
00000240 ff1f                 MOVAR 0x60
00000241                      main.o:_00828_DS_:
00000241 ffef                 RET
00000242                      _checkChrgV:
00000242 e0fc                 BCR 0x3, 0x6
00000243 fd5a                 CLRR 0x25
00000244 fd5c                 CLRR 0x23
00000245 fd5b                 CLRR 0x24
00000246 def7                 MOVIA 0x8
00000247 d6bb                 LCALL 0x144; _F_AIN3_Convert=0x144
00000248 e0fc                 BCR 0x3, 0x6
00000249 eadb                 SWAPR 0x24, 0x0
0000024a dd0f                 ANDIA 0xf0
0000024b ff5b                 MOVAR 0x24
0000024c eadc                 SWAPR 0x23, 0x0
0000024d ff5c                 MOVAR 0x23
0000024e ddf0                 ANDIA 0xf
0000024f ee5b                 IORAR 0x24, 0x1
00000250 ed5c                 XORAR 0x23, 0x1
00000251 de0f                 MOVIA 0xf0
00000252 ef5a                 ANDAR 0x25, 0x1
00000253 feda                 MOVR 0x25, 0x0
00000254 ff42                 MOVAR 0x3d
00000255 deff                 MOVIA 0x0
00000256 ff41                 MOVAR 0x3e
00000257 fec2                 MOVR 0x3d, 0x0
00000258 fc5c                 ADDAR 0x23, 0x1
00000259 fec1                 MOVR 0x3e, 0x0
0000025a f3fc                 BTRSC 0x3, 0x0
0000025b fac1                 INCR 0x3e, 0x0
0000025c f2fc                 BTRSC 0x3, 0x2
0000025d c5a0                 LGOTO 0x25f; main.o:_00005_DS_=0x25f
0000025e fc5b                 ADDAR 0x24, 0x1
0000025f                      main.o:_00005_DS_:
0000025f e3fc                 BCR 0x3, 0x0
00000260 e0fc                 BCR 0x3, 0x6
00000261 ec5b                 RRR 0x24, 0x1
00000262 ec5c                 RRR 0x23, 0x1
00000263 e3fc                 BCR 0x3, 0x0
00000264 ec5b                 RRR 0x24, 0x1
00000265 ec5c                 RRR 0x23, 0x1
00000266 e3fc                 BCR 0x3, 0x0
00000267 ec5b                 RRR 0x24, 0x1
00000268 ec5c                 RRR 0x23, 0x1
00000269 ffef                 RET
0000026a                      _checkBatAD:
0000026a e0fc                 BCR 0x3, 0x6
0000026b fd57                 CLRR 0x28
0000026c fd59                 CLRR 0x26
0000026d fd58                 CLRR 0x27
0000026e def7                 MOVIA 0x8
0000026f d6e2                 LCALL 0x11d; _F_AIN2_Convert=0x11d
00000270 e0fc                 BCR 0x3, 0x6
00000271 ead8                 SWAPR 0x27, 0x0
00000272 dd0f                 ANDIA 0xf0
00000273 ff58                 MOVAR 0x27
00000274 ead9                 SWAPR 0x26, 0x0
00000275 ff59                 MOVAR 0x26
00000276 ddf0                 ANDIA 0xf
00000277 ee58                 IORAR 0x27, 0x1
00000278 ed59                 XORAR 0x26, 0x1
00000279 de0f                 MOVIA 0xf0
0000027a ef57                 ANDAR 0x28, 0x1
0000027b fed7                 MOVR 0x28, 0x0
0000027c ff44                 MOVAR 0x3b
0000027d deff                 MOVIA 0x0
0000027e ff43                 MOVAR 0x3c
0000027f fec4                 MOVR 0x3b, 0x0
00000280 fc59                 ADDAR 0x26, 0x1
00000281 fec3                 MOVR 0x3c, 0x0
00000282 f3fc                 BTRSC 0x3, 0x0
00000283 fac3                 INCR 0x3c, 0x0
00000284 f2fc                 BTRSC 0x3, 0x2
00000285 c578                 LGOTO 0x287; main.o:_00006_DS_=0x287
00000286 fc58                 ADDAR 0x27, 0x1
00000287                      main.o:_00006_DS_:
00000287 e3fc                 BCR 0x3, 0x0
00000288 e0fc                 BCR 0x3, 0x6
00000289 ec58                 RRR 0x27, 0x1
0000028a ec59                 RRR 0x26, 0x1
0000028b e3fc                 BCR 0x3, 0x0
0000028c ec58                 RRR 0x27, 0x1
0000028d ec59                 RRR 0x26, 0x1
0000028e e3fc                 BCR 0x3, 0x0
0000028f ec58                 RRR 0x27, 0x1
00000290 ec59                 RRR 0x26, 0x1
00000291 e4fc                 BSR 0x3, 0x6
00000292 fede                 MOVR 0x21, 0x0
00000293 f2fc                 BTRSC 0x3, 0x2
00000294 c565                 LGOTO 0x29a; main.o:_00569_DS_=0x29a
00000295 def1                 MOVIA 0xe
00000296 e0fc                 BCR 0x3, 0x6
00000297 ff59                 MOVAR 0x26
00000298 def9                 MOVIA 0x6
00000299 ff58                 MOVAR 0x27
0000029a                      main.o:_00569_DS_:
0000029a def9                 MOVIA 0x6
0000029b e0fc                 BCR 0x3, 0x6
0000029c fbd8                 SUBAR 0x27, 0x0
0000029d f6fc                 BTRSS 0x3, 0x2
0000029e c55e                 LGOTO 0x2a1; main.o:_00761_DS_=0x2a1
0000029f def0                 MOVIA 0xf
000002a0 fbd9                 SUBAR 0x26, 0x0
000002a1                      main.o:_00761_DS_:
000002a1 f7fc                 BTRSS 0x3, 0x0
000002a2 c559                 LGOTO 0x2a6; main.o:_00576_DS_=0x2a6
000002a3 e0fc                 BCR 0x3, 0x6
000002a4 fd08                 CLRR 0x77
000002a5 c53f                 LGOTO 0x2c0; main.o:_00577_DS_=0x2c0
000002a6                      main.o:_00576_DS_:
000002a6 defb                 MOVIA 0x4
000002a7 e0fc                 BCR 0x3, 0x6
000002a8 fbd8                 SUBAR 0x27, 0x0
000002a9 f6fc                 BTRSS 0x3, 0x2
000002aa c552                 LGOTO 0x2ad; main.o:_00762_DS_=0x2ad
000002ab de81                 MOVIA 0x7e
000002ac fbd9                 SUBAR 0x26, 0x0
000002ad                      main.o:_00762_DS_:
000002ad f3fc                 BTRSC 0x3, 0x0
000002ae c542                 LGOTO 0x2bd; main.o:_00573_DS_=0x2bd
000002af e0fc                 BCR 0x3, 0x6
000002b0 fa08                 INCR 0x77, 0x1
000002b1 def5                 MOVIA 0xa
000002b2 fb88                 SUBAR 0x77, 0x0
000002b3 f7fc                 BTRSS 0x3, 0x0
000002b4 c404                 LGOTO 0x3fb; main.o:_00651_DS_=0x3fb
000002b5 def5                 MOVIA 0xa
000002b6 ff08                 MOVAR 0x77
000002b7 fd19                 CLRR 0x66
000002b8 de81                 MOVIA 0x7e
000002b9 ff59                 MOVAR 0x26
000002ba defb                 MOVIA 0x4
000002bb ff58                 MOVAR 0x27
000002bc c53f                 LGOTO 0x2c0; main.o:_00577_DS_=0x2c0
000002bd                      main.o:_00573_DS_:
000002bd e0fc                 BCR 0x3, 0x6
000002be fd08                 CLRR 0x77
000002bf fd0a                 CLRR 0x75
000002c0                      main.o:_00577_DS_:
000002c0 de7d                 MOVIA 0x82
000002c1 e0fc                 BCR 0x3, 0x6
000002c2 fc59                 ADDAR 0x26, 0x1
000002c3 de04                 MOVIA 0xfb
000002c4 f3fc                 BTRSC 0x3, 0x0
000002c5 de03                 MOVIA 0xfc
000002c6 fc58                 ADDAR 0x27, 0x1
000002c7 defe                 MOVIA 0x1
000002c8 fbd8                 SUBAR 0x27, 0x0
000002c9 f6fc                 BTRSS 0x3, 0x2
000002ca c532                 LGOTO 0x2cd; main.o:_00764_DS_=0x2cd
000002cb de59                 MOVIA 0xa6
000002cc fbd9                 SUBAR 0x26, 0x0
000002cd                      main.o:_00764_DS_:
000002cd f7fc                 BTRSS 0x3, 0x0
000002ce c52c                 LGOTO 0x2d3; main.o:_00649_DS_=0x2d3
000002cf def8                 MOVIA 0x7
000002d0 e0fc                 BCR 0x3, 0x6
000002d1 ff19                 MOVAR 0x66
000002d2 c404                 LGOTO 0x3fb; main.o:_00651_DS_=0x3fb
000002d3                      main.o:_00649_DS_:
000002d3 defe                 MOVIA 0x1
000002d4 e0fc                 BCR 0x3, 0x6
000002d5 fbd8                 SUBAR 0x27, 0x0
000002d6 f6fc                 BTRSS 0x3, 0x2
000002d7 c525                 LGOTO 0x2da; main.o:_00765_DS_=0x2da
000002d8 dea0                 MOVIA 0x5f
000002d9 fbd9                 SUBAR 0x26, 0x0
000002da                      main.o:_00765_DS_:
000002da f7fc                 BTRSS 0x3, 0x0
000002db c4e3                 LGOTO 0x31c; main.o:_00646_DS_=0x31c
000002dc e0fc                 BCR 0x3, 0x6
000002dd fd0c                 CLRR 0x73
000002de def9                 MOVIA 0x6
000002df fb99                 SUBAR 0x66, 0x0
000002e0 f3fc                 BTRSC 0x3, 0x0
000002e1 c511                 LGOTO 0x2ee; main.o:_00584_DS_=0x2ee
000002e2 defe                 MOVIA 0x1
000002e3 fbd8                 SUBAR 0x27, 0x0
000002e4 f6fc                 BTRSS 0x3, 0x2
000002e5 c517                 LGOTO 0x2e8; main.o:_00767_DS_=0x2e8
000002e6 de9b                 MOVIA 0x64
000002e7 fbd9                 SUBAR 0x26, 0x0
000002e8                      main.o:_00767_DS_:
000002e8 f7fc                 BTRSS 0x3, 0x0
000002e9 c501                 LGOTO 0x2fe; main.o:_00585_DS_=0x2fe
000002ea def9                 MOVIA 0x6
000002eb e0fc                 BCR 0x3, 0x6
000002ec ff19                 MOVAR 0x66
000002ed c501                 LGOTO 0x2fe; main.o:_00585_DS_=0x2fe
000002ee                      main.o:_00584_DS_:
000002ee e0fc                 BCR 0x3, 0x6
000002ef fe98                 MOVR 0x67, 0x0
000002f0 ee97                 IORAR 0x68, 0x0
000002f1 f6fc                 BTRSS 0x3, 0x2
000002f2 c501                 LGOTO 0x2fe; main.o:_00585_DS_=0x2fe
000002f3 defe                 MOVIA 0x1
000002f4 fbd8                 SUBAR 0x27, 0x0
000002f5 f6fc                 BTRSS 0x3, 0x2
000002f6 c506                 LGOTO 0x2f9; main.o:_00768_DS_=0x2f9
000002f7 de73                 MOVIA 0x8c
000002f8 fbd9                 SUBAR 0x26, 0x0
000002f9                      main.o:_00768_DS_:
000002f9 f3fc                 BTRSC 0x3, 0x0
000002fa c501                 LGOTO 0x2fe; main.o:_00585_DS_=0x2fe
000002fb def9                 MOVIA 0x6
000002fc e0fc                 BCR 0x3, 0x6
000002fd ff19                 MOVAR 0x66
000002fe                      main.o:_00585_DS_:
000002fe e0fc                 BCR 0x3, 0x6
000002ff fe98                 MOVR 0x67, 0x0
00000300 ee97                 IORAR 0x68, 0x0
00000301 f2fc                 BTRSC 0x3, 0x2
00000302 c404                 LGOTO 0x3fb; main.o:_00651_DS_=0x3fb
00000303 defe                 MOVIA 0x1
00000304 fbd8                 SUBAR 0x27, 0x0
00000305 f6fc                 BTRSS 0x3, 0x2
00000306 c4f6                 LGOTO 0x309; main.o:_00769_DS_=0x309
00000307 de73                 MOVIA 0x8c
00000308 fbd9                 SUBAR 0x26, 0x0
00000309                      main.o:_00769_DS_:
00000309 f7fc                 BTRSS 0x3, 0x0
0000030a c404                 LGOTO 0x3fb; main.o:_00651_DS_=0x3fb
0000030b defd                 MOVIA 0x2
0000030c e0fc                 BCR 0x3, 0x6
0000030d fb97                 SUBAR 0x68, 0x0
0000030e f6fc                 BTRSS 0x3, 0x2
0000030f c4ed                 LGOTO 0x312; main.o:_00770_DS_=0x312
00000310 dea6                 MOVIA 0x59
00000311 fb98                 SUBAR 0x67, 0x0
00000312                      main.o:_00770_DS_:
00000312 f7fc                 BTRSS 0x3, 0x0
00000313 c404                 LGOTO 0x3fb; main.o:_00651_DS_=0x3fb
00000314 dea7                 MOVIA 0x58
00000315 e0fc                 BCR 0x3, 0x6
00000316 ff18                 MOVAR 0x67
00000317 defd                 MOVIA 0x2
00000318 ff17                 MOVAR 0x68
00000319 def8                 MOVIA 0x7
0000031a ff19                 MOVAR 0x66
0000031b c404                 LGOTO 0x3fb; main.o:_00651_DS_=0x3fb
0000031c                      main.o:_00646_DS_:
0000031c defe                 MOVIA 0x1
0000031d e0fc                 BCR 0x3, 0x6
0000031e fbd8                 SUBAR 0x27, 0x0
0000031f f6fc                 BTRSS 0x3, 0x2
00000320 c4dc                 LGOTO 0x323; main.o:_00771_DS_=0x323
00000321 deb9                 MOVIA 0x46
00000322 fbd9                 SUBAR 0x26, 0x0
00000323                      main.o:_00771_DS_:
00000323 f7fc                 BTRSS 0x3, 0x0
00000324 c4b2                 LGOTO 0x34d; main.o:_00643_DS_=0x34d
00000325 e0fc                 BCR 0x3, 0x6
00000326 fe99                 MOVR 0x66, 0x0
00000327 dbfb                 XORIA 0x4
00000328 f6fc                 BTRSS 0x3, 0x2
00000329 c4ca                 LGOTO 0x335; main.o:_00593_DS_=0x335
0000032a defe                 MOVIA 0x1
0000032b fbd8                 SUBAR 0x27, 0x0
0000032c f6fc                 BTRSS 0x3, 0x2
0000032d c4cf                 LGOTO 0x330; main.o:_00772_DS_=0x330
0000032e deb4                 MOVIA 0x4b
0000032f fbd9                 SUBAR 0x26, 0x0
00000330                      main.o:_00772_DS_:
00000330 f7fc                 BTRSS 0x3, 0x0
00000331 c4ca                 LGOTO 0x335; main.o:_00593_DS_=0x335
00000332 defa                 MOVIA 0x5
00000333 e0fc                 BCR 0x3, 0x6
00000334 ff19                 MOVAR 0x66
00000335                      main.o:_00593_DS_:
00000335 def9                 MOVIA 0x6
00000336 e0fc                 BCR 0x3, 0x6
00000337 fb99                 SUBAR 0x66, 0x0
00000338 f7fc                 BTRSS 0x3, 0x0
00000339 c4b9                 LGOTO 0x346; main.o:_00597_DS_=0x346
0000033a defe                 MOVIA 0x1
0000033b fbd8                 SUBAR 0x27, 0x0
0000033c f6fc                 BTRSS 0x3, 0x2
0000033d c4bf                 LGOTO 0x340; main.o:_00774_DS_=0x340
0000033e de92                 MOVIA 0x6d
0000033f fbd9                 SUBAR 0x26, 0x0
00000340                      main.o:_00774_DS_:
00000340 f3fc                 BTRSC 0x3, 0x0
00000341 c4b6                 LGOTO 0x349; main.o:_00598_DS_=0x349
00000342 defa                 MOVIA 0x5
00000343 e0fc                 BCR 0x3, 0x6
00000344 ff19                 MOVAR 0x66
00000345 c4b6                 LGOTO 0x349; main.o:_00598_DS_=0x349
00000346                      main.o:_00597_DS_:
00000346 defa                 MOVIA 0x5
00000347 e0fc                 BCR 0x3, 0x6
00000348 ff19                 MOVAR 0x66
00000349                      main.o:_00598_DS_:
00000349 e0fc                 BCR 0x3, 0x6
0000034a fd18                 CLRR 0x67
0000034b fd17                 CLRR 0x68
0000034c c404                 LGOTO 0x3fb; main.o:_00651_DS_=0x3fb
0000034d                      main.o:_00643_DS_:
0000034d defe                 MOVIA 0x1
0000034e e0fc                 BCR 0x3, 0x6
0000034f fbd8                 SUBAR 0x27, 0x0
00000350 f6fc                 BTRSS 0x3, 0x2
00000351 c4ab                 LGOTO 0x354; main.o:_00775_DS_=0x354
00000352 defa                 MOVIA 0x5
00000353 fbd9                 SUBAR 0x26, 0x0
00000354                      main.o:_00775_DS_:
00000354 f7fc                 BTRSS 0x3, 0x0
00000355 c481                 LGOTO 0x37e; main.o:_00640_DS_=0x37e
00000356 e0fc                 BCR 0x3, 0x6
00000357 fe99                 MOVR 0x66, 0x0
00000358 dbfc                 XORIA 0x3
00000359 f6fc                 BTRSS 0x3, 0x2
0000035a c499                 LGOTO 0x366; main.o:_00602_DS_=0x366
0000035b defe                 MOVIA 0x1
0000035c fbd8                 SUBAR 0x27, 0x0
0000035d f6fc                 BTRSS 0x3, 0x2
0000035e c49e                 LGOTO 0x361; main.o:_00776_DS_=0x361
0000035f def5                 MOVIA 0xa
00000360 fbd9                 SUBAR 0x26, 0x0
00000361                      main.o:_00776_DS_:
00000361 f7fc                 BTRSS 0x3, 0x0
00000362 c499                 LGOTO 0x366; main.o:_00602_DS_=0x366
00000363 defb                 MOVIA 0x4
00000364 e0fc                 BCR 0x3, 0x6
00000365 ff19                 MOVAR 0x66
00000366                      main.o:_00602_DS_:
00000366 defa                 MOVIA 0x5
00000367 e0fc                 BCR 0x3, 0x6
00000368 fb99                 SUBAR 0x66, 0x0
00000369 f7fc                 BTRSS 0x3, 0x0
0000036a c488                 LGOTO 0x377; main.o:_00606_DS_=0x377
0000036b defe                 MOVIA 0x1
0000036c fbd8                 SUBAR 0x27, 0x0
0000036d f6fc                 BTRSS 0x3, 0x2
0000036e c48e                 LGOTO 0x371; main.o:_00778_DS_=0x371
0000036f debf                 MOVIA 0x40
00000370 fbd9                 SUBAR 0x26, 0x0
00000371                      main.o:_00778_DS_:
00000371 f3fc                 BTRSC 0x3, 0x0
00000372 c485                 LGOTO 0x37a; main.o:_00607_DS_=0x37a
00000373 defb                 MOVIA 0x4
00000374 e0fc                 BCR 0x3, 0x6
00000375 ff19                 MOVAR 0x66
00000376 c485                 LGOTO 0x37a; main.o:_00607_DS_=0x37a
00000377                      main.o:_00606_DS_:
00000377 defb                 MOVIA 0x4
00000378 e0fc                 BCR 0x3, 0x6
00000379 ff19                 MOVAR 0x66
0000037a                      main.o:_00607_DS_:
0000037a e0fc                 BCR 0x3, 0x6
0000037b fd18                 CLRR 0x67
0000037c fd17                 CLRR 0x68
0000037d c404                 LGOTO 0x3fb; main.o:_00651_DS_=0x3fb
0000037e                      main.o:_00640_DS_:
0000037e deff                 MOVIA 0x0
0000037f e0fc                 BCR 0x3, 0x6
00000380 fbd8                 SUBAR 0x27, 0x0
00000381 f6fc                 BTRSS 0x3, 0x2
00000382 c47a                 LGOTO 0x385; main.o:_00779_DS_=0x385
00000383 de36                 MOVIA 0xc9
00000384 fbd9                 SUBAR 0x26, 0x0
00000385                      main.o:_00779_DS_:
00000385 f7fc                 BTRSS 0x3, 0x0
00000386 c450                 LGOTO 0x3af; main.o:_00637_DS_=0x3af
00000387 e0fc                 BCR 0x3, 0x6
00000388 fe99                 MOVR 0x66, 0x0
00000389 dbfd                 XORIA 0x2
0000038a f6fc                 BTRSS 0x3, 0x2
0000038b c468                 LGOTO 0x397; main.o:_00611_DS_=0x397
0000038c deff                 MOVIA 0x0
0000038d fbd8                 SUBAR 0x27, 0x0
0000038e f6fc                 BTRSS 0x3, 0x2
0000038f c46d                 LGOTO 0x392; main.o:_00780_DS_=0x392
00000390 de2c                 MOVIA 0xd3
00000391 fbd9                 SUBAR 0x26, 0x0
00000392                      main.o:_00780_DS_:
00000392 f7fc                 BTRSS 0x3, 0x0
00000393 c468                 LGOTO 0x397; main.o:_00611_DS_=0x397
00000394 defc                 MOVIA 0x3
00000395 e0fc                 BCR 0x3, 0x6
00000396 ff19                 MOVAR 0x66
00000397                      main.o:_00611_DS_:
00000397 defb                 MOVIA 0x4
00000398 e0fc                 BCR 0x3, 0x6
00000399 fb99                 SUBAR 0x66, 0x0
0000039a f7fc                 BTRSS 0x3, 0x0
0000039b c457                 LGOTO 0x3a8; main.o:_00615_DS_=0x3a8
0000039c defe                 MOVIA 0x1
0000039d fbd8                 SUBAR 0x27, 0x0
0000039e f6fc                 BTRSS 0x3, 0x2
0000039f c45d                 LGOTO 0x3a2; main.o:_00782_DS_=0x3a2
000003a0 defb                 MOVIA 0x4
000003a1 fbd9                 SUBAR 0x26, 0x0
000003a2                      main.o:_00782_DS_:
000003a2 f3fc                 BTRSC 0x3, 0x0
000003a3 c454                 LGOTO 0x3ab; main.o:_00616_DS_=0x3ab
000003a4 defc                 MOVIA 0x3
000003a5 e0fc                 BCR 0x3, 0x6
000003a6 ff19                 MOVAR 0x66
000003a7 c454                 LGOTO 0x3ab; main.o:_00616_DS_=0x3ab
000003a8                      main.o:_00615_DS_:
000003a8 defc                 MOVIA 0x3
000003a9 e0fc                 BCR 0x3, 0x6
000003aa ff19                 MOVAR 0x66
000003ab                      main.o:_00616_DS_:
000003ab e0fc                 BCR 0x3, 0x6
000003ac fd18                 CLRR 0x67
000003ad fd17                 CLRR 0x68
000003ae c404                 LGOTO 0x3fb; main.o:_00651_DS_=0x3fb
000003af                      main.o:_00637_DS_:
000003af deff                 MOVIA 0x0
000003b0 e0fc                 BCR 0x3, 0x6
000003b1 fbd8                 SUBAR 0x27, 0x0
000003b2 f6fc                 BTRSS 0x3, 0x2
000003b3 c449                 LGOTO 0x3b6; main.o:_00783_DS_=0x3b6
000003b4 de9a                 MOVIA 0x65
000003b5 fbd9                 SUBAR 0x26, 0x0
000003b6                      main.o:_00783_DS_:
000003b6 f7fc                 BTRSS 0x3, 0x0
000003b7 c41f                 LGOTO 0x3e0; main.o:_00634_DS_=0x3e0
000003b8 e0fc                 BCR 0x3, 0x6
000003b9 fe99                 MOVR 0x66, 0x0
000003ba dbfe                 XORIA 0x1
000003bb f6fc                 BTRSS 0x3, 0x2
000003bc c437                 LGOTO 0x3c8; main.o:_00620_DS_=0x3c8
000003bd deff                 MOVIA 0x0
000003be fbd8                 SUBAR 0x27, 0x0
000003bf f6fc                 BTRSS 0x3, 0x2
000003c0 c43c                 LGOTO 0x3c3; main.o:_00784_DS_=0x3c3
000003c1 de90                 MOVIA 0x6f
000003c2 fbd9                 SUBAR 0x26, 0x0
000003c3                      main.o:_00784_DS_:
000003c3 f7fc                 BTRSS 0x3, 0x0
000003c4 c437                 LGOTO 0x3c8; main.o:_00620_DS_=0x3c8
000003c5 defd                 MOVIA 0x2
000003c6 e0fc                 BCR 0x3, 0x6
000003c7 ff19                 MOVAR 0x66
000003c8                      main.o:_00620_DS_:
000003c8 defc                 MOVIA 0x3
000003c9 e0fc                 BCR 0x3, 0x6
000003ca fb99                 SUBAR 0x66, 0x0
000003cb f7fc                 BTRSS 0x3, 0x0
000003cc c426                 LGOTO 0x3d9; main.o:_00624_DS_=0x3d9
000003cd deff                 MOVIA 0x0
000003ce fbd8                 SUBAR 0x27, 0x0
000003cf f6fc                 BTRSS 0x3, 0x2
000003d0 c42c                 LGOTO 0x3d3; main.o:_00786_DS_=0x3d3
000003d1 de41                 MOVIA 0xbe
000003d2 fbd9                 SUBAR 0x26, 0x0
000003d3                      main.o:_00786_DS_:
000003d3 f3fc                 BTRSC 0x3, 0x0
000003d4 c423                 LGOTO 0x3dc; main.o:_00625_DS_=0x3dc
000003d5 defd                 MOVIA 0x2
000003d6 e0fc                 BCR 0x3, 0x6
000003d7 ff19                 MOVAR 0x66
000003d8 c423                 LGOTO 0x3dc; main.o:_00625_DS_=0x3dc
000003d9                      main.o:_00624_DS_:
000003d9 defd                 MOVIA 0x2
000003da e0fc                 BCR 0x3, 0x6
000003db ff19                 MOVAR 0x66
000003dc                      main.o:_00625_DS_:
000003dc e0fc                 BCR 0x3, 0x6
000003dd fd18                 CLRR 0x67
000003de fd17                 CLRR 0x68
000003df c404                 LGOTO 0x3fb; main.o:_00651_DS_=0x3fb
000003e0                      main.o:_00634_DS_:
000003e0 e0fc                 BCR 0x3, 0x6
000003e1 fed9                 MOVR 0x26, 0x0
000003e2 eed8                 IORAR 0x27, 0x0
000003e3 f2fc                 BTRSC 0x3, 0x2
000003e4 c404                 LGOTO 0x3fb; main.o:_00651_DS_=0x3fb
000003e5 defd                 MOVIA 0x2
000003e6 fb99                 SUBAR 0x66, 0x0
000003e7 f7fc                 BTRSS 0x3, 0x0
000003e8 c40a                 LGOTO 0x3f5; main.o:_00629_DS_=0x3f5
000003e9 deff                 MOVIA 0x0
000003ea fbd8                 SUBAR 0x27, 0x0
000003eb f6fc                 BTRSS 0x3, 0x2
000003ec c410                 LGOTO 0x3ef; main.o:_00788_DS_=0x3ef
000003ed dea5                 MOVIA 0x5a
000003ee fbd9                 SUBAR 0x26, 0x0
000003ef                      main.o:_00788_DS_:
000003ef f3fc                 BTRSC 0x3, 0x0
000003f0 c407                 LGOTO 0x3f8; main.o:_00630_DS_=0x3f8
000003f1 defe                 MOVIA 0x1
000003f2 e0fc                 BCR 0x3, 0x6
000003f3 ff19                 MOVAR 0x66
000003f4 c407                 LGOTO 0x3f8; main.o:_00630_DS_=0x3f8
000003f5                      main.o:_00629_DS_:
000003f5 defe                 MOVIA 0x1
000003f6 e0fc                 BCR 0x3, 0x6
000003f7 ff19                 MOVAR 0x66
000003f8                      main.o:_00630_DS_:
000003f8 e0fc                 BCR 0x3, 0x6
000003f9 fd18                 CLRR 0x67
000003fa fd17                 CLRR 0x68
000003fb                      main.o:_00651_DS_:
000003fb ffef                 RET
000003fc                      _initAD:
000003fc de7b                 MOVIA 0x84
000003fd ff6f                 MOVAR 0x10
000003fe fd6c                 CLRR 0x13
000003ff deef                 MOVIA 0x10
00000400 ff6e                 MOVAR 0x11
00000401 defc                 MOVIA 0x3
00000402 ff6b                 MOVAR 0x14
00000403 e5ef                 BSR 0x10, 0x4
00000404 de9b                 MOVIA 0x64
00000405 d3f8                 LCALL 0x407; _delay=0x407
00000406 ffef                 RET
00000407                      _delay:
00000407 e0fc                 BCR 0x3, 0x6
00000408 ff46                 MOVAR 0x39
00000409 fd45                 CLRR 0x3a
0000040a                      main.o:_00557_DS_:
0000040a e0fc                 BCR 0x3, 0x6
0000040b fec6                 MOVR 0x39, 0x0
0000040c fbc5                 SUBAR 0x3a, 0x0
0000040d f3fc                 BTRSC 0x3, 0x0
0000040e c3ed                 LGOTO 0x412; main.o:_00559_DS_=0x412
0000040f ffff                 NOP
00000410 fa45                 INCR 0x3a, 0x1
00000411 c3f5                 LGOTO 0x40a; main.o:_00557_DS_=0x40a
00000412                      main.o:_00559_DS_:
00000412 ffef                 RET
00000413                      _chrgCtr:
00000413 e0fc                 BCR 0x3, 0x6
00000414 f27a                 BTRSC 0x5, 0x3
00000415 c3e1                 LGOTO 0x41e; main.o:_00509_DS_=0x41e
00000416 deff                 MOVIA 0x0
00000417 fbdb                 SUBAR 0x24, 0x0
00000418 f6fc                 BTRSS 0x3, 0x2
00000419 c3e3                 LGOTO 0x41c; main.o:_00548_DS_=0x41c
0000041a de36                 MOVIA 0xc9
0000041b fbdc                 SUBAR 0x23, 0x0
0000041c                      main.o:_00548_DS_:
0000041c f7fc                 BTRSS 0x3, 0x0
0000041d c378                 LGOTO 0x487; main.o:_00510_DS_=0x487
0000041e                      main.o:_00509_DS_:
0000041e e0fc                 BCR 0x3, 0x6
0000041f e624                 BSR 0x5b, 0x3
00000420 fd20                 CLRR 0x5f
00000421 fd0e                 CLRR 0x71
00000422 d315                 LCALL 0x4ea; _pwmStop=0x4ea
00000423 e0fc                 BCR 0x3, 0x6
00000424 fe99                 MOVR 0x66, 0x0
00000425 dbf8                 XORIA 0x7
00000426 f6fc                 BTRSS 0x3, 0x2
00000427 c3c8                 LGOTO 0x437; main.o:_00505_DS_=0x437
00000428 def9                 MOVIA 0x6
00000429 ff1f                 MOVAR 0x60
0000042a fa0c                 INCR 0x73, 0x1
0000042b de9a                 MOVIA 0x65
0000042c fb8c                 SUBAR 0x73, 0x0
0000042d f3fc                 BTRSC 0x3, 0x0
0000042e d305                 LCALL 0x4fa; _pwm1Stop=0x4fa
0000042f e279                 BCR 0x6, 0x3
00000430 ffe9                 IOSTR 0x6
00000431 e0fc                 BCR 0x3, 0x6
00000432 ff4a                 MOVAR 0x35
00000433 e64a                 BSR 0x35, 0x3
00000434 feca                 MOVR 0x35, 0x0
00000435 fff9                 IOST 0x6
00000436 c368                 LGOTO 0x497; main.o:_00513_DS_=0x497
00000437                      main.o:_00505_DS_:
00000437 ffe9                 IOSTR 0x6
00000438 e0fc                 BCR 0x3, 0x6
00000439 ff4a                 MOVAR 0x35
0000043a e24a                 BCR 0x35, 0x3
0000043b feca                 MOVR 0x35, 0x0
0000043c fff9                 IOST 0x6
0000043d fea2                 MOVR 0x5d, 0x0
0000043e f6fc                 BTRSS 0x3, 0x2
0000043f c39d                 LGOTO 0x462; main.o:_00493_DS_=0x462
00000440 fe99                 MOVR 0x66, 0x0
00000441 ff4a                 MOVAR 0x35
00000442 fd49                 CLRR 0x36
00000443 de00                 MOVIA 0xff
00000444 fc4a                 ADDAR 0x35, 0x1
00000445 f3fc                 BTRSC 0x3, 0x0
00000446 c3b7                 LGOTO 0x448; main.o:_00007_DS_=0x448
00000447 f949                 DECR 0x36, 0x1
00000448                      main.o:_00007_DS_:
00000448 e0fc                 BCR 0x3, 0x6
00000449 fe82                 MOVR 0x7d, 0x0
0000044a ff48                 MOVAR 0x37
0000044b deff                 MOVIA 0x0
0000044c da7f                 ADDIA 0x80
0000044d ff47                 MOVAR 0x38
0000044e fec9                 MOVR 0x36, 0x0
0000044f da7f                 ADDIA 0x80
00000450 fbc7                 SUBAR 0x38, 0x0
00000451 f6fc                 BTRSS 0x3, 0x2
00000452 c3aa                 LGOTO 0x455; main.o:_00550_DS_=0x455
00000453 feca                 MOVR 0x35, 0x0
00000454 fbc8                 SUBAR 0x37, 0x0
00000455                      main.o:_00550_DS_:
00000455 f3fc                 BTRSC 0x3, 0x0
00000456 c3a5                 LGOTO 0x45a; main.o:_00489_DS_=0x45a
00000457 e0fc                 BCR 0x3, 0x6
00000458 f999                 DECR 0x66, 0x0
00000459 ff02                 MOVAR 0x7d
0000045a                      main.o:_00489_DS_:
0000045a e0fc                 BCR 0x3, 0x6
0000045b fa1f                 INCR 0x60, 0x1
0000045c def8                 MOVIA 0x7
0000045d fb9f                 SUBAR 0x60, 0x0
0000045e f7fc                 BTRSS 0x3, 0x0
0000045f c39d                 LGOTO 0x462; main.o:_00493_DS_=0x462
00000460 fe82                 MOVR 0x7d, 0x0
00000461 ff1f                 MOVAR 0x60
00000462                      main.o:_00493_DS_:
00000462 defd                 MOVIA 0x2
00000463 e0fc                 BCR 0x3, 0x6
00000464 fb99                 SUBAR 0x66, 0x0
00000465 f3fc                 BTRSC 0x3, 0x0
00000466 c38e                 LGOTO 0x471; main.o:_00502_DS_=0x471
00000467 defd                 MOVIA 0x2
00000468 e4fc                 BSR 0x3, 0x6
00000469 fbdf                 SUBAR 0x20, 0x0
0000046a f3fc                 BTRSC 0x3, 0x0
0000046b c37a                 LGOTO 0x485; main.o:_00503_DS_=0x485
0000046c def7                 MOVIA 0x8
0000046d ffbc                 SFUN 0x3
0000046e defe                 MOVIA 0x1
0000046f ff5f                 MOVAR 0x20
00000470 c37a                 LGOTO 0x485; main.o:_00503_DS_=0x485
00000471                      main.o:_00502_DS_:
00000471 def8                 MOVIA 0x7
00000472 e0fc                 BCR 0x3, 0x6
00000473 fb99                 SUBAR 0x66, 0x0
00000474 f3fc                 BTRSC 0x3, 0x0
00000475 c37f                 LGOTO 0x480; main.o:_00499_DS_=0x480
00000476 defc                 MOVIA 0x3
00000477 e4fc                 BSR 0x3, 0x6
00000478 fbdf                 SUBAR 0x20, 0x0
00000479 f3fc                 BTRSC 0x3, 0x0
0000047a c37a                 LGOTO 0x485; main.o:_00503_DS_=0x485
0000047b defd                 MOVIA 0x2
0000047c ff5f                 MOVAR 0x20
0000047d def3                 MOVIA 0xc
0000047e ffbc                 SFUN 0x3
0000047f c37a                 LGOTO 0x485; main.o:_00503_DS_=0x485
00000480                      main.o:_00499_DS_:
00000480 def4                 MOVIA 0xb
00000481 ffbc                 SFUN 0x3
00000482 defc                 MOVIA 0x3
00000483 e4fc                 BSR 0x3, 0x6
00000484 ff5f                 MOVAR 0x20
00000485                      main.o:_00503_DS_:
00000485 d302                 LCALL 0x4fd; _pwm1Init=0x4fd
00000486 c368                 LGOTO 0x497; main.o:_00513_DS_=0x497
00000487                      main.o:_00510_DS_:
00000487 e4fc                 BSR 0x3, 0x6
00000488 fd5f                 CLRR 0x20
00000489 e0fc                 BCR 0x3, 0x6
0000048a fd02                 CLRR 0x7d
0000048b fd18                 CLRR 0x67
0000048c fd17                 CLRR 0x68
0000048d d305                 LCALL 0x4fa; _pwm1Stop=0x4fa
0000048e e0fc                 BCR 0x3, 0x6
0000048f fea0                 MOVR 0x5f, 0x0
00000490 f6fc                 BTRSS 0x3, 0x2
00000491 c36c                 LGOTO 0x493; main.o:_00008_DS_=0x493
00000492 fd1f                 CLRR 0x60
00000493                      main.o:_00008_DS_:
00000493 e0fc                 BCR 0x3, 0x6
00000494 e224                 BCR 0x5b, 0x3
00000495 fd18                 CLRR 0x67
00000496 fd17                 CLRR 0x68
00000497                      main.o:_00513_DS_:
00000497 ffef                 RET
00000498                      _keyRead:
00000498 e0fc                 BCR 0x3, 0x6
00000499 ff4b                 MOVAR 0x34
0000049a fecb                 MOVR 0x34, 0x0
0000049b f2fc                 BTRSC 0x3, 0x2
0000049c c356                 LGOTO 0x4a9; main.o:_00479_DS_=0x4a9
0000049d fa21                 INCR 0x5e, 0x1
0000049e de9b                 MOVIA 0x64
0000049f fba1                 SUBAR 0x5e, 0x0
000004a0 f7fc                 BTRSS 0x3, 0x0
000004a1 c343                 LGOTO 0x4bc; main.o:_00480_DS_=0x4bc
000004a2 de9b                 MOVIA 0x64
000004a3 ff21                 MOVAR 0x5e
000004a4 f324                 BTRSC 0x5b, 0x1
000004a5 c343                 LGOTO 0x4bc; main.o:_00480_DS_=0x4bc
000004a6 e724                 BSR 0x5b, 0x1
000004a7 defd                 MOVIA 0x2
000004a8 c342                 LGOTO 0x4bd; main.o:_00481_DS_=0x4bd
000004a9                      main.o:_00479_DS_:
000004a9 de9b                 MOVIA 0x64
000004aa e0fc                 BCR 0x3, 0x6
000004ab fba1                 SUBAR 0x5e, 0x0
000004ac f7fc                 BTRSS 0x3, 0x0
000004ad c34d                 LGOTO 0x4b2; main.o:_00476_DS_=0x4b2
000004ae fd21                 CLRR 0x5e
000004af e324                 BCR 0x5b, 0x1
000004b0 deff                 MOVIA 0x0
000004b1 c342                 LGOTO 0x4bd; main.o:_00481_DS_=0x4bd
000004b2                      main.o:_00476_DS_:
000004b2 def7                 MOVIA 0x8
000004b3 e0fc                 BCR 0x3, 0x6
000004b4 fba1                 SUBAR 0x5e, 0x0
000004b5 f7fc                 BTRSS 0x3, 0x0
000004b6 c345                 LGOTO 0x4ba; main.o:_00477_DS_=0x4ba
000004b7 fd21                 CLRR 0x5e
000004b8 defe                 MOVIA 0x1
000004b9 c342                 LGOTO 0x4bd; main.o:_00481_DS_=0x4bd
000004ba                      main.o:_00477_DS_:
000004ba e0fc                 BCR 0x3, 0x6
000004bb fd21                 CLRR 0x5e
000004bc                      main.o:_00480_DS_:
000004bc deff                 MOVIA 0x0
000004bd                      main.o:_00481_DS_:
000004bd ffef                 RET
000004be                      _gotoSleep:
000004be fd79                 CLRR 0x6
000004bf e0fc                 BCR 0x3, 0x6
000004c0 fd7a                 CLRR 0x5
000004c1 ffea                 IOSTR 0x5
000004c2 ff4c                 MOVAR 0x33
000004c3 e4cc                 BSR 0x33, 0x6
000004c4 fecc                 MOVR 0x33, 0x0
000004c5 fffa                 IOST 0x5
000004c6 d28f                 LCALL 0x570; _LedInput=0x570
000004c7 e0fc                 BCR 0x3, 0x6
000004c8 fd16                 CLRR 0x69
000004c9 fd15                 CLRR 0x6a
000004ca d315                 LCALL 0x4ea; _pwmStop=0x4ea
000004cb d305                 LCALL 0x4fa; _pwm1Stop=0x4fa
000004cc e0fc                 BCR 0x3, 0x6
000004cd fd20                 CLRR 0x5f
000004ce de67                 MOVIA 0x98
000004cf ff6a                 MOVAR 0x15
000004d0 fd1c                 CLRR 0x63
000004d1 fd1b                 CLRR 0x64
000004d2 fd1e                 CLRR 0x61
000004d3 fd1d                 CLRR 0x62
000004d4 e2a4                 BCR 0x5b, 0x2
000004d5 def4                 MOVIA 0xb
000004d6 ff71                 MOVAR 0xe
000004d7 dee7                 MOVIA 0x18
000004d8 ff77                 MOVAR 0x8
000004d9 fd70                 CLRR 0xf
000004da fffd                 CLRWDT
000004db fffb                 ENI
000004dc fffe                 SLEEP
000004dd fd6a                 CLRR 0x15
000004de ffea                 IOSTR 0x5
000004df ff4c                 MOVAR 0x33
000004e0 e0cc                 BCR 0x33, 0x6
000004e1 fecc                 MOVR 0x33, 0x0
000004e2 fffa                 IOST 0x5
000004e3 e0f9                 BCR 0x6, 0x6
000004e4 defe                 MOVIA 0x1
000004e5 ff71                 MOVAR 0xe
000004e6 fd70                 CLRR 0xf
000004e7 de47                 MOVIA 0xb8
000004e8 ff77                 MOVAR 0x8
000004e9 ffef                 RET
000004ea                      _pwmStop:
000004ea fdff                 CLRA
000004eb ffb5                 SFUN 0xa
000004ec ffef                 RET
000004ed                      _pwmInit:
000004ed ff95                 SFUNR 0xa
000004ee e0fc                 BCR 0x3, 0x6
000004ef ff4d                 MOVAR 0x32
000004f0 f04d                 BTRSC 0x32, 0x7
000004f1 c306                 LGOTO 0x4f9; main.o:_00456_DS_=0x4f9
000004f2 fd66                 CLRR 0x19
000004f3 de9b                 MOVIA 0x64
000004f4 ffb6                 SFUN 0x9
000004f5 defe                 MOVIA 0x1
000004f6 ffb4                 SFUN 0xb
000004f7 de7c                 MOVIA 0x83
000004f8 ffb5                 SFUN 0xa
000004f9                      main.o:_00456_DS_:
000004f9 ffef                 RET
000004fa                      _pwm1Stop:
000004fa fdff                 CLRA
000004fb ffbe                 SFUN 0x1
000004fc ffef                 RET
000004fd                      _pwm1Init:
000004fd ff9e                 SFUNR 0x1
000004fe e0fc                 BCR 0x3, 0x6
000004ff ff4e                 MOVAR 0x31
00000500 f04e                 BTRSC 0x31, 0x7
00000501 c2f6                 LGOTO 0x509; main.o:_00445_DS_=0x509
00000502 fd66                 CLRR 0x19
00000503 dee7                 MOVIA 0x18
00000504 ffbf                 SFUN 0x0
00000505 fdff                 CLRA
00000506 ffbd                 SFUN 0x2
00000507 de7c                 MOVIA 0x83
00000508 ffbe                 SFUN 0x1
00000509                      main.o:_00445_DS_:
00000509 ffef                 RET
0000050a                      _LED6ON:
0000050a ffea                 IOSTR 0x5
0000050b e0fc                 BCR 0x3, 0x6
0000050c ff4f                 MOVAR 0x30
0000050d e3cf                 BCR 0x30, 0x0
0000050e fecf                 MOVR 0x30, 0x0
0000050f fffa                 IOST 0x5
00000510 ffe9                 IOSTR 0x6
00000511 ff4f                 MOVAR 0x30
00000512 e34f                 BCR 0x30, 0x1
00000513 fecf                 MOVR 0x30, 0x0
00000514 fff9                 IOST 0x6
00000515 e779                 BSR 0x6, 0x1
00000516 e3fa                 BCR 0x5, 0x0
00000517 de9b                 MOVIA 0x64
00000518 d3f8                 LCALL 0x407; _delay=0x407
00000519 d28f                 LCALL 0x570; _LedInput=0x570
0000051a ffef                 RET
0000051b                      _LED5ON:
0000051b ffea                 IOSTR 0x5
0000051c e0fc                 BCR 0x3, 0x6
0000051d ff50                 MOVAR 0x2f
0000051e e3d0                 BCR 0x2f, 0x0
0000051f fed0                 MOVR 0x2f, 0x0
00000520 fffa                 IOST 0x5
00000521 ffe9                 IOSTR 0x6
00000522 ff50                 MOVAR 0x2f
00000523 e350                 BCR 0x2f, 0x1
00000524 fed0                 MOVR 0x2f, 0x0
00000525 fff9                 IOST 0x6
00000526 e7fa                 BSR 0x5, 0x0
00000527 e379                 BCR 0x6, 0x1
00000528 de9b                 MOVIA 0x64
00000529 d3f8                 LCALL 0x407; _delay=0x407
0000052a d28f                 LCALL 0x570; _LedInput=0x570
0000052b ffef                 RET
0000052c                      _LED4ON:
0000052c ffe9                 IOSTR 0x6
0000052d e0fc                 BCR 0x3, 0x6
0000052e ff51                 MOVAR 0x2e
0000052f e3d1                 BCR 0x2e, 0x0
00000530 fed1                 MOVR 0x2e, 0x0
00000531 fff9                 IOST 0x6
00000532 ffea                 IOSTR 0x5
00000533 ff51                 MOVAR 0x2e
00000534 e3d1                 BCR 0x2e, 0x0
00000535 fed1                 MOVR 0x2e, 0x0
00000536 fffa                 IOST 0x5
00000537 e7f9                 BSR 0x6, 0x0
00000538 e3fa                 BCR 0x5, 0x0
00000539 de9b                 MOVIA 0x64
0000053a d3f8                 LCALL 0x407; _delay=0x407
0000053b d28f                 LCALL 0x570; _LedInput=0x570
0000053c ffef                 RET
0000053d                      _LED3ON:
0000053d ffe9                 IOSTR 0x6
0000053e e0fc                 BCR 0x3, 0x6
0000053f ff52                 MOVAR 0x2d
00000540 e3d2                 BCR 0x2d, 0x0
00000541 fed2                 MOVR 0x2d, 0x0
00000542 fff9                 IOST 0x6
00000543 ffe9                 IOSTR 0x6
00000544 ff52                 MOVAR 0x2d
00000545 e352                 BCR 0x2d, 0x1
00000546 fed2                 MOVR 0x2d, 0x0
00000547 fff9                 IOST 0x6
00000548 e779                 BSR 0x6, 0x1
00000549 e3f9                 BCR 0x6, 0x0
0000054a de9b                 MOVIA 0x64
0000054b d3f8                 LCALL 0x407; _delay=0x407
0000054c d28f                 LCALL 0x570; _LedInput=0x570
0000054d ffef                 RET
0000054e                      _LED2ON:
0000054e ffea                 IOSTR 0x5
0000054f e0fc                 BCR 0x3, 0x6
00000550 ff53                 MOVAR 0x2c
00000551 e3d3                 BCR 0x2c, 0x0
00000552 fed3                 MOVR 0x2c, 0x0
00000553 fffa                 IOST 0x5
00000554 ffe9                 IOSTR 0x6
00000555 ff53                 MOVAR 0x2c
00000556 e3d3                 BCR 0x2c, 0x0
00000557 fed3                 MOVR 0x2c, 0x0
00000558 fff9                 IOST 0x6
00000559 e7fa                 BSR 0x5, 0x0
0000055a e3f9                 BCR 0x6, 0x0
0000055b de9b                 MOVIA 0x64
0000055c d3f8                 LCALL 0x407; _delay=0x407
0000055d d28f                 LCALL 0x570; _LedInput=0x570
0000055e ffef                 RET
0000055f                      _LED1ON:
0000055f ffe9                 IOSTR 0x6
00000560 e0fc                 BCR 0x3, 0x6
00000561 ff54                 MOVAR 0x2b
00000562 e3d4                 BCR 0x2b, 0x0
00000563 fed4                 MOVR 0x2b, 0x0
00000564 fff9                 IOST 0x6
00000565 ffe9                 IOSTR 0x6
00000566 ff54                 MOVAR 0x2b
00000567 e354                 BCR 0x2b, 0x1
00000568 fed4                 MOVR 0x2b, 0x0
00000569 fff9                 IOST 0x6
0000056a e7f9                 BSR 0x6, 0x0
0000056b e379                 BCR 0x6, 0x1
0000056c de9b                 MOVIA 0x64
0000056d d3f8                 LCALL 0x407; _delay=0x407
0000056e d28f                 LCALL 0x570; _LedInput=0x570
0000056f ffef                 RET
00000570                      _LedInput:
00000570 ffea                 IOSTR 0x5
00000571 e0fc                 BCR 0x3, 0x6
00000572 ff55                 MOVAR 0x2a
00000573 e7d5                 BSR 0x2a, 0x0
00000574 fed5                 MOVR 0x2a, 0x0
00000575 fffa                 IOST 0x5
00000576 ffe9                 IOSTR 0x6
00000577 ff55                 MOVAR 0x2a
00000578 defc                 MOVIA 0x3
00000579 ee55                 IORAR 0x2a, 0x1
0000057a fed5                 MOVR 0x2a, 0x0
0000057b fff9                 IOST 0x6
0000057c e3fa                 BCR 0x5, 0x0
0000057d de03                 MOVIA 0xfc
0000057e ef79                 ANDAR 0x6, 0x1
0000057f ffef                 RET
00000580                      _ledShow:
00000580 e0fc                 BCR 0x3, 0x6
00000581 fe83                 MOVR 0x7c, 0x0
00000582 f2fc                 BTRSC 0x3, 0x2
00000583 c271                 LGOTO 0x58e; main.o:_00344_DS_=0x58e
00000584 fea0                 MOVR 0x5f, 0x0
00000585 f6fc                 BTRSS 0x3, 0x2
00000586 c271                 LGOTO 0x58e; main.o:_00344_DS_=0x58e
00000587 f383                 BTRSC 0x7c, 0x0
00000588 c274                 LGOTO 0x58b; main.o:_00341_DS_=0x58b
00000589 fd1f                 CLRR 0x60
0000058a c271                 LGOTO 0x58e; main.o:_00344_DS_=0x58e
0000058b                      main.o:_00341_DS_:
0000058b e0fc                 BCR 0x3, 0x6
0000058c fe86                 MOVR 0x79, 0x0
0000058d ff1f                 MOVAR 0x60
0000058e                      main.o:_00344_DS_:
0000058e e0fc                 BCR 0x3, 0x6
0000058f fe8e                 MOVR 0x71, 0x0
00000590 f2fc                 BTRSC 0x3, 0x2
00000591 c25d                 LGOTO 0x5a2; main.o:_00352_DS_=0x5a2
00000592 fe99                 MOVR 0x66, 0x0
00000593 f2fc                 BTRSC 0x3, 0x2
00000594 c25d                 LGOTO 0x5a2; main.o:_00352_DS_=0x5a2
00000595 fe8e                 MOVR 0x71, 0x0
00000596 f2fc                 BTRSC 0x3, 0x2
00000597 c25d                 LGOTO 0x5a2; main.o:_00352_DS_=0x5a2
00000598 def8                 MOVIA 0x7
00000599 fb99                 SUBAR 0x66, 0x0
0000059a f7fc                 BTRSS 0x3, 0x0
0000059b c260                 LGOTO 0x59f; main.o:_00347_DS_=0x59f
0000059c def9                 MOVIA 0x6
0000059d ff1f                 MOVAR 0x60
0000059e c25d                 LGOTO 0x5a2; main.o:_00352_DS_=0x5a2
0000059f                      main.o:_00347_DS_:
0000059f e0fc                 BCR 0x3, 0x6
000005a0 fe99                 MOVR 0x66, 0x0
000005a1 ff1f                 MOVAR 0x60
000005a2                      main.o:_00352_DS_:
000005a2 e0fc                 BCR 0x3, 0x6
000005a3 fe8b                 MOVR 0x74, 0x0
000005a4 f2fc                 BTRSC 0x3, 0x2
000005a5 c24a                 LGOTO 0x5b5; main.o:_00358_DS_=0x5b5
000005a6 fea0                 MOVR 0x5f, 0x0
000005a7 f2fc                 BTRSC 0x3, 0x2
000005a8 c24a                 LGOTO 0x5b5; main.o:_00358_DS_=0x5b5
000005a9 fe99                 MOVR 0x66, 0x0
000005aa f6fc                 BTRSS 0x3, 0x2
000005ab c24a                 LGOTO 0x5b5; main.o:_00358_DS_=0x5b5
000005ac decd                 MOVIA 0x32
000005ad fb93                 SUBAR 0x6c, 0x0
000005ae f3fc                 BTRSC 0x3, 0x0
000005af c24c                 LGOTO 0x5b3; main.o:_00355_DS_=0x5b3
000005b0 fea0                 MOVR 0x5f, 0x0
000005b1 ff1f                 MOVAR 0x60
000005b2 c24a                 LGOTO 0x5b5; main.o:_00358_DS_=0x5b5
000005b3                      main.o:_00355_DS_:
000005b3 e0fc                 BCR 0x3, 0x6
000005b4 fd1f                 CLRR 0x60
000005b5                      main.o:_00358_DS_:
000005b5 d28f                 LCALL 0x570; _LedInput=0x570
000005b6 def8                 MOVIA 0x7
000005b7 e0fc                 BCR 0x3, 0x6
000005b8 fb9f                 SUBAR 0x60, 0x0
000005b9 f3fc                 BTRSC 0x3, 0x0
000005ba c22e                 LGOTO 0x5d1; main.o:_00369_DS_=0x5d1
000005bb defa                 MOVIA 0x5
000005bc ff75                 MOVAR 0xa
000005bd fe9f                 MOVR 0x60, 0x0
000005be da3d                 ADDIA 0xc2
000005bf f3fc                 BTRSC 0x3, 0x0
000005c0 fa75                 INCR 0xa, 0x1
000005c1 ff7d                 MOVAR 0x2
000005c2                      main.o:_00410_DS_:
000005c2 c236                 LGOTO 0x5c9; main.o:_00361_DS_=0x5c9
000005c3 c22f                 LGOTO 0x5d0; main.o:_00367_DS_=0x5d0
000005c4 c230                 LGOTO 0x5cf; main.o:_00366_DS_=0x5cf
000005c5 c231                 LGOTO 0x5ce; main.o:_00365_DS_=0x5ce
000005c6 c232                 LGOTO 0x5cd; main.o:_00364_DS_=0x5cd
000005c7 c233                 LGOTO 0x5cc; main.o:_00363_DS_=0x5cc
000005c8 c234                 LGOTO 0x5cb; main.o:_00362_DS_=0x5cb
000005c9                      main.o:_00361_DS_:
000005c9 d28f                 LCALL 0x570; _LedInput=0x570
000005ca c22e                 LGOTO 0x5d1; main.o:_00369_DS_=0x5d1
000005cb                      main.o:_00362_DS_:
000005cb d2f5                 LCALL 0x50a; _LED6ON=0x50a
000005cc                      main.o:_00363_DS_:
000005cc d2e4                 LCALL 0x51b; _LED5ON=0x51b
000005cd                      main.o:_00364_DS_:
000005cd d2d3                 LCALL 0x52c; _LED4ON=0x52c
000005ce                      main.o:_00365_DS_:
000005ce d2c2                 LCALL 0x53d; _LED3ON=0x53d
000005cf                      main.o:_00366_DS_:
000005cf d2b1                 LCALL 0x54e; _LED2ON=0x54e
000005d0                      main.o:_00367_DS_:
000005d0 d2a0                 LCALL 0x55f; _LED1ON=0x55f
000005d1                      main.o:_00369_DS_:
000005d1 ffef                 RET
000005d2                      _initSys:
000005d2 ffec                 DISI
000005d3 de41                 MOVIA 0xbe
000005d4 fffa                 IOST 0x5
000005d5 fdff                 CLRA
000005d6 fff9                 IOST 0x6
000005d7 fd79                 CLRR 0x6
000005d8 e0fc                 BCR 0x3, 0x6
000005d9 fd7a                 CLRR 0x5
000005da d28f                 LCALL 0x570; _LedInput=0x570
000005db de80                 MOVIA 0x7f
000005dc fff6                 IOST 0x9
000005dd de00                 MOVIA 0xff
000005de ff73                 MOVAR 0xc
000005df ff74                 MOVAR 0xb
000005e0 defe                 MOVIA 0x1
000005e1 ff71                 MOVAR 0xe
000005e2 fdff                 CLRA
000005e3 fff0                 IOST 0xf
000005e4 dec8                 MOVIA 0x37
000005e5 ff7e                 MOVAR 0x1
000005e6 defe                 MOVIA 0x1
000005e7 fffc                 T0MD
000005e8 fff0                 IOST 0xf
000005e9 de67                 MOVIA 0x98
000005ea ff77                 MOVAR 0x8
000005eb defe                 MOVIA 0x1
000005ec fff0                 IOST 0xf
000005ed fffb                 ENI
000005ee ffef                 RET
000005ef                      _powerOff:
000005ef e0fc                 BCR 0x3, 0x6
000005f0 fd20                 CLRR 0x5f
000005f1 d315                 LCALL 0x4ea; _pwmStop=0x4ea
000005f2 ffef                 RET
000005f3                      _keyCtr:
000005f3 e0fc                 BCR 0x3, 0x6
000005f4 f8fa                 COMR 0x5, 0x0
000005f5 ff56                 MOVAR 0x29
000005f6 de7f                 MOVIA 0x80
000005f7 ef56                 ANDAR 0x29, 0x1
000005f8 fed6                 MOVR 0x29, 0x0
000005f9 d367                 LCALL 0x498; _keyRead=0x498
000005fa e0fc                 BCR 0x3, 0x6
000005fb ff56                 MOVAR 0x29
000005fc dbfe                 XORIA 0x1
000005fd f6fc                 BTRSS 0x3, 0x2
000005fe c1ae                 LGOTO 0x651; main.o:_00325_DS_=0x651
000005ff fd22                 CLRR 0x5d
00000600 fd0e                 CLRR 0x71
00000601 fea0                 MOVR 0x5f, 0x0
00000602 f6fc                 BTRSS 0x3, 0x2
00000603 c1f7                 LGOTO 0x608; main.o:_00291_DS_=0x608
00000604 fd13                 CLRR 0x6c
00000605 defc                 MOVIA 0x3
00000606 ff0e                 MOVAR 0x71
00000607 c18a                 LGOTO 0x675; main.o:_00327_DS_=0x675
00000608                      main.o:_00291_DS_:
00000608 e0fc                 BCR 0x3, 0x6
00000609 fd10                 CLRR 0x6f
0000060a fa20                 INCR 0x5f, 0x1
0000060b def8                 MOVIA 0x7
0000060c fba0                 SUBAR 0x5f, 0x0
0000060d f7fc                 BTRSS 0x3, 0x0
0000060e c1ee                 LGOTO 0x611; main.o:_00293_DS_=0x611
0000060f defe                 MOVIA 0x1
00000610 ff20                 MOVAR 0x5f
00000611                      main.o:_00293_DS_:
00000611 e0fc                 BCR 0x3, 0x6
00000612 fe99                 MOVR 0x66, 0x0
00000613 f6fc                 BTRSS 0x3, 0x2
00000614 c1e8                 LGOTO 0x617; main.o:_00295_DS_=0x617
00000615 def5                 MOVIA 0xa
00000616 ff0b                 MOVAR 0x74
00000617                      main.o:_00295_DS_:
00000617 e0fc                 BCR 0x3, 0x6
00000618 fea0                 MOVR 0x5f, 0x0
00000619 dbfe                 XORIA 0x1
0000061a f6fc                 BTRSS 0x3, 0x2
0000061b c1e0                 LGOTO 0x61f; main.o:_00311_DS_=0x61f
0000061c ded7                 MOVIA 0x28
0000061d ff1a                 MOVAR 0x65
0000061e c1b9                 LGOTO 0x646; main.o:_00312_DS_=0x646
0000061f                      main.o:_00311_DS_:
0000061f e0fc                 BCR 0x3, 0x6
00000620 fea0                 MOVR 0x5f, 0x0
00000621 dbfd                 XORIA 0x2
00000622 f6fc                 BTRSS 0x3, 0x2
00000623 c1d8                 LGOTO 0x627; main.o:_00308_DS_=0x627
00000624 ded5                 MOVIA 0x2a
00000625 ff1a                 MOVAR 0x65
00000626 c1b9                 LGOTO 0x646; main.o:_00312_DS_=0x646
00000627                      main.o:_00308_DS_:
00000627 e0fc                 BCR 0x3, 0x6
00000628 fea0                 MOVR 0x5f, 0x0
00000629 dbfc                 XORIA 0x3
0000062a f6fc                 BTRSS 0x3, 0x2
0000062b c1d0                 LGOTO 0x62f; main.o:_00305_DS_=0x62f
0000062c ded3                 MOVIA 0x2c
0000062d ff1a                 MOVAR 0x65
0000062e c1b9                 LGOTO 0x646; main.o:_00312_DS_=0x646
0000062f                      main.o:_00305_DS_:
0000062f e0fc                 BCR 0x3, 0x6
00000630 fea0                 MOVR 0x5f, 0x0
00000631 dbfb                 XORIA 0x4
00000632 f6fc                 BTRSS 0x3, 0x2
00000633 c1c8                 LGOTO 0x637; main.o:_00302_DS_=0x637
00000634 ded1                 MOVIA 0x2e
00000635 ff1a                 MOVAR 0x65
00000636 c1b9                 LGOTO 0x646; main.o:_00312_DS_=0x646
00000637                      main.o:_00302_DS_:
00000637 e0fc                 BCR 0x3, 0x6
00000638 fea0                 MOVR 0x5f, 0x0
00000639 dbfa                 XORIA 0x5
0000063a f6fc                 BTRSS 0x3, 0x2
0000063b c1c0                 LGOTO 0x63f; main.o:_00299_DS_=0x63f
0000063c decf                 MOVIA 0x30
0000063d ff1a                 MOVAR 0x65
0000063e c1b9                 LGOTO 0x646; main.o:_00312_DS_=0x646
0000063f                      main.o:_00299_DS_:
0000063f e0fc                 BCR 0x3, 0x6
00000640 fea0                 MOVR 0x5f, 0x0
00000641 dbf9                 XORIA 0x6
00000642 f6fc                 BTRSS 0x3, 0x2
00000643 c1b9                 LGOTO 0x646; main.o:_00312_DS_=0x646
00000644 decd                 MOVIA 0x32
00000645 ff1a                 MOVAR 0x65
00000646                      main.o:_00312_DS_:
00000646 e0fc                 BCR 0x3, 0x6
00000647 fea0                 MOVR 0x5f, 0x0
00000648 f2fc                 BTRSC 0x3, 0x2
00000649 c1b2                 LGOTO 0x64d; main.o:_00314_DS_=0x64d
0000064a fe9a                 MOVR 0x65, 0x0
0000064b ffb3                 SFUN 0xc
0000064c d312                 LCALL 0x4ed; _pwmInit=0x4ed
0000064d                      main.o:_00314_DS_:
0000064d e0fc                 BCR 0x3, 0x6
0000064e fea0                 MOVR 0x5f, 0x0
0000064f ff1f                 MOVAR 0x60
00000650 c18a                 LGOTO 0x675; main.o:_00327_DS_=0x675
00000651                      main.o:_00325_DS_:
00000651 e0fc                 BCR 0x3, 0x6
00000652 fed6                 MOVR 0x29, 0x0
00000653 dbfd                 XORIA 0x2
00000654 f6fc                 BTRSS 0x3, 0x2
00000655 c18a                 LGOTO 0x675; main.o:_00327_DS_=0x675
00000656 fea0                 MOVR 0x5f, 0x0
00000657 f2fc                 BTRSC 0x3, 0x2
00000658 c1a4                 LGOTO 0x65b; main.o:_00320_DS_=0x65b
00000659 d210                 LCALL 0x5ef; _powerOff=0x5ef
0000065a c18d                 LGOTO 0x672; main.o:_00321_DS_=0x672
0000065b                      main.o:_00320_DS_:
0000065b e0fc                 BCR 0x3, 0x6
0000065c fe99                 MOVR 0x66, 0x0
0000065d dbf5                 XORIA 0xa
0000065e f6fc                 BTRSS 0x3, 0x2
0000065f c19c                 LGOTO 0x663; main.o:_00316_DS_=0x663
00000660 fd16                 CLRR 0x69
00000661 fd15                 CLRR 0x6a
00000662 c18a                 LGOTO 0x675; main.o:_00327_DS_=0x675
00000663                      main.o:_00316_DS_:
00000663 defe                 MOVIA 0x1
00000664 e0fc                 BCR 0x3, 0x6
00000665 ff20                 MOVAR 0x5f
00000666 deb9                 MOVIA 0x46
00000667 ffb3                 SFUN 0xc
00000668 ff0d                 MOVAR 0x72
00000669 ded7                 MOVIA 0x28
0000066a ff1a                 MOVAR 0x65
0000066b d312                 LCALL 0x4ed; _pwmInit=0x4ed
0000066c e0fc                 BCR 0x3, 0x6
0000066d fe99                 MOVR 0x66, 0x0
0000066e f6fc                 BTRSS 0x3, 0x2
0000066f c18d                 LGOTO 0x672; main.o:_00321_DS_=0x672
00000670 def5                 MOVIA 0xa
00000671 ff0b                 MOVAR 0x74
00000672                      main.o:_00321_DS_:
00000672 e0fc                 BCR 0x3, 0x6
00000673 fea0                 MOVR 0x5f, 0x0
00000674 ff1f                 MOVAR 0x60
00000675                      main.o:_00327_DS_:
00000675 ffef                 RET
00000676                      __mulchar:
00000676 e0fc                 BCR 0x3, 0x6
00000677 ff2c                 MOVAR 0x53
00000678 feba                 MOVR 0x45, 0x0
00000679 ff2b                 MOVAR 0x54
0000067a fd2a                 CLRR 0x55
0000067b def7                 MOVIA 0x8
0000067c ff29                 MOVAR 0x56
0000067d                      _mulchar.o:_00119_DS_:
0000067d e0fc                 BCR 0x3, 0x6
0000067e f7ac                 BTRSS 0x53, 0x0
0000067f c17d                 LGOTO 0x682; _mulchar.o:_00114_DS_=0x682
00000680 feab                 MOVR 0x54, 0x0
00000681 fc2a                 ADDAR 0x55, 0x1
00000682                      _mulchar.o:_00114_DS_:
00000682 e3fc                 BCR 0x3, 0x0
00000683 e0fc                 BCR 0x3, 0x6
00000684 ec2c                 RRR 0x53, 0x1
00000685 e3fc                 BCR 0x3, 0x0
00000686 eb2b                 RLR 0x54, 0x1
00000687 f9a9                 DECR 0x56, 0x0
00000688 ff28                 MOVAR 0x57
00000689 ff29                 MOVAR 0x56
0000068a fea8                 MOVR 0x57, 0x0
0000068b f6fc                 BTRSS 0x3, 0x2
0000068c c182                 LGOTO 0x67d; _mulchar.o:_00119_DS_=0x67d
0000068d feaa                 MOVR 0x55, 0x0
0000068e ffef                 RET
0000068f                      ___cinit_load__:
