00000000 c7fe                 LGOTO 0x1; __nyc_ny8_startup=0x1
00000001                      __nyc_ny8_startup:
00000001 d216                 LCALL 0x5e9; ___cinit_load__=0x5e9
00000002 c793                 LGOTO 0x6c; _main=0x6c
00000003                      main.o:_00879_DS_:
00000003 f56f                 BTRSS 0x10, 0x5
00000004 c7fc                 LGOTO 0x3; main.o:_00879_DS_=0x3
00000005 ffef                 RET
00000008 c7f6                 LGOTO 0x9; main.o:__sdcc_interrupt=0x9
00000009                      main.o:__sdcc_interrupt:
00000009 ff3d                 MOVAR 0x42
0000000a eafc                 SWAPR 0x3, 0x0
0000000b fd7c                 CLRR 0x3
0000000c ff3e                 MOVAR 0x41
0000000d fef5                 MOVR 0xa, 0x0
0000000e fd75                 CLRR 0xa
0000000f ff3f                 MOVAR 0x40
00000010 fefb                 MOVR 0x4, 0x0
00000011 e0fc                 BCR 0x3, 0x6
00000012 ff34                 MOVAR 0x4b
00000013 feb8                 MOVR 0x47, 0x0
00000014 ff33                 MOVAR 0x4c
00000015 feb9                 MOVR 0x46, 0x0
00000016 ff32                 MOVAR 0x4d
00000017 f7f0                 BTRSS 0xf, 0x0
00000018 c7a7                 LGOTO 0x58; main.o:_00128_DS_=0x58
00000019 dec8                 MOVIA 0x37
0000001a fc7e                 ADDAR 0x1, 0x1
0000001b fa30                 INCR 0x4f, 0x1
0000001c de9b                 MOVIA 0x64
0000001d fbb0                 SUBAR 0x4f, 0x0
0000001e f7fc                 BTRSS 0x3, 0x0
0000001f c7a7                 LGOTO 0x58; main.o:_00128_DS_=0x58
00000020 e7b1                 BSR 0x4e, 0x0
00000021 fd30                 CLRR 0x4f
00000022 fead                 MOVR 0x52, 0x0
00000023 f2fc                 BTRSC 0x3, 0x2
00000024 c7d7                 LGOTO 0x28; main.o:_00106_DS_=0x28
00000025 fa2b                 INCR 0x54, 0x1
00000026 f2fc                 BTRSC 0x3, 0x2
00000027 fa2a                 INCR 0x55, 0x1
00000028                      main.o:_00106_DS_:
00000028 e0fc                 BCR 0x3, 0x6
00000029 fa2f                 INCR 0x50, 0x1
0000002a ded7                 MOVIA 0x28
0000002b fbaf                 SUBAR 0x50, 0x0
0000002c f3fc                 BTRSC 0x3, 0x0
0000002d fd2f                 CLRR 0x50
0000002e fa21                 INCR 0x5e, 0x1
0000002f deeb                 MOVIA 0x14
00000030 fba1                 SUBAR 0x5e, 0x0
00000031 f7fc                 BTRSS 0x3, 0x0
00000032 c7c8                 LGOTO 0x37; main.o:_00112_DS_=0x37
00000033 fd21                 CLRR 0x5e
00000034 fe8f                 MOVR 0x70, 0x0
00000035 f6fc                 BTRSS 0x3, 0x2
00000036 f90f                 DECR 0x70, 0x1
00000037                      main.o:_00112_DS_:
00000037 e0fc                 BCR 0x3, 0x6
00000038 fa20                 INCR 0x5f, 0x1
00000039 de9b                 MOVIA 0x64
0000003a fba0                 SUBAR 0x5f, 0x0
0000003b f7fc                 BTRSS 0x3, 0x0
0000003c c7a7                 LGOTO 0x58; main.o:_00128_DS_=0x58
0000003d fd20                 CLRR 0x5f
0000003e f631                 BTRSS 0x4e, 0x3
0000003f c7b8                 LGOTO 0x47; main.o:_00114_DS_=0x47
00000040 fea6                 MOVR 0x59, 0x0
00000041 dbf9                 XORIA 0x6
00000042 f6fc                 BTRSS 0x3, 0x2
00000043 c7b8                 LGOTO 0x47; main.o:_00114_DS_=0x47
00000044 fa25                 INCR 0x5a, 0x1
00000045 f2fc                 BTRSC 0x3, 0x2
00000046 fa24                 INCR 0x5b, 0x1
00000047                      main.o:_00114_DS_:
00000047 e0fc                 BCR 0x3, 0x6
00000048 fe9b                 MOVR 0x64, 0x0
00000049 f6fc                 BTRSS 0x3, 0x2
0000004a f91b                 DECR 0x64, 0x1
0000004b fe97                 MOVR 0x68, 0x0
0000004c f6fc                 BTRSS 0x3, 0x2
0000004d f917                 DECR 0x68, 0x1
0000004e fead                 MOVR 0x52, 0x0
0000004f f2fc                 BTRSC 0x3, 0x2
00000050 c7aa                 LGOTO 0x55; main.o:_00121_DS_=0x55
00000051 fa1f                 INCR 0x60, 0x1
00000052 f2fc                 BTRSC 0x3, 0x2
00000053 fa1e                 INCR 0x61, 0x1
00000054 c7a7                 LGOTO 0x58; main.o:_00128_DS_=0x58
00000055                      main.o:_00121_DS_:
00000055 e0fc                 BCR 0x3, 0x6
00000056 fd1f                 CLRR 0x60
00000057 fd1e                 CLRR 0x61
00000058                      main.o:_00128_DS_:
00000058 f770                 BTRSS 0xf, 0x1
00000059 c7a3                 LGOTO 0x5c; main.o:_00130_DS_=0x5c
0000005a de02                 MOVIA 0xfd
0000005b ff70                 MOVAR 0xf
0000005c                      main.o:_00130_DS_:
0000005c fd70                 CLRR 0xf
0000005d e0fc                 BCR 0x3, 0x6
0000005e feb2                 MOVR 0x4d, 0x0
0000005f ff39                 MOVAR 0x46
00000060 feb3                 MOVR 0x4c, 0x0
00000061 ff38                 MOVAR 0x47
00000062 feb4                 MOVR 0x4b, 0x0
00000063 ff7b                 MOVAR 0x4
00000064 febf                 MOVR 0x40, 0x0
00000065 ff75                 MOVAR 0xa
00000066 fd7c                 CLRR 0x3
00000067 eabe                 SWAPR 0x41, 0x0
00000068 ff7c                 MOVAR 0x3
00000069 ea3d                 SWAPR 0x42, 0x1
0000006a eabd                 SWAPR 0x42, 0x0
0000006b                      main.o:END_OF_INTERRUPT:
0000006b ffee                 RETIE
0000006c                      _main:
0000006c d2b9                 LCALL 0x546; _initSys=0x546
0000006d d4c3                 LCALL 0x33c; _initAD=0x33c
0000006e                      main.o:_00180_DS_:
0000006e fffd                 CLRWDT
0000006f d30d                 LCALL 0x4f2; _ledShow=0x4f2
00000070 e0fc                 BCR 0x3, 0x6
00000071 fead                 MOVR 0x52, 0x0
00000072 f2fc                 BTRSC 0x3, 0x2
00000073 c777                 LGOTO 0x88; main.o:_00141_DS_=0x88
00000074 deb2                 MOVIA 0x4d
00000075 fb95                 SUBAR 0x6a, 0x0
00000076 f7fc                 BTRSS 0x3, 0x0
00000077 c777                 LGOTO 0x88; main.o:_00141_DS_=0x88
00000078 fe93                 MOVR 0x6c, 0x0
00000079 fb95                 SUBAR 0x6a, 0x0
0000007a f3fc                 BTRSC 0x3, 0x0
0000007b c77f                 LGOTO 0x80; main.o:_00138_DS_=0x80
0000007c f913                 DECR 0x6c, 0x1
0000007d fe93                 MOVR 0x6c, 0x0
0000007e ffb3                 SFUN 0xc
0000007f c777                 LGOTO 0x88; main.o:_00141_DS_=0x88
00000080                      main.o:_00138_DS_:
00000080 e0fc                 BCR 0x3, 0x6
00000081 fe95                 MOVR 0x6a, 0x0
00000082 fb93                 SUBAR 0x6c, 0x0
00000083 f3fc                 BTRSC 0x3, 0x0
00000084 c777                 LGOTO 0x88; main.o:_00141_DS_=0x88
00000085 fa13                 INCR 0x6c, 0x1
00000086 fe93                 MOVR 0x6c, 0x0
00000087 ffb3                 SFUN 0xc
00000088                      main.o:_00141_DS_:
00000088 e0fc                 BCR 0x3, 0x6
00000089 fead                 MOVR 0x52, 0x0
0000008a f2fc                 BTRSC 0x3, 0x2
0000008b c76a                 LGOTO 0x95; main.o:_00144_DS_=0x95
0000008c fe9a                 MOVR 0x65, 0x0
0000008d fba7                 SUBAR 0x58, 0x0
0000008e f3fc                 BTRSC 0x3, 0x0
0000008f c76a                 LGOTO 0x95; main.o:_00144_DS_=0x95
00000090 f91a                 DECR 0x65, 0x1
00000091 fe9a                 MOVR 0x65, 0x0
00000092 ffb3                 SFUN 0xc
00000093 fe9a                 MOVR 0x65, 0x0
00000094 ff13                 MOVAR 0x6c
00000095                      main.o:_00144_DS_:
00000095 e0fc                 BCR 0x3, 0x6
00000096 f7b1                 BTRSS 0x4e, 0x0
00000097 c791                 LGOTO 0x6e; main.o:_00180_DS_=0x6e
00000098 e3b1                 BCR 0x4e, 0x0
00000099 fe97                 MOVR 0x68, 0x0
0000009a f6fc                 BTRSS 0x3, 0x2
0000009b c74b                 LGOTO 0xb4; main.o:_00151_DS_=0xb4
0000009c fea6                 MOVR 0x59, 0x0
0000009d f6fc                 BTRSS 0x3, 0x2
0000009e c74b                 LGOTO 0xb4; main.o:_00151_DS_=0xb4
0000009f fead                 MOVR 0x52, 0x0
000000a0 f2fc                 BTRSC 0x3, 0x2
000000a1 c74b                 LGOTO 0xb4; main.o:_00151_DS_=0xb4
000000a2 fa0d                 INCR 0x72, 0x1
000000a3 f2fc                 BTRSC 0x3, 0x2
000000a4 fa0c                 INCR 0x73, 0x1
000000a5 dee8                 MOVIA 0x17
000000a6 fb8c                 SUBAR 0x73, 0x0
000000a7 f6fc                 BTRSS 0x3, 0x2
000000a8 c754                 LGOTO 0xab; main.o:_00266_DS_=0xab
000000a9 de8f                 MOVIA 0x70
000000aa fb8d                 SUBAR 0x72, 0x0
000000ab                      main.o:_00266_DS_:
000000ab f7fc                 BTRSS 0x3, 0x0
000000ac c748                 LGOTO 0xb7; main.o:_00152_DS_=0xb7
000000ad e0fc                 BCR 0x3, 0x6
000000ae fd0d                 CLRR 0x72
000000af fd0c                 CLRR 0x73
000000b0 fd2d                 CLRR 0x52
000000b1 fd2c                 CLRR 0x53
000000b2 d3a3                 LCALL 0x45c; _pwmStop=0x45c
000000b3 c748                 LGOTO 0xb7; main.o:_00152_DS_=0xb7
000000b4                      main.o:_00151_DS_:
000000b4 e0fc                 BCR 0x3, 0x6
000000b5 fd0d                 CLRR 0x72
000000b6 fd0c                 CLRR 0x73
000000b7                      main.o:_00152_DS_:
000000b7 defa                 MOVIA 0x5
000000b8 e0fc                 BCR 0x3, 0x6
000000b9 fb9c                 SUBAR 0x63, 0x0
000000ba f7fc                 BTRSS 0x3, 0x0
000000bb c72d                 LGOTO 0xd2; main.o:_00158_DS_=0xd2
000000bc fead                 MOVR 0x52, 0x0
000000bd f2fc                 BTRSC 0x3, 0x2
000000be c72d                 LGOTO 0xd2; main.o:_00158_DS_=0xd2
000000bf fa11                 INCR 0x6e, 0x1
000000c0 f2fc                 BTRSC 0x3, 0x2
000000c1 fa10                 INCR 0x6f, 0x1
000000c2 defe                 MOVIA 0x1
000000c3 fb90                 SUBAR 0x6f, 0x0
000000c4 f6fc                 BTRSS 0x3, 0x2
000000c5 c737                 LGOTO 0xc8; main.o:_00268_DS_=0xc8
000000c6 de0a                 MOVIA 0xf5
000000c7 fb91                 SUBAR 0x6e, 0x0
000000c8                      main.o:_00268_DS_:
000000c8 f7fc                 BTRSS 0x3, 0x0
000000c9 c72a                 LGOTO 0xd5; main.o:_00159_DS_=0xd5
000000ca e0fc                 BCR 0x3, 0x6
000000cb fd1c                 CLRR 0x63
000000cc fd11                 CLRR 0x6e
000000cd fd10                 CLRR 0x6f
000000ce dee6                 MOVIA 0x19
000000cf ff0f                 MOVAR 0x70
000000d0 d29c                 LCALL 0x563; _powerOff=0x563
000000d1 c72a                 LGOTO 0xd5; main.o:_00159_DS_=0xd5
000000d2                      main.o:_00158_DS_:
000000d2 e0fc                 BCR 0x3, 0x6
000000d3 fd11                 CLRR 0x6e
000000d4 fd10                 CLRR 0x6f
000000d5                      main.o:_00159_DS_:
000000d5 e0fc                 BCR 0x3, 0x6
000000d6 f631                 BTRSS 0x4e, 0x3
000000d7 d297                 LCALL 0x568; _keyCtr=0x568
000000d8                      main.o:_00162_DS_:
000000d8 def4                 MOVIA 0xb
000000d9 e0fc                 BCR 0x3, 0x6
000000da fba1                 SUBAR 0x5e, 0x0
000000db f3fc                 BTRSC 0x3, 0x0
000000dc c720                 LGOTO 0xdf; main.o:_00167_DS_=0xdf
000000dd d679                 LCALL 0x186; _checkBatAD=0x186
000000de c717                 LGOTO 0xe8; main.o:_00168_DS_=0xe8
000000df                      main.o:_00167_DS_:
000000df def1                 MOVIA 0xe
000000e0 e0fc                 BCR 0x3, 0x6
000000e1 fba1                 SUBAR 0x5e, 0x0
000000e2 f7fc                 BTRSS 0x3, 0x0
000000e3 c717                 LGOTO 0xe8; main.o:_00168_DS_=0xe8
000000e4 deef                 MOVIA 0x10
000000e5 fba1                 SUBAR 0x5e, 0x0
000000e6 f7fc                 BTRSS 0x3, 0x0
000000e7 d6a1                 LCALL 0x15e; _checkChrgV=0x15e
000000e8                      main.o:_00168_DS_:
000000e8 d4ac                 LCALL 0x353; _chrgCtr=0x353
000000e9 e0fc                 BCR 0x3, 0x6
000000ea fead                 MOVR 0x52, 0x0
000000eb f6fc                 BTRSS 0x3, 0x2
000000ec c6fb                 LGOTO 0x104; main.o:_00172_DS_=0x104
000000ed feae                 MOVR 0x51, 0x0
000000ee f6fc                 BTRSS 0x3, 0x2
000000ef c6fb                 LGOTO 0x104; main.o:_00172_DS_=0x104
000000f0 f27a                 BTRSC 0x5, 0x3
000000f1 c6fb                 LGOTO 0x104; main.o:_00172_DS_=0x104
000000f2 fe9b                 MOVR 0x64, 0x0
000000f3 f6fc                 BTRSS 0x3, 0x2
000000f4 c6fb                 LGOTO 0x104; main.o:_00172_DS_=0x104
000000f5 fe8f                 MOVR 0x70, 0x0
000000f6 f6fc                 BTRSS 0x3, 0x2
000000f7 c6fb                 LGOTO 0x104; main.o:_00172_DS_=0x104
000000f8 fa23                 INCR 0x5c, 0x1
000000f9 f2fc                 BTRSC 0x3, 0x2
000000fa fa22                 INCR 0x5d, 0x1
000000fb deff                 MOVIA 0x0
000000fc fba2                 SUBAR 0x5d, 0x0
000000fd f6fc                 BTRSS 0x3, 0x2
000000fe c6fe                 LGOTO 0x101; main.o:_00272_DS_=0x101
000000ff deea                 MOVIA 0x15
00000100 fba3                 SUBAR 0x5c, 0x0
00000101                      main.o:_00272_DS_:
00000101 f7fc                 BTRSS 0x3, 0x0
00000102 c6fb                 LGOTO 0x104; main.o:_00172_DS_=0x104
00000103 d3d2                 LCALL 0x42d; _gotoSleep=0x42d
00000104                      main.o:_00172_DS_:
00000104 defc                 MOVIA 0x3
00000105 e0fc                 BCR 0x3, 0x6
00000106 fb9e                 SUBAR 0x61, 0x0
00000107 f6fc                 BTRSS 0x3, 0x2
00000108 c6f4                 LGOTO 0x10b; main.o:_00273_DS_=0x10b
00000109 de7b                 MOVIA 0x84
0000010a fb9f                 SUBAR 0x60, 0x0
0000010b                      main.o:_00273_DS_:
0000010b f7fc                 BTRSS 0x3, 0x0
0000010c c791                 LGOTO 0x6e; main.o:_00180_DS_=0x6e
0000010d d29c                 LCALL 0x563; _powerOff=0x563
0000010e c791                 LGOTO 0x6e; main.o:_00180_DS_=0x6e
0000010f ffef                 RET
00000110                      _F_AIN2_Convert:
00000110 e0fc                 BCR 0x3, 0x6
00000111 ff40                 MOVAR 0x3f
00000112 fd5a                 CLRR 0x25
00000113 fd5c                 CLRR 0x23
00000114 fd5b                 CLRR 0x24
00000115 de6d                 MOVIA 0x92
00000116 ff6f                 MOVAR 0x10
00000117 de37                 MOVIA 0xc8
00000118 d4b8                 LCALL 0x347; _delay=0x347
00000119 defe                 MOVIA 0x1
0000011a e0fc                 BCR 0x3, 0x6
0000011b ff37                 MOVAR 0x48
0000011c                      main.o:_00872_DS_:
0000011c e0fc                 BCR 0x3, 0x6
0000011d feb7                 MOVR 0x48, 0x0
0000011e fbc0                 SUBAR 0x3f, 0x0
0000011f f7fc                 BTRSS 0x3, 0x0
00000120 c6c9                 LGOTO 0x136; main.o:_00874_DS_=0x136
00000121 e4ef                 BSR 0x10, 0x6
00000122 d7fc                 LCALL 0x3; main.o:_00879_DS_=0x3
00000123 def0                 MOVIA 0xf
00000124 efee                 ANDAR 0x11, 0x0
00000125 e0fc                 BCR 0x3, 0x6
00000126 fc5a                 ADDAR 0x25, 0x1
00000127 feed                 MOVR 0x12, 0x0
00000128 ff36                 MOVAR 0x49
00000129 deff                 MOVIA 0x0
0000012a ff35                 MOVAR 0x4a
0000012b feb6                 MOVR 0x49, 0x0
0000012c fc5c                 ADDAR 0x23, 0x1
0000012d feb5                 MOVR 0x4a, 0x0
0000012e f3fc                 BTRSC 0x3, 0x0
0000012f fab5                 INCR 0x4a, 0x0
00000130 f2fc                 BTRSC 0x3, 0x2
00000131 c6cc                 LGOTO 0x133; main.o:_00001_DS_=0x133
00000132 fc5b                 ADDAR 0x24, 0x1
00000133                      main.o:_00001_DS_:
00000133 e0fc                 BCR 0x3, 0x6
00000134 fa37                 INCR 0x48, 0x1
00000135 c6e3                 LGOTO 0x11c; main.o:_00872_DS_=0x11c
00000136                      main.o:_00874_DS_:
00000136 ffef                 RET
00000137                      _F_AIN3_Convert:
00000137 e0fc                 BCR 0x3, 0x6
00000138 ff44                 MOVAR 0x3b
00000139 fd5d                 CLRR 0x22
0000013a fd5f                 CLRR 0x20
0000013b fd5e                 CLRR 0x21
0000013c de6c                 MOVIA 0x93
0000013d ff6f                 MOVAR 0x10
0000013e de37                 MOVIA 0xc8
0000013f d4b8                 LCALL 0x347; _delay=0x347
00000140 defe                 MOVIA 0x1
00000141 e0fc                 BCR 0x3, 0x6
00000142 ff43                 MOVAR 0x3c
00000143                      main.o:_00863_DS_:
00000143 e0fc                 BCR 0x3, 0x6
00000144 fec3                 MOVR 0x3c, 0x0
00000145 fbc4                 SUBAR 0x3b, 0x0
00000146 f7fc                 BTRSS 0x3, 0x0
00000147 c6a2                 LGOTO 0x15d; main.o:_00865_DS_=0x15d
00000148 e4ef                 BSR 0x10, 0x6
00000149 d7fc                 LCALL 0x3; main.o:_00879_DS_=0x3
0000014a def0                 MOVIA 0xf
0000014b efee                 ANDAR 0x11, 0x0
0000014c e0fc                 BCR 0x3, 0x6
0000014d fc5d                 ADDAR 0x22, 0x1
0000014e feed                 MOVR 0x12, 0x0
0000014f ff42                 MOVAR 0x3d
00000150 deff                 MOVIA 0x0
00000151 ff41                 MOVAR 0x3e
00000152 fec2                 MOVR 0x3d, 0x0
00000153 fc5f                 ADDAR 0x20, 0x1
00000154 fec1                 MOVR 0x3e, 0x0
00000155 f3fc                 BTRSC 0x3, 0x0
00000156 fac1                 INCR 0x3e, 0x0
00000157 f2fc                 BTRSC 0x3, 0x2
00000158 c6a5                 LGOTO 0x15a; main.o:_00002_DS_=0x15a
00000159 fc5e                 ADDAR 0x21, 0x1
0000015a                      main.o:_00002_DS_:
0000015a e0fc                 BCR 0x3, 0x6
0000015b fa43                 INCR 0x3c, 0x1
0000015c c6bc                 LGOTO 0x143; main.o:_00863_DS_=0x143
0000015d                      main.o:_00865_DS_:
0000015d ffef                 RET
0000015e                      _checkChrgV:
0000015e e0fc                 BCR 0x3, 0x6
0000015f fd5d                 CLRR 0x22
00000160 fd5f                 CLRR 0x20
00000161 fd5e                 CLRR 0x21
00000162 def7                 MOVIA 0x8
00000163 d6c8                 LCALL 0x137; _F_AIN3_Convert=0x137
00000164 e0fc                 BCR 0x3, 0x6
00000165 eade                 SWAPR 0x21, 0x0
00000166 dd0f                 ANDIA 0xf0
00000167 ff5e                 MOVAR 0x21
00000168 eadf                 SWAPR 0x20, 0x0
00000169 ff5f                 MOVAR 0x20
0000016a ddf0                 ANDIA 0xf
0000016b ee5e                 IORAR 0x21, 0x1
0000016c ed5f                 XORAR 0x20, 0x1
0000016d de0f                 MOVIA 0xf0
0000016e ef5d                 ANDAR 0x22, 0x1
0000016f fedd                 MOVR 0x22, 0x0
00000170 ff46                 MOVAR 0x39
00000171 deff                 MOVIA 0x0
00000172 ff45                 MOVAR 0x3a
00000173 fec6                 MOVR 0x39, 0x0
00000174 fc5f                 ADDAR 0x20, 0x1
00000175 fec5                 MOVR 0x3a, 0x0
00000176 f3fc                 BTRSC 0x3, 0x0
00000177 fac5                 INCR 0x3a, 0x0
00000178 f2fc                 BTRSC 0x3, 0x2
00000179 c684                 LGOTO 0x17b; main.o:_00004_DS_=0x17b
0000017a fc5e                 ADDAR 0x21, 0x1
0000017b                      main.o:_00004_DS_:
0000017b e3fc                 BCR 0x3, 0x0
0000017c e0fc                 BCR 0x3, 0x6
0000017d ec5e                 RRR 0x21, 0x1
0000017e ec5f                 RRR 0x20, 0x1
0000017f e3fc                 BCR 0x3, 0x0
00000180 ec5e                 RRR 0x21, 0x1
00000181 ec5f                 RRR 0x20, 0x1
00000182 e3fc                 BCR 0x3, 0x0
00000183 ec5e                 RRR 0x21, 0x1
00000184 ec5f                 RRR 0x20, 0x1
00000185 ffef                 RET
00000186                      _checkBatAD:
00000186 e0fc                 BCR 0x3, 0x6
00000187 fd5a                 CLRR 0x25
00000188 fd5c                 CLRR 0x23
00000189 fd5b                 CLRR 0x24
0000018a def7                 MOVIA 0x8
0000018b d6ef                 LCALL 0x110; _F_AIN2_Convert=0x110
0000018c e0fc                 BCR 0x3, 0x6
0000018d eadb                 SWAPR 0x24, 0x0
0000018e dd0f                 ANDIA 0xf0
0000018f ff5b                 MOVAR 0x24
00000190 eadc                 SWAPR 0x23, 0x0
00000191 ff5c                 MOVAR 0x23
00000192 ddf0                 ANDIA 0xf
00000193 ee5b                 IORAR 0x24, 0x1
00000194 ed5c                 XORAR 0x23, 0x1
00000195 de0f                 MOVIA 0xf0
00000196 ef5a                 ANDAR 0x25, 0x1
00000197 feda                 MOVR 0x25, 0x0
00000198 ff48                 MOVAR 0x37
00000199 deff                 MOVIA 0x0
0000019a ff47                 MOVAR 0x38
0000019b fec8                 MOVR 0x37, 0x0
0000019c fc5c                 ADDAR 0x23, 0x1
0000019d fec7                 MOVR 0x38, 0x0
0000019e f3fc                 BTRSC 0x3, 0x0
0000019f fac7                 INCR 0x38, 0x0
000001a0 f2fc                 BTRSC 0x3, 0x2
000001a1 c65c                 LGOTO 0x1a3; main.o:_00005_DS_=0x1a3
000001a2 fc5b                 ADDAR 0x24, 0x1
000001a3                      main.o:_00005_DS_:
000001a3 e3fc                 BCR 0x3, 0x0
000001a4 e0fc                 BCR 0x3, 0x6
000001a5 ec5b                 RRR 0x24, 0x1
000001a6 ec5c                 RRR 0x23, 0x1
000001a7 e3fc                 BCR 0x3, 0x0
000001a8 ec5b                 RRR 0x24, 0x1
000001a9 ec5c                 RRR 0x23, 0x1
000001aa e3fc                 BCR 0x3, 0x0
000001ab ec5b                 RRR 0x24, 0x1
000001ac ec5c                 RRR 0x23, 0x1
000001ad fe89                 MOVR 0x76, 0x0
000001ae f2fc                 BTRSC 0x3, 0x2
000001af c64b                 LGOTO 0x1b4; main.o:_00597_DS_=0x1b4
000001b0 def1                 MOVIA 0xe
000001b1 ff5c                 MOVAR 0x23
000001b2 def9                 MOVIA 0x6
000001b3 ff5b                 MOVAR 0x24
000001b4                      main.o:_00597_DS_:
000001b4 def9                 MOVIA 0x6
000001b5 e0fc                 BCR 0x3, 0x6
000001b6 fbdb                 SUBAR 0x24, 0x0
000001b7 f6fc                 BTRSS 0x3, 0x2
000001b8 c644                 LGOTO 0x1bb; main.o:_00815_DS_=0x1bb
000001b9 def0                 MOVIA 0xf
000001ba fbdc                 SUBAR 0x23, 0x0
000001bb                      main.o:_00815_DS_:
000001bb f7fc                 BTRSS 0x3, 0x0
000001bc c63f                 LGOTO 0x1c0; main.o:_00604_DS_=0x1c0
000001bd e0fc                 BCR 0x3, 0x6
000001be fd14                 CLRR 0x6b
000001bf c625                 LGOTO 0x1da; main.o:_00605_DS_=0x1da
000001c0                      main.o:_00604_DS_:
000001c0 defb                 MOVIA 0x4
000001c1 e0fc                 BCR 0x3, 0x6
000001c2 fbdb                 SUBAR 0x24, 0x0
000001c3 f6fc                 BTRSS 0x3, 0x2
000001c4 c638                 LGOTO 0x1c7; main.o:_00816_DS_=0x1c7
000001c5 de81                 MOVIA 0x7e
000001c6 fbdc                 SUBAR 0x23, 0x0
000001c7                      main.o:_00816_DS_:
000001c7 f3fc                 BTRSC 0x3, 0x0
000001c8 c628                 LGOTO 0x1d7; main.o:_00601_DS_=0x1d7
000001c9 e0fc                 BCR 0x3, 0x6
000001ca fa14                 INCR 0x6b, 0x1
000001cb def5                 MOVIA 0xa
000001cc fb94                 SUBAR 0x6b, 0x0
000001cd f7fc                 BTRSS 0x3, 0x0
000001ce c4c4                 LGOTO 0x33b; main.o:_00690_DS_=0x33b
000001cf def5                 MOVIA 0xa
000001d0 ff14                 MOVAR 0x6b
000001d1 fd26                 CLRR 0x59
000001d2 de81                 MOVIA 0x7e
000001d3 ff5c                 MOVAR 0x23
000001d4 defb                 MOVIA 0x4
000001d5 ff5b                 MOVAR 0x24
000001d6 c625                 LGOTO 0x1da; main.o:_00605_DS_=0x1da
000001d7                      main.o:_00601_DS_:
000001d7 e0fc                 BCR 0x3, 0x6
000001d8 fd14                 CLRR 0x6b
000001d9 fd16                 CLRR 0x69
000001da                      main.o:_00605_DS_:
000001da de7d                 MOVIA 0x82
000001db e0fc                 BCR 0x3, 0x6
000001dc fc5c                 ADDAR 0x23, 0x1
000001dd de04                 MOVIA 0xfb
000001de f3fc                 BTRSC 0x3, 0x0
000001df de03                 MOVIA 0xfc
000001e0 fc5b                 ADDAR 0x24, 0x1
000001e1 defe                 MOVIA 0x1
000001e2 fbdb                 SUBAR 0x24, 0x0
000001e3 f6fc                 BTRSS 0x3, 0x2
000001e4 c618                 LGOTO 0x1e7; main.o:_00818_DS_=0x1e7
000001e5 de6a                 MOVIA 0x95
000001e6 fbdc                 SUBAR 0x23, 0x0
000001e7                      main.o:_00818_DS_:
000001e7 f7fc                 BTRSS 0x3, 0x0
000001e8 c613                 LGOTO 0x1ec; main.o:_00607_DS_=0x1ec
000001e9 def8                 MOVIA 0x7
000001ea e0fc                 BCR 0x3, 0x6
000001eb ff26                 MOVAR 0x59
000001ec                      main.o:_00607_DS_:
000001ec defe                 MOVIA 0x1
000001ed e0fc                 BCR 0x3, 0x6
000001ee fbdb                 SUBAR 0x24, 0x0
000001ef f6fc                 BTRSS 0x3, 0x2
000001f0 c60c                 LGOTO 0x1f3; main.o:_00819_DS_=0x1f3
000001f1 de65                 MOVIA 0x9a
000001f2 fbdc                 SUBAR 0x23, 0x0
000001f3                      main.o:_00819_DS_:
000001f3 f7fc                 BTRSS 0x3, 0x0
000001f4 c606                 LGOTO 0x1f9; main.o:_00679_DS_=0x1f9
000001f5 def7                 MOVIA 0x8
000001f6 e0fc                 BCR 0x3, 0x6
000001f7 ff26                 MOVAR 0x59
000001f8 c4db                 LGOTO 0x324; main.o:_00680_DS_=0x324
000001f9                      main.o:_00679_DS_:
000001f9 defe                 MOVIA 0x1
000001fa e0fc                 BCR 0x3, 0x6
000001fb fbdb                 SUBAR 0x24, 0x0
000001fc f6fc                 BTRSS 0x3, 0x2
000001fd c5ff                 LGOTO 0x200; main.o:_00820_DS_=0x200
000001fe dea0                 MOVIA 0x5f
000001ff fbdc                 SUBAR 0x23, 0x0
00000200                      main.o:_00820_DS_:
00000200 f7fc                 BTRSS 0x3, 0x0
00000201 c5ba                 LGOTO 0x245; main.o:_00676_DS_=0x245
00000202 def9                 MOVIA 0x6
00000203 e0fc                 BCR 0x3, 0x6
00000204 fba6                 SUBAR 0x59, 0x0
00000205 f3fc                 BTRSC 0x3, 0x0
00000206 c5ea                 LGOTO 0x215; main.o:_00614_DS_=0x215
00000207 fd19                 CLRR 0x66
00000208 fd18                 CLRR 0x67
00000209 defe                 MOVIA 0x1
0000020a fbdb                 SUBAR 0x24, 0x0
0000020b f6fc                 BTRSS 0x3, 0x2
0000020c c5f0                 LGOTO 0x20f; main.o:_00822_DS_=0x20f
0000020d de9b                 MOVIA 0x64
0000020e fbdc                 SUBAR 0x23, 0x0
0000020f                      main.o:_00822_DS_:
0000020f f7fc                 BTRSS 0x3, 0x0
00000210 c5d8                 LGOTO 0x227; main.o:_00615_DS_=0x227
00000211 def9                 MOVIA 0x6
00000212 e0fc                 BCR 0x3, 0x6
00000213 ff26                 MOVAR 0x59
00000214 c5d8                 LGOTO 0x227; main.o:_00615_DS_=0x227
00000215                      main.o:_00614_DS_:
00000215 e0fc                 BCR 0x3, 0x6
00000216 fea5                 MOVR 0x5a, 0x0
00000217 eea4                 IORAR 0x5b, 0x0
00000218 f6fc                 BTRSS 0x3, 0x2
00000219 c5d8                 LGOTO 0x227; main.o:_00615_DS_=0x227
0000021a defe                 MOVIA 0x1
0000021b fbdb                 SUBAR 0x24, 0x0
0000021c f6fc                 BTRSS 0x3, 0x2
0000021d c5df                 LGOTO 0x220; main.o:_00823_DS_=0x220
0000021e de73                 MOVIA 0x8c
0000021f fbdc                 SUBAR 0x23, 0x0
00000220                      main.o:_00823_DS_:
00000220 f3fc                 BTRSC 0x3, 0x0
00000221 c5d8                 LGOTO 0x227; main.o:_00615_DS_=0x227
00000222 def9                 MOVIA 0x6
00000223 e0fc                 BCR 0x3, 0x6
00000224 ff26                 MOVAR 0x59
00000225 fd19                 CLRR 0x66
00000226 fd18                 CLRR 0x67
00000227                      main.o:_00615_DS_:
00000227 e0fc                 BCR 0x3, 0x6
00000228 fea5                 MOVR 0x5a, 0x0
00000229 eea4                 IORAR 0x5b, 0x0
0000022a f2fc                 BTRSC 0x3, 0x2
0000022b c4db                 LGOTO 0x324; main.o:_00680_DS_=0x324
0000022c defe                 MOVIA 0x1
0000022d fbdb                 SUBAR 0x24, 0x0
0000022e f6fc                 BTRSS 0x3, 0x2
0000022f c5cd                 LGOTO 0x232; main.o:_00824_DS_=0x232
00000230 de73                 MOVIA 0x8c
00000231 fbdc                 SUBAR 0x23, 0x0
00000232                      main.o:_00824_DS_:
00000232 f7fc                 BTRSS 0x3, 0x0
00000233 c4db                 LGOTO 0x324; main.o:_00680_DS_=0x324
00000234 defd                 MOVIA 0x2
00000235 e0fc                 BCR 0x3, 0x6
00000236 fba4                 SUBAR 0x5b, 0x0
00000237 f6fc                 BTRSS 0x3, 0x2
00000238 c5c4                 LGOTO 0x23b; main.o:_00825_DS_=0x23b
00000239 dea6                 MOVIA 0x59
0000023a fba5                 SUBAR 0x5a, 0x0
0000023b                      main.o:_00825_DS_:
0000023b f7fc                 BTRSS 0x3, 0x0
0000023c c4db                 LGOTO 0x324; main.o:_00680_DS_=0x324
0000023d dea7                 MOVIA 0x58
0000023e e0fc                 BCR 0x3, 0x6
0000023f ff25                 MOVAR 0x5a
00000240 defd                 MOVIA 0x2
00000241 ff24                 MOVAR 0x5b
00000242 def8                 MOVIA 0x7
00000243 ff26                 MOVAR 0x59
00000244 c4db                 LGOTO 0x324; main.o:_00680_DS_=0x324
00000245                      main.o:_00676_DS_:
00000245 defe                 MOVIA 0x1
00000246 e0fc                 BCR 0x3, 0x6
00000247 fbdb                 SUBAR 0x24, 0x0
00000248 f6fc                 BTRSS 0x3, 0x2
00000249 c5b3                 LGOTO 0x24c; main.o:_00826_DS_=0x24c
0000024a deb9                 MOVIA 0x46
0000024b fbdc                 SUBAR 0x23, 0x0
0000024c                      main.o:_00826_DS_:
0000024c f7fc                 BTRSS 0x3, 0x0
0000024d c589                 LGOTO 0x276; main.o:_00673_DS_=0x276
0000024e e0fc                 BCR 0x3, 0x6
0000024f fea6                 MOVR 0x59, 0x0
00000250 dbfb                 XORIA 0x4
00000251 f6fc                 BTRSS 0x3, 0x2
00000252 c5a1                 LGOTO 0x25e; main.o:_00623_DS_=0x25e
00000253 defe                 MOVIA 0x1
00000254 fbdb                 SUBAR 0x24, 0x0
00000255 f6fc                 BTRSS 0x3, 0x2
00000256 c5a6                 LGOTO 0x259; main.o:_00827_DS_=0x259
00000257 deb4                 MOVIA 0x4b
00000258 fbdc                 SUBAR 0x23, 0x0
00000259                      main.o:_00827_DS_:
00000259 f7fc                 BTRSS 0x3, 0x0
0000025a c5a1                 LGOTO 0x25e; main.o:_00623_DS_=0x25e
0000025b defa                 MOVIA 0x5
0000025c e0fc                 BCR 0x3, 0x6
0000025d ff26                 MOVAR 0x59
0000025e                      main.o:_00623_DS_:
0000025e def9                 MOVIA 0x6
0000025f e0fc                 BCR 0x3, 0x6
00000260 fba6                 SUBAR 0x59, 0x0
00000261 f7fc                 BTRSS 0x3, 0x0
00000262 c590                 LGOTO 0x26f; main.o:_00627_DS_=0x26f
00000263 defe                 MOVIA 0x1
00000264 fbdb                 SUBAR 0x24, 0x0
00000265 f6fc                 BTRSS 0x3, 0x2
00000266 c596                 LGOTO 0x269; main.o:_00829_DS_=0x269
00000267 de92                 MOVIA 0x6d
00000268 fbdc                 SUBAR 0x23, 0x0
00000269                      main.o:_00829_DS_:
00000269 f3fc                 BTRSC 0x3, 0x0
0000026a c58d                 LGOTO 0x272; main.o:_00628_DS_=0x272
0000026b defa                 MOVIA 0x5
0000026c e0fc                 BCR 0x3, 0x6
0000026d ff26                 MOVAR 0x59
0000026e c58d                 LGOTO 0x272; main.o:_00628_DS_=0x272
0000026f                      main.o:_00627_DS_:
0000026f defa                 MOVIA 0x5
00000270 e0fc                 BCR 0x3, 0x6
00000271 ff26                 MOVAR 0x59
00000272                      main.o:_00628_DS_:
00000272 e0fc                 BCR 0x3, 0x6
00000273 fd25                 CLRR 0x5a
00000274 fd24                 CLRR 0x5b
00000275 c4db                 LGOTO 0x324; main.o:_00680_DS_=0x324
00000276                      main.o:_00673_DS_:
00000276 defe                 MOVIA 0x1
00000277 e0fc                 BCR 0x3, 0x6
00000278 fbdb                 SUBAR 0x24, 0x0
00000279 f6fc                 BTRSS 0x3, 0x2
0000027a c582                 LGOTO 0x27d; main.o:_00830_DS_=0x27d
0000027b defa                 MOVIA 0x5
0000027c fbdc                 SUBAR 0x23, 0x0
0000027d                      main.o:_00830_DS_:
0000027d f7fc                 BTRSS 0x3, 0x0
0000027e c558                 LGOTO 0x2a7; main.o:_00670_DS_=0x2a7
0000027f e0fc                 BCR 0x3, 0x6
00000280 fea6                 MOVR 0x59, 0x0
00000281 dbfc                 XORIA 0x3
00000282 f6fc                 BTRSS 0x3, 0x2
00000283 c570                 LGOTO 0x28f; main.o:_00632_DS_=0x28f
00000284 defe                 MOVIA 0x1
00000285 fbdb                 SUBAR 0x24, 0x0
00000286 f6fc                 BTRSS 0x3, 0x2
00000287 c575                 LGOTO 0x28a; main.o:_00831_DS_=0x28a
00000288 def5                 MOVIA 0xa
00000289 fbdc                 SUBAR 0x23, 0x0
0000028a                      main.o:_00831_DS_:
0000028a f7fc                 BTRSS 0x3, 0x0
0000028b c570                 LGOTO 0x28f; main.o:_00632_DS_=0x28f
0000028c defb                 MOVIA 0x4
0000028d e0fc                 BCR 0x3, 0x6
0000028e ff26                 MOVAR 0x59
0000028f                      main.o:_00632_DS_:
0000028f defa                 MOVIA 0x5
00000290 e0fc                 BCR 0x3, 0x6
00000291 fba6                 SUBAR 0x59, 0x0
00000292 f7fc                 BTRSS 0x3, 0x0
00000293 c55f                 LGOTO 0x2a0; main.o:_00636_DS_=0x2a0
00000294 defe                 MOVIA 0x1
00000295 fbdb                 SUBAR 0x24, 0x0
00000296 f6fc                 BTRSS 0x3, 0x2
00000297 c565                 LGOTO 0x29a; main.o:_00833_DS_=0x29a
00000298 debf                 MOVIA 0x40
00000299 fbdc                 SUBAR 0x23, 0x0
0000029a                      main.o:_00833_DS_:
0000029a f3fc                 BTRSC 0x3, 0x0
0000029b c55c                 LGOTO 0x2a3; main.o:_00637_DS_=0x2a3
0000029c defb                 MOVIA 0x4
0000029d e0fc                 BCR 0x3, 0x6
0000029e ff26                 MOVAR 0x59
0000029f c55c                 LGOTO 0x2a3; main.o:_00637_DS_=0x2a3
000002a0                      main.o:_00636_DS_:
000002a0 defb                 MOVIA 0x4
000002a1 e0fc                 BCR 0x3, 0x6
000002a2 ff26                 MOVAR 0x59
000002a3                      main.o:_00637_DS_:
000002a3 e0fc                 BCR 0x3, 0x6
000002a4 fd25                 CLRR 0x5a
000002a5 fd24                 CLRR 0x5b
000002a6 c4db                 LGOTO 0x324; main.o:_00680_DS_=0x324
000002a7                      main.o:_00670_DS_:
000002a7 deff                 MOVIA 0x0
000002a8 e0fc                 BCR 0x3, 0x6
000002a9 fbdb                 SUBAR 0x24, 0x0
000002aa f6fc                 BTRSS 0x3, 0x2
000002ab c551                 LGOTO 0x2ae; main.o:_00834_DS_=0x2ae
000002ac de36                 MOVIA 0xc9
000002ad fbdc                 SUBAR 0x23, 0x0
000002ae                      main.o:_00834_DS_:
000002ae f7fc                 BTRSS 0x3, 0x0
000002af c527                 LGOTO 0x2d8; main.o:_00667_DS_=0x2d8
000002b0 e0fc                 BCR 0x3, 0x6
000002b1 fea6                 MOVR 0x59, 0x0
000002b2 dbfd                 XORIA 0x2
000002b3 f6fc                 BTRSS 0x3, 0x2
000002b4 c53f                 LGOTO 0x2c0; main.o:_00641_DS_=0x2c0
000002b5 deff                 MOVIA 0x0
000002b6 fbdb                 SUBAR 0x24, 0x0
000002b7 f6fc                 BTRSS 0x3, 0x2
000002b8 c544                 LGOTO 0x2bb; main.o:_00835_DS_=0x2bb
000002b9 de2c                 MOVIA 0xd3
000002ba fbdc                 SUBAR 0x23, 0x0
000002bb                      main.o:_00835_DS_:
000002bb f7fc                 BTRSS 0x3, 0x0
000002bc c53f                 LGOTO 0x2c0; main.o:_00641_DS_=0x2c0
000002bd defc                 MOVIA 0x3
000002be e0fc                 BCR 0x3, 0x6
000002bf ff26                 MOVAR 0x59
000002c0                      main.o:_00641_DS_:
000002c0 defb                 MOVIA 0x4
000002c1 e0fc                 BCR 0x3, 0x6
000002c2 fba6                 SUBAR 0x59, 0x0
000002c3 f7fc                 BTRSS 0x3, 0x0
000002c4 c52e                 LGOTO 0x2d1; main.o:_00645_DS_=0x2d1
000002c5 defe                 MOVIA 0x1
000002c6 fbdb                 SUBAR 0x24, 0x0
000002c7 f6fc                 BTRSS 0x3, 0x2
000002c8 c534                 LGOTO 0x2cb; main.o:_00837_DS_=0x2cb
000002c9 defb                 MOVIA 0x4
000002ca fbdc                 SUBAR 0x23, 0x0
000002cb                      main.o:_00837_DS_:
000002cb f3fc                 BTRSC 0x3, 0x0
000002cc c52b                 LGOTO 0x2d4; main.o:_00646_DS_=0x2d4
000002cd defc                 MOVIA 0x3
000002ce e0fc                 BCR 0x3, 0x6
000002cf ff26                 MOVAR 0x59
000002d0 c52b                 LGOTO 0x2d4; main.o:_00646_DS_=0x2d4
000002d1                      main.o:_00645_DS_:
000002d1 defc                 MOVIA 0x3
000002d2 e0fc                 BCR 0x3, 0x6
000002d3 ff26                 MOVAR 0x59
000002d4                      main.o:_00646_DS_:
000002d4 e0fc                 BCR 0x3, 0x6
000002d5 fd25                 CLRR 0x5a
000002d6 fd24                 CLRR 0x5b
000002d7 c4db                 LGOTO 0x324; main.o:_00680_DS_=0x324
000002d8                      main.o:_00667_DS_:
000002d8 deff                 MOVIA 0x0
000002d9 e0fc                 BCR 0x3, 0x6
000002da fbdb                 SUBAR 0x24, 0x0
000002db f6fc                 BTRSS 0x3, 0x2
000002dc c520                 LGOTO 0x2df; main.o:_00838_DS_=0x2df
000002dd de9a                 MOVIA 0x65
000002de fbdc                 SUBAR 0x23, 0x0
000002df                      main.o:_00838_DS_:
000002df f7fc                 BTRSS 0x3, 0x0
000002e0 c4f6                 LGOTO 0x309; main.o:_00664_DS_=0x309
000002e1 e0fc                 BCR 0x3, 0x6
000002e2 fea6                 MOVR 0x59, 0x0
000002e3 dbfe                 XORIA 0x1
000002e4 f6fc                 BTRSS 0x3, 0x2
000002e5 c50e                 LGOTO 0x2f1; main.o:_00650_DS_=0x2f1
000002e6 deff                 MOVIA 0x0
000002e7 fbdb                 SUBAR 0x24, 0x0
000002e8 f6fc                 BTRSS 0x3, 0x2
000002e9 c513                 LGOTO 0x2ec; main.o:_00839_DS_=0x2ec
000002ea de90                 MOVIA 0x6f
000002eb fbdc                 SUBAR 0x23, 0x0
000002ec                      main.o:_00839_DS_:
000002ec f7fc                 BTRSS 0x3, 0x0
000002ed c50e                 LGOTO 0x2f1; main.o:_00650_DS_=0x2f1
000002ee defd                 MOVIA 0x2
000002ef e0fc                 BCR 0x3, 0x6
000002f0 ff26                 MOVAR 0x59
000002f1                      main.o:_00650_DS_:
000002f1 defc                 MOVIA 0x3
000002f2 e0fc                 BCR 0x3, 0x6
000002f3 fba6                 SUBAR 0x59, 0x0
000002f4 f7fc                 BTRSS 0x3, 0x0
000002f5 c4fd                 LGOTO 0x302; main.o:_00654_DS_=0x302
000002f6 deff                 MOVIA 0x0
000002f7 fbdb                 SUBAR 0x24, 0x0
000002f8 f6fc                 BTRSS 0x3, 0x2
000002f9 c503                 LGOTO 0x2fc; main.o:_00841_DS_=0x2fc
000002fa de41                 MOVIA 0xbe
000002fb fbdc                 SUBAR 0x23, 0x0
000002fc                      main.o:_00841_DS_:
000002fc f3fc                 BTRSC 0x3, 0x0
000002fd c4fa                 LGOTO 0x305; main.o:_00655_DS_=0x305
000002fe defd                 MOVIA 0x2
000002ff e0fc                 BCR 0x3, 0x6
00000300 ff26                 MOVAR 0x59
00000301 c4fa                 LGOTO 0x305; main.o:_00655_DS_=0x305
00000302                      main.o:_00654_DS_:
00000302 defd                 MOVIA 0x2
00000303 e0fc                 BCR 0x3, 0x6
00000304 ff26                 MOVAR 0x59
00000305                      main.o:_00655_DS_:
00000305 e0fc                 BCR 0x3, 0x6
00000306 fd25                 CLRR 0x5a
00000307 fd24                 CLRR 0x5b
00000308 c4db                 LGOTO 0x324; main.o:_00680_DS_=0x324
00000309                      main.o:_00664_DS_:
00000309 e0fc                 BCR 0x3, 0x6
0000030a fedc                 MOVR 0x23, 0x0
0000030b eedb                 IORAR 0x24, 0x0
0000030c f2fc                 BTRSC 0x3, 0x2
0000030d c4db                 LGOTO 0x324; main.o:_00680_DS_=0x324
0000030e defd                 MOVIA 0x2
0000030f fba6                 SUBAR 0x59, 0x0
00000310 f7fc                 BTRSS 0x3, 0x0
00000311 c4e1                 LGOTO 0x31e; main.o:_00659_DS_=0x31e
00000312 deff                 MOVIA 0x0
00000313 fbdb                 SUBAR 0x24, 0x0
00000314 f6fc                 BTRSS 0x3, 0x2
00000315 c4e7                 LGOTO 0x318; main.o:_00843_DS_=0x318
00000316 dea5                 MOVIA 0x5a
00000317 fbdc                 SUBAR 0x23, 0x0
00000318                      main.o:_00843_DS_:
00000318 f3fc                 BTRSC 0x3, 0x0
00000319 c4de                 LGOTO 0x321; main.o:_00660_DS_=0x321
0000031a defe                 MOVIA 0x1
0000031b e0fc                 BCR 0x3, 0x6
0000031c ff26                 MOVAR 0x59
0000031d c4de                 LGOTO 0x321; main.o:_00660_DS_=0x321
0000031e                      main.o:_00659_DS_:
0000031e defe                 MOVIA 0x1
0000031f e0fc                 BCR 0x3, 0x6
00000320 ff26                 MOVAR 0x59
00000321                      main.o:_00660_DS_:
00000321 e0fc                 BCR 0x3, 0x6
00000322 fd25                 CLRR 0x5a
00000323 fd24                 CLRR 0x5b
00000324                      main.o:_00680_DS_:
00000324 e0fc                 BCR 0x3, 0x6
00000325 f67a                 BTRSS 0x5, 0x3
00000326 c4d1                 LGOTO 0x32e; main.o:_00686_DS_=0x32e
00000327 fea6                 MOVR 0x59, 0x0
00000328 fb8a                 SUBAR 0x75, 0x0
00000329 f3fc                 BTRSC 0x3, 0x0
0000032a c4ca                 LGOTO 0x335; main.o:_00687_DS_=0x335
0000032b fea6                 MOVR 0x59, 0x0
0000032c ff0a                 MOVAR 0x75
0000032d c4ca                 LGOTO 0x335; main.o:_00687_DS_=0x335
0000032e                      main.o:_00686_DS_:
0000032e e0fc                 BCR 0x3, 0x6
0000032f fe8a                 MOVR 0x75, 0x0
00000330 fba6                 SUBAR 0x59, 0x0
00000331 f3fc                 BTRSC 0x3, 0x0
00000332 c4ca                 LGOTO 0x335; main.o:_00687_DS_=0x335
00000333 fea6                 MOVR 0x59, 0x0
00000334 ff0a                 MOVAR 0x75
00000335                      main.o:_00687_DS_:
00000335 e0fc                 BCR 0x3, 0x6
00000336 fe8a                 MOVR 0x75, 0x0
00000337 f2fc                 BTRSC 0x3, 0x2
00000338 c4c4                 LGOTO 0x33b; main.o:_00690_DS_=0x33b
00000339 fe8a                 MOVR 0x75, 0x0
0000033a ff26                 MOVAR 0x59
0000033b                      main.o:_00690_DS_:
0000033b ffef                 RET
0000033c                      _initAD:
0000033c de7b                 MOVIA 0x84
0000033d ff6f                 MOVAR 0x10
0000033e fd6c                 CLRR 0x13
0000033f deef                 MOVIA 0x10
00000340 ff6e                 MOVAR 0x11
00000341 defc                 MOVIA 0x3
00000342 ff6b                 MOVAR 0x14
00000343 e5ef                 BSR 0x10, 0x4
00000344 de9b                 MOVIA 0x64
00000345 d4b8                 LCALL 0x347; _delay=0x347
00000346 ffef                 RET
00000347                      _delay:
00000347 e0fc                 BCR 0x3, 0x6
00000348 ff4a                 MOVAR 0x35
00000349 fd49                 CLRR 0x36
0000034a                      main.o:_00585_DS_:
0000034a e0fc                 BCR 0x3, 0x6
0000034b feca                 MOVR 0x35, 0x0
0000034c fbc9                 SUBAR 0x36, 0x0
0000034d f3fc                 BTRSC 0x3, 0x0
0000034e c4ad                 LGOTO 0x352; main.o:_00587_DS_=0x352
0000034f ffff                 NOP
00000350 fa49                 INCR 0x36, 0x1
00000351 c4b5                 LGOTO 0x34a; main.o:_00585_DS_=0x34a
00000352                      main.o:_00587_DS_:
00000352 ffef                 RET
00000353                      _chrgCtr:
00000353 e0fc                 BCR 0x3, 0x6
00000354 f27a                 BTRSC 0x5, 0x3
00000355 c4a1                 LGOTO 0x35e; main.o:_00510_DS_=0x35e
00000356 deff                 MOVIA 0x0
00000357 fbde                 SUBAR 0x21, 0x0
00000358 f6fc                 BTRSS 0x3, 0x2
00000359 c4a3                 LGOTO 0x35c; main.o:_00573_DS_=0x35c
0000035a de36                 MOVIA 0xc9
0000035b fbdf                 SUBAR 0x20, 0x0
0000035c                      main.o:_00573_DS_:
0000035c f7fc                 BTRSS 0x3, 0x0
0000035d c408                 LGOTO 0x3f7; main.o:_00511_DS_=0x3f7
0000035e                      main.o:_00510_DS_:
0000035e e0fc                 BCR 0x3, 0x6
0000035f e631                 BSR 0x4e, 0x3
00000360 fd2d                 CLRR 0x52
00000361 fd1b                 CLRR 0x64
00000362 d3a3                 LCALL 0x45c; _pwmStop=0x45c
00000363 def8                 MOVIA 0x7
00000364 e0fc                 BCR 0x3, 0x6
00000365 fba6                 SUBAR 0x59, 0x0
00000366 f7fc                 BTRSS 0x3, 0x0
00000367 c47e                 LGOTO 0x381; main.o:_00506_DS_=0x381
00000368 def9                 MOVIA 0x6
00000369 ff0b                 MOVAR 0x74
0000036a ff2c                 MOVAR 0x53
0000036b fea6                 MOVR 0x59, 0x0
0000036c dbf7                 XORIA 0x8
0000036d f6fc                 BTRSS 0x3, 0x2
0000036e c3f9                 LGOTO 0x406; main.o:_00514_DS_=0x406
0000036f fa19                 INCR 0x66, 0x1
00000370 f2fc                 BTRSC 0x3, 0x2
00000371 fa18                 INCR 0x67, 0x1
00000372 deff                 MOVIA 0x0
00000373 fb98                 SUBAR 0x67, 0x0
00000374 f6fc                 BTRSS 0x3, 0x2
00000375 c487                 LGOTO 0x378; main.o:_00575_DS_=0x378
00000376 de9b                 MOVIA 0x64
00000377 fb99                 SUBAR 0x66, 0x0
00000378                      main.o:_00575_DS_:
00000378 f7fc                 BTRSS 0x3, 0x0
00000379 c3f9                 LGOTO 0x406; main.o:_00514_DS_=0x406
0000037a de9b                 MOVIA 0x64
0000037b e0fc                 BCR 0x3, 0x6
0000037c ff19                 MOVAR 0x66
0000037d fd18                 CLRR 0x67
0000037e d393                 LCALL 0x46c; _pwm1Stop=0x46c
0000037f e279                 BCR 0x6, 0x3
00000380 c3f9                 LGOTO 0x406; main.o:_00514_DS_=0x406
00000381                      main.o:_00506_DS_:
00000381 ffe9                 IOSTR 0x6
00000382 e0fc                 BCR 0x3, 0x6
00000383 ff4e                 MOVAR 0x31
00000384 e24e                 BCR 0x31, 0x3
00000385 fece                 MOVR 0x31, 0x0
00000386 fff9                 IOST 0x6
00000387 feaf                 MOVR 0x50, 0x0
00000388 f6fc                 BTRSS 0x3, 0x2
00000389 c44b                 LGOTO 0x3b4; main.o:_00480_DS_=0x3b4
0000038a def8                 MOVIA 0x7
0000038b fba6                 SUBAR 0x59, 0x0
0000038c f3fc                 BTRSC 0x3, 0x0
0000038d c44b                 LGOTO 0x3b4; main.o:_00480_DS_=0x3b4
0000038e def9                 MOVIA 0x6
0000038f fb8b                 SUBAR 0x74, 0x0
00000390 f3fc                 BTRSC 0x3, 0x0
00000391 c44b                 LGOTO 0x3b4; main.o:_00480_DS_=0x3b4
00000392 fea6                 MOVR 0x59, 0x0
00000393 ff4e                 MOVAR 0x31
00000394 fd4d                 CLRR 0x32
00000395 de00                 MOVIA 0xff
00000396 fc4e                 ADDAR 0x31, 0x1
00000397 f3fc                 BTRSC 0x3, 0x0
00000398 c465                 LGOTO 0x39a; main.o:_00006_DS_=0x39a
00000399 f94d                 DECR 0x32, 0x1
0000039a                      main.o:_00006_DS_:
0000039a e0fc                 BCR 0x3, 0x6
0000039b fe8e                 MOVR 0x71, 0x0
0000039c ff4c                 MOVAR 0x33
0000039d deff                 MOVIA 0x0
0000039e da7f                 ADDIA 0x80
0000039f ff4b                 MOVAR 0x34
000003a0 fecd                 MOVR 0x32, 0x0
000003a1 da7f                 ADDIA 0x80
000003a2 fbcb                 SUBAR 0x34, 0x0
000003a3 f6fc                 BTRSS 0x3, 0x2
000003a4 c458                 LGOTO 0x3a7; main.o:_00578_DS_=0x3a7
000003a5 fece                 MOVR 0x31, 0x0
000003a6 fbcc                 SUBAR 0x33, 0x0
000003a7                      main.o:_00578_DS_:
000003a7 f3fc                 BTRSC 0x3, 0x0
000003a8 c453                 LGOTO 0x3ac; main.o:_00476_DS_=0x3ac
000003a9 e0fc                 BCR 0x3, 0x6
000003aa f9a6                 DECR 0x59, 0x0
000003ab ff0e                 MOVAR 0x71
000003ac                      main.o:_00476_DS_:
000003ac e0fc                 BCR 0x3, 0x6
000003ad fa2c                 INCR 0x53, 0x1
000003ae def8                 MOVIA 0x7
000003af fbac                 SUBAR 0x53, 0x0
000003b0 f7fc                 BTRSS 0x3, 0x0
000003b1 c44b                 LGOTO 0x3b4; main.o:_00480_DS_=0x3b4
000003b2 fe8e                 MOVR 0x71, 0x0
000003b3 ff2c                 MOVAR 0x53
000003b4                      main.o:_00480_DS_:
000003b4 defe                 MOVIA 0x1
000003b5 e0fc                 BCR 0x3, 0x6
000003b6 fba6                 SUBAR 0x59, 0x0
000003b7 f3fc                 BTRSC 0x3, 0x0
000003b8 c43d                 LGOTO 0x3c2; main.o:_00503_DS_=0x3c2
000003b9 defd                 MOVIA 0x2
000003ba fb8b                 SUBAR 0x74, 0x0
000003bb f3fc                 BTRSC 0x3, 0x0
000003bc c40a                 LGOTO 0x3f5; main.o:_00504_DS_=0x3f5
000003bd def7                 MOVIA 0x8
000003be ffbc                 SFUN 0x3
000003bf defe                 MOVIA 0x1
000003c0 ff0b                 MOVAR 0x74
000003c1 c40a                 LGOTO 0x3f5; main.o:_00504_DS_=0x3f5
000003c2                      main.o:_00503_DS_:
000003c2 defd                 MOVIA 0x2
000003c3 e0fc                 BCR 0x3, 0x6
000003c4 fba6                 SUBAR 0x59, 0x0
000003c5 f3fc                 BTRSC 0x3, 0x0
000003c6 c42f                 LGOTO 0x3d0; main.o:_00500_DS_=0x3d0
000003c7 defc                 MOVIA 0x3
000003c8 fb8b                 SUBAR 0x74, 0x0
000003c9 f3fc                 BTRSC 0x3, 0x0
000003ca c40a                 LGOTO 0x3f5; main.o:_00504_DS_=0x3f5
000003cb defd                 MOVIA 0x2
000003cc ff0b                 MOVAR 0x74
000003cd def6                 MOVIA 0x9
000003ce ffbc                 SFUN 0x3
000003cf c40a                 LGOTO 0x3f5; main.o:_00504_DS_=0x3f5
000003d0                      main.o:_00500_DS_:
000003d0 defc                 MOVIA 0x3
000003d1 e0fc                 BCR 0x3, 0x6
000003d2 fba6                 SUBAR 0x59, 0x0
000003d3 f3fc                 BTRSC 0x3, 0x0
000003d4 c421                 LGOTO 0x3de; main.o:_00497_DS_=0x3de
000003d5 defb                 MOVIA 0x4
000003d6 fb8b                 SUBAR 0x74, 0x0
000003d7 f3fc                 BTRSC 0x3, 0x0
000003d8 c40a                 LGOTO 0x3f5; main.o:_00504_DS_=0x3f5
000003d9 defc                 MOVIA 0x3
000003da ff0b                 MOVAR 0x74
000003db def5                 MOVIA 0xa
000003dc ffbc                 SFUN 0x3
000003dd c40a                 LGOTO 0x3f5; main.o:_00504_DS_=0x3f5
000003de                      main.o:_00497_DS_:
000003de defa                 MOVIA 0x5
000003df e0fc                 BCR 0x3, 0x6
000003e0 fba6                 SUBAR 0x59, 0x0
000003e1 f3fc                 BTRSC 0x3, 0x0
000003e2 c413                 LGOTO 0x3ec; main.o:_00494_DS_=0x3ec
000003e3 defa                 MOVIA 0x5
000003e4 fb8b                 SUBAR 0x74, 0x0
000003e5 f3fc                 BTRSC 0x3, 0x0
000003e6 c40a                 LGOTO 0x3f5; main.o:_00504_DS_=0x3f5
000003e7 defb                 MOVIA 0x4
000003e8 ff0b                 MOVAR 0x74
000003e9 def4                 MOVIA 0xb
000003ea ffbc                 SFUN 0x3
000003eb c40a                 LGOTO 0x3f5; main.o:_00504_DS_=0x3f5
000003ec                      main.o:_00494_DS_:
000003ec def9                 MOVIA 0x6
000003ed e0fc                 BCR 0x3, 0x6
000003ee fb8b                 SUBAR 0x74, 0x0
000003ef f3fc                 BTRSC 0x3, 0x0
000003f0 c40a                 LGOTO 0x3f5; main.o:_00504_DS_=0x3f5
000003f1 def3                 MOVIA 0xc
000003f2 ffbc                 SFUN 0x3
000003f3 defa                 MOVIA 0x5
000003f4 ff0b                 MOVAR 0x74
000003f5                      main.o:_00504_DS_:
000003f5 d390                 LCALL 0x46f; _pwm1Init=0x46f
000003f6 c3f9                 LGOTO 0x406; main.o:_00514_DS_=0x406
000003f7                      main.o:_00511_DS_:
000003f7 e0fc                 BCR 0x3, 0x6
000003f8 fd0b                 CLRR 0x74
000003f9 fd0e                 CLRR 0x71
000003fa fd25                 CLRR 0x5a
000003fb fd24                 CLRR 0x5b
000003fc d393                 LCALL 0x46c; _pwm1Stop=0x46c
000003fd e0fc                 BCR 0x3, 0x6
000003fe fead                 MOVR 0x52, 0x0
000003ff f6fc                 BTRSS 0x3, 0x2
00000400 c3fd                 LGOTO 0x402; main.o:_00007_DS_=0x402
00000401 fd2c                 CLRR 0x53
00000402                      main.o:_00007_DS_:
00000402 e0fc                 BCR 0x3, 0x6
00000403 e231                 BCR 0x4e, 0x3
00000404 fd25                 CLRR 0x5a
00000405 fd24                 CLRR 0x5b
00000406                      main.o:_00514_DS_:
00000406 ffef                 RET
00000407                      _keyRead:
00000407 e0fc                 BCR 0x3, 0x6
00000408 ff4f                 MOVAR 0x30
00000409 fecf                 MOVR 0x30, 0x0
0000040a f2fc                 BTRSC 0x3, 0x2
0000040b c3e7                 LGOTO 0x418; main.o:_00465_DS_=0x418
0000040c fa2e                 INCR 0x51, 0x1
0000040d de9b                 MOVIA 0x64
0000040e fbae                 SUBAR 0x51, 0x0
0000040f f7fc                 BTRSS 0x3, 0x0
00000410 c3d4                 LGOTO 0x42b; main.o:_00466_DS_=0x42b
00000411 de9b                 MOVIA 0x64
00000412 ff2e                 MOVAR 0x51
00000413 f331                 BTRSC 0x4e, 0x1
00000414 c3d4                 LGOTO 0x42b; main.o:_00466_DS_=0x42b
00000415 e731                 BSR 0x4e, 0x1
00000416 defd                 MOVIA 0x2
00000417 c3d3                 LGOTO 0x42c; main.o:_00467_DS_=0x42c
00000418                      main.o:_00465_DS_:
00000418 de9b                 MOVIA 0x64
00000419 e0fc                 BCR 0x3, 0x6
0000041a fbae                 SUBAR 0x51, 0x0
0000041b f7fc                 BTRSS 0x3, 0x0
0000041c c3de                 LGOTO 0x421; main.o:_00462_DS_=0x421
0000041d fd2e                 CLRR 0x51
0000041e e331                 BCR 0x4e, 0x1
0000041f deff                 MOVIA 0x0
00000420 c3d3                 LGOTO 0x42c; main.o:_00467_DS_=0x42c
00000421                      main.o:_00462_DS_:
00000421 defb                 MOVIA 0x4
00000422 e0fc                 BCR 0x3, 0x6
00000423 fbae                 SUBAR 0x51, 0x0
00000424 f7fc                 BTRSS 0x3, 0x0
00000425 c3d6                 LGOTO 0x429; main.o:_00463_DS_=0x429
00000426 fd2e                 CLRR 0x51
00000427 defe                 MOVIA 0x1
00000428 c3d3                 LGOTO 0x42c; main.o:_00467_DS_=0x42c
00000429                      main.o:_00463_DS_:
00000429 e0fc                 BCR 0x3, 0x6
0000042a fd2e                 CLRR 0x51
0000042b                      main.o:_00466_DS_:
0000042b deff                 MOVIA 0x0
0000042c                      main.o:_00467_DS_:
0000042c ffef                 RET
0000042d                      _gotoSleep:
0000042d e0fc                 BCR 0x3, 0x6
0000042e fd1f                 CLRR 0x60
0000042f fd1e                 CLRR 0x61
00000430 d31d                 LCALL 0x4e2; _LedInput=0x4e2
00000431 e0fc                 BCR 0x3, 0x6
00000432 fd23                 CLRR 0x5c
00000433 fd22                 CLRR 0x5d
00000434 d3a3                 LCALL 0x45c; _pwmStop=0x45c
00000435 d393                 LCALL 0x46c; _pwm1Stop=0x46c
00000436 de77                 MOVIA 0x88
00000437 fffa                 IOST 0x5
00000438 fdff                 CLRA
00000439 fff9                 IOST 0x6
0000043a e0fc                 BCR 0x3, 0x6
0000043b fd7a                 CLRR 0x5
0000043c fd79                 CLRR 0x6
0000043d fd2d                 CLRR 0x52
0000043e de77                 MOVIA 0x88
0000043f ff6a                 MOVAR 0x15
00000440 fd76                 CLRR 0x9
00000441 fd29                 CLRR 0x56
00000442 fd28                 CLRR 0x57
00000443 fd2b                 CLRR 0x54
00000444 fd2a                 CLRR 0x55
00000445 e2b1                 BCR 0x4e, 0x2
00000446 defd                 MOVIA 0x2
00000447 ff71                 MOVAR 0xe
00000448 dee7                 MOVIA 0x18
00000449 ff77                 MOVAR 0x8
0000044a fd70                 CLRR 0xf
0000044b fffd                 CLRWDT
0000044c fffb                 ENI
0000044d fffe                 SLEEP
0000044e fd6a                 CLRR 0x15
0000044f de41                 MOVIA 0xbe
00000450 fffa                 IOST 0x5
00000451 fdff                 CLRA
00000452 fff9                 IOST 0x6
00000453 fd7a                 CLRR 0x5
00000454 de80                 MOVIA 0x7f
00000455 fff6                 IOST 0x9
00000456 defe                 MOVIA 0x1
00000457 ff71                 MOVAR 0xe
00000458 fd70                 CLRR 0xf
00000459 de47                 MOVIA 0xb8
0000045a ff77                 MOVAR 0x8
0000045b ffef                 RET
0000045c                      _pwmStop:
0000045c fdff                 CLRA
0000045d ffb5                 SFUN 0xa
0000045e ffef                 RET
0000045f                      _pwmInit:
0000045f ff95                 SFUNR 0xa
00000460 e0fc                 BCR 0x3, 0x6
00000461 ff50                 MOVAR 0x2f
00000462 f050                 BTRSC 0x2f, 0x7
00000463 c394                 LGOTO 0x46b; main.o:_00442_DS_=0x46b
00000464 fd66                 CLRR 0x19
00000465 de9b                 MOVIA 0x64
00000466 ffb6                 SFUN 0x9
00000467 defe                 MOVIA 0x1
00000468 ffb4                 SFUN 0xb
00000469 de7c                 MOVIA 0x83
0000046a ffb5                 SFUN 0xa
0000046b                      main.o:_00442_DS_:
0000046b ffef                 RET
0000046c                      _pwm1Stop:
0000046c fdff                 CLRA
0000046d ffbe                 SFUN 0x1
0000046e ffef                 RET
0000046f                      _pwm1Init:
0000046f ff9e                 SFUNR 0x1
00000470 e0fc                 BCR 0x3, 0x6
00000471 ff51                 MOVAR 0x2e
00000472 f051                 BTRSC 0x2e, 0x7
00000473 c384                 LGOTO 0x47b; main.o:_00431_DS_=0x47b
00000474 fd66                 CLRR 0x19
00000475 dee7                 MOVIA 0x18
00000476 ffbf                 SFUN 0x0
00000477 fdff                 CLRA
00000478 ffbd                 SFUN 0x2
00000479 de7c                 MOVIA 0x83
0000047a ffbe                 SFUN 0x1
0000047b                      main.o:_00431_DS_:
0000047b ffef                 RET
0000047c                      _LED6ON:
0000047c ffea                 IOSTR 0x5
0000047d e0fc                 BCR 0x3, 0x6
0000047e ff52                 MOVAR 0x2d
0000047f e3d2                 BCR 0x2d, 0x0
00000480 fed2                 MOVR 0x2d, 0x0
00000481 fffa                 IOST 0x5
00000482 ffe9                 IOSTR 0x6
00000483 ff52                 MOVAR 0x2d
00000484 e352                 BCR 0x2d, 0x1
00000485 fed2                 MOVR 0x2d, 0x0
00000486 fff9                 IOST 0x6
00000487 e779                 BSR 0x6, 0x1
00000488 e3fa                 BCR 0x5, 0x0
00000489 de9b                 MOVIA 0x64
0000048a d4b8                 LCALL 0x347; _delay=0x347
0000048b d31d                 LCALL 0x4e2; _LedInput=0x4e2
0000048c ffef                 RET
0000048d                      _LED5ON:
0000048d ffea                 IOSTR 0x5
0000048e e0fc                 BCR 0x3, 0x6
0000048f ff53                 MOVAR 0x2c
00000490 e3d3                 BCR 0x2c, 0x0
00000491 fed3                 MOVR 0x2c, 0x0
00000492 fffa                 IOST 0x5
00000493 ffe9                 IOSTR 0x6
00000494 ff53                 MOVAR 0x2c
00000495 e353                 BCR 0x2c, 0x1
00000496 fed3                 MOVR 0x2c, 0x0
00000497 fff9                 IOST 0x6
00000498 e7fa                 BSR 0x5, 0x0
00000499 e379                 BCR 0x6, 0x1
0000049a de9b                 MOVIA 0x64
0000049b d4b8                 LCALL 0x347; _delay=0x347
0000049c d31d                 LCALL 0x4e2; _LedInput=0x4e2
0000049d ffef                 RET
0000049e                      _LED4ON:
0000049e ffe9                 IOSTR 0x6
0000049f e0fc                 BCR 0x3, 0x6
000004a0 ff54                 MOVAR 0x2b
000004a1 e3d4                 BCR 0x2b, 0x0
000004a2 fed4                 MOVR 0x2b, 0x0
000004a3 fff9                 IOST 0x6
000004a4 ffea                 IOSTR 0x5
000004a5 ff54                 MOVAR 0x2b
000004a6 e3d4                 BCR 0x2b, 0x0
000004a7 fed4                 MOVR 0x2b, 0x0
000004a8 fffa                 IOST 0x5
000004a9 e7f9                 BSR 0x6, 0x0
000004aa e3fa                 BCR 0x5, 0x0
000004ab de9b                 MOVIA 0x64
000004ac d4b8                 LCALL 0x347; _delay=0x347
000004ad d31d                 LCALL 0x4e2; _LedInput=0x4e2
000004ae ffef                 RET
000004af                      _LED3ON:
000004af ffe9                 IOSTR 0x6
000004b0 e0fc                 BCR 0x3, 0x6
000004b1 ff55                 MOVAR 0x2a
000004b2 e3d5                 BCR 0x2a, 0x0
000004b3 fed5                 MOVR 0x2a, 0x0
000004b4 fff9                 IOST 0x6
000004b5 ffe9                 IOSTR 0x6
000004b6 ff55                 MOVAR 0x2a
000004b7 e355                 BCR 0x2a, 0x1
000004b8 fed5                 MOVR 0x2a, 0x0
000004b9 fff9                 IOST 0x6
000004ba e779                 BSR 0x6, 0x1
000004bb e3f9                 BCR 0x6, 0x0
000004bc de9b                 MOVIA 0x64
000004bd d4b8                 LCALL 0x347; _delay=0x347
000004be d31d                 LCALL 0x4e2; _LedInput=0x4e2
000004bf ffef                 RET
000004c0                      _LED2ON:
000004c0 ffea                 IOSTR 0x5
000004c1 e0fc                 BCR 0x3, 0x6
000004c2 ff56                 MOVAR 0x29
000004c3 e3d6                 BCR 0x29, 0x0
000004c4 fed6                 MOVR 0x29, 0x0
000004c5 fffa                 IOST 0x5
000004c6 ffe9                 IOSTR 0x6
000004c7 ff56                 MOVAR 0x29
000004c8 e3d6                 BCR 0x29, 0x0
000004c9 fed6                 MOVR 0x29, 0x0
000004ca fff9                 IOST 0x6
000004cb e7fa                 BSR 0x5, 0x0
000004cc e3f9                 BCR 0x6, 0x0
000004cd de9b                 MOVIA 0x64
000004ce d4b8                 LCALL 0x347; _delay=0x347
000004cf d31d                 LCALL 0x4e2; _LedInput=0x4e2
000004d0 ffef                 RET
000004d1                      _LED1ON:
000004d1 ffe9                 IOSTR 0x6
000004d2 e0fc                 BCR 0x3, 0x6
000004d3 ff57                 MOVAR 0x28
000004d4 e3d7                 BCR 0x28, 0x0
000004d5 fed7                 MOVR 0x28, 0x0
000004d6 fff9                 IOST 0x6
000004d7 ffe9                 IOSTR 0x6
000004d8 ff57                 MOVAR 0x28
000004d9 e357                 BCR 0x28, 0x1
000004da fed7                 MOVR 0x28, 0x0
000004db fff9                 IOST 0x6
000004dc e7f9                 BSR 0x6, 0x0
000004dd e379                 BCR 0x6, 0x1
000004de de9b                 MOVIA 0x64
000004df d4b8                 LCALL 0x347; _delay=0x347
000004e0 d31d                 LCALL 0x4e2; _LedInput=0x4e2
000004e1 ffef                 RET
000004e2                      _LedInput:
000004e2 ffea                 IOSTR 0x5
000004e3 e0fc                 BCR 0x3, 0x6
000004e4 ff58                 MOVAR 0x27
000004e5 e7d8                 BSR 0x27, 0x0
000004e6 fed8                 MOVR 0x27, 0x0
000004e7 fffa                 IOST 0x5
000004e8 ffe9                 IOSTR 0x6
000004e9 ff58                 MOVAR 0x27
000004ea defc                 MOVIA 0x3
000004eb ee58                 IORAR 0x27, 0x1
000004ec fed8                 MOVR 0x27, 0x0
000004ed fff9                 IOST 0x6
000004ee e3fa                 BCR 0x5, 0x0
000004ef de03                 MOVIA 0xfc
000004f0 ef79                 ANDAR 0x6, 0x1
000004f1 ffef                 RET
000004f2                      _ledShow:
000004f2 e0fc                 BCR 0x3, 0x6
000004f3 fe8f                 MOVR 0x70, 0x0
000004f4 f2fc                 BTRSC 0x3, 0x2
000004f5 c2ff                 LGOTO 0x500; main.o:_00328_DS_=0x500
000004f6 fead                 MOVR 0x52, 0x0
000004f7 f6fc                 BTRSS 0x3, 0x2
000004f8 c2ff                 LGOTO 0x500; main.o:_00328_DS_=0x500
000004f9 f38f                 BTRSC 0x70, 0x0
000004fa c302                 LGOTO 0x4fd; main.o:_00325_DS_=0x4fd
000004fb fd2c                 CLRR 0x53
000004fc c2ff                 LGOTO 0x500; main.o:_00328_DS_=0x500
000004fd                      main.o:_00325_DS_:
000004fd e0fc                 BCR 0x3, 0x6
000004fe fe92                 MOVR 0x6d, 0x0
000004ff ff2c                 MOVAR 0x53
00000500                      main.o:_00328_DS_:
00000500 e0fc                 BCR 0x3, 0x6
00000501 fe9b                 MOVR 0x64, 0x0
00000502 f2fc                 BTRSC 0x3, 0x2
00000503 c2eb                 LGOTO 0x514; main.o:_00336_DS_=0x514
00000504 fea6                 MOVR 0x59, 0x0
00000505 f2fc                 BTRSC 0x3, 0x2
00000506 c2eb                 LGOTO 0x514; main.o:_00336_DS_=0x514
00000507 fe9b                 MOVR 0x64, 0x0
00000508 f2fc                 BTRSC 0x3, 0x2
00000509 c2eb                 LGOTO 0x514; main.o:_00336_DS_=0x514
0000050a def8                 MOVIA 0x7
0000050b fba6                 SUBAR 0x59, 0x0
0000050c f7fc                 BTRSS 0x3, 0x0
0000050d c2ee                 LGOTO 0x511; main.o:_00331_DS_=0x511
0000050e def9                 MOVIA 0x6
0000050f ff2c                 MOVAR 0x53
00000510 c2eb                 LGOTO 0x514; main.o:_00336_DS_=0x514
00000511                      main.o:_00331_DS_:
00000511 e0fc                 BCR 0x3, 0x6
00000512 fea6                 MOVR 0x59, 0x0
00000513 ff2c                 MOVAR 0x53
00000514                      main.o:_00336_DS_:
00000514 e0fc                 BCR 0x3, 0x6
00000515 fe97                 MOVR 0x68, 0x0
00000516 f2fc                 BTRSC 0x3, 0x2
00000517 c2d8                 LGOTO 0x527; main.o:_00342_DS_=0x527
00000518 fead                 MOVR 0x52, 0x0
00000519 f2fc                 BTRSC 0x3, 0x2
0000051a c2d8                 LGOTO 0x527; main.o:_00342_DS_=0x527
0000051b fea6                 MOVR 0x59, 0x0
0000051c f6fc                 BTRSS 0x3, 0x2
0000051d c2d8                 LGOTO 0x527; main.o:_00342_DS_=0x527
0000051e decd                 MOVIA 0x32
0000051f fba0                 SUBAR 0x5f, 0x0
00000520 f3fc                 BTRSC 0x3, 0x0
00000521 c2da                 LGOTO 0x525; main.o:_00339_DS_=0x525
00000522 fead                 MOVR 0x52, 0x0
00000523 ff2c                 MOVAR 0x53
00000524 c2d8                 LGOTO 0x527; main.o:_00342_DS_=0x527
00000525                      main.o:_00339_DS_:
00000525 e0fc                 BCR 0x3, 0x6
00000526 fd2c                 CLRR 0x53
00000527                      main.o:_00342_DS_:
00000527 d31d                 LCALL 0x4e2; _LedInput=0x4e2
00000528 def6                 MOVIA 0x9
00000529 e0fc                 BCR 0x3, 0x6
0000052a fbac                 SUBAR 0x53, 0x0
0000052b f3fc                 BTRSC 0x3, 0x0
0000052c c2ba                 LGOTO 0x545; main.o:_00355_DS_=0x545
0000052d defa                 MOVIA 0x5
0000052e ff75                 MOVAR 0xa
0000052f feac                 MOVR 0x53, 0x0
00000530 dacb                 ADDIA 0x34
00000531 f3fc                 BTRSC 0x3, 0x0
00000532 fa75                 INCR 0xa, 0x1
00000533 ff7d                 MOVAR 0x2
00000534                      main.o:_00396_DS_:
00000534 c2c2                 LGOTO 0x53d; main.o:_00345_DS_=0x53d
00000535 c2bb                 LGOTO 0x544; main.o:_00353_DS_=0x544
00000536 c2bc                 LGOTO 0x543; main.o:_00352_DS_=0x543
00000537 c2bd                 LGOTO 0x542; main.o:_00351_DS_=0x542
00000538 c2be                 LGOTO 0x541; main.o:_00350_DS_=0x541
00000539 c2bf                 LGOTO 0x540; main.o:_00349_DS_=0x540
0000053a c2c0                 LGOTO 0x53f; main.o:_00348_DS_=0x53f
0000053b c2c0                 LGOTO 0x53f; main.o:_00348_DS_=0x53f
0000053c c2c0                 LGOTO 0x53f; main.o:_00348_DS_=0x53f
0000053d                      main.o:_00345_DS_:
0000053d d31d                 LCALL 0x4e2; _LedInput=0x4e2
0000053e c2ba                 LGOTO 0x545; main.o:_00355_DS_=0x545
0000053f                      main.o:_00348_DS_:
0000053f d383                 LCALL 0x47c; _LED6ON=0x47c
00000540                      main.o:_00349_DS_:
00000540 d372                 LCALL 0x48d; _LED5ON=0x48d
00000541                      main.o:_00350_DS_:
00000541 d361                 LCALL 0x49e; _LED4ON=0x49e
00000542                      main.o:_00351_DS_:
00000542 d350                 LCALL 0x4af; _LED3ON=0x4af
00000543                      main.o:_00352_DS_:
00000543 d33f                 LCALL 0x4c0; _LED2ON=0x4c0
00000544                      main.o:_00353_DS_:
00000544 d32e                 LCALL 0x4d1; _LED1ON=0x4d1
00000545                      main.o:_00355_DS_:
00000545 ffef                 RET
00000546                      _initSys:
00000546 ffec                 DISI
00000547 de41                 MOVIA 0xbe
00000548 fffa                 IOST 0x5
00000549 fdff                 CLRA
0000054a fff9                 IOST 0x6
0000054b fd79                 CLRR 0x6
0000054c e0fc                 BCR 0x3, 0x6
0000054d fd7a                 CLRR 0x5
0000054e d31d                 LCALL 0x4e2; _LedInput=0x4e2
0000054f de80                 MOVIA 0x7f
00000550 fff6                 IOST 0x9
00000551 de00                 MOVIA 0xff
00000552 ff73                 MOVAR 0xc
00000553 ff74                 MOVAR 0xb
00000554 defe                 MOVIA 0x1
00000555 ff71                 MOVAR 0xe
00000556 fdff                 CLRA
00000557 fff0                 IOST 0xf
00000558 dec8                 MOVIA 0x37
00000559 ff7e                 MOVAR 0x1
0000055a defe                 MOVIA 0x1
0000055b fffc                 T0MD
0000055c fff0                 IOST 0xf
0000055d de67                 MOVIA 0x98
0000055e ff77                 MOVAR 0x8
0000055f defe                 MOVIA 0x1
00000560 fff0                 IOST 0xf
00000561 fffb                 ENI
00000562 ffef                 RET
00000563                      _powerOff:
00000563 e0fc                 BCR 0x3, 0x6
00000564 fd2d                 CLRR 0x52
00000565 fd2c                 CLRR 0x53
00000566 d3a3                 LCALL 0x45c; _pwmStop=0x45c
00000567 ffef                 RET
00000568                      _keyCtr:
00000568 e0fc                 BCR 0x3, 0x6
00000569 f8fa                 COMR 0x5, 0x0
0000056a ff59                 MOVAR 0x26
0000056b de7f                 MOVIA 0x80
0000056c ef59                 ANDAR 0x26, 0x1
0000056d fed9                 MOVR 0x26, 0x0
0000056e d3f8                 LCALL 0x407; _keyRead=0x407
0000056f e0fc                 BCR 0x3, 0x6
00000570 ff59                 MOVAR 0x26
00000571 dbfe                 XORIA 0x1
00000572 f6fc                 BTRSS 0x3, 0x2
00000573 c237                 LGOTO 0x5c8; main.o:_00309_DS_=0x5c8
00000574 fd2f                 CLRR 0x50
00000575 fd1b                 CLRR 0x64
00000576 fea6                 MOVR 0x59, 0x0
00000577 f6fc                 BTRSS 0x3, 0x2
00000578 c282                 LGOTO 0x57d; main.o:_00279_DS_=0x57d
00000579 fd23                 CLRR 0x5c
0000057a fd22                 CLRR 0x5d
0000057b d29c                 LCALL 0x563; _powerOff=0x563
0000057c c217                 LGOTO 0x5e8; main.o:_00311_DS_=0x5e8
0000057d                      main.o:_00279_DS_:
0000057d e0fc                 BCR 0x3, 0x6
0000057e fd1d                 CLRR 0x62
0000057f fa2d                 INCR 0x52, 0x1
00000580 def8                 MOVIA 0x7
00000581 fbad                 SUBAR 0x52, 0x0
00000582 f7fc                 BTRSS 0x3, 0x0
00000583 c279                 LGOTO 0x586; main.o:_00281_DS_=0x586
00000584 defe                 MOVIA 0x1
00000585 ff2d                 MOVAR 0x52
00000586                      main.o:_00281_DS_:
00000586 e0fc                 BCR 0x3, 0x6
00000587 fead                 MOVR 0x52, 0x0
00000588 dbfe                 XORIA 0x1
00000589 f6fc                 BTRSS 0x3, 0x2
0000058a c26a                 LGOTO 0x595; main.o:_00297_DS_=0x595
0000058b defe                 MOVIA 0x1
0000058c ff2c                 MOVAR 0x53
0000058d fd1b                 CLRR 0x64
0000058e deaa                 MOVIA 0x55
0000058f ffb3                 SFUN 0xc
00000590 ff1a                 MOVAR 0x65
00000591 deb2                 MOVIA 0x4d
00000592 ff27                 MOVAR 0x58
00000593 d3a0                 LCALL 0x45f; _pwmInit=0x45f
00000594 c243                 LGOTO 0x5bc; main.o:_00298_DS_=0x5bc
00000595                      main.o:_00297_DS_:
00000595 e0fc                 BCR 0x3, 0x6
00000596 fead                 MOVR 0x52, 0x0
00000597 dbfd                 XORIA 0x2
00000598 f6fc                 BTRSS 0x3, 0x2
00000599 c262                 LGOTO 0x59d; main.o:_00294_DS_=0x59d
0000059a deae                 MOVIA 0x51
0000059b ff27                 MOVAR 0x58
0000059c c243                 LGOTO 0x5bc; main.o:_00298_DS_=0x5bc
0000059d                      main.o:_00294_DS_:
0000059d e0fc                 BCR 0x3, 0x6
0000059e fead                 MOVR 0x52, 0x0
0000059f dbfc                 XORIA 0x3
000005a0 f6fc                 BTRSS 0x3, 0x2
000005a1 c25a                 LGOTO 0x5a5; main.o:_00291_DS_=0x5a5
000005a2 deaa                 MOVIA 0x55
000005a3 ff27                 MOVAR 0x58
000005a4 c243                 LGOTO 0x5bc; main.o:_00298_DS_=0x5bc
000005a5                      main.o:_00291_DS_:
000005a5 e0fc                 BCR 0x3, 0x6
000005a6 fead                 MOVR 0x52, 0x0
000005a7 dbfb                 XORIA 0x4
000005a8 f6fc                 BTRSS 0x3, 0x2
000005a9 c252                 LGOTO 0x5ad; main.o:_00288_DS_=0x5ad
000005aa dea5                 MOVIA 0x5a
000005ab ff27                 MOVAR 0x58
000005ac c243                 LGOTO 0x5bc; main.o:_00298_DS_=0x5bc
000005ad                      main.o:_00288_DS_:
000005ad e0fc                 BCR 0x3, 0x6
000005ae fead                 MOVR 0x52, 0x0
000005af dbfa                 XORIA 0x5
000005b0 f6fc                 BTRSS 0x3, 0x2
000005b1 c24a                 LGOTO 0x5b5; main.o:_00285_DS_=0x5b5
000005b2 dea2                 MOVIA 0x5d
000005b3 ff27                 MOVAR 0x58
000005b4 c243                 LGOTO 0x5bc; main.o:_00298_DS_=0x5bc
000005b5                      main.o:_00285_DS_:
000005b5 e0fc                 BCR 0x3, 0x6
000005b6 fead                 MOVR 0x52, 0x0
000005b7 dbf9                 XORIA 0x6
000005b8 f6fc                 BTRSS 0x3, 0x2
000005b9 c243                 LGOTO 0x5bc; main.o:_00298_DS_=0x5bc
000005ba de9e                 MOVIA 0x61
000005bb ff27                 MOVAR 0x58
000005bc                      main.o:_00298_DS_:
000005bc defd                 MOVIA 0x2
000005bd e0fc                 BCR 0x3, 0x6
000005be fbad                 SUBAR 0x52, 0x0
000005bf f7fc                 BTRSS 0x3, 0x0
000005c0 c23b                 LGOTO 0x5c4; main.o:_00300_DS_=0x5c4
000005c1 fea7                 MOVR 0x58, 0x0
000005c2 ffb3                 SFUN 0xc
000005c3 d3a0                 LCALL 0x45f; _pwmInit=0x45f
000005c4                      main.o:_00300_DS_:
000005c4 e0fc                 BCR 0x3, 0x6
000005c5 fead                 MOVR 0x52, 0x0
000005c6 ff2c                 MOVAR 0x53
000005c7 c217                 LGOTO 0x5e8; main.o:_00311_DS_=0x5e8
000005c8                      main.o:_00309_DS_:
000005c8 e0fc                 BCR 0x3, 0x6
000005c9 fed9                 MOVR 0x26, 0x0
000005ca dbfd                 XORIA 0x2
000005cb f6fc                 BTRSS 0x3, 0x2
000005cc c217                 LGOTO 0x5e8; main.o:_00311_DS_=0x5e8
000005cd fead                 MOVR 0x52, 0x0
000005ce f2fc                 BTRSC 0x3, 0x2
000005cf c22d                 LGOTO 0x5d2; main.o:_00304_DS_=0x5d2
000005d0 d29c                 LCALL 0x563; _powerOff=0x563
000005d1 c21a                 LGOTO 0x5e5; main.o:_00305_DS_=0x5e5
000005d2                      main.o:_00304_DS_:
000005d2 e0fc                 BCR 0x3, 0x6
000005d3 fea6                 MOVR 0x59, 0x0
000005d4 f6fc                 BTRSS 0x3, 0x2
000005d5 c225                 LGOTO 0x5da; main.o:_00302_DS_=0x5da
000005d6 fd23                 CLRR 0x5c
000005d7 fd22                 CLRR 0x5d
000005d8 d29c                 LCALL 0x563; _powerOff=0x563
000005d9 c217                 LGOTO 0x5e8; main.o:_00311_DS_=0x5e8
000005da                      main.o:_00302_DS_:
000005da e0fc                 BCR 0x3, 0x6
000005db fd1b                 CLRR 0x64
000005dc defe                 MOVIA 0x1
000005dd ff2c                 MOVAR 0x53
000005de ff2d                 MOVAR 0x52
000005df deaa                 MOVIA 0x55
000005e0 ffb3                 SFUN 0xc
000005e1 ff1a                 MOVAR 0x65
000005e2 deb2                 MOVIA 0x4d
000005e3 ff27                 MOVAR 0x58
000005e4 d3a0                 LCALL 0x45f; _pwmInit=0x45f
000005e5                      main.o:_00305_DS_:
000005e5 e0fc                 BCR 0x3, 0x6
000005e6 fead                 MOVR 0x52, 0x0
000005e7 ff2c                 MOVAR 0x53
000005e8                      main.o:_00311_DS_:
000005e8 ffef                 RET
000005e9                      ___cinit_load__:
